
/usr/scratch2/larain8/yiczhang/terapool_dram_submodule_rebase_0502_2024/mempool/software/bin/apps/baremetal/gvsoc_test_barrier:     file format elf32-littleriscv


Disassembly of section .l1_seq:

00000000 <__l1_start>:
	...

Disassembly of section .l1:

00020000 <result>:
	...

00020400 <barrier>:
	...

00020800 <partial_barrier>:
	...

00021800 <log_barrier>:
	...

00022800 <alloc_tile>:
	...

Disassembly of section .text:

80000000 <_start>:
80000000:	00003197          	auipc	gp,0x3
80000004:	80018193          	addi	gp,gp,-2048 # 80002800 <__global_pointer$>
80000008:	0040006f          	j	8000000c <_reset_vector>

8000000c <_reset_vector>:
8000000c:	00000093          	li	ra,0
80000010:	00000213          	li	tp,0
80000014:	00000293          	li	t0,0
80000018:	00000313          	li	t1,0
8000001c:	00000393          	li	t2,0
80000020:	00000413          	li	s0,0
80000024:	00000493          	li	s1,0
80000028:	00000513          	li	a0,0
8000002c:	00000593          	li	a1,0
80000030:	00000613          	li	a2,0
80000034:	00000693          	li	a3,0
80000038:	00000713          	li	a4,0
8000003c:	00000793          	li	a5,0
80000040:	00000813          	li	a6,0
80000044:	00000893          	li	a7,0
80000048:	00000913          	li	s2,0
8000004c:	00000993          	li	s3,0
80000050:	00000a13          	li	s4,0
80000054:	00000513          	li	a0,0
80000058:	00000a93          	li	s5,0
8000005c:	00000b13          	li	s6,0
80000060:	00000b93          	li	s7,0
80000064:	00000c13          	li	s8,0
80000068:	00000c93          	li	s9,0
8000006c:	00000d13          	li	s10,0
80000070:	00000d93          	li	s11,0
80000074:	00000e13          	li	t3,0
80000078:	00000e93          	li	t4,0
8000007c:	00000f13          	li	t5,0
80000080:	00000f93          	li	t6,0
80000084:	80000117          	auipc	sp,0x80000
80000088:	f7c10113          	addi	sp,sp,-132 # 0 <__seq_start>
8000008c:	f1402573          	csrr	a0,mhartid
80000090:	00255293          	srli	t0,a0,0x2
80000094:	00b29293          	slli	t0,t0,0xb
80000098:	00400313          	li	t1,4
8000009c:	fff30313          	addi	t1,t1,-1
800000a0:	00657333          	and	t1,a0,t1
800000a4:	00130313          	addi	t1,t1,1
800000a8:	00931313          	slli	t1,t1,0x9
800000ac:	ffc30313          	addi	t1,t1,-4
800000b0:	006282b3          	add	t0,t0,t1
800000b4:	00510133          	add	sp,sp,t0
800000b8:	00000293          	li	t0,0
800000bc:	00629293          	slli	t0,t0,0x6
800000c0:	00510133          	add	sp,sp,t0
800000c4:	e0410293          	addi	t0,sp,-508
800000c8:	7d129073          	csrw	0x7d1,t0
800000cc:	00051c63          	bnez	a0,800000e4 <_jump_main>
800000d0:	c0000297          	auipc	t0,0xc0000
800000d4:	f5428293          	addi	t0,t0,-172 # 40000024 <ro_cache_end_0>
800000d8:	00002317          	auipc	t1,0x2
800000dc:	f2830313          	addi	t1,t1,-216 # 80002000 <_erodata>
800000e0:	0062a023          	sw	t1,0(t0)

800000e4 <_jump_main>:
800000e4:	024000ef          	jal	ra,80000108 <main>

800000e8 <_eoc>:
800000e8:	c0000297          	auipc	t0,0xc0000
800000ec:	f1828293          	addi	t0,t0,-232 # 40000000 <eoc_reg>
800000f0:	00151313          	slli	t1,a0,0x1
800000f4:	00130313          	addi	t1,t1,1
800000f8:	0062a023          	sw	t1,0(t0)
800000fc:	20000097          	auipc	ra,0x20000
80000100:	f0408093          	addi	ra,ra,-252 # a0000000 <__rom_start>
80000104:	00008067          	ret

80000108 <main>:
80000108:	ff010113          	addi	sp,sp,-16
8000010c:	00112623          	sw	ra,12(sp)
80000110:	00812423          	sw	s0,8(sp)
80000114:	00912223          	sw	s1,4(sp)
80000118:	f1402473          	csrr	s0,mhartid
8000011c:	00040513          	mv	a0,s0
80000120:	5d4010ef          	jal	ra,800016f4 <mempool_barrier_init>
80000124:	80020497          	auipc	s1,0x80020
80000128:	edc48493          	addi	s1,s1,-292 # 20000 <__seq_end>
8000012c:	00241793          	slli	a5,s0,0x2
80000130:	10000513          	li	a0,256
80000134:	00f4e7a3          	p.sw	a5,a5(s1)
80000138:	630010ef          	jal	ra,80001768 <mempool_barrier>
8000013c:	02041063          	bnez	s0,8000015c <main+0x54>
80000140:	0004a503          	lw	a0,0(s1)
80000144:	00a03533          	snez	a0,a0
80000148:	00c12083          	lw	ra,12(sp)
8000014c:	00812403          	lw	s0,8(sp)
80000150:	00412483          	lw	s1,4(sp)
80000154:	01010113          	addi	sp,sp,16
80000158:	00008067          	ret
8000015c:	00000513          	li	a0,0
80000160:	fe9ff06f          	j	80000148 <main+0x40>

80000164 <alloc_init>:
80000164:	00758793          	addi	a5,a1,7
80000168:	ff87f793          	andi	a5,a5,-8
8000016c:	00c585b3          	add	a1,a1,a2
80000170:	40f585b3          	sub	a1,a1,a5
80000174:	ff85f593          	andi	a1,a1,-8
80000178:	00b7a023          	sw	a1,0(a5)
8000017c:	0007a223          	sw	zero,4(a5)
80000180:	00f52023          	sw	a5,0(a0)
80000184:	00008067          	ret

80000188 <domain_malloc>:
80000188:	ff010113          	addi	sp,sp,-16
8000018c:	00b58593          	addi	a1,a1,11
80000190:	00112623          	sw	ra,12(sp)
80000194:	ff85f593          	andi	a1,a1,-8
80000198:	010007b7          	lui	a5,0x1000
8000019c:	0af5fe63          	bleu	a5,a1,80000258 <domain_malloc+0xd0>
800001a0:	00052603          	lw	a2,0(a0)
800001a4:	02060663          	beqz	a2,800001d0 <domain_malloc+0x48>
800001a8:	00062703          	lw	a4,0(a2)
800001ac:	00462783          	lw	a5,4(a2)
800001b0:	06b77e63          	bleu	a1,a4,8000022c <domain_malloc+0xa4>
800001b4:	00078e63          	beqz	a5,800001d0 <domain_malloc+0x48>
800001b8:	0007a703          	lw	a4,0(a5) # 1000000 <__heap_end+0xf00000>
800001bc:	0047a683          	lw	a3,4(a5)
800001c0:	02b77663          	bleu	a1,a4,800001ec <domain_malloc+0x64>
800001c4:	00078613          	mv	a2,a5
800001c8:	00068793          	mv	a5,a3
800001cc:	fe0796e3          	bnez	a5,800001b8 <domain_malloc+0x30>
800001d0:	00001517          	auipc	a0,0x1
800001d4:	62c50513          	addi	a0,a0,1580 # 800017fc <_etext+0x3c>
800001d8:	7ad000ef          	jal	ra,80001184 <printf_>
800001dc:	00c12083          	lw	ra,12(sp)
800001e0:	00000513          	li	a0,0
800001e4:	01010113          	addi	sp,sp,16
800001e8:	00008067          	ret
800001ec:	02e58c63          	beq	a1,a4,80000224 <domain_malloc+0x9c>
800001f0:	00b78533          	add	a0,a5,a1
800001f4:	40b70733          	sub	a4,a4,a1
800001f8:	00e52023          	sw	a4,0(a0)
800001fc:	00d52223          	sw	a3,4(a0)
80000200:	00a62223          	sw	a0,4(a2)
80000204:	00859593          	slli	a1,a1,0x8
80000208:	0ff7f713          	andi	a4,a5,255
8000020c:	00e5e5b3          	or	a1,a1,a4
80000210:	00078513          	mv	a0,a5
80000214:	00b5222b          	p.sw	a1,4(a0!)
80000218:	00c12083          	lw	ra,12(sp)
8000021c:	01010113          	addi	sp,sp,16
80000220:	00008067          	ret
80000224:	00d62223          	sw	a3,4(a2)
80000228:	fddff06f          	j	80000204 <domain_malloc+0x7c>
8000022c:	02e58063          	beq	a1,a4,8000024c <domain_malloc+0xc4>
80000230:	00b606b3          	add	a3,a2,a1
80000234:	40b70733          	sub	a4,a4,a1
80000238:	00f6a223          	sw	a5,4(a3)
8000023c:	00e6a023          	sw	a4,0(a3)
80000240:	00d52023          	sw	a3,0(a0)
80000244:	00060793          	mv	a5,a2
80000248:	fbdff06f          	j	80000204 <domain_malloc+0x7c>
8000024c:	00f52023          	sw	a5,0(a0)
80000250:	00060793          	mv	a5,a2
80000254:	fb1ff06f          	j	80000204 <domain_malloc+0x7c>
80000258:	00001517          	auipc	a0,0x1
8000025c:	56850513          	addi	a0,a0,1384 # 800017c0 <_etext>
80000260:	725000ef          	jal	ra,80001184 <printf_>
80000264:	00000513          	li	a0,0
80000268:	fb1ff06f          	j	80000218 <domain_malloc+0x90>

8000026c <simple_malloc>:
8000026c:	ff010113          	addi	sp,sp,-16
80000270:	00b50593          	addi	a1,a0,11
80000274:	00112623          	sw	ra,12(sp)
80000278:	ff85f593          	andi	a1,a1,-8
8000027c:	010007b7          	lui	a5,0x1000
80000280:	0cf5f463          	bleu	a5,a1,80000348 <simple_malloc+0xdc>
80000284:	00002797          	auipc	a5,0x2
80000288:	d7c78793          	addi	a5,a5,-644 # 80002000 <_erodata>
8000028c:	0007a683          	lw	a3,0(a5)
80000290:	02068663          	beqz	a3,800002bc <simple_malloc+0x50>
80000294:	0006a783          	lw	a5,0(a3)
80000298:	0046a503          	lw	a0,4(a3)
8000029c:	06b7fc63          	bleu	a1,a5,80000314 <simple_malloc+0xa8>
800002a0:	00050e63          	beqz	a0,800002bc <simple_malloc+0x50>
800002a4:	00052783          	lw	a5,0(a0)
800002a8:	00452703          	lw	a4,4(a0)
800002ac:	02b7f663          	bleu	a1,a5,800002d8 <simple_malloc+0x6c>
800002b0:	00050693          	mv	a3,a0
800002b4:	00070513          	mv	a0,a4
800002b8:	fe0516e3          	bnez	a0,800002a4 <simple_malloc+0x38>
800002bc:	00001517          	auipc	a0,0x1
800002c0:	54050513          	addi	a0,a0,1344 # 800017fc <_etext+0x3c>
800002c4:	6c1000ef          	jal	ra,80001184 <printf_>
800002c8:	00c12083          	lw	ra,12(sp)
800002cc:	00000513          	li	a0,0
800002d0:	01010113          	addi	sp,sp,16
800002d4:	00008067          	ret
800002d8:	02f58a63          	beq	a1,a5,8000030c <simple_malloc+0xa0>
800002dc:	00b50633          	add	a2,a0,a1
800002e0:	40b787b3          	sub	a5,a5,a1
800002e4:	00f62023          	sw	a5,0(a2)
800002e8:	00e62223          	sw	a4,4(a2)
800002ec:	00c6a223          	sw	a2,4(a3)
800002f0:	0ff57793          	andi	a5,a0,255
800002f4:	00859593          	slli	a1,a1,0x8
800002f8:	00f5e5b3          	or	a1,a1,a5
800002fc:	00b5222b          	p.sw	a1,4(a0!)
80000300:	00c12083          	lw	ra,12(sp)
80000304:	01010113          	addi	sp,sp,16
80000308:	00008067          	ret
8000030c:	00e6a223          	sw	a4,4(a3)
80000310:	fe1ff06f          	j	800002f0 <simple_malloc+0x84>
80000314:	02f58263          	beq	a1,a5,80000338 <simple_malloc+0xcc>
80000318:	00b68733          	add	a4,a3,a1
8000031c:	40b787b3          	sub	a5,a5,a1
80000320:	00f72023          	sw	a5,0(a4)
80000324:	00a72223          	sw	a0,4(a4)
80000328:	00002797          	auipc	a5,0x2
8000032c:	cce7ac23          	sw	a4,-808(a5) # 80002000 <_erodata>
80000330:	00068513          	mv	a0,a3
80000334:	fbdff06f          	j	800002f0 <simple_malloc+0x84>
80000338:	00002797          	auipc	a5,0x2
8000033c:	cca7a423          	sw	a0,-824(a5) # 80002000 <_erodata>
80000340:	00068513          	mv	a0,a3
80000344:	fadff06f          	j	800002f0 <simple_malloc+0x84>
80000348:	00001517          	auipc	a0,0x1
8000034c:	47850513          	addi	a0,a0,1144 # 800017c0 <_etext>
80000350:	635000ef          	jal	ra,80001184 <printf_>
80000354:	00000513          	li	a0,0
80000358:	fa9ff06f          	j	80000300 <simple_malloc+0x94>

8000035c <domain_free>:
8000035c:	ffc5a603          	lw	a2,-4(a1)
80000360:	ffc58693          	addi	a3,a1,-4
80000364:	0ff6f713          	andi	a4,a3,255
80000368:	0ff67793          	andi	a5,a2,255
8000036c:	00f70a63          	beq	a4,a5,80000380 <domain_free+0x24>
80000370:	00068593          	mv	a1,a3
80000374:	00001517          	auipc	a0,0x1
80000378:	4bc50513          	addi	a0,a0,1212 # 80001830 <_etext+0x70>
8000037c:	6090006f          	j	80001184 <printf_>
80000380:	00052703          	lw	a4,0(a0)
80000384:	06070c63          	beqz	a4,800003fc <domain_free+0xa0>
80000388:	00d76863          	bltu	a4,a3,80000398 <domain_free+0x3c>
8000038c:	0780006f          	j	80000404 <domain_free+0xa8>
80000390:	00d7f863          	bleu	a3,a5,800003a0 <domain_free+0x44>
80000394:	00078713          	mv	a4,a5
80000398:	00472783          	lw	a5,4(a4)
8000039c:	fe079ae3          	bnez	a5,80000390 <domain_free+0x34>
800003a0:	00865613          	srli	a2,a2,0x8
800003a4:	00c68833          	add	a6,a3,a2
800003a8:	02f80e63          	beq	a6,a5,800003e4 <domain_free+0x88>
800003ac:	fec5ae23          	sw	a2,-4(a1)
800003b0:	00f5a023          	sw	a5,0(a1)
800003b4:	02070463          	beqz	a4,800003dc <domain_free+0x80>
800003b8:	00072583          	lw	a1,0(a4)
800003bc:	00b70533          	add	a0,a4,a1
800003c0:	00a68663          	beq	a3,a0,800003cc <domain_free+0x70>
800003c4:	00d72223          	sw	a3,4(a4)
800003c8:	00008067          	ret
800003cc:	00c58633          	add	a2,a1,a2
800003d0:	00c72023          	sw	a2,0(a4)
800003d4:	00f72223          	sw	a5,4(a4)
800003d8:	00008067          	ret
800003dc:	00d52023          	sw	a3,0(a0)
800003e0:	00008067          	ret
800003e4:	0007a803          	lw	a6,0(a5)
800003e8:	0047a783          	lw	a5,4(a5)
800003ec:	01060633          	add	a2,a2,a6
800003f0:	fec5ae23          	sw	a2,-4(a1)
800003f4:	00f5a023          	sw	a5,0(a1)
800003f8:	fbdff06f          	j	800003b4 <domain_free+0x58>
800003fc:	00000793          	li	a5,0
80000400:	fa1ff06f          	j	800003a0 <domain_free+0x44>
80000404:	00070793          	mv	a5,a4
80000408:	00000713          	li	a4,0
8000040c:	f95ff06f          	j	800003a0 <domain_free+0x44>

80000410 <simple_free>:
80000410:	ffc52683          	lw	a3,-4(a0)
80000414:	ffc50593          	addi	a1,a0,-4
80000418:	0ff5f793          	andi	a5,a1,255
8000041c:	0ff6f713          	andi	a4,a3,255
80000420:	00f70863          	beq	a4,a5,80000430 <simple_free+0x20>
80000424:	00001517          	auipc	a0,0x1
80000428:	40c50513          	addi	a0,a0,1036 # 80001830 <_etext+0x70>
8000042c:	5590006f          	j	80001184 <printf_>
80000430:	00002797          	auipc	a5,0x2
80000434:	bd078793          	addi	a5,a5,-1072 # 80002000 <_erodata>
80000438:	0007a703          	lw	a4,0(a5)
8000043c:	06070e63          	beqz	a4,800004b8 <simple_free+0xa8>
80000440:	00b76863          	bltu	a4,a1,80000450 <simple_free+0x40>
80000444:	07c0006f          	j	800004c0 <simple_free+0xb0>
80000448:	00b7f863          	bleu	a1,a5,80000458 <simple_free+0x48>
8000044c:	00078713          	mv	a4,a5
80000450:	00472783          	lw	a5,4(a4)
80000454:	fe079ae3          	bnez	a5,80000448 <simple_free+0x38>
80000458:	0086d693          	srli	a3,a3,0x8
8000045c:	00d58633          	add	a2,a1,a3
80000460:	04f60063          	beq	a2,a5,800004a0 <simple_free+0x90>
80000464:	fed52e23          	sw	a3,-4(a0)
80000468:	00f52023          	sw	a5,0(a0)
8000046c:	02070463          	beqz	a4,80000494 <simple_free+0x84>
80000470:	00072603          	lw	a2,0(a4)
80000474:	00c70533          	add	a0,a4,a2
80000478:	00a58663          	beq	a1,a0,80000484 <simple_free+0x74>
8000047c:	00b72223          	sw	a1,4(a4)
80000480:	00008067          	ret
80000484:	00d606b3          	add	a3,a2,a3
80000488:	00d72023          	sw	a3,0(a4)
8000048c:	00f72223          	sw	a5,4(a4)
80000490:	00008067          	ret
80000494:	00002797          	auipc	a5,0x2
80000498:	b6b7a623          	sw	a1,-1172(a5) # 80002000 <_erodata>
8000049c:	00008067          	ret
800004a0:	0007a603          	lw	a2,0(a5)
800004a4:	0047a783          	lw	a5,4(a5)
800004a8:	00c686b3          	add	a3,a3,a2
800004ac:	fed52e23          	sw	a3,-4(a0)
800004b0:	00f52023          	sw	a5,0(a0)
800004b4:	fb9ff06f          	j	8000046c <simple_free+0x5c>
800004b8:	00000793          	li	a5,0
800004bc:	f9dff06f          	j	80000458 <simple_free+0x48>
800004c0:	00070793          	mv	a5,a4
800004c4:	00000713          	li	a4,0
800004c8:	f91ff06f          	j	80000458 <simple_free+0x48>

800004cc <alloc_dump>:
800004cc:	ff010113          	addi	sp,sp,-16
800004d0:	00812423          	sw	s0,8(sp)
800004d4:	00052403          	lw	s0,0(a0)
800004d8:	00001517          	auipc	a0,0x1
800004dc:	37050513          	addi	a0,a0,880 # 80001848 <_etext+0x88>
800004e0:	00112623          	sw	ra,12(sp)
800004e4:	00912223          	sw	s1,4(sp)
800004e8:	49d000ef          	jal	ra,80001184 <printf_>
800004ec:	04040663          	beqz	s0,80000538 <alloc_dump+0x6c>
800004f0:	00001497          	auipc	s1,0x1
800004f4:	37048493          	addi	s1,s1,880 # 80001860 <_etext+0xa0>
800004f8:	00c0006f          	j	80000504 <alloc_dump+0x38>
800004fc:	00078413          	mv	s0,a5
80000500:	02078c63          	beqz	a5,80000538 <alloc_dump+0x6c>
80000504:	00042603          	lw	a2,0(s0)
80000508:	00040593          	mv	a1,s0
8000050c:	00048513          	mv	a0,s1
80000510:	475000ef          	jal	ra,80001184 <printf_>
80000514:	00442783          	lw	a5,4(s0)
80000518:	fe8792e3          	bne	a5,s0,800004fc <alloc_dump+0x30>
8000051c:	00812403          	lw	s0,8(sp)
80000520:	00c12083          	lw	ra,12(sp)
80000524:	00412483          	lw	s1,4(sp)
80000528:	00001517          	auipc	a0,0x1
8000052c:	35c50513          	addi	a0,a0,860 # 80001884 <_etext+0xc4>
80000530:	01010113          	addi	sp,sp,16
80000534:	4510006f          	j	80001184 <printf_>
80000538:	00c12083          	lw	ra,12(sp)
8000053c:	00812403          	lw	s0,8(sp)
80000540:	00412483          	lw	s1,4(sp)
80000544:	01010113          	addi	sp,sp,16
80000548:	00008067          	ret

8000054c <get_alloc_l1>:
8000054c:	00002517          	auipc	a0,0x2
80000550:	ab450513          	addi	a0,a0,-1356 # 80002000 <_erodata>
80000554:	00008067          	ret

80000558 <get_alloc_tile>:
80000558:	80022797          	auipc	a5,0x80022
8000055c:	2a878793          	addi	a5,a5,680 # 22800 <alloc_tile>
80000560:	00251513          	slli	a0,a0,0x2
80000564:	00a78533          	add	a0,a5,a0
80000568:	00008067          	ret

8000056c <_out_buffer>:
8000056c:	00d67463          	bleu	a3,a2,80000574 <_out_buffer+0x8>
80000570:	00a5c623          	p.sb	a0,a2(a1)
80000574:	00008067          	ret

80000578 <_out_null>:
80000578:	00008067          	ret

8000057c <_out_fct>:
8000057c:	00050863          	beqz	a0,8000058c <_out_fct+0x10>
80000580:	0005a303          	lw	t1,0(a1)
80000584:	0045a583          	lw	a1,4(a1)
80000588:	00030067          	jr	t1
8000058c:	00008067          	ret

80000590 <_ntoa_long>:
80000590:	fb010113          	addi	sp,sp,-80
80000594:	04812423          	sw	s0,72(sp)
80000598:	05412403          	lw	s0,84(sp)
8000059c:	04912223          	sw	s1,68(sp)
800005a0:	05212023          	sw	s2,64(sp)
800005a4:	03312e23          	sw	s3,60(sp)
800005a8:	03412c23          	sw	s4,56(sp)
800005ac:	03512a23          	sw	s5,52(sp)
800005b0:	04112623          	sw	ra,76(sp)
800005b4:	03612823          	sw	s6,48(sp)
800005b8:	03712623          	sw	s7,44(sp)
800005bc:	03812423          	sw	s8,40(sp)
800005c0:	00050493          	mv	s1,a0
800005c4:	00058913          	mv	s2,a1
800005c8:	00060a93          	mv	s5,a2
800005cc:	00068993          	mv	s3,a3
800005d0:	05012a03          	lw	s4,80(sp)
800005d4:	40047f93          	andi	t6,s0,1024
800005d8:	1a071663          	bnez	a4,80000784 <_ntoa_long+0x1f4>
800005dc:	fef47f13          	andi	t5,s0,-17
800005e0:	1a0f9e63          	bnez	t6,8000079c <_ntoa_long+0x20c>
800005e4:	020f7693          	andi	a3,t5,32
800005e8:	00000293          	li	t0,0
800005ec:	1a068463          	beqz	a3,80000794 <_ntoa_long+0x204>
800005f0:	04100513          	li	a0,65
800005f4:	00010613          	mv	a2,sp
800005f8:	00100e13          	li	t3,1
800005fc:	02010393          	addi	t2,sp,32
80000600:	00900e93          	li	t4,9
80000604:	ff650513          	addi	a0,a0,-10
80000608:	40ce0e33          	sub	t3,t3,a2
8000060c:	01c0006f          	j	80000628 <_ntoa_long+0x98>
80000610:	03075733          	divu	a4,a4,a6
80000614:	0ff37693          	andi	a3,t1,255
80000618:	00ce0433          	add	s0,t3,a2
8000061c:	00d600ab          	p.sb	a3,1(a2!)
80000620:	02070863          	beqz	a4,80000650 <_ntoa_long+0xc0>
80000624:	28c38663          	beq	t2,a2,800008b0 <_ntoa_long+0x320>
80000628:	030775b3          	remu	a1,a4,a6
8000062c:	0ff5f693          	andi	a3,a1,255
80000630:	03068313          	addi	t1,a3,48
80000634:	00a686b3          	add	a3,a3,a0
80000638:	fcbefce3          	bleu	a1,t4,80000610 <_ntoa_long+0x80>
8000063c:	03075733          	divu	a4,a4,a6
80000640:	0ff6f693          	andi	a3,a3,255
80000644:	00ce0433          	add	s0,t3,a2
80000648:	00d600ab          	p.sb	a3,1(a2!)
8000064c:	fc071ce3          	bnez	a4,80000624 <_ntoa_long+0x94>
80000650:	002f7c13          	andi	s8,t5,2
80000654:	1e0c1c63          	bnez	s8,8000084c <_ntoa_long+0x2bc>
80000658:	001f7c13          	andi	s8,t5,1
8000065c:	160a0e63          	beqz	s4,800007d8 <_ntoa_long+0x248>
80000660:	280c0463          	beqz	s8,800008e8 <_ntoa_long+0x358>
80000664:	2a079863          	bnez	a5,80000914 <_ntoa_long+0x384>
80000668:	00cf7713          	andi	a4,t5,12
8000066c:	2a071463          	bnez	a4,80000914 <_ntoa_long+0x384>
80000670:	19147e63          	bleu	a7,s0,8000080c <_ntoa_long+0x27c>
80000674:	02000713          	li	a4,32
80000678:	16e41663          	bne	s0,a4,800007e4 <_ntoa_long+0x254>
8000067c:	1d447663          	bleu	s4,s0,80000848 <_ntoa_long+0x2b8>
80000680:	00000c13          	li	s8,0
80000684:	1e028063          	beqz	t0,80000864 <_ntoa_long+0x2d4>
80000688:	000f9863          	bnez	t6,80000698 <_ntoa_long+0x108>
8000068c:	24040263          	beqz	s0,800008d0 <_ntoa_long+0x340>
80000690:	28888663          	beq	a7,s0,8000091c <_ntoa_long+0x38c>
80000694:	288a0463          	beq	s4,s0,8000091c <_ntoa_long+0x38c>
80000698:	01000713          	li	a4,16
8000069c:	2ae80663          	beq	a6,a4,80000948 <_ntoa_long+0x3b8>
800006a0:	00200713          	li	a4,2
800006a4:	1ae80c63          	beq	a6,a4,8000085c <_ntoa_long+0x2cc>
800006a8:	01f00713          	li	a4,31
800006ac:	1a876c63          	bltu	a4,s0,80000864 <_ntoa_long+0x2d4>
800006b0:	02010693          	addi	a3,sp,32
800006b4:	00868733          	add	a4,a3,s0
800006b8:	03000693          	li	a3,48
800006bc:	fed70023          	sb	a3,-32(a4)
800006c0:	00140413          	addi	s0,s0,1
800006c4:	01f00713          	li	a4,31
800006c8:	18876e63          	bltu	a4,s0,80000864 <_ntoa_long+0x2d4>
800006cc:	0e078263          	beqz	a5,800007b0 <_ntoa_long+0x220>
800006d0:	02010713          	addi	a4,sp,32
800006d4:	008707b3          	add	a5,a4,s0
800006d8:	02d00713          	li	a4,45
800006dc:	fee78023          	sb	a4,-32(a5)
800006e0:	00140413          	addi	s0,s0,1
800006e4:	003f7f13          	andi	t5,t5,3
800006e8:	180f0263          	beqz	t5,8000086c <_ntoa_long+0x2dc>
800006ec:	000a8b13          	mv	s6,s5
800006f0:	02010793          	addi	a5,sp,32
800006f4:	00878bb3          	add	s7,a5,s0
800006f8:	fdfb8b93          	addi	s7,s7,-33
800006fc:	01640433          	add	s0,s0,s6
80000700:	fffbc50b          	p.lbu	a0,-1(s7!)
80000704:	001b0793          	addi	a5,s6,1
80000708:	000b0613          	mv	a2,s6
8000070c:	00098693          	mv	a3,s3
80000710:	00078b13          	mv	s6,a5
80000714:	00090593          	mv	a1,s2
80000718:	000480e7          	jalr	s1
8000071c:	fe8b12e3          	bne	s6,s0,80000700 <_ntoa_long+0x170>
80000720:	020c0863          	beqz	s8,80000750 <_ntoa_long+0x1c0>
80000724:	415407b3          	sub	a5,s0,s5
80000728:	0347f463          	bleu	s4,a5,80000750 <_ntoa_long+0x1c0>
8000072c:	00140793          	addi	a5,s0,1
80000730:	00040613          	mv	a2,s0
80000734:	00098693          	mv	a3,s3
80000738:	00090593          	mv	a1,s2
8000073c:	02000513          	li	a0,32
80000740:	00078413          	mv	s0,a5
80000744:	000480e7          	jalr	s1
80000748:	415407b3          	sub	a5,s0,s5
8000074c:	ff47e0e3          	bltu	a5,s4,8000072c <_ntoa_long+0x19c>
80000750:	00040513          	mv	a0,s0
80000754:	04c12083          	lw	ra,76(sp)
80000758:	04812403          	lw	s0,72(sp)
8000075c:	04412483          	lw	s1,68(sp)
80000760:	04012903          	lw	s2,64(sp)
80000764:	03c12983          	lw	s3,60(sp)
80000768:	03812a03          	lw	s4,56(sp)
8000076c:	03412a83          	lw	s5,52(sp)
80000770:	03012b03          	lw	s6,48(sp)
80000774:	02c12b83          	lw	s7,44(sp)
80000778:	02812c03          	lw	s8,40(sp)
8000077c:	05010113          	addi	sp,sp,80
80000780:	00008067          	ret
80000784:	00040f13          	mv	t5,s0
80000788:	020f7693          	andi	a3,t5,32
8000078c:	01047293          	andi	t0,s0,16
80000790:	e60690e3          	bnez	a3,800005f0 <_ntoa_long+0x60>
80000794:	06100513          	li	a0,97
80000798:	e5dff06f          	j	800005f4 <_ntoa_long+0x64>
8000079c:	00247413          	andi	s0,s0,2
800007a0:	14040e63          	beqz	s0,800008fc <_ntoa_long+0x36c>
800007a4:	00040c13          	mv	s8,s0
800007a8:	00000413          	li	s0,0
800007ac:	f20792e3          	bnez	a5,800006d0 <_ntoa_long+0x140>
800007b0:	004f7793          	andi	a5,t5,4
800007b4:	10079263          	bnez	a5,800008b8 <_ntoa_long+0x328>
800007b8:	008f7793          	andi	a5,t5,8
800007bc:	0a078463          	beqz	a5,80000864 <_ntoa_long+0x2d4>
800007c0:	02010713          	addi	a4,sp,32
800007c4:	008707b3          	add	a5,a4,s0
800007c8:	02000713          	li	a4,32
800007cc:	fee78023          	sb	a4,-32(a5)
800007d0:	00140413          	addi	s0,s0,1
800007d4:	f11ff06f          	j	800006e4 <_ntoa_long+0x154>
800007d8:	03147863          	bleu	a7,s0,80000808 <_ntoa_long+0x278>
800007dc:	02000713          	li	a4,32
800007e0:	02e40463          	beq	s0,a4,80000808 <_ntoa_long+0x278>
800007e4:	00010693          	mv	a3,sp
800007e8:	00868733          	add	a4,a3,s0
800007ec:	02000613          	li	a2,32
800007f0:	03000693          	li	a3,48
800007f4:	0080006f          	j	800007fc <_ntoa_long+0x26c>
800007f8:	00c40863          	beq	s0,a2,80000808 <_ntoa_long+0x278>
800007fc:	00140413          	addi	s0,s0,1
80000800:	00d700ab          	p.sb	a3,1(a4!)
80000804:	ff146ae3          	bltu	s0,a7,800007f8 <_ntoa_long+0x268>
80000808:	040c0263          	beqz	s8,8000084c <_ntoa_long+0x2bc>
8000080c:	03447e63          	bleu	s4,s0,80000848 <_ntoa_long+0x2b8>
80000810:	02000713          	li	a4,32
80000814:	e6e406e3          	beq	s0,a4,80000680 <_ntoa_long+0xf0>
80000818:	00010613          	mv	a2,sp
8000081c:	00100693          	li	a3,1
80000820:	00860733          	add	a4,a2,s0
80000824:	014605b3          	add	a1,a2,s4
80000828:	40c686b3          	sub	a3,a3,a2
8000082c:	02010513          	addi	a0,sp,32
80000830:	03000613          	li	a2,48
80000834:	0080006f          	j	8000083c <_ntoa_long+0x2ac>
80000838:	e4e504e3          	beq	a0,a4,80000680 <_ntoa_long+0xf0>
8000083c:	00e68433          	add	s0,a3,a4
80000840:	00c700ab          	p.sb	a2,1(a4!)
80000844:	feb71ae3          	bne	a4,a1,80000838 <_ntoa_long+0x2a8>
80000848:	00000c13          	li	s8,0
8000084c:	e2029ee3          	bnez	t0,80000688 <_ntoa_long+0xf8>
80000850:	01f00713          	li	a4,31
80000854:	e6877ce3          	bleu	s0,a4,800006cc <_ntoa_long+0x13c>
80000858:	00c0006f          	j	80000864 <_ntoa_long+0x2d4>
8000085c:	01f00713          	li	a4,31
80000860:	14877063          	bleu	s0,a4,800009a0 <_ntoa_long+0x410>
80000864:	003f7f13          	andi	t5,t5,3
80000868:	020f1e63          	bnez	t5,800008a4 <_ntoa_long+0x314>
8000086c:	03447c63          	bleu	s4,s0,800008a4 <_ntoa_long+0x314>
80000870:	014a8bb3          	add	s7,s5,s4
80000874:	408b8bb3          	sub	s7,s7,s0
80000878:	000a8613          	mv	a2,s5
8000087c:	00098693          	mv	a3,s3
80000880:	00090593          	mv	a1,s2
80000884:	02000513          	li	a0,32
80000888:	00160b13          	addi	s6,a2,1
8000088c:	000480e7          	jalr	s1
80000890:	000b0613          	mv	a2,s6
80000894:	ff7b14e3          	bne	s6,s7,8000087c <_ntoa_long+0x2ec>
80000898:	e4041ce3          	bnez	s0,800006f0 <_ntoa_long+0x160>
8000089c:	000b0413          	mv	s0,s6
800008a0:	e81ff06f          	j	80000720 <_ntoa_long+0x190>
800008a4:	000a8b13          	mv	s6,s5
800008a8:	e40414e3          	bnez	s0,800006f0 <_ntoa_long+0x160>
800008ac:	ff1ff06f          	j	8000089c <_ntoa_long+0x30c>
800008b0:	02000413          	li	s0,32
800008b4:	d9dff06f          	j	80000650 <_ntoa_long+0xc0>
800008b8:	02010693          	addi	a3,sp,32
800008bc:	008687b3          	add	a5,a3,s0
800008c0:	02b00713          	li	a4,43
800008c4:	fee78023          	sb	a4,-32(a5)
800008c8:	00140413          	addi	s0,s0,1
800008cc:	e19ff06f          	j	800006e4 <_ntoa_long+0x154>
800008d0:	01000713          	li	a4,16
800008d4:	0ee80263          	beq	a6,a4,800009b8 <_ntoa_long+0x428>
800008d8:	00200713          	li	a4,2
800008dc:	02e80463          	beq	a6,a4,80000904 <_ntoa_long+0x374>
800008e0:	00000413          	li	s0,0
800008e4:	dcdff06f          	j	800006b0 <_ntoa_long+0x120>
800008e8:	f71472e3          	bleu	a7,s0,8000084c <_ntoa_long+0x2bc>
800008ec:	02000713          	li	a4,32
800008f0:	eee41ae3          	bne	s0,a4,800007e4 <_ntoa_long+0x254>
800008f4:	d8029ae3          	bnez	t0,80000688 <_ntoa_long+0xf8>
800008f8:	f59ff06f          	j	80000850 <_ntoa_long+0x2c0>
800008fc:	00000293          	li	t0,0
80000900:	d59ff06f          	j	80000658 <_ntoa_long+0xc8>
80000904:	06200713          	li	a4,98
80000908:	00e10023          	sb	a4,0(sp)
8000090c:	00100413          	li	s0,1
80000910:	da1ff06f          	j	800006b0 <_ntoa_long+0x120>
80000914:	fffa0a13          	addi	s4,s4,-1
80000918:	d59ff06f          	j	80000670 <_ntoa_long+0xe0>
8000091c:	fff40713          	addi	a4,s0,-1
80000920:	06071863          	bnez	a4,80000990 <_ntoa_long+0x400>
80000924:	01000713          	li	a4,16
80000928:	0ae80c63          	beq	a6,a4,800009e0 <_ntoa_long+0x450>
8000092c:	00200713          	li	a4,2
80000930:	fce80ae3          	beq	a6,a4,80000904 <_ntoa_long+0x374>
80000934:	03000713          	li	a4,48
80000938:	00e10023          	sb	a4,0(sp)
8000093c:	00100413          	li	s0,1
80000940:	d8dff06f          	j	800006cc <_ntoa_long+0x13c>
80000944:	ffe40413          	addi	s0,s0,-2
80000948:	020f7713          	andi	a4,t5,32
8000094c:	02070263          	beqz	a4,80000970 <_ntoa_long+0x3e0>
80000950:	01f00713          	li	a4,31
80000954:	f08768e3          	bltu	a4,s0,80000864 <_ntoa_long+0x2d4>
80000958:	02010693          	addi	a3,sp,32
8000095c:	00868733          	add	a4,a3,s0
80000960:	05800693          	li	a3,88
80000964:	fed70023          	sb	a3,-32(a4)
80000968:	00140413          	addi	s0,s0,1
8000096c:	d3dff06f          	j	800006a8 <_ntoa_long+0x118>
80000970:	01f00713          	li	a4,31
80000974:	d68768e3          	bltu	a4,s0,800006e4 <_ntoa_long+0x154>
80000978:	02010693          	addi	a3,sp,32
8000097c:	00868733          	add	a4,a3,s0
80000980:	07800693          	li	a3,120
80000984:	fed70023          	sb	a3,-32(a4)
80000988:	00140413          	addi	s0,s0,1
8000098c:	d1dff06f          	j	800006a8 <_ntoa_long+0x118>
80000990:	01000693          	li	a3,16
80000994:	fad808e3          	beq	a6,a3,80000944 <_ntoa_long+0x3b4>
80000998:	00070413          	mv	s0,a4
8000099c:	d05ff06f          	j	800006a0 <_ntoa_long+0x110>
800009a0:	02010693          	addi	a3,sp,32
800009a4:	00868733          	add	a4,a3,s0
800009a8:	06200693          	li	a3,98
800009ac:	fed70023          	sb	a3,-32(a4)
800009b0:	00140413          	addi	s0,s0,1
800009b4:	cf5ff06f          	j	800006a8 <_ntoa_long+0x118>
800009b8:	020f7713          	andi	a4,t5,32
800009bc:	00070a63          	beqz	a4,800009d0 <_ntoa_long+0x440>
800009c0:	05800713          	li	a4,88
800009c4:	00e10023          	sb	a4,0(sp)
800009c8:	00100413          	li	s0,1
800009cc:	ce5ff06f          	j	800006b0 <_ntoa_long+0x120>
800009d0:	07800713          	li	a4,120
800009d4:	00e10023          	sb	a4,0(sp)
800009d8:	00100413          	li	s0,1
800009dc:	cd5ff06f          	j	800006b0 <_ntoa_long+0x120>
800009e0:	020f7713          	andi	a4,t5,32
800009e4:	fe0706e3          	beqz	a4,800009d0 <_ntoa_long+0x440>
800009e8:	00000413          	li	s0,0
800009ec:	f6dff06f          	j	80000958 <_ntoa_long+0x3c8>

800009f0 <_vsnprintf>:
800009f0:	fa010113          	addi	sp,sp,-96
800009f4:	04812c23          	sw	s0,88(sp)
800009f8:	04912a23          	sw	s1,84(sp)
800009fc:	03812c23          	sw	s8,56(sp)
80000a00:	03b12623          	sw	s11,44(sp)
80000a04:	04112e23          	sw	ra,92(sp)
80000a08:	05212823          	sw	s2,80(sp)
80000a0c:	05312623          	sw	s3,76(sp)
80000a10:	05412423          	sw	s4,72(sp)
80000a14:	05512223          	sw	s5,68(sp)
80000a18:	05612023          	sw	s6,64(sp)
80000a1c:	03712e23          	sw	s7,60(sp)
80000a20:	03912a23          	sw	s9,52(sp)
80000a24:	03a12823          	sw	s10,48(sp)
80000a28:	00058493          	mv	s1,a1
80000a2c:	00060413          	mv	s0,a2
80000a30:	00068c13          	mv	s8,a3
80000a34:	00070d93          	mv	s11,a4
80000a38:	18058e63          	beqz	a1,80000bd4 <_vsnprintf+0x1e4>
80000a3c:	00050913          	mv	s2,a0
80000a40:	00000c93          	li	s9,0
80000a44:	02500a13          	li	s4,37
80000a48:	01000b13          	li	s6,16
80000a4c:	00001a97          	auipc	s5,0x1
80000a50:	e54a8a93          	addi	s5,s5,-428 # 800018a0 <_etext+0xe0>
80000a54:	000c4503          	lbu	a0,0(s8)
80000a58:	02050463          	beqz	a0,80000a80 <_vsnprintf+0x90>
80000a5c:	001c0c13          	addi	s8,s8,1
80000a60:	09450063          	beq	a0,s4,80000ae0 <_vsnprintf+0xf0>
80000a64:	000c8613          	mv	a2,s9
80000a68:	00040693          	mv	a3,s0
80000a6c:	00048593          	mv	a1,s1
80000a70:	000900e7          	jalr	s2
80000a74:	000c4503          	lbu	a0,0(s8)
80000a78:	001c8c93          	addi	s9,s9,1
80000a7c:	fe0510e3          	bnez	a0,80000a5c <_vsnprintf+0x6c>
80000a80:	048cec63          	bltu	s9,s0,80000ad8 <_vsnprintf+0xe8>
80000a84:	fff40613          	addi	a2,s0,-1
80000a88:	00040693          	mv	a3,s0
80000a8c:	00048593          	mv	a1,s1
80000a90:	00000513          	li	a0,0
80000a94:	000900e7          	jalr	s2
80000a98:	05c12083          	lw	ra,92(sp)
80000a9c:	05812403          	lw	s0,88(sp)
80000aa0:	000c8513          	mv	a0,s9
80000aa4:	05412483          	lw	s1,84(sp)
80000aa8:	05012903          	lw	s2,80(sp)
80000aac:	04c12983          	lw	s3,76(sp)
80000ab0:	04812a03          	lw	s4,72(sp)
80000ab4:	04412a83          	lw	s5,68(sp)
80000ab8:	04012b03          	lw	s6,64(sp)
80000abc:	03c12b83          	lw	s7,60(sp)
80000ac0:	03812c03          	lw	s8,56(sp)
80000ac4:	03412c83          	lw	s9,52(sp)
80000ac8:	03012d03          	lw	s10,48(sp)
80000acc:	02c12d83          	lw	s11,44(sp)
80000ad0:	06010113          	addi	sp,sp,96
80000ad4:	00008067          	ret
80000ad8:	000c8613          	mv	a2,s9
80000adc:	fadff06f          	j	80000a88 <_vsnprintf+0x98>
80000ae0:	000c0713          	mv	a4,s8
80000ae4:	0017450b          	p.lbu	a0,1(a4!)
80000ae8:	00000693          	li	a3,0
80000aec:	fe050793          	addi	a5,a0,-32
80000af0:	0ff7f793          	andi	a5,a5,255
80000af4:	00070613          	mv	a2,a4
80000af8:	02fb6a63          	bltu	s6,a5,80000b2c <_vsnprintf+0x13c>
80000afc:	00279793          	slli	a5,a5,0x2
80000b00:	20faf783          	p.lw	a5,a5(s5)
80000b04:	015787b3          	add	a5,a5,s5
80000b08:	00078067          	jr	a5
80000b0c:	0016e693          	ori	a3,a3,1
80000b10:	00070c13          	mv	s8,a4
80000b14:	000c0713          	mv	a4,s8
80000b18:	0017450b          	p.lbu	a0,1(a4!)
80000b1c:	fe050793          	addi	a5,a0,-32
80000b20:	0ff7f793          	andi	a5,a5,255
80000b24:	00070613          	mv	a2,a4
80000b28:	fcfb7ae3          	bleu	a5,s6,80000afc <_vsnprintf+0x10c>
80000b2c:	fd050793          	addi	a5,a0,-48
80000b30:	0ff7f793          	andi	a5,a5,255
80000b34:	00900593          	li	a1,9
80000b38:	28f5f063          	bleu	a5,a1,80000db8 <_vsnprintf+0x3c8>
80000b3c:	02a00793          	li	a5,42
80000b40:	30f50263          	beq	a0,a5,80000e44 <_vsnprintf+0x454>
80000b44:	00000b93          	li	s7,0
80000b48:	02e00793          	li	a5,46
80000b4c:	2af50663          	beq	a0,a5,80000df8 <_vsnprintf+0x408>
80000b50:	00000893          	li	a7,0
80000b54:	06a00793          	li	a5,106
80000b58:	30f50663          	beq	a0,a5,80000e64 <_vsnprintf+0x474>
80000b5c:	2ca7f663          	bleu	a0,a5,80000e28 <_vsnprintf+0x438>
80000b60:	06c00793          	li	a5,108
80000b64:	06f50e63          	beq	a0,a5,80000be0 <_vsnprintf+0x1f0>
80000b68:	07a00793          	li	a5,122
80000b6c:	30f51463          	bne	a0,a5,80000e74 <_vsnprintf+0x484>
80000b70:	001c4503          	lbu	a0,1(s8)
80000b74:	1006e693          	ori	a3,a3,256
80000b78:	00160c13          	addi	s8,a2,1
80000b7c:	fdb50793          	addi	a5,a0,-37
80000b80:	0ff7f793          	andi	a5,a5,255
80000b84:	05300713          	li	a4,83
80000b88:	ecf76ee3          	bltu	a4,a5,80000a64 <_vsnprintf+0x74>
80000b8c:	00001617          	auipc	a2,0x1
80000b90:	d5860613          	addi	a2,a2,-680 # 800018e4 <_etext+0x124>
80000b94:	00279793          	slli	a5,a5,0x2
80000b98:	20f67783          	p.lw	a5,a5(a2)
80000b9c:	00c787b3          	add	a5,a5,a2
80000ba0:	00078067          	jr	a5
80000ba4:	0046e693          	ori	a3,a3,4
80000ba8:	00070c13          	mv	s8,a4
80000bac:	f69ff06f          	j	80000b14 <_vsnprintf+0x124>
80000bb0:	0026e693          	ori	a3,a3,2
80000bb4:	00070c13          	mv	s8,a4
80000bb8:	f5dff06f          	j	80000b14 <_vsnprintf+0x124>
80000bbc:	0106e693          	ori	a3,a3,16
80000bc0:	00070c13          	mv	s8,a4
80000bc4:	f51ff06f          	j	80000b14 <_vsnprintf+0x124>
80000bc8:	0086e693          	ori	a3,a3,8
80000bcc:	00070c13          	mv	s8,a4
80000bd0:	f45ff06f          	j	80000b14 <_vsnprintf+0x124>
80000bd4:	00000917          	auipc	s2,0x0
80000bd8:	9a490913          	addi	s2,s2,-1628 # 80000578 <_out_null>
80000bdc:	e65ff06f          	j	80000a40 <_vsnprintf+0x50>
80000be0:	001c4503          	lbu	a0,1(s8)
80000be4:	f8f518e3          	bne	a0,a5,80000b74 <_vsnprintf+0x184>
80000be8:	002c4503          	lbu	a0,2(s8)
80000bec:	3006e693          	ori	a3,a3,768
80000bf0:	003c0c13          	addi	s8,s8,3
80000bf4:	f89ff06f          	j	80000b7c <_vsnprintf+0x18c>
80000bf8:	000dad03          	lw	s10,0(s11)
80000bfc:	004d8d93          	addi	s11,s11,4
80000c00:	01b12e23          	sw	s11,28(sp)
80000c04:	000d4503          	lbu	a0,0(s10)
80000c08:	2a089a63          	bnez	a7,80000ebc <_vsnprintf+0x4cc>
80000c0c:	ffe00793          	li	a5,-2
80000c10:	52050a63          	beqz	a0,80001144 <_vsnprintf+0x754>
80000c14:	002d0593          	addi	a1,s10,2
80000c18:	001d0d93          	addi	s11,s10,1
80000c1c:	00f585b3          	add	a1,a1,a5
80000c20:	00c0006f          	j	80000c2c <_vsnprintf+0x23c>
80000c24:	00b78a63          	beq	a5,a1,80000c38 <_vsnprintf+0x248>
80000c28:	00078d93          	mv	s11,a5
80000c2c:	000dc603          	lbu	a2,0(s11)
80000c30:	001d8793          	addi	a5,s11,1
80000c34:	fe0618e3          	bnez	a2,80000c24 <_vsnprintf+0x234>
80000c38:	41ad8db3          	sub	s11,s11,s10
80000c3c:	4006f793          	andi	a5,a3,1024
80000c40:	00f12c23          	sw	a5,24(sp)
80000c44:	00078463          	beqz	a5,80000c4c <_vsnprintf+0x25c>
80000c48:	051dddb3          	p.minu	s11,s11,a7
80000c4c:	0026f993          	andi	s3,a3,2
80000c50:	36098663          	beqz	s3,80000fbc <_vsnprintf+0x5cc>
80000c54:	26050a63          	beqz	a0,80000ec8 <_vsnprintf+0x4d8>
80000c58:	01812703          	lw	a4,24(sp)
80000c5c:	001d0d13          	addi	s10,s10,1
80000c60:	42071a63          	bnez	a4,80001094 <_vsnprintf+0x6a4>
80000c64:	000c8613          	mv	a2,s9
80000c68:	00040693          	mv	a3,s0
80000c6c:	00048593          	mv	a1,s1
80000c70:	000900e7          	jalr	s2
80000c74:	001d450b          	p.lbu	a0,1(s10!)
80000c78:	001c8c93          	addi	s9,s9,1
80000c7c:	000c8613          	mv	a2,s9
80000c80:	fe0514e3          	bnez	a0,80000c68 <_vsnprintf+0x278>
80000c84:	24099263          	bnez	s3,80000ec8 <_vsnprintf+0x4d8>
80000c88:	01c12d83          	lw	s11,28(sp)
80000c8c:	dc9ff06f          	j	80000a54 <_vsnprintf+0x64>
80000c90:	000da703          	lw	a4,0(s11)
80000c94:	0216e693          	ori	a3,a3,33
80000c98:	00800793          	li	a5,8
80000c9c:	00d12223          	sw	a3,4(sp)
80000ca0:	00f12023          	sw	a5,0(sp)
80000ca4:	000c8613          	mv	a2,s9
80000ca8:	01000813          	li	a6,16
80000cac:	00000793          	li	a5,0
80000cb0:	00040693          	mv	a3,s0
80000cb4:	00048593          	mv	a1,s1
80000cb8:	00090513          	mv	a0,s2
80000cbc:	8d5ff0ef          	jal	ra,80000590 <_ntoa_long>
80000cc0:	004d8d93          	addi	s11,s11,4
80000cc4:	00050c93          	mv	s9,a0
80000cc8:	d8dff06f          	j	80000a54 <_vsnprintf+0x64>
80000ccc:	004d8713          	addi	a4,s11,4
80000cd0:	001c8993          	addi	s3,s9,1
80000cd4:	0026f693          	andi	a3,a3,2
80000cd8:	00e12c23          	sw	a4,24(sp)
80000cdc:	00098d13          	mv	s10,s3
80000ce0:	32068463          	beqz	a3,80001008 <_vsnprintf+0x618>
80000ce4:	000dc503          	lbu	a0,0(s11)
80000ce8:	00040693          	mv	a3,s0
80000cec:	000c8613          	mv	a2,s9
80000cf0:	00048593          	mv	a1,s1
80000cf4:	000900e7          	jalr	s2
80000cf8:	00100713          	li	a4,1
80000cfc:	03777463          	bleu	s7,a4,80000d24 <_vsnprintf+0x334>
80000d00:	019b8bb3          	add	s7,s7,s9
80000d04:	001d0713          	addi	a4,s10,1
80000d08:	000d0613          	mv	a2,s10
80000d0c:	00040693          	mv	a3,s0
80000d10:	00070d13          	mv	s10,a4
80000d14:	00048593          	mv	a1,s1
80000d18:	02000513          	li	a0,32
80000d1c:	000900e7          	jalr	s2
80000d20:	ff7d12e3          	bne	s10,s7,80000d04 <_vsnprintf+0x314>
80000d24:	000d0c93          	mv	s9,s10
80000d28:	01812d83          	lw	s11,24(sp)
80000d2c:	d29ff06f          	j	80000a54 <_vsnprintf+0x64>
80000d30:	07800793          	li	a5,120
80000d34:	26f50a63          	beq	a0,a5,80000fa8 <_vsnprintf+0x5b8>
80000d38:	05800793          	li	a5,88
80000d3c:	1cf50063          	beq	a0,a5,80000efc <_vsnprintf+0x50c>
80000d40:	06f00793          	li	a5,111
80000d44:	32f50863          	beq	a0,a5,80001074 <_vsnprintf+0x684>
80000d48:	06200793          	li	a5,98
80000d4c:	3cf50a63          	beq	a0,a5,80001120 <_vsnprintf+0x730>
80000d50:	06900713          	li	a4,105
80000d54:	fef6f793          	andi	a5,a3,-17
80000d58:	40e51a63          	bne	a0,a4,8000116c <_vsnprintf+0x77c>
80000d5c:	4006f713          	andi	a4,a3,1024
80000d60:	30071663          	bnez	a4,8000106c <_vsnprintf+0x67c>
80000d64:	2006f713          	andi	a4,a3,512
80000d68:	00a00813          	li	a6,10
80000d6c:	ce0714e3          	bnez	a4,80000a54 <_vsnprintf+0x64>
80000d70:	1007f713          	andi	a4,a5,256
80000d74:	004d8993          	addi	s3,s11,4
80000d78:	36071a63          	bnez	a4,800010ec <_vsnprintf+0x6fc>
80000d7c:	0407f713          	andi	a4,a5,64
80000d80:	34070e63          	beqz	a4,800010dc <_vsnprintf+0x6ec>
80000d84:	000dc703          	lbu	a4,0(s11)
80000d88:	00f12223          	sw	a5,4(sp)
80000d8c:	01712023          	sw	s7,0(sp)
80000d90:	01f75793          	srli	a5,a4,0x1f
80000d94:	04070733          	p.abs	a4,a4
80000d98:	1b80006f          	j	80000f50 <_vsnprintf+0x560>
80000d9c:	000c8613          	mv	a2,s9
80000da0:	00040693          	mv	a3,s0
80000da4:	00048593          	mv	a1,s1
80000da8:	02500513          	li	a0,37
80000dac:	001c8c93          	addi	s9,s9,1
80000db0:	000900e7          	jalr	s2
80000db4:	ca1ff06f          	j	80000a54 <_vsnprintf+0x64>
80000db8:	00000b93          	li	s7,0
80000dbc:	002b9993          	slli	s3,s7,0x2
80000dc0:	017989b3          	add	s3,s3,s7
80000dc4:	00199993          	slli	s3,s3,0x1
80000dc8:	00a989b3          	add	s3,s3,a0
80000dcc:	00074503          	lbu	a0,0(a4)
80000dd0:	00900613          	li	a2,9
80000dd4:	00070c13          	mv	s8,a4
80000dd8:	fd098b93          	addi	s7,s3,-48
80000ddc:	00170713          	addi	a4,a4,1
80000de0:	fd050793          	addi	a5,a0,-48
80000de4:	0ff7f793          	andi	a5,a5,255
80000de8:	fcf67ae3          	bleu	a5,a2,80000dbc <_vsnprintf+0x3cc>
80000dec:	02e00793          	li	a5,46
80000df0:	00070613          	mv	a2,a4
80000df4:	d4f51ee3          	bne	a0,a5,80000b50 <_vsnprintf+0x160>
80000df8:	001c4503          	lbu	a0,1(s8)
80000dfc:	00900713          	li	a4,9
80000e00:	4006e693          	ori	a3,a3,1024
80000e04:	fd050793          	addi	a5,a0,-48
80000e08:	0ff7f793          	andi	a5,a5,255
80000e0c:	06f77863          	bleu	a5,a4,80000e7c <_vsnprintf+0x48c>
80000e10:	02a00793          	li	a5,42
80000e14:	16f50463          	beq	a0,a5,80000f7c <_vsnprintf+0x58c>
80000e18:	00060c13          	mv	s8,a2
80000e1c:	00000893          	li	a7,0
80000e20:	00160613          	addi	a2,a2,1
80000e24:	d31ff06f          	j	80000b54 <_vsnprintf+0x164>
80000e28:	06800793          	li	a5,104
80000e2c:	04f51463          	bne	a0,a5,80000e74 <_vsnprintf+0x484>
80000e30:	001c4503          	lbu	a0,1(s8)
80000e34:	16f50263          	beq	a0,a5,80000f98 <_vsnprintf+0x5a8>
80000e38:	0806e693          	ori	a3,a3,128
80000e3c:	00160c13          	addi	s8,a2,1
80000e40:	d3dff06f          	j	80000b7c <_vsnprintf+0x18c>
80000e44:	000da983          	lw	s3,0(s11)
80000e48:	004d8d93          	addi	s11,s11,4
80000e4c:	1209c263          	bltz	s3,80000f70 <_vsnprintf+0x580>
80000e50:	00098b93          	mv	s7,s3
80000e54:	002c0613          	addi	a2,s8,2
80000e58:	001c4503          	lbu	a0,1(s8)
80000e5c:	00070c13          	mv	s8,a4
80000e60:	ce9ff06f          	j	80000b48 <_vsnprintf+0x158>
80000e64:	001c4503          	lbu	a0,1(s8)
80000e68:	2006e693          	ori	a3,a3,512
80000e6c:	00160c13          	addi	s8,a2,1
80000e70:	d0dff06f          	j	80000b7c <_vsnprintf+0x18c>
80000e74:	00060c13          	mv	s8,a2
80000e78:	d05ff06f          	j	80000b7c <_vsnprintf+0x18c>
80000e7c:	00160713          	addi	a4,a2,1
80000e80:	00000893          	li	a7,0
80000e84:	00289d13          	slli	s10,a7,0x2
80000e88:	011d08b3          	add	a7,s10,a7
80000e8c:	00189893          	slli	a7,a7,0x1
80000e90:	00a888b3          	add	a7,a7,a0
80000e94:	00074503          	lbu	a0,0(a4)
80000e98:	00900593          	li	a1,9
80000e9c:	00070c13          	mv	s8,a4
80000ea0:	fd088893          	addi	a7,a7,-48
80000ea4:	00170713          	addi	a4,a4,1
80000ea8:	fd050793          	addi	a5,a0,-48
80000eac:	0ff7f793          	andi	a5,a5,255
80000eb0:	fcf5fae3          	bleu	a5,a1,80000e84 <_vsnprintf+0x494>
80000eb4:	00070613          	mv	a2,a4
80000eb8:	c9dff06f          	j	80000b54 <_vsnprintf+0x164>
80000ebc:	28050463          	beqz	a0,80001144 <_vsnprintf+0x754>
80000ec0:	fff88793          	addi	a5,a7,-1
80000ec4:	d51ff06f          	j	80000c14 <_vsnprintf+0x224>
80000ec8:	dd7df0e3          	bleu	s7,s11,80000c88 <_vsnprintf+0x298>
80000ecc:	019b89b3          	add	s3,s7,s9
80000ed0:	41b98db3          	sub	s11,s3,s11
80000ed4:	000c8613          	mv	a2,s9
80000ed8:	00040693          	mv	a3,s0
80000edc:	00048593          	mv	a1,s1
80000ee0:	02000513          	li	a0,32
80000ee4:	001c8c93          	addi	s9,s9,1
80000ee8:	000900e7          	jalr	s2
80000eec:	000c8613          	mv	a2,s9
80000ef0:	ffbc94e3          	bne	s9,s11,80000ed8 <_vsnprintf+0x4e8>
80000ef4:	01c12d83          	lw	s11,28(sp)
80000ef8:	b5dff06f          	j	80000a54 <_vsnprintf+0x64>
80000efc:	ff36f793          	andi	a5,a3,-13
80000f00:	4006f713          	andi	a4,a3,1024
80000f04:	0207e793          	ori	a5,a5,32
80000f08:	14070c63          	beqz	a4,80001060 <_vsnprintf+0x670>
80000f0c:	01000813          	li	a6,16
80000f10:	ffe7f793          	andi	a5,a5,-2
80000f14:	06900693          	li	a3,105
80000f18:	2007f713          	andi	a4,a5,512
80000f1c:	e4d508e3          	beq	a0,a3,80000d6c <_vsnprintf+0x37c>
80000f20:	06400693          	li	a3,100
80000f24:	e4d504e3          	beq	a0,a3,80000d6c <_vsnprintf+0x37c>
80000f28:	b20716e3          	bnez	a4,80000a54 <_vsnprintf+0x64>
80000f2c:	1007f713          	andi	a4,a5,256
80000f30:	004d8993          	addi	s3,s11,4
80000f34:	18071c63          	bnez	a4,800010cc <_vsnprintf+0x6dc>
80000f38:	0407f713          	andi	a4,a5,64
80000f3c:	1e070663          	beqz	a4,80001128 <_vsnprintf+0x738>
80000f40:	000dc703          	lbu	a4,0(s11)
80000f44:	00f12223          	sw	a5,4(sp)
80000f48:	01712023          	sw	s7,0(sp)
80000f4c:	00000793          	li	a5,0
80000f50:	000c8613          	mv	a2,s9
80000f54:	00040693          	mv	a3,s0
80000f58:	00048593          	mv	a1,s1
80000f5c:	00090513          	mv	a0,s2
80000f60:	e30ff0ef          	jal	ra,80000590 <_ntoa_long>
80000f64:	00050c93          	mv	s9,a0
80000f68:	00098d93          	mv	s11,s3
80000f6c:	ae9ff06f          	j	80000a54 <_vsnprintf+0x64>
80000f70:	0026e693          	ori	a3,a3,2
80000f74:	41300bb3          	neg	s7,s3
80000f78:	eddff06f          	j	80000e54 <_vsnprintf+0x464>
80000f7c:	000da883          	lw	a7,0(s11)
80000f80:	002c4503          	lbu	a0,2(s8)
80000f84:	003c0613          	addi	a2,s8,3
80000f88:	004d8d93          	addi	s11,s11,4
80000f8c:	002c0c13          	addi	s8,s8,2
80000f90:	0408e8b3          	p.max	a7,a7,zero
80000f94:	bc1ff06f          	j	80000b54 <_vsnprintf+0x164>
80000f98:	002c4503          	lbu	a0,2(s8)
80000f9c:	0c06e693          	ori	a3,a3,192
80000fa0:	003c0c13          	addi	s8,s8,3
80000fa4:	bd9ff06f          	j	80000b7c <_vsnprintf+0x18c>
80000fa8:	4006f713          	andi	a4,a3,1024
80000fac:	01000813          	li	a6,16
80000fb0:	ff36f793          	andi	a5,a3,-13
80000fb4:	f60700e3          	beqz	a4,80000f14 <_vsnprintf+0x524>
80000fb8:	f59ff06f          	j	80000f10 <_vsnprintf+0x520>
80000fbc:	001d8793          	addi	a5,s11,1
80000fc0:	197dfc63          	bleu	s7,s11,80001158 <_vsnprintf+0x768>
80000fc4:	019b87b3          	add	a5,s7,s9
80000fc8:	41b78db3          	sub	s11,a5,s11
80000fcc:	000c8613          	mv	a2,s9
80000fd0:	01112a23          	sw	a7,20(sp)
80000fd4:	00040693          	mv	a3,s0
80000fd8:	00048593          	mv	a1,s1
80000fdc:	02000513          	li	a0,32
80000fe0:	000900e7          	jalr	s2
80000fe4:	001c8c93          	addi	s9,s9,1
80000fe8:	000c8613          	mv	a2,s9
80000fec:	01412883          	lw	a7,20(sp)
80000ff0:	ffbc90e3          	bne	s9,s11,80000fd0 <_vsnprintf+0x5e0>
80000ff4:	000d4503          	lbu	a0,0(s10)
80000ff8:	001b8d93          	addi	s11,s7,1
80000ffc:	c4051ee3          	bnez	a0,80000c58 <_vsnprintf+0x268>
80001000:	01c12d83          	lw	s11,28(sp)
80001004:	a51ff06f          	j	80000a54 <_vsnprintf+0x64>
80001008:	00100693          	li	a3,1
8000100c:	1576f063          	bleu	s7,a3,8000114c <_vsnprintf+0x75c>
80001010:	fffc8793          	addi	a5,s9,-1
80001014:	01778d33          	add	s10,a5,s7
80001018:	00c0006f          	j	80001024 <_vsnprintf+0x634>
8000101c:	00098c93          	mv	s9,s3
80001020:	00198993          	addi	s3,s3,1
80001024:	00040693          	mv	a3,s0
80001028:	000c8613          	mv	a2,s9
8000102c:	00048593          	mv	a1,s1
80001030:	02000513          	li	a0,32
80001034:	00098b93          	mv	s7,s3
80001038:	000900e7          	jalr	s2
8000103c:	ffa990e3          	bne	s3,s10,8000101c <_vsnprintf+0x62c>
80001040:	002c8c93          	addi	s9,s9,2
80001044:	000dc503          	lbu	a0,0(s11)
80001048:	00040693          	mv	a3,s0
8000104c:	000b8613          	mv	a2,s7
80001050:	00048593          	mv	a1,s1
80001054:	000900e7          	jalr	s2
80001058:	01812d83          	lw	s11,24(sp)
8000105c:	9f9ff06f          	j	80000a54 <_vsnprintf+0x64>
80001060:	2006f713          	andi	a4,a3,512
80001064:	01000813          	li	a6,16
80001068:	ec1ff06f          	j	80000f28 <_vsnprintf+0x538>
8000106c:	00a00813          	li	a6,10
80001070:	ea1ff06f          	j	80000f10 <_vsnprintf+0x520>
80001074:	00800813          	li	a6,8
80001078:	06400793          	li	a5,100
8000107c:	4006f713          	andi	a4,a3,1024
80001080:	f2f518e3          	bne	a0,a5,80000fb0 <_vsnprintf+0x5c0>
80001084:	04071863          	bnez	a4,800010d4 <_vsnprintf+0x6e4>
80001088:	2006f713          	andi	a4,a3,512
8000108c:	00068793          	mv	a5,a3
80001090:	cddff06f          	j	80000d6c <_vsnprintf+0x37c>
80001094:	011c88b3          	add	a7,s9,a7
80001098:	01112c23          	sw	a7,24(sp)
8000109c:	000c8613          	mv	a2,s9
800010a0:	00088793          	mv	a5,a7
800010a4:	bf9780e3          	beq	a5,s9,80000c84 <_vsnprintf+0x294>
800010a8:	00040693          	mv	a3,s0
800010ac:	00048593          	mv	a1,s1
800010b0:	000900e7          	jalr	s2
800010b4:	001d450b          	p.lbu	a0,1(s10!)
800010b8:	001c8c93          	addi	s9,s9,1
800010bc:	bc0504e3          	beqz	a0,80000c84 <_vsnprintf+0x294>
800010c0:	000c8613          	mv	a2,s9
800010c4:	01812783          	lw	a5,24(sp)
800010c8:	fddff06f          	j	800010a4 <_vsnprintf+0x6b4>
800010cc:	000da703          	lw	a4,0(s11)
800010d0:	e75ff06f          	j	80000f44 <_vsnprintf+0x554>
800010d4:	00068793          	mv	a5,a3
800010d8:	e39ff06f          	j	80000f10 <_vsnprintf+0x520>
800010dc:	0807f713          	andi	a4,a5,128
800010e0:	08070263          	beqz	a4,80001164 <_vsnprintf+0x774>
800010e4:	000d9703          	lh	a4,0(s11)
800010e8:	ca1ff06f          	j	80000d88 <_vsnprintf+0x398>
800010ec:	000da703          	lw	a4,0(s11)
800010f0:	000c8613          	mv	a2,s9
800010f4:	00f12223          	sw	a5,4(sp)
800010f8:	01712023          	sw	s7,0(sp)
800010fc:	00040693          	mv	a3,s0
80001100:	00048593          	mv	a1,s1
80001104:	00090513          	mv	a0,s2
80001108:	00098d93          	mv	s11,s3
8000110c:	01f75793          	srli	a5,a4,0x1f
80001110:	04070733          	p.abs	a4,a4
80001114:	c7cff0ef          	jal	ra,80000590 <_ntoa_long>
80001118:	00050c93          	mv	s9,a0
8000111c:	939ff06f          	j	80000a54 <_vsnprintf+0x64>
80001120:	00200813          	li	a6,2
80001124:	f55ff06f          	j	80001078 <_vsnprintf+0x688>
80001128:	0807f713          	andi	a4,a5,128
8000112c:	fa0700e3          	beqz	a4,800010cc <_vsnprintf+0x6dc>
80001130:	000da703          	lw	a4,0(s11)
80001134:	000106b7          	lui	a3,0x10
80001138:	fff68693          	addi	a3,a3,-1 # ffff <__seq_start+0xffff>
8000113c:	00d77733          	and	a4,a4,a3
80001140:	e05ff06f          	j	80000f44 <_vsnprintf+0x554>
80001144:	00000d93          	li	s11,0
80001148:	af5ff06f          	j	80000c3c <_vsnprintf+0x24c>
8000114c:	000c8b93          	mv	s7,s9
80001150:	00098c93          	mv	s9,s3
80001154:	ef1ff06f          	j	80001044 <_vsnprintf+0x654>
80001158:	00078d93          	mv	s11,a5
8000115c:	ae051ee3          	bnez	a0,80000c58 <_vsnprintf+0x268>
80001160:	ea1ff06f          	j	80001000 <_vsnprintf+0x610>
80001164:	000da703          	lw	a4,0(s11)
80001168:	c21ff06f          	j	80000d88 <_vsnprintf+0x398>
8000116c:	00078693          	mv	a3,a5
80001170:	00a00813          	li	a6,10
80001174:	f05ff06f          	j	80001078 <_vsnprintf+0x688>

80001178 <_out_char>:
80001178:	00051463          	bnez	a0,80001180 <_out_char+0x8>
8000117c:	00008067          	ret
80001180:	1640006f          	j	800012e4 <_putchar>

80001184 <printf_>:
80001184:	fc010113          	addi	sp,sp,-64
80001188:	02410313          	addi	t1,sp,36
8000118c:	02b12223          	sw	a1,36(sp)
80001190:	02c12423          	sw	a2,40(sp)
80001194:	02d12623          	sw	a3,44(sp)
80001198:	02e12823          	sw	a4,48(sp)
8000119c:	00050693          	mv	a3,a0
800011a0:	00810593          	addi	a1,sp,8
800011a4:	00030713          	mv	a4,t1
800011a8:	fff00613          	li	a2,-1
800011ac:	00000517          	auipc	a0,0x0
800011b0:	fcc50513          	addi	a0,a0,-52 # 80001178 <_out_char>
800011b4:	00112e23          	sw	ra,28(sp)
800011b8:	02f12a23          	sw	a5,52(sp)
800011bc:	03012c23          	sw	a6,56(sp)
800011c0:	03112e23          	sw	a7,60(sp)
800011c4:	00612623          	sw	t1,12(sp)
800011c8:	829ff0ef          	jal	ra,800009f0 <_vsnprintf>
800011cc:	01c12083          	lw	ra,28(sp)
800011d0:	04010113          	addi	sp,sp,64
800011d4:	00008067          	ret

800011d8 <sprintf_>:
800011d8:	fc010113          	addi	sp,sp,-64
800011dc:	02810313          	addi	t1,sp,40
800011e0:	02c12423          	sw	a2,40(sp)
800011e4:	02d12623          	sw	a3,44(sp)
800011e8:	02e12823          	sw	a4,48(sp)
800011ec:	00058693          	mv	a3,a1
800011f0:	00030713          	mv	a4,t1
800011f4:	00050593          	mv	a1,a0
800011f8:	fff00613          	li	a2,-1
800011fc:	fffff517          	auipc	a0,0xfffff
80001200:	37050513          	addi	a0,a0,880 # 8000056c <_out_buffer>
80001204:	00112e23          	sw	ra,28(sp)
80001208:	02f12a23          	sw	a5,52(sp)
8000120c:	03012c23          	sw	a6,56(sp)
80001210:	03112e23          	sw	a7,60(sp)
80001214:	00612623          	sw	t1,12(sp)
80001218:	fd8ff0ef          	jal	ra,800009f0 <_vsnprintf>
8000121c:	01c12083          	lw	ra,28(sp)
80001220:	04010113          	addi	sp,sp,64
80001224:	00008067          	ret

80001228 <snprintf_>:
80001228:	fc010113          	addi	sp,sp,-64
8000122c:	02c10313          	addi	t1,sp,44
80001230:	02d12623          	sw	a3,44(sp)
80001234:	02e12823          	sw	a4,48(sp)
80001238:	00060693          	mv	a3,a2
8000123c:	00030713          	mv	a4,t1
80001240:	00058613          	mv	a2,a1
80001244:	00050593          	mv	a1,a0
80001248:	fffff517          	auipc	a0,0xfffff
8000124c:	32450513          	addi	a0,a0,804 # 8000056c <_out_buffer>
80001250:	00112e23          	sw	ra,28(sp)
80001254:	02f12a23          	sw	a5,52(sp)
80001258:	03012c23          	sw	a6,56(sp)
8000125c:	03112e23          	sw	a7,60(sp)
80001260:	00612623          	sw	t1,12(sp)
80001264:	f8cff0ef          	jal	ra,800009f0 <_vsnprintf>
80001268:	01c12083          	lw	ra,28(sp)
8000126c:	04010113          	addi	sp,sp,64
80001270:	00008067          	ret

80001274 <vsnprintf_>:
80001274:	00068713          	mv	a4,a3
80001278:	00060693          	mv	a3,a2
8000127c:	00058613          	mv	a2,a1
80001280:	00050593          	mv	a1,a0
80001284:	fffff517          	auipc	a0,0xfffff
80001288:	2e850513          	addi	a0,a0,744 # 8000056c <_out_buffer>
8000128c:	f64ff06f          	j	800009f0 <_vsnprintf>

80001290 <fctprintf>:
80001290:	fc010113          	addi	sp,sp,-64
80001294:	02c10313          	addi	t1,sp,44
80001298:	02d12623          	sw	a3,44(sp)
8000129c:	02e12823          	sw	a4,48(sp)
800012a0:	00a12423          	sw	a0,8(sp)
800012a4:	00b12623          	sw	a1,12(sp)
800012a8:	00060693          	mv	a3,a2
800012ac:	00810593          	addi	a1,sp,8
800012b0:	00030713          	mv	a4,t1
800012b4:	fff00613          	li	a2,-1
800012b8:	fffff517          	auipc	a0,0xfffff
800012bc:	2c450513          	addi	a0,a0,708 # 8000057c <_out_fct>
800012c0:	00112e23          	sw	ra,28(sp)
800012c4:	02f12a23          	sw	a5,52(sp)
800012c8:	03012c23          	sw	a6,56(sp)
800012cc:	03112e23          	sw	a7,60(sp)
800012d0:	00612223          	sw	t1,4(sp)
800012d4:	f1cff0ef          	jal	ra,800009f0 <_vsnprintf>
800012d8:	01c12083          	lw	ra,28(sp)
800012dc:	04010113          	addi	sp,sp,64
800012e0:	00008067          	ret

800012e4 <_putchar>:
800012e4:	3ffff797          	auipc	a5,0x3ffff
800012e8:	d0a78e23          	sb	a0,-740(a5) # c0000000 <fake_uart>
800012ec:	00008067          	ret

800012f0 <memcpy>:
800012f0:	00c5e733          	or	a4,a1,a2
800012f4:	00a76733          	or	a4,a4,a0
800012f8:	00377713          	andi	a4,a4,3
800012fc:	00050793          	mv	a5,a0
80001300:	00c506b3          	add	a3,a0,a2
80001304:	12070063          	beqz	a4,80001424 <memcpy+0x134>
80001308:	14d57263          	bleu	a3,a0,8000144c <memcpy+0x15c>
8000130c:	00458713          	addi	a4,a1,4
80001310:	00450893          	addi	a7,a0,4
80001314:	04a73733          	p.sletu	a4,a4,a0
80001318:	04b8b8b3          	p.sletu	a7,a7,a1
8000131c:	00070813          	mv	a6,a4
80001320:	00088713          	mv	a4,a7
80001324:	00e86733          	or	a4,a6,a4
80001328:	0ff77713          	andi	a4,a4,255
8000132c:	00150813          	addi	a6,a0,1
80001330:	fff60893          	addi	a7,a2,-1
80001334:	10070263          	beqz	a4,80001438 <memcpy+0x148>
80001338:	00863713          	sltiu	a4,a2,8
8000133c:	00174713          	xori	a4,a4,1
80001340:	0ff77713          	andi	a4,a4,255
80001344:	0e070a63          	beqz	a4,80001438 <memcpy+0x148>
80001348:	40b007b3          	neg	a5,a1
8000134c:	0037f793          	andi	a5,a5,3
80001350:	10078063          	beqz	a5,80001450 <memcpy+0x160>
80001354:	0005c603          	lbu	a2,0(a1)
80001358:	00100713          	li	a4,1
8000135c:	00158313          	addi	t1,a1,1
80001360:	00c50023          	sb	a2,0(a0)
80001364:	02e78663          	beq	a5,a4,80001390 <memcpy+0xa0>
80001368:	0015c603          	lbu	a2,1(a1)
8000136c:	00300713          	li	a4,3
80001370:	00258313          	addi	t1,a1,2
80001374:	00250813          	addi	a6,a0,2
80001378:	00c500a3          	sb	a2,1(a0)
8000137c:	00e79a63          	bne	a5,a4,80001390 <memcpy+0xa0>
80001380:	0025c703          	lbu	a4,2(a1)
80001384:	00358313          	addi	t1,a1,3
80001388:	00350813          	addi	a6,a0,3
8000138c:	00e50123          	sb	a4,2(a0)
80001390:	40f888b3          	sub	a7,a7,a5
80001394:	00188893          	addi	a7,a7,1
80001398:	00f50733          	add	a4,a0,a5
8000139c:	00f585b3          	add	a1,a1,a5
800013a0:	0028de13          	srli	t3,a7,0x2
800013a4:	00000793          	li	a5,0
800013a8:	0045a60b          	p.lw	a2,4(a1!)
800013ac:	00178793          	addi	a5,a5,1
800013b0:	00c7222b          	p.sw	a2,4(a4!)
800013b4:	ffc7eae3          	bltu	a5,t3,800013a8 <memcpy+0xb8>
800013b8:	ffc8f613          	andi	a2,a7,-4
800013bc:	00c30733          	add	a4,t1,a2
800013c0:	00c807b3          	add	a5,a6,a2
800013c4:	08c88263          	beq	a7,a2,80001448 <memcpy+0x158>
800013c8:	00074583          	lbu	a1,0(a4)
800013cc:	00078613          	mv	a2,a5
800013d0:	00b600ab          	p.sb	a1,1(a2!)
800013d4:	06d67a63          	bleu	a3,a2,80001448 <memcpy+0x158>
800013d8:	00174583          	lbu	a1,1(a4)
800013dc:	00278613          	addi	a2,a5,2
800013e0:	00b780a3          	sb	a1,1(a5)
800013e4:	06d67263          	bleu	a3,a2,80001448 <memcpy+0x158>
800013e8:	00274583          	lbu	a1,2(a4)
800013ec:	00378613          	addi	a2,a5,3
800013f0:	00b78123          	sb	a1,2(a5)
800013f4:	04d67a63          	bleu	a3,a2,80001448 <memcpy+0x158>
800013f8:	00374583          	lbu	a1,3(a4)
800013fc:	00478613          	addi	a2,a5,4
80001400:	00b781a3          	sb	a1,3(a5)
80001404:	04d67263          	bleu	a3,a2,80001448 <memcpy+0x158>
80001408:	00474583          	lbu	a1,4(a4)
8000140c:	00578613          	addi	a2,a5,5
80001410:	00b78223          	sb	a1,4(a5)
80001414:	02d67a63          	bleu	a3,a2,80001448 <memcpy+0x158>
80001418:	00574703          	lbu	a4,5(a4)
8000141c:	00e782a3          	sb	a4,5(a5)
80001420:	00008067          	ret
80001424:	02d57263          	bleu	a3,a0,80001448 <memcpy+0x158>
80001428:	0045a70b          	p.lw	a4,4(a1!)
8000142c:	00e7a22b          	p.sw	a4,4(a5!)
80001430:	fed7ece3          	bltu	a5,a3,80001428 <memcpy+0x138>
80001434:	00008067          	ret
80001438:	00c58633          	add	a2,a1,a2
8000143c:	0015c70b          	p.lbu	a4,1(a1!)
80001440:	00e780ab          	p.sb	a4,1(a5!)
80001444:	fec59ce3          	bne	a1,a2,8000143c <memcpy+0x14c>
80001448:	00008067          	ret
8000144c:	00008067          	ret
80001450:	00050813          	mv	a6,a0
80001454:	00058313          	mv	t1,a1
80001458:	f39ff06f          	j	80001390 <memcpy+0xa0>

8000145c <memset>:
8000145c:	00c567b3          	or	a5,a0,a2
80001460:	0037f793          	andi	a5,a5,3
80001464:	00c506b3          	add	a3,a0,a2
80001468:	0c078a63          	beqz	a5,8000153c <memset+0xe0>
8000146c:	0ed57c63          	bleu	a3,a0,80001564 <memset+0x108>
80001470:	00150813          	addi	a6,a0,1
80001474:	00100893          	li	a7,1
80001478:	410887b3          	sub	a5,a7,a6
8000147c:	0037f793          	andi	a5,a5,3
80001480:	00500313          	li	t1,5
80001484:	00378713          	addi	a4,a5,3
80001488:	04677733          	p.maxu	a4,a4,t1
8000148c:	fff60613          	addi	a2,a2,-1
80001490:	0ff5f593          	andi	a1,a1,255
80001494:	40a68333          	sub	t1,a3,a0
80001498:	0ce66e63          	bltu	a2,a4,80001574 <memset+0x118>
8000149c:	0c078663          	beqz	a5,80001568 <memset+0x10c>
800014a0:	00b50023          	sb	a1,0(a0)
800014a4:	01178e63          	beq	a5,a7,800014c0 <memset+0x64>
800014a8:	00b500a3          	sb	a1,1(a0)
800014ac:	00300713          	li	a4,3
800014b0:	00250813          	addi	a6,a0,2
800014b4:	00e79663          	bne	a5,a4,800014c0 <memset+0x64>
800014b8:	00350813          	addi	a6,a0,3
800014bc:	00b50123          	sb	a1,2(a0)
800014c0:	0ff5f613          	andi	a2,a1,255
800014c4:	b205f657          	pv.insert.b	a2,a1,1
800014c8:	40f30333          	sub	t1,t1,a5
800014cc:	b015f657          	pv.insert.b	a2,a1,2
800014d0:	00235893          	srli	a7,t1,0x2
800014d4:	b215f657          	pv.insert.b	a2,a1,3
800014d8:	00f507b3          	add	a5,a0,a5
800014dc:	00000713          	li	a4,0
800014e0:	00c7a22b          	p.sw	a2,4(a5!)
800014e4:	00170713          	addi	a4,a4,1
800014e8:	ff176ce3          	bltu	a4,a7,800014e0 <memset+0x84>
800014ec:	ffc37713          	andi	a4,t1,-4
800014f0:	00e807b3          	add	a5,a6,a4
800014f4:	06e30e63          	beq	t1,a4,80001570 <memset+0x114>
800014f8:	00078713          	mv	a4,a5
800014fc:	00b700ab          	p.sb	a1,1(a4!)
80001500:	02d77c63          	bleu	a3,a4,80001538 <memset+0xdc>
80001504:	00b780a3          	sb	a1,1(a5)
80001508:	00278713          	addi	a4,a5,2
8000150c:	02d77663          	bleu	a3,a4,80001538 <memset+0xdc>
80001510:	00b78123          	sb	a1,2(a5)
80001514:	00378713          	addi	a4,a5,3
80001518:	02d77063          	bleu	a3,a4,80001538 <memset+0xdc>
8000151c:	00b781a3          	sb	a1,3(a5)
80001520:	00478713          	addi	a4,a5,4
80001524:	00d77a63          	bleu	a3,a4,80001538 <memset+0xdc>
80001528:	00b78223          	sb	a1,4(a5)
8000152c:	00578713          	addi	a4,a5,5
80001530:	00d77463          	bleu	a3,a4,80001538 <memset+0xdc>
80001534:	00b782a3          	sb	a1,5(a5)
80001538:	00008067          	ret
8000153c:	0ff5f593          	andi	a1,a1,255
80001540:	00859793          	slli	a5,a1,0x8
80001544:	00b7e7b3          	or	a5,a5,a1
80001548:	01079593          	slli	a1,a5,0x10
8000154c:	00f5e5b3          	or	a1,a1,a5
80001550:	fed574e3          	bleu	a3,a0,80001538 <memset+0xdc>
80001554:	00050793          	mv	a5,a0
80001558:	00b7a22b          	p.sw	a1,4(a5!)
8000155c:	fed7eee3          	bltu	a5,a3,80001558 <memset+0xfc>
80001560:	00008067          	ret
80001564:	00008067          	ret
80001568:	00050813          	mv	a6,a0
8000156c:	f55ff06f          	j	800014c0 <memset+0x64>
80001570:	00008067          	ret
80001574:	00050793          	mv	a5,a0
80001578:	f81ff06f          	j	800014f8 <memset+0x9c>

8000157c <strlen>:
8000157c:	00054783          	lbu	a5,0(a0)
80001580:	02078263          	beqz	a5,800015a4 <strlen+0x28>
80001584:	00150793          	addi	a5,a0,1
80001588:	0080006f          	j	80001590 <strlen+0x14>
8000158c:	00068793          	mv	a5,a3
80001590:	0007c703          	lbu	a4,0(a5)
80001594:	00178693          	addi	a3,a5,1
80001598:	fe071ae3          	bnez	a4,8000158c <strlen+0x10>
8000159c:	40a78533          	sub	a0,a5,a0
800015a0:	00008067          	ret
800015a4:	00000513          	li	a0,0
800015a8:	00008067          	ret

800015ac <strcmp>:
800015ac:	0015478b          	p.lbu	a5,1(a0!)
800015b0:	0015c70b          	p.lbu	a4,1(a1!)
800015b4:	00078863          	beqz	a5,800015c4 <strcmp+0x18>
800015b8:	fee78ae3          	beq	a5,a4,800015ac <strcmp>
800015bc:	40e78533          	sub	a0,a5,a4
800015c0:	00008067          	ret
800015c4:	00000793          	li	a5,0
800015c8:	ff5ff06f          	j	800015bc <strcmp+0x10>

800015cc <memcmp>:
800015cc:	00b567b3          	or	a5,a0,a1
800015d0:	0037f793          	andi	a5,a5,3
800015d4:	04079a63          	bnez	a5,80001628 <memcmp+0x5c>
800015d8:	ffc67893          	andi	a7,a2,-4
800015dc:	011508b3          	add	a7,a0,a7
800015e0:	00050313          	mv	t1,a0
800015e4:	05157263          	bleu	a7,a0,80001628 <memcmp+0x5c>
800015e8:	0005a703          	lw	a4,0(a1)
800015ec:	00052783          	lw	a5,0(a0)
800015f0:	02f71c63          	bne	a4,a5,80001628 <memcmp+0x5c>
800015f4:	00450793          	addi	a5,a0,4
800015f8:	00458713          	addi	a4,a1,4
800015fc:	0180006f          	j	80001614 <memcmp+0x48>
80001600:	0007a803          	lw	a6,0(a5)
80001604:	0005a683          	lw	a3,0(a1)
80001608:	00450793          	addi	a5,a0,4
8000160c:	00458713          	addi	a4,a1,4
80001610:	00d81863          	bne	a6,a3,80001620 <memcmp+0x54>
80001614:	00078513          	mv	a0,a5
80001618:	00070593          	mv	a1,a4
8000161c:	ff17e2e3          	bltu	a5,a7,80001600 <memcmp+0x34>
80001620:	40650333          	sub	t1,a0,t1
80001624:	40660633          	sub	a2,a2,t1
80001628:	00c58633          	add	a2,a1,a2
8000162c:	00c58c63          	beq	a1,a2,80001644 <memcmp+0x78>
80001630:	0015478b          	p.lbu	a5,1(a0!)
80001634:	0015c70b          	p.lbu	a4,1(a1!)
80001638:	fee78ae3          	beq	a5,a4,8000162c <memcmp+0x60>
8000163c:	40e78533          	sub	a0,a5,a4
80001640:	00008067          	ret
80001644:	00000513          	li	a0,0
80001648:	00008067          	ret

8000164c <strcpy>:
8000164c:	00050713          	mv	a4,a0
80001650:	0015c78b          	p.lbu	a5,1(a1!)
80001654:	00f700ab          	p.sb	a5,1(a4!)
80001658:	fe079ce3          	bnez	a5,80001650 <strcpy+0x4>
8000165c:	00008067          	ret

80001660 <atol>:
80001660:	00054703          	lbu	a4,0(a0)
80001664:	02000793          	li	a5,32
80001668:	00f71c63          	bne	a4,a5,80001680 <atol+0x20>
8000166c:	00150793          	addi	a5,a0,1
80001670:	02000693          	li	a3,32
80001674:	00078513          	mv	a0,a5
80001678:	0017c70b          	p.lbu	a4,1(a5!)
8000167c:	fed70ce3          	beq	a4,a3,80001674 <atol+0x14>
80001680:	02d00793          	li	a5,45
80001684:	04f70c63          	beq	a4,a5,800016dc <atol+0x7c>
80001688:	02b00793          	li	a5,43
8000168c:	04f70263          	beq	a4,a5,800016d0 <atol+0x70>
80001690:	02070c63          	beqz	a4,800016c8 <atol+0x68>
80001694:	00000593          	li	a1,0
80001698:	00150693          	addi	a3,a0,1
8000169c:	00000513          	li	a0,0
800016a0:	fd070613          	addi	a2,a4,-48
800016a4:	0016c70b          	p.lbu	a4,1(a3!)
800016a8:	00251793          	slli	a5,a0,0x2
800016ac:	00a78533          	add	a0,a5,a0
800016b0:	00151513          	slli	a0,a0,0x1
800016b4:	00a60533          	add	a0,a2,a0
800016b8:	fe0714e3          	bnez	a4,800016a0 <atol+0x40>
800016bc:	00058863          	beqz	a1,800016cc <atol+0x6c>
800016c0:	40a00533          	neg	a0,a0
800016c4:	00008067          	ret
800016c8:	00000513          	li	a0,0
800016cc:	00008067          	ret
800016d0:	00154703          	lbu	a4,1(a0)
800016d4:	00150513          	addi	a0,a0,1
800016d8:	fb9ff06f          	j	80001690 <atol+0x30>
800016dc:	00154703          	lbu	a4,1(a0)
800016e0:	00100593          	li	a1,1
800016e4:	00150513          	addi	a0,a0,1
800016e8:	fa0718e3          	bnez	a4,80001698 <atol+0x38>
800016ec:	00000513          	li	a0,0
800016f0:	fd1ff06f          	j	800016c0 <atol+0x60>

800016f4 <mempool_barrier_init>:
800016f4:	02050463          	beqz	a0,8000171c <mempool_barrier_init+0x28>
800016f8:	10500073          	wfi
800016fc:	8001f797          	auipc	a5,0x8001f
80001700:	d0478793          	addi	a5,a5,-764 # 20400 <barrier>
80001704:	00100713          	li	a4,1
80001708:	00e7a6af          	amoadd.w	a3,a4,(a5)
8000170c:	0ff00713          	li	a4,255
80001710:	02e68e63          	beq	a3,a4,8000174c <mempool_barrier_init+0x58>
80001714:	10500073          	wfi
80001718:	00008067          	ret
8000171c:	8001f717          	auipc	a4,0x8001f
80001720:	ce072223          	sw	zero,-796(a4) # 20400 <barrier>
80001724:	fff00793          	li	a5,-1
80001728:	bffff717          	auipc	a4,0xbffff
8000172c:	8cf72e23          	sw	a5,-1828(a4) # 40000004 <wake_up_reg>
80001730:	10500073          	wfi
80001734:	8001f797          	auipc	a5,0x8001f
80001738:	ccc78793          	addi	a5,a5,-820 # 20400 <barrier>
8000173c:	00100713          	li	a4,1
80001740:	00e7a6af          	amoadd.w	a3,a4,(a5)
80001744:	0ff00713          	li	a4,255
80001748:	fce696e3          	bne	a3,a4,80001714 <mempool_barrier_init+0x20>
8000174c:	0807a02f          	amoswap.w	zero,zero,(a5)
80001750:	fff00793          	li	a5,-1
80001754:	0ff0000f          	fence
80001758:	bffff717          	auipc	a4,0xbffff
8000175c:	8af72623          	sw	a5,-1876(a4) # 40000004 <wake_up_reg>
80001760:	10500073          	wfi
80001764:	00008067          	ret

80001768 <mempool_barrier>:
80001768:	8001f797          	auipc	a5,0x8001f
8000176c:	c9878793          	addi	a5,a5,-872 # 20400 <barrier>
80001770:	00100693          	li	a3,1
80001774:	00d7a72f          	amoadd.w	a4,a3,(a5)
80001778:	fff50513          	addi	a0,a0,-1
8000177c:	00e50663          	beq	a0,a4,80001788 <mempool_barrier+0x20>
80001780:	10500073          	wfi
80001784:	00008067          	ret
80001788:	0807a02f          	amoswap.w	zero,zero,(a5)
8000178c:	fff00793          	li	a5,-1
80001790:	0ff0000f          	fence
80001794:	bffff717          	auipc	a4,0xbffff
80001798:	86f72823          	sw	a5,-1936(a4) # 40000004 <wake_up_reg>
8000179c:	10500073          	wfi
800017a0:	00008067          	ret
	...

Disassembly of section .rodata:

800017c0 <.rodata>:
800017c0:	654d                	lui	a0,0x13
800017c2:	6f6d                	lui	t5,0x1b
800017c4:	7972                	flw	fs2,60(sp)
800017c6:	6120                	flw	fs0,64(a0)
800017c8:	6c6c                	flw	fa1,92(s0)
800017ca:	7461636f          	jal	t1,80017f10 <__global_pointer$+0x15710>
800017ce:	203a726f          	jal	tp,800a91d0 <__global_pointer$+0xa69d0>
800017d2:	6552                	flw	fa0,20(sp)
800017d4:	7571                	lui	a0,0xffffc
800017d6:	7365                	lui	t1,0xffff9
800017d8:	6574                	flw	fa3,76(a0)
800017da:	2064                	fld	fs1,192(s0)
800017dc:	656d                	lui	a0,0x1b
800017de:	6f6d                	lui	t5,0x1b
800017e0:	7972                	flw	fs2,60(sp)
800017e2:	6520                	flw	fs0,72(a0)
800017e4:	6378                	flw	fa4,68(a4)
800017e6:	6565                	lui	a0,0x19
800017e8:	7364                	flw	fs1,100(a4)
800017ea:	6d20                	flw	fs0,88(a0)
800017ec:	7861                	lui	a6,0xffff8
800017ee:	6220                	flw	fs0,64(a2)
800017f0:	6f6c                	flw	fa1,92(a4)
800017f2:	73206b63          	bltu	zero,s2,80001f28 <_etext+0x768>
800017f6:	7a69                	lui	s4,0xffffa
800017f8:	0a65                	addi	s4,s4,25
800017fa:	0000                	unimp
800017fc:	654d                	lui	a0,0x13
800017fe:	6f6d                	lui	t5,0x1b
80001800:	7972                	flw	fs2,60(sp)
80001802:	6120                	flw	fs0,64(a0)
80001804:	6c6c                	flw	fa1,92(s0)
80001806:	7461636f          	jal	t1,80017f4c <__global_pointer$+0x1574c>
8000180a:	203a726f          	jal	tp,800a920c <__global_pointer$+0xa6a0c>
8000180e:	6f4e                	flw	ft10,208(sp)
80001810:	6c20                	flw	fs0,88(s0)
80001812:	7261                	lui	tp,0xffff8
80001814:	65206567          	0x65206567
80001818:	6f6e                	flw	ft10,216(sp)
8000181a:	6775                	lui	a4,0x1d
8000181c:	2068                	fld	fa0,192(s0)
8000181e:	6c62                	flw	fs8,24(sp)
80001820:	206b636f          	jal	t1,800b7a26 <__global_pointer$+0xb5226>
80001824:	6f66                	flw	ft10,88(sp)
80001826:	6e75                	lui	t3,0x1d
80001828:	2064                	fld	fs1,192(s0)
8000182a:	2528                	fld	fa0,72(a0)
8000182c:	2964                	fld	fs1,208(a0)
8000182e:	000a                	0xa
80001830:	654d                	lui	a0,0x13
80001832:	6f6d                	lui	t5,0x1b
80001834:	7972                	flw	fs2,60(sp)
80001836:	4f20                	lw	s0,88(a4)
80001838:	6576                	flw	fa0,92(sp)
8000183a:	6672                	flw	fa2,28(sp)
8000183c:	6f6c                	flw	fa1,92(a4)
8000183e:	74612077          	0x74612077
80001842:	2520                	fld	fs0,72(a0)
80001844:	0a70                	addi	a2,sp,284
80001846:	0000                	unimp
80001848:	654d                	lui	a0,0x13
8000184a:	6f6d                	lui	t5,0x1b
8000184c:	7972                	flw	fs2,60(sp)
8000184e:	4120                	lw	s0,64(a0)
80001850:	6c6c                	flw	fa1,92(s0)
80001852:	7461636f          	jal	t1,80017f98 <__global_pointer$+0x15798>
80001856:	5320726f          	jal	tp,80008d88 <__global_pointer$+0x6588>
8000185a:	6174                	flw	fa3,68(a0)
8000185c:	6574                	flw	fa3,76(a0)
8000185e:	000a                	0xa
80001860:	7246                	flw	ft4,112(sp)
80001862:	6565                	lui	a0,0x19
80001864:	4220                	lw	s0,64(a2)
80001866:	6f6c                	flw	fa1,92(a4)
80001868:	61206b63          	bltu	zero,s2,80001e7e <_etext+0x6be>
8000186c:	2074                	fld	fa3,192(s0)
8000186e:	3025                	jal	80001096 <_vsnprintf+0x6a6>
80001870:	5838                	lw	a4,112(s0)
80001872:	7720                	flw	fs0,104(a4)
80001874:	7469                	lui	s0,0xffffa
80001876:	2068                	fld	fa0,192(s0)
80001878:	657a6973          	csrrsi	s2,0x657,20
8000187c:	2520                	fld	fs0,72(a0)
8000187e:	000a7537          	lui	a0,0xa7
80001882:	0000                	unimp
80001884:	6c42                	flw	fs8,16(sp)
80001886:	206b636f          	jal	t1,800b7a8c <__global_pointer$+0xb528c>
8000188a:	6f70                	flw	fa2,92(a4)
8000188c:	6e69                	lui	t3,0x1a
8000188e:	7374                	flw	fa3,100(a4)
80001890:	7420                	flw	fs0,104(s0)
80001892:	7469206f          	j	80093fd8 <__global_pointer$+0x917d8>
80001896:	666c6573          	csrrsi	a0,0x666,24
8000189a:	2021                	jal	800018a2 <_etext+0xe2>
8000189c:	000a                	0xa
8000189e:	0000                	unimp
800018a0:	f328                	fsw	fa0,96(a4)
800018a2:	ffff                	0xffff
800018a4:	f28c                	fsw	fa1,32(a3)
800018a6:	ffff                	0xffff
800018a8:	f28c                	fsw	fa1,32(a3)
800018aa:	ffff                	0xffff
800018ac:	f31c                	fsw	fa5,32(a4)
800018ae:	ffff                	0xffff
800018b0:	f28c                	fsw	fa1,32(a3)
800018b2:	ffff                	0xffff
800018b4:	f28c                	fsw	fa1,32(a3)
800018b6:	ffff                	0xffff
800018b8:	f28c                	fsw	fa1,32(a3)
800018ba:	ffff                	0xffff
800018bc:	f28c                	fsw	fa1,32(a3)
800018be:	ffff                	0xffff
800018c0:	f28c                	fsw	fa1,32(a3)
800018c2:	ffff                	0xffff
800018c4:	f28c                	fsw	fa1,32(a3)
800018c6:	ffff                	0xffff
800018c8:	f28c                	fsw	fa1,32(a3)
800018ca:	ffff                	0xffff
800018cc:	f304                	fsw	fs1,32(a4)
800018ce:	ffff                	0xffff
800018d0:	f28c                	fsw	fa1,32(a3)
800018d2:	ffff                	0xffff
800018d4:	f310                	fsw	fa2,32(a4)
800018d6:	ffff                	0xffff
800018d8:	f28c                	fsw	fa1,32(a3)
800018da:	ffff                	0xffff
800018dc:	f28c                	fsw	fa1,32(a3)
800018de:	ffff                	0xffff
800018e0:	f26c                	fsw	fa1,100(a2)
800018e2:	ffff                	0xffff
800018e4:	f4b8                	fsw	fa4,104(s1)
800018e6:	ffff                	0xffff
800018e8:	f180                	fsw	fs0,32(a1)
800018ea:	ffff                	0xffff
800018ec:	f180                	fsw	fs0,32(a1)
800018ee:	ffff                	0xffff
800018f0:	f180                	fsw	fs0,32(a1)
800018f2:	ffff                	0xffff
800018f4:	f180                	fsw	fs0,32(a1)
800018f6:	ffff                	0xffff
800018f8:	f180                	fsw	fs0,32(a1)
800018fa:	ffff                	0xffff
800018fc:	f180                	fsw	fs0,32(a1)
800018fe:	ffff                	0xffff
80001900:	f180                	fsw	fs0,32(a1)
80001902:	ffff                	0xffff
80001904:	f180                	fsw	fs0,32(a1)
80001906:	ffff                	0xffff
80001908:	f180                	fsw	fs0,32(a1)
8000190a:	ffff                	0xffff
8000190c:	f180                	fsw	fs0,32(a1)
8000190e:	ffff                	0xffff
80001910:	f180                	fsw	fs0,32(a1)
80001912:	ffff                	0xffff
80001914:	f180                	fsw	fs0,32(a1)
80001916:	ffff                	0xffff
80001918:	f180                	fsw	fs0,32(a1)
8000191a:	ffff                	0xffff
8000191c:	f180                	fsw	fs0,32(a1)
8000191e:	ffff                	0xffff
80001920:	f180                	fsw	fs0,32(a1)
80001922:	ffff                	0xffff
80001924:	f180                	fsw	fs0,32(a1)
80001926:	ffff                	0xffff
80001928:	f180                	fsw	fs0,32(a1)
8000192a:	ffff                	0xffff
8000192c:	f180                	fsw	fs0,32(a1)
8000192e:	ffff                	0xffff
80001930:	f180                	fsw	fs0,32(a1)
80001932:	ffff                	0xffff
80001934:	f180                	fsw	fs0,32(a1)
80001936:	ffff                	0xffff
80001938:	f180                	fsw	fs0,32(a1)
8000193a:	ffff                	0xffff
8000193c:	f180                	fsw	fs0,32(a1)
8000193e:	ffff                	0xffff
80001940:	f180                	fsw	fs0,32(a1)
80001942:	ffff                	0xffff
80001944:	f180                	fsw	fs0,32(a1)
80001946:	ffff                	0xffff
80001948:	f180                	fsw	fs0,32(a1)
8000194a:	ffff                	0xffff
8000194c:	f180                	fsw	fs0,32(a1)
8000194e:	ffff                	0xffff
80001950:	f180                	fsw	fs0,32(a1)
80001952:	ffff                	0xffff
80001954:	f180                	fsw	fs0,32(a1)
80001956:	ffff                	0xffff
80001958:	f180                	fsw	fs0,32(a1)
8000195a:	ffff                	0xffff
8000195c:	f180                	fsw	fs0,32(a1)
8000195e:	ffff                	0xffff
80001960:	f180                	fsw	fs0,32(a1)
80001962:	ffff                	0xffff
80001964:	f180                	fsw	fs0,32(a1)
80001966:	ffff                	0xffff
80001968:	f180                	fsw	fs0,32(a1)
8000196a:	ffff                	0xffff
8000196c:	f180                	fsw	fs0,32(a1)
8000196e:	ffff                	0xffff
80001970:	f180                	fsw	fs0,32(a1)
80001972:	ffff                	0xffff
80001974:	f180                	fsw	fs0,32(a1)
80001976:	ffff                	0xffff
80001978:	f180                	fsw	fs0,32(a1)
8000197a:	ffff                	0xffff
8000197c:	f180                	fsw	fs0,32(a1)
8000197e:	ffff                	0xffff
80001980:	f180                	fsw	fs0,32(a1)
80001982:	ffff                	0xffff
80001984:	f180                	fsw	fs0,32(a1)
80001986:	ffff                	0xffff
80001988:	f180                	fsw	fs0,32(a1)
8000198a:	ffff                	0xffff
8000198c:	f180                	fsw	fs0,32(a1)
8000198e:	ffff                	0xffff
80001990:	f180                	fsw	fs0,32(a1)
80001992:	ffff                	0xffff
80001994:	f180                	fsw	fs0,32(a1)
80001996:	ffff                	0xffff
80001998:	f180                	fsw	fs0,32(a1)
8000199a:	ffff                	0xffff
8000199c:	f180                	fsw	fs0,32(a1)
8000199e:	ffff                	0xffff
800019a0:	f180                	fsw	fs0,32(a1)
800019a2:	ffff                	0xffff
800019a4:	f180                	fsw	fs0,32(a1)
800019a6:	ffff                	0xffff
800019a8:	f180                	fsw	fs0,32(a1)
800019aa:	ffff                	0xffff
800019ac:	f180                	fsw	fs0,32(a1)
800019ae:	ffff                	0xffff
800019b0:	f44c                	fsw	fa1,44(s0)
800019b2:	ffff                	0xffff
800019b4:	f180                	fsw	fs0,32(a1)
800019b6:	ffff                	0xffff
800019b8:	f180                	fsw	fs0,32(a1)
800019ba:	ffff                	0xffff
800019bc:	f180                	fsw	fs0,32(a1)
800019be:	ffff                	0xffff
800019c0:	f180                	fsw	fs0,32(a1)
800019c2:	ffff                	0xffff
800019c4:	f180                	fsw	fs0,32(a1)
800019c6:	ffff                	0xffff
800019c8:	f180                	fsw	fs0,32(a1)
800019ca:	ffff                	0xffff
800019cc:	f180                	fsw	fs0,32(a1)
800019ce:	ffff                	0xffff
800019d0:	f180                	fsw	fs0,32(a1)
800019d2:	ffff                	0xffff
800019d4:	f180                	fsw	fs0,32(a1)
800019d6:	ffff                	0xffff
800019d8:	f44c                	fsw	fa1,44(s0)
800019da:	ffff                	0xffff
800019dc:	f3e8                	fsw	fa0,100(a5)
800019de:	ffff                	0xffff
800019e0:	f44c                	fsw	fa1,44(s0)
800019e2:	ffff                	0xffff
800019e4:	f180                	fsw	fs0,32(a1)
800019e6:	ffff                	0xffff
800019e8:	f180                	fsw	fs0,32(a1)
800019ea:	ffff                	0xffff
800019ec:	f180                	fsw	fs0,32(a1)
800019ee:	ffff                	0xffff
800019f0:	f180                	fsw	fs0,32(a1)
800019f2:	ffff                	0xffff
800019f4:	f44c                	fsw	fa1,44(s0)
800019f6:	ffff                	0xffff
800019f8:	f180                	fsw	fs0,32(a1)
800019fa:	ffff                	0xffff
800019fc:	f180                	fsw	fs0,32(a1)
800019fe:	ffff                	0xffff
80001a00:	f180                	fsw	fs0,32(a1)
80001a02:	ffff                	0xffff
80001a04:	f180                	fsw	fs0,32(a1)
80001a06:	ffff                	0xffff
80001a08:	f180                	fsw	fs0,32(a1)
80001a0a:	ffff                	0xffff
80001a0c:	f44c                	fsw	fa1,44(s0)
80001a0e:	ffff                	0xffff
80001a10:	f3ac                	fsw	fa1,96(a5)
80001a12:	ffff                	0xffff
80001a14:	f180                	fsw	fs0,32(a1)
80001a16:	ffff                	0xffff
80001a18:	f180                	fsw	fs0,32(a1)
80001a1a:	ffff                	0xffff
80001a1c:	f314                	fsw	fa3,32(a4)
80001a1e:	ffff                	0xffff
80001a20:	f180                	fsw	fs0,32(a1)
80001a22:	ffff                	0xffff
80001a24:	f44c                	fsw	fa1,44(s0)
80001a26:	ffff                	0xffff
80001a28:	f180                	fsw	fs0,32(a1)
80001a2a:	ffff                	0xffff
80001a2c:	f180                	fsw	fs0,32(a1)
80001a2e:	ffff                	0xffff
80001a30:	f44c                	fsw	fa1,44(s0)
80001a32:	ffff                	0xffff

Disassembly of section .rodata1:

80001a34 <_erodata-0x5cc>:
	...

Disassembly of section .sbss:

80002000 <alloc_l1>:
80002000:	0000                	unimp
	...

Disassembly of section .l2:

80002004 <__l2_alloc_base-0xc>:
	...

Disassembly of section .comment:

80002010 <.comment>:
80002010:	3a434347          	0x3a434347
80002014:	2820                	fld	fs0,80(s0)
80002016:	29554e47          	0x29554e47
8000201a:	3720                	fld	fs0,104(a4)
8000201c:	312e                	fld	ft2,232(sp)
8000201e:	312e                	fld	ft2,232(sp)
80002020:	3220                	fld	fs0,96(a2)
80002022:	3130                	fld	fa2,96(a0)
80002024:	30353037          	lui	zero,0x30353
80002028:	0039                	c.addi	zero,14

Disassembly of section .Pulp_Chip.Info:

00000000 <.Pulp_Chip.Info>:
   0:	000a                	0xa
   2:	0000                	unimp
   4:	0038                	addi	a4,sp,8
   6:	0000                	unimp
   8:	0001                	nop
   a:	0000                	unimp
   c:	7550                	flw	fa2,44(a0)
   e:	706c                	flw	fa1,100(s0)
  10:	495f 666e 006f      	0x6f666e495f
  16:	70696863          	bltu	s2,t1,726 <__seq_start+0x726>
  1a:	6e3d                	lui	t3,0xf
  1c:	20656e6f          	jal	t3,56222 <__heap_start+0x33922>
  20:	3d757063          	bleu	s7,a0,3e0 <__seq_start+0x3e0>
  24:	6f6e                	flw	ft10,216(sp)
  26:	656e                	flw	fa0,216(sp)
  28:	7020                	flw	fs0,96(s0)
  2a:	3d65                	jal	fffffee2 <pulp__FC+0xfffffee3>
  2c:	312d                	jal	fffffc56 <pulp__FC+0xfffffc57>
  2e:	6620                	flw	fs0,72(a2)
  30:	312d3d63          	p.bneimm	s10,-14,34a <__seq_start+0x34a>
  34:	6c20                	flw	fs0,88(s0)
  36:	3d32                	fld	fs10,296(sp)
  38:	312d                	jal	fffffc62 <pulp__FC+0xfffffc63>
  3a:	6c20                	flw	fs0,88(s0)
  3c:	6331                	lui	t1,0xc
  3e:	3d6c                	fld	fa1,248(a0)
  40:	312d                	jal	fffffc6a <pulp__FC+0xfffffc6b>
  42:	6c20                	flw	fs0,88(s0)
  44:	6631                	lui	a2,0xc
  46:	312d3d63          	p.bneimm	s10,-14,360 <__seq_start+0x360>
  4a:	0000                	unimp
	...

Disassembly of section .debug_frame:

00000000 <.debug_frame>:
   0:	000c                	addi	a1,sp,0
   2:	0000                	unimp
   4:	ffff                	0xffff
   6:	ffff                	0xffff
   8:	7c010003          	lb	zero,1984(sp)
   c:	0c01                	addi	s8,s8,0
   e:	0002                	0x2
  10:	0040                	addi	s0,sp,4
  12:	0000                	unimp
  14:	0000                	unimp
  16:	0000                	unimp
  18:	0108                	addi	a0,sp,128
  1a:	8000                	0x8000
  1c:	005c                	addi	a5,sp,4
  1e:	0000                	unimp
  20:	0404                	addi	s1,sp,512
  22:	0000                	unimp
  24:	0e00                	addi	s0,sp,784
  26:	0410                	addi	a2,sp,512
  28:	000c                	addi	a1,sp,0
  2a:	0000                	unimp
  2c:	0181                	addi	gp,gp,0
  2e:	0288                	addi	a0,sp,320
  30:	0389                	addi	t2,t2,2
  32:	3404                	fld	fs1,40(s0)
  34:	0000                	unimp
  36:	0a00                	addi	s0,sp,272
  38:	04c1                	addi	s1,s1,16
  3a:	0004                	addi	s1,sp,0
  3c:	0000                	unimp
  3e:	04c8                	addi	a0,sp,580
  40:	0004                	addi	s1,sp,0
  42:	0000                	unimp
  44:	04c9                	addi	s1,s1,18
  46:	0004                	addi	s1,sp,0
  48:	0000                	unimp
  4a:	000e                	0xe
  4c:	0404                	addi	s1,sp,512
  4e:	0000                	unimp
  50:	0b00                	addi	s0,sp,400
  52:	0000                	unimp
  54:	000c                	addi	a1,sp,0
  56:	0000                	unimp
  58:	ffff                	0xffff
  5a:	ffff                	0xffff
  5c:	7c010003          	lb	zero,1984(sp)
  60:	0c01                	addi	s8,s8,0
  62:	0002                	0x2
  64:	000c                	addi	a1,sp,0
  66:	0000                	unimp
  68:	0054                	addi	a3,sp,4
  6a:	0000                	unimp
  6c:	0164                	addi	s1,sp,140
  6e:	8000                	0x8000
  70:	0024                	addi	s1,sp,8
  72:	0000                	unimp
  74:	0044                	addi	s1,sp,4
  76:	0000                	unimp
  78:	0054                	addi	a3,sp,4
  7a:	0000                	unimp
  7c:	0188                	addi	a0,sp,192
  7e:	8000                	0x8000
  80:	00e4                	addi	s1,sp,76
  82:	0000                	unimp
  84:	0404                	addi	s1,sp,512
  86:	0000                	unimp
  88:	0e00                	addi	s0,sp,784
  8a:	0410                	addi	a2,sp,512
  8c:	0008                	addi	a0,sp,0
  8e:	0000                	unimp
  90:	0181                	addi	gp,gp,0
  92:	4c04                	lw	s1,24(s0)
  94:	0000                	unimp
  96:	0a00                	addi	s0,sp,272
  98:	04c1                	addi	s1,s1,16
  9a:	0008                	addi	a0,sp,0
  9c:	0000                	unimp
  9e:	000e                	0xe
  a0:	0404                	addi	s1,sp,512
  a2:	0000                	unimp
  a4:	0b00                	addi	s0,sp,400
  a6:	3004                	fld	fs1,32(s0)
  a8:	0000                	unimp
  aa:	0a00                	addi	s0,sp,272
  ac:	04c1                	addi	s1,s1,16
  ae:	0004                	addi	s1,sp,0
  b0:	0000                	unimp
  b2:	000e                	0xe
  b4:	0404                	addi	s1,sp,512
  b6:	0000                	unimp
  b8:	0b00                	addi	s0,sp,400
  ba:	0000                	unimp
  bc:	0044                	addi	s1,sp,4
  be:	0000                	unimp
  c0:	0054                	addi	a3,sp,4
  c2:	0000                	unimp
  c4:	026c                	addi	a1,sp,268
  c6:	8000                	0x8000
  c8:	00f0                	addi	a2,sp,76
  ca:	0000                	unimp
  cc:	0404                	addi	s1,sp,512
  ce:	0000                	unimp
  d0:	0e00                	addi	s0,sp,784
  d2:	0410                	addi	a2,sp,512
  d4:	0008                	addi	a0,sp,0
  d6:	0000                	unimp
  d8:	0181                	addi	gp,gp,0
  da:	5404                	lw	s1,40(s0)
  dc:	0000                	unimp
  de:	0a00                	addi	s0,sp,272
  e0:	04c1                	addi	s1,s1,16
  e2:	0008                	addi	a0,sp,0
  e4:	0000                	unimp
  e6:	000e                	0xe
  e8:	0404                	addi	s1,sp,512
  ea:	0000                	unimp
  ec:	0b00                	addi	s0,sp,400
  ee:	2c04                	fld	fs1,24(s0)
  f0:	0000                	unimp
  f2:	0a00                	addi	s0,sp,272
  f4:	04c1                	addi	s1,s1,16
  f6:	0004                	addi	s1,sp,0
  f8:	0000                	unimp
  fa:	000e                	0xe
  fc:	0404                	addi	s1,sp,512
  fe:	0000                	unimp
 100:	0b00                	addi	s0,sp,400
 102:	0000                	unimp
 104:	000c                	addi	a1,sp,0
 106:	0000                	unimp
 108:	0054                	addi	a3,sp,4
 10a:	0000                	unimp
 10c:	035c                	addi	a5,sp,388
 10e:	8000                	0x8000
 110:	00b4                	addi	a3,sp,72
 112:	0000                	unimp
 114:	000c                	addi	a1,sp,0
 116:	0000                	unimp
 118:	0054                	addi	a3,sp,4
 11a:	0000                	unimp
 11c:	0410                	addi	a2,sp,512
 11e:	8000                	0x8000
 120:	00bc                	addi	a5,sp,72
 122:	0000                	unimp
 124:	005c                	addi	a5,sp,4
 126:	0000                	unimp
 128:	0054                	addi	a3,sp,4
 12a:	0000                	unimp
 12c:	04cc                	addi	a1,sp,580
 12e:	8000                	0x8000
 130:	0080                	addi	s0,sp,64
 132:	0000                	unimp
 134:	0404                	addi	s1,sp,512
 136:	0000                	unimp
 138:	0e00                	addi	s0,sp,784
 13a:	0410                	addi	a2,sp,512
 13c:	0004                	addi	s1,sp,0
 13e:	0000                	unimp
 140:	0288                	addi	a0,sp,320
 142:	1404                	addi	s1,sp,544
 144:	0000                	unimp
 146:	8100                	0x8100
 148:	8901                	andi	a0,a0,0
 14a:	00380403          	lb	s0,3(a6) # ffff8003 <pulp__FC+0xffff8004>
 14e:	0000                	unimp
 150:	c80a                	sw	sp,16(sp)
 152:	0404                	addi	s1,sp,512
 154:	0000                	unimp
 156:	c100                	sw	s0,0(a0)
 158:	0404                	addi	s1,sp,512
 15a:	0000                	unimp
 15c:	c900                	sw	s0,16(a0)
 15e:	0c04                	addi	s1,sp,528
 160:	0000                	unimp
 162:	0e00                	addi	s0,sp,784
 164:	0400                	addi	s0,sp,512
 166:	0004                	addi	s1,sp,0
 168:	0000                	unimp
 16a:	0004040b          	p.lb	s0,0(s0!) # ffffa000 <pulp__FC+0xffffa001>
 16e:	0000                	unimp
 170:	04c1                	addi	s1,s1,16
 172:	0004                	addi	s1,sp,0
 174:	0000                	unimp
 176:	04c8                	addi	a0,sp,580
 178:	0004                	addi	s1,sp,0
 17a:	0000                	unimp
 17c:	04c9                	addi	s1,s1,18
 17e:	0004                	addi	s1,sp,0
 180:	0000                	unimp
 182:	000e                	0xe
 184:	000c                	addi	a1,sp,0
 186:	0000                	unimp
 188:	0054                	addi	a3,sp,4
 18a:	0000                	unimp
 18c:	054c                	addi	a1,sp,644
 18e:	8000                	0x8000
 190:	000c                	addi	a1,sp,0
 192:	0000                	unimp
 194:	000c                	addi	a1,sp,0
 196:	0000                	unimp
 198:	0054                	addi	a3,sp,4
 19a:	0000                	unimp
 19c:	0558                	addi	a4,sp,644
 19e:	8000                	0x8000
 1a0:	0014                	addi	a3,sp,0
 1a2:	0000                	unimp
 1a4:	000c                	addi	a1,sp,0
 1a6:	0000                	unimp
 1a8:	ffff                	0xffff
 1aa:	ffff                	0xffff
 1ac:	7c010003          	lb	zero,1984(sp)
 1b0:	0c01                	addi	s8,s8,0
 1b2:	0002                	0x2
 1b4:	000c                	addi	a1,sp,0
 1b6:	0000                	unimp
 1b8:	01a4                	addi	s1,sp,200
 1ba:	0000                	unimp
 1bc:	056c                	addi	a1,sp,652
 1be:	8000                	0x8000
 1c0:	000c                	addi	a1,sp,0
 1c2:	0000                	unimp
 1c4:	000c                	addi	a1,sp,0
 1c6:	0000                	unimp
 1c8:	01a4                	addi	s1,sp,200
 1ca:	0000                	unimp
 1cc:	0578                	addi	a4,sp,652
 1ce:	8000                	0x8000
 1d0:	0004                	addi	s1,sp,0
 1d2:	0000                	unimp
 1d4:	000c                	addi	a1,sp,0
 1d6:	0000                	unimp
 1d8:	01a4                	addi	s1,sp,200
 1da:	0000                	unimp
 1dc:	057c                	addi	a5,sp,652
 1de:	8000                	0x8000
 1e0:	0014                	addi	a3,sp,0
 1e2:	0000                	unimp
 1e4:	007c                	addi	a5,sp,12
 1e6:	0000                	unimp
 1e8:	01a4                	addi	s1,sp,200
 1ea:	0000                	unimp
 1ec:	0590                	addi	a2,sp,704
 1ee:	8000                	0x8000
 1f0:	0460                	addi	s0,sp,524
 1f2:	0000                	unimp
 1f4:	0404                	addi	s1,sp,512
 1f6:	0000                	unimp
 1f8:	0e00                	addi	s0,sp,784
 1fa:	0450                	addi	a2,sp,516
 1fc:	0004                	addi	s1,sp,0
 1fe:	0000                	unimp
 200:	0288                	addi	a0,sp,320
 202:	2804                	fld	fs1,16(s0)
 204:	0000                	unimp
 206:	8900                	0x8900
 208:	93049203          	lh	tp,-1744(s1)
 20c:	9405                	srai	s0,s0,0x21
 20e:	9506                	add	a0,a0,ra
 210:	96018107          	0x96018107
 214:	9708                	0x9708
 216:	9809                	andi	s0,s0,-30
 218:	040a                	slli	s0,s0,0x2
 21a:	0198                	addi	a4,sp,192
 21c:	0000                	unimp
 21e:	c10a                	sw	sp,128(sp)
 220:	0404                	addi	s1,sp,512
 222:	0000                	unimp
 224:	c800                	sw	s0,16(s0)
 226:	0404                	addi	s1,sp,512
 228:	0000                	unimp
 22a:	c900                	sw	s0,16(a0)
 22c:	0404                	addi	s1,sp,512
 22e:	0000                	unimp
 230:	d200                	sw	s0,32(a2)
 232:	0404                	addi	s1,sp,512
 234:	0000                	unimp
 236:	d300                	sw	s0,32(a4)
 238:	0404                	addi	s1,sp,512
 23a:	0000                	unimp
 23c:	d400                	sw	s0,40(s0)
 23e:	0404                	addi	s1,sp,512
 240:	0000                	unimp
 242:	d500                	sw	s0,40(a0)
 244:	0404                	addi	s1,sp,512
 246:	0000                	unimp
 248:	d600                	sw	s0,40(a2)
 24a:	0404                	addi	s1,sp,512
 24c:	0000                	unimp
 24e:	d700                	sw	s0,40(a4)
 250:	0404                	addi	s1,sp,512
 252:	0000                	unimp
 254:	d800                	sw	s0,48(s0)
 256:	0404                	addi	s1,sp,512
 258:	0000                	unimp
 25a:	0e00                	addi	s0,sp,784
 25c:	0400                	addi	s0,sp,512
 25e:	0004                	addi	s1,sp,0
 260:	0000                	unimp
 262:	0090000b          	p.lb	zero,9(zero!) # 9 <__seq_start+0x9>
 266:	0000                	unimp
 268:	01a4                	addi	s1,sp,200
 26a:	0000                	unimp
 26c:	09f0                	addi	a2,sp,220
 26e:	8000                	0x8000
 270:	0788                	addi	a0,sp,960
 272:	0000                	unimp
 274:	0404                	addi	s1,sp,512
 276:	0000                	unimp
 278:	0e00                	addi	s0,sp,784
 27a:	0460                	addi	s0,sp,524
 27c:	0034                	addi	a3,sp,8
 27e:	0000                	unimp
 280:	0288                	addi	a0,sp,320
 282:	0389                	addi	t2,t2,2
 284:	0a98                	addi	a4,sp,336
 286:	01810d9b          	0x1810d9b
 28a:	0492                	slli	s1,s1,0x4
 28c:	06940593          	addi	a1,s0,105
 290:	0795                	addi	a5,a5,5
 292:	0896                	slli	a7,a7,0x5
 294:	0b990997          	auipc	s3,0xb990
 298:	0c9a                	slli	s9,s9,0x6
 29a:	7404                	flw	fs1,40(s0)
 29c:	0000                	unimp
 29e:	0a00                	addi	s0,sp,272
 2a0:	04c1                	addi	s1,s1,16
 2a2:	0004                	addi	s1,sp,0
 2a4:	0000                	unimp
 2a6:	04c8                	addi	a0,sp,580
 2a8:	0008                	addi	a0,sp,0
 2aa:	0000                	unimp
 2ac:	04c9                	addi	s1,s1,18
 2ae:	0004                	addi	s1,sp,0
 2b0:	0000                	unimp
 2b2:	04d2                	slli	s1,s1,0x14
 2b4:	0004                	addi	s1,sp,0
 2b6:	0000                	unimp
 2b8:	000404d3          	0x404d3
 2bc:	0000                	unimp
 2be:	04d4                	addi	a3,sp,580
 2c0:	0004                	addi	s1,sp,0
 2c2:	0000                	unimp
 2c4:	04d5                	addi	s1,s1,21
 2c6:	0004                	addi	s1,sp,0
 2c8:	0000                	unimp
 2ca:	04d6                	slli	s1,s1,0x15
 2cc:	0004                	addi	s1,sp,0
 2ce:	0000                	unimp
 2d0:	000404d7          	pv.add.h	s1,s0,zero
 2d4:	0000                	unimp
 2d6:	04d8                	addi	a4,sp,580
 2d8:	0004                	addi	s1,sp,0
 2da:	0000                	unimp
 2dc:	04d9                	addi	s1,s1,22
 2de:	0004                	addi	s1,sp,0
 2e0:	0000                	unimp
 2e2:	04da                	slli	s1,s1,0x16
 2e4:	0004                	addi	s1,sp,0
 2e6:	0000                	unimp
 2e8:	000404db          	0x404db
 2ec:	0000                	unimp
 2ee:	000e                	0xe
 2f0:	0404                	addi	s1,sp,512
 2f2:	0000                	unimp
 2f4:	0b00                	addi	s0,sp,400
 2f6:	0000                	unimp
 2f8:	000c                	addi	a1,sp,0
 2fa:	0000                	unimp
 2fc:	01a4                	addi	s1,sp,200
 2fe:	0000                	unimp
 300:	1178                	addi	a4,sp,172
 302:	8000                	0x8000
 304:	000c                	addi	a1,sp,0
 306:	0000                	unimp
 308:	0028                	addi	a0,sp,8
 30a:	0000                	unimp
 30c:	01a4                	addi	s1,sp,200
 30e:	0000                	unimp
 310:	1184                	addi	s1,sp,224
 312:	8000                	0x8000
 314:	0054                	addi	a3,sp,4
 316:	0000                	unimp
 318:	0404                	addi	s1,sp,512
 31a:	0000                	unimp
 31c:	0e00                	addi	s0,sp,784
 31e:	0440                	addi	s0,sp,516
 320:	0030                	addi	a2,sp,8
 322:	0000                	unimp
 324:	0981                	addi	s3,s3,0
 326:	1804                	addi	s1,sp,48
 328:	0000                	unimp
 32a:	c100                	sw	s0,0(a0)
 32c:	0404                	addi	s1,sp,512
 32e:	0000                	unimp
 330:	0e00                	addi	s0,sp,784
 332:	0000                	unimp
 334:	0028                	addi	a0,sp,8
 336:	0000                	unimp
 338:	01a4                	addi	s1,sp,200
 33a:	0000                	unimp
 33c:	11d8                	addi	a4,sp,228
 33e:	8000                	0x8000
 340:	0050                	addi	a2,sp,4
 342:	0000                	unimp
 344:	0404                	addi	s1,sp,512
 346:	0000                	unimp
 348:	0e00                	addi	s0,sp,784
 34a:	0440                	addi	s0,sp,516
 34c:	002c                	addi	a1,sp,8
 34e:	0000                	unimp
 350:	0981                	addi	s3,s3,0
 352:	1804                	addi	s1,sp,48
 354:	0000                	unimp
 356:	c100                	sw	s0,0(a0)
 358:	0404                	addi	s1,sp,512
 35a:	0000                	unimp
 35c:	0e00                	addi	s0,sp,784
 35e:	0000                	unimp
 360:	0028                	addi	a0,sp,8
 362:	0000                	unimp
 364:	01a4                	addi	s1,sp,200
 366:	0000                	unimp
 368:	1228                	addi	a0,sp,296
 36a:	8000                	0x8000
 36c:	004c                	addi	a1,sp,4
 36e:	0000                	unimp
 370:	0404                	addi	s1,sp,512
 372:	0000                	unimp
 374:	0e00                	addi	s0,sp,784
 376:	0440                	addi	s0,sp,516
 378:	0028                	addi	a0,sp,8
 37a:	0000                	unimp
 37c:	0981                	addi	s3,s3,0
 37e:	1804                	addi	s1,sp,48
 380:	0000                	unimp
 382:	c100                	sw	s0,0(a0)
 384:	0404                	addi	s1,sp,512
 386:	0000                	unimp
 388:	0e00                	addi	s0,sp,784
 38a:	0000                	unimp
 38c:	000c                	addi	a1,sp,0
 38e:	0000                	unimp
 390:	01a4                	addi	s1,sp,200
 392:	0000                	unimp
 394:	1274                	addi	a3,sp,300
 396:	8000                	0x8000
 398:	001c                	addi	a5,sp,0
 39a:	0000                	unimp
 39c:	0028                	addi	a0,sp,8
 39e:	0000                	unimp
 3a0:	01a4                	addi	s1,sp,200
 3a2:	0000                	unimp
 3a4:	1290                	addi	a2,sp,352
 3a6:	8000                	0x8000
 3a8:	0054                	addi	a3,sp,4
 3aa:	0000                	unimp
 3ac:	0404                	addi	s1,sp,512
 3ae:	0000                	unimp
 3b0:	0e00                	addi	s0,sp,784
 3b2:	0440                	addi	s0,sp,516
 3b4:	0030                	addi	a2,sp,8
 3b6:	0000                	unimp
 3b8:	0981                	addi	s3,s3,0
 3ba:	1804                	addi	s1,sp,48
 3bc:	0000                	unimp
 3be:	c100                	sw	s0,0(a0)
 3c0:	0404                	addi	s1,sp,512
 3c2:	0000                	unimp
 3c4:	0e00                	addi	s0,sp,784
 3c6:	0000                	unimp
 3c8:	000c                	addi	a1,sp,0
 3ca:	0000                	unimp
 3cc:	ffff                	0xffff
 3ce:	ffff                	0xffff
 3d0:	7c010003          	lb	zero,1984(sp)
 3d4:	0c01                	addi	s8,s8,0
 3d6:	0002                	0x2
 3d8:	000c                	addi	a1,sp,0
 3da:	0000                	unimp
 3dc:	03c8                	addi	a0,sp,452
 3de:	0000                	unimp
 3e0:	12e4                	addi	s1,sp,364
 3e2:	8000                	0x8000
 3e4:	000c                	addi	a1,sp,0
 3e6:	0000                	unimp
 3e8:	000c                	addi	a1,sp,0
 3ea:	0000                	unimp
 3ec:	ffff                	0xffff
 3ee:	ffff                	0xffff
 3f0:	7c010003          	lb	zero,1984(sp)
 3f4:	0c01                	addi	s8,s8,0
 3f6:	0002                	0x2
 3f8:	000c                	addi	a1,sp,0
 3fa:	0000                	unimp
 3fc:	03e8                	addi	a0,sp,460
 3fe:	0000                	unimp
 400:	12f0                	addi	a2,sp,364
 402:	8000                	0x8000
 404:	016c                	addi	a1,sp,140
 406:	0000                	unimp
 408:	000c                	addi	a1,sp,0
 40a:	0000                	unimp
 40c:	03e8                	addi	a0,sp,460
 40e:	0000                	unimp
 410:	145c                	addi	a5,sp,548
 412:	8000                	0x8000
 414:	0120                	addi	s0,sp,136
 416:	0000                	unimp
 418:	000c                	addi	a1,sp,0
 41a:	0000                	unimp
 41c:	03e8                	addi	a0,sp,460
 41e:	0000                	unimp
 420:	157c                	addi	a5,sp,684
 422:	8000                	0x8000
 424:	0030                	addi	a2,sp,8
 426:	0000                	unimp
 428:	000c                	addi	a1,sp,0
 42a:	0000                	unimp
 42c:	03e8                	addi	a0,sp,460
 42e:	0000                	unimp
 430:	15ac                	addi	a1,sp,744
 432:	8000                	0x8000
 434:	0020                	addi	s0,sp,8
 436:	0000                	unimp
 438:	000c                	addi	a1,sp,0
 43a:	0000                	unimp
 43c:	03e8                	addi	a0,sp,460
 43e:	0000                	unimp
 440:	15cc                	addi	a1,sp,740
 442:	8000                	0x8000
 444:	0080                	addi	s0,sp,64
 446:	0000                	unimp
 448:	000c                	addi	a1,sp,0
 44a:	0000                	unimp
 44c:	03e8                	addi	a0,sp,460
 44e:	0000                	unimp
 450:	164c                	addi	a1,sp,804
 452:	8000                	0x8000
 454:	0014                	addi	a3,sp,0
 456:	0000                	unimp
 458:	000c                	addi	a1,sp,0
 45a:	0000                	unimp
 45c:	03e8                	addi	a0,sp,460
 45e:	0000                	unimp
 460:	1660                	addi	s0,sp,812
 462:	8000                	0x8000
 464:	0094                	addi	a3,sp,64
 466:	0000                	unimp
 468:	000c                	addi	a1,sp,0
 46a:	0000                	unimp
 46c:	ffff                	0xffff
 46e:	ffff                	0xffff
 470:	7c010003          	lb	zero,1984(sp)
 474:	0c01                	addi	s8,s8,0
 476:	0002                	0x2
 478:	000c                	addi	a1,sp,0
 47a:	0000                	unimp
 47c:	0468                	addi	a0,sp,524
 47e:	0000                	unimp
 480:	16f4                	addi	a3,sp,876
 482:	8000                	0x8000
 484:	0074                	addi	a3,sp,12
 486:	0000                	unimp
 488:	000c                	addi	a1,sp,0
 48a:	0000                	unimp
 48c:	0468                	addi	a0,sp,524
 48e:	0000                	unimp
 490:	1768                	addi	a0,sp,940
 492:	8000                	0x8000
 494:	003c                	addi	a5,sp,8
	...

Disassembly of section .debug_info:

00000000 <.debug_info>:
       0:	0a35                	addi	s4,s4,13
       2:	0000                	unimp
       4:	0004                	addi	s1,sp,0
       6:	0000                	unimp
       8:	0000                	unimp
       a:	0104                	addi	s1,sp,128
       c:	04ed                	addi	s1,s1,27
       e:	0000                	unimp
      10:	540c                	lw	a1,40(s0)
      12:	0000                	unimp
      14:	1000                	addi	s0,sp,32
      16:	00000003          	lb	zero,0(zero) # 0 <__seq_start>
	...
      22:	0000                	unimp
      24:	0200                	addi	s0,sp,256
      26:	0601                	addi	a2,a2,0
      28:	03e8                	addi	a0,sp,460
      2a:	0000                	unimp
      2c:	0102                	slli	sp,sp,0x0
      2e:	e608                	fsw	fa0,8(a2)
      30:	02000003          	lb	zero,32(zero) # 20 <__seq_start+0x20>
      34:	0502                	slli	a0,a0,0x0
      36:	0402                	slli	s0,s0,0x0
      38:	0000                	unimp
      3a:	0202                	slli	tp,tp,0x0
      3c:	00026807          	0x26807
      40:	0300                	addi	s0,sp,384
      42:	000005cf          	0x5cf
      46:	004c4d03          	lbu	s10,4(s8)
      4a:	0000                	unimp
      4c:	0402                	slli	s0,s0,0x0
      4e:	0c05                	addi	s8,s8,1
      50:	0001                	nop
      52:	0300                	addi	s0,sp,384
      54:	000001b7          	lui	gp,0x0
      58:	005e4f03          	lbu	t5,5(t3) # f005 <__seq_start+0xf005>
      5c:	0000                	unimp
      5e:	0402                	slli	s0,s0,0x0
      60:	0000a707          	0xa707
      64:	0200                	addi	s0,sp,256
      66:	0508                	addi	a0,sp,640
      68:	00000107          	0x107
      6c:	0802                	slli	a6,a6,0x0
      6e:	0000a207          	0xa207
      72:	0400                	addi	s0,sp,512
      74:	0504                	addi	s1,sp,640
      76:	6e69                	lui	t3,0x1a
      78:	0074                	addi	a3,sp,12
      7a:	0402                	slli	s0,s0,0x0
      7c:	0000ac07          	0xac07
      80:	0300                	addi	s0,sp,384
      82:	05d1                	addi	a1,a1,20
      84:	0000                	unimp
      86:	2c04                	fld	fs1,24(s0)
      88:	0041                	c.addi	zero,16
      8a:	0000                	unimp
      8c:	0001b903          	0x1b903
      90:	0400                	addi	s0,sp,512
      92:	5330                	lw	a2,96(a4)
      94:	0000                	unimp
      96:	0500                	addi	s0,sp,640
      98:	008c                	addi	a1,sp,64
      9a:	0000                	unimp
      9c:	0003c003          	lbu	zero,0(t2)
      a0:	0500                	addi	s0,sp,640
      a2:	00007307          	0x7307
      a6:	0300                	addi	s0,sp,384
      a8:	0394                	addi	a3,sp,448
      aa:	0000                	unimp
      ac:	2c06                	fld	fs8,64(sp)
      ae:	004c                	addi	a1,sp,4
      b0:	0000                	unimp
      b2:	0004ca03          	lbu	s4,0(s1)
      b6:	0600                	addi	s0,sp,768
      b8:	4c72                	lw	s8,28(sp)
      ba:	0000                	unimp
      bc:	0300                	addi	s0,sp,384
      be:	065c                	addi	a5,sp,772
      c0:	0000                	unimp
      c2:	9106                	add	sp,sp,ra
      c4:	00000073          	ecall
      c8:	ab06                	fsd	ft1,400(sp)
      ca:	0002                	0x2
      cc:	0700                	addi	s0,sp,896
      ce:	0165                	addi	sp,sp,25
      d0:	007a                	0x7a
      d2:	0000                	unimp
      d4:	a6060407          	0xa6060407
      d8:	000000f3          	0xf3
      dc:	a508                	fsd	fa0,8(a0)
      de:	0002                	0x2
      e0:	0600                	addi	s0,sp,768
      e2:	c8a8                	sw	a0,80(s1)
      e4:	0000                	unimp
      e6:	0800                	addi	s0,sp,16
      e8:	0205                	addi	tp,tp,1
      ea:	0000                	unimp
      ec:	a906                	fsd	ft1,144(sp)
      ee:	000000f3          	0xf3
      f2:	0900                	addi	s0,sp,144
      f4:	002c                	addi	a1,sp,8
      f6:	0000                	unimp
      f8:	00000103          	lb	sp,0(zero) # 0 <__seq_start>
      fc:	7a0a                	flw	fs4,160(sp)
      fe:	0000                	unimp
     100:	0300                	addi	s0,sp,384
     102:	0b00                	addi	s0,sp,400
     104:	0608                	addi	a0,sp,768
     106:	000124a3          	sw	zero,9(sp)
     10a:	0c00                	addi	s0,sp,528
     10c:	04a8                	addi	a0,sp,584
     10e:	0000                	unimp
     110:	a506                	fsd	ft1,136(sp)
     112:	00000073          	ecall
     116:	0c00                	addi	s0,sp,528
     118:	05ec                	addi	a1,sp,716
     11a:	0000                	unimp
     11c:	aa06                	fsd	ft1,272(sp)
     11e:	00d4                	addi	a3,sp,68
     120:	0000                	unimp
     122:	0004                	addi	s1,sp,0
     124:	00042a03          	lw	s4,0(s0)
     128:	0600                	addi	s0,sp,768
     12a:	000103ab          	p.sb	zero,7(sp!)
     12e:	0300                	addi	s0,sp,384
     130:	01c8                	addi	a0,sp,196
     132:	0000                	unimp
     134:	af06                	fsd	ft1,408(sp)
     136:	009c                	addi	a5,sp,64
     138:	0000                	unimp
     13a:	040d                	addi	s0,s0,3
     13c:	040e                	slli	s0,s0,0x3
     13e:	0142                	slli	sp,sp,0x10
     140:	0000                	unimp
     142:	0102                	slli	sp,sp,0x0
     144:	ef08                	fsw	fa0,24(a4)
     146:	0f000003          	lb	zero,240(zero) # f0 <__seq_start+0xf0>
     14a:	0142                	slli	sp,sp,0x10
     14c:	0000                	unimp
     14e:	00060203          	lb	tp,0(a2) # c000 <__seq_start+0xc000>
     152:	0800                	addi	s0,sp,16
     154:	5e16                	lw	t3,100(sp)
     156:	0000                	unimp
     158:	1000                	addi	s0,sp,32
     15a:	01d9                	addi	gp,gp,22
     15c:	0000                	unimp
     15e:	0818                	addi	a4,sp,16
     160:	0001ac2f          	amoadd.w	s8,zero,(gp)
     164:	0c00                	addi	s0,sp,528
     166:	0000044b          	0x44b
     16a:	3108                	fld	fa0,32(a0)
     16c:	01ac                	addi	a1,sp,200
     16e:	0000                	unimp
     170:	1100                	addi	s0,sp,160
     172:	6b5f 0800 7332      	0x733208006b5f
     178:	0000                	unimp
     17a:	0400                	addi	s0,sp,512
     17c:	930c                	0x930c
     17e:	0004                	addi	s1,sp,0
     180:	0800                	addi	s0,sp,16
     182:	7332                	flw	ft6,44(sp)
     184:	0000                	unimp
     186:	0800                	addi	s0,sp,16
     188:	c20c                	sw	a1,0(a2)
     18a:	0001                	nop
     18c:	0800                	addi	s0,sp,16
     18e:	7332                	flw	ft6,44(sp)
     190:	0000                	unimp
     192:	0c00                	addi	s0,sp,528
     194:	470c                	lw	a1,8(a4)
     196:	0006                	0x6
     198:	0800                	addi	s0,sp,16
     19a:	7332                	flw	ft6,44(sp)
     19c:	0000                	unimp
     19e:	1000                	addi	s0,sp,32
     1a0:	5f11                	li	t5,-28
     1a2:	0078                	addi	a4,sp,12
     1a4:	3308                	fld	fa0,32(a4)
     1a6:	01b2                	slli	gp,gp,0xc
     1a8:	0000                	unimp
     1aa:	0014                	addi	a3,sp,0
     1ac:	040e                	slli	s0,s0,0x3
     1ae:	0159                	addi	sp,sp,22
     1b0:	0000                	unimp
     1b2:	4e09                	li	t3,2
     1b4:	0001                	nop
     1b6:	c200                	sw	s0,0(a2)
     1b8:	0001                	nop
     1ba:	0a00                	addi	s0,sp,272
     1bc:	007a                	0x7a
     1be:	0000                	unimp
     1c0:	0000                	unimp
     1c2:	0010                	addi	a2,sp,0
     1c4:	0002                	0x2
     1c6:	2400                	fld	fs0,8(s0)
     1c8:	3708                	fld	fa0,40(a4)
     1ca:	0000023b          	0x23b
     1ce:	fe0c                	fsw	fa1,56(a2)
     1d0:	0000                	unimp
     1d2:	0800                	addi	s0,sp,16
     1d4:	7339                	lui	t1,0xfffee
     1d6:	0000                	unimp
     1d8:	0000                	unimp
     1da:	d20c                	sw	a1,32(a2)
     1dc:	0004                	addi	s1,sp,0
     1de:	0800                	addi	s0,sp,16
     1e0:	733a                	flw	ft6,172(sp)
     1e2:	0000                	unimp
     1e4:	0400                	addi	s0,sp,512
     1e6:	1b0c                	addi	a1,sp,432
     1e8:	0001                	nop
     1ea:	0800                	addi	s0,sp,16
     1ec:	0000733b          	0x733b
     1f0:	0800                	addi	s0,sp,16
     1f2:	cf0c                	sw	a1,24(a4)
     1f4:	0006                	0x6
     1f6:	0800                	addi	s0,sp,16
     1f8:	733c                	flw	fa5,96(a4)
     1fa:	0000                	unimp
     1fc:	0c00                	addi	s0,sp,528
     1fe:	780c                	flw	fa1,48(s0)
     200:	08000003          	lb	zero,128(zero) # 80 <__seq_start+0x80>
     204:	733d                	lui	t1,0xfffef
     206:	0000                	unimp
     208:	1000                	addi	s0,sp,32
     20a:	d30c                	sw	a1,32(a4)
     20c:	0002                	0x2
     20e:	0800                	addi	s0,sp,16
     210:	733e                	flw	ft6,236(sp)
     212:	0000                	unimp
     214:	1400                	addi	s0,sp,544
     216:	4c0c                	lw	a1,24(s0)
     218:	0006                	0x6
     21a:	0800                	addi	s0,sp,16
     21c:	0000733f 0c0c1800 	0xc0c18000000733f
     224:	0004                	addi	s1,sp,0
     226:	0800                	addi	s0,sp,16
     228:	7340                	flw	fs0,36(a4)
     22a:	0000                	unimp
     22c:	1c00                	addi	s0,sp,560
     22e:	910c                	0x910c
     230:	0006                	0x6
     232:	0800                	addi	s0,sp,16
     234:	7341                	lui	t1,0xffff0
     236:	0000                	unimp
     238:	2000                	fld	fs0,0(s0)
     23a:	1200                	addi	s0,sp,288
     23c:	012a                	slli	sp,sp,0xa
     23e:	0000                	unimp
     240:	0108                	addi	a0,sp,128
     242:	4a08                	lw	a0,16(a2)
     244:	0000027b          	0x27b
     248:	aa0c                	fsd	fa1,16(a2)
     24a:	0001                	nop
     24c:	0800                	addi	s0,sp,16
     24e:	00027b4b          	0x27b4b
     252:	0000                	unimp
     254:	000c                	addi	a1,sp,0
     256:	0000                	unimp
     258:	0800                	addi	s0,sp,16
     25a:	7b4c                	flw	fa1,52(a4)
     25c:	0002                	0x2
     25e:	8000                	0x8000
     260:	0005f413          	andi	s0,a1,0
     264:	0800                	addi	s0,sp,16
     266:	4e4e                	lw	t3,208(sp)
     268:	0001                	nop
     26a:	0000                	unimp
     26c:	1301                	addi	t1,t1,-32
     26e:	0000014f          	0x14f
     272:	5108                	lw	a0,32(a0)
     274:	014e                	slli	sp,sp,0x13
     276:	0000                	unimp
     278:	0104                	addi	s1,sp,128
     27a:	0900                	addi	s0,sp,144
     27c:	013a                	slli	sp,sp,0xe
     27e:	0000                	unimp
     280:	0000028b          	p.lb	t0,0(zero!) # 0 <__seq_start>
     284:	7a0a                	flw	fs4,160(sp)
     286:	0000                	unimp
     288:	1f00                	addi	s0,sp,944
     28a:	1200                	addi	s0,sp,288
     28c:	0381                	addi	t2,t2,0
     28e:	0000                	unimp
     290:	0190                	addi	a2,sp,192
     292:	5d08                	lw	a0,56(a0)
     294:	02c9                	addi	t0,t0,18
     296:	0000                	unimp
     298:	4b0c                	lw	a1,16(a4)
     29a:	0004                	addi	s1,sp,0
     29c:	0800                	addi	s0,sp,16
     29e:	c95e                	sw	s7,144(sp)
     2a0:	0002                	0x2
     2a2:	0000                	unimp
     2a4:	630c                	flw	fa1,0(a4)
     2a6:	0004                	addi	s1,sp,0
     2a8:	0800                	addi	s0,sp,16
     2aa:	735f 0000 0400      	0x4000000735f
     2b0:	b20c                	fsd	fa1,32(a2)
     2b2:	0001                	nop
     2b4:	0800                	addi	s0,sp,16
     2b6:	cf61                	beqz	a4,38e <__seq_start+0x38e>
     2b8:	0002                	0x2
     2ba:	0800                	addi	s0,sp,16
     2bc:	2a0c                	fld	fa1,16(a2)
     2be:	0001                	nop
     2c0:	0800                	addi	s0,sp,16
     2c2:	3b62                	fld	fs6,56(sp)
     2c4:	0002                	0x2
     2c6:	8800                	0x8800
     2c8:	0e00                	addi	s0,sp,784
     2ca:	8b04                	0x8b04
     2cc:	0002                	0x2
     2ce:	0900                	addi	s0,sp,144
     2d0:	02df 0000 02df      	0x2df000002df
     2d6:	0000                	unimp
     2d8:	7a0a                	flw	fs4,160(sp)
     2da:	0000                	unimp
     2dc:	1f00                	addi	s0,sp,944
     2de:	0e00                	addi	s0,sp,784
     2e0:	e504                	fsw	fs1,8(a0)
     2e2:	0002                	0x2
     2e4:	1400                	addi	s0,sp,544
     2e6:	1610                	addi	a2,sp,800
     2e8:	0004                	addi	s1,sp,0
     2ea:	0800                	addi	s0,sp,16
     2ec:	7508                	flw	fa0,40(a0)
     2ee:	0000030b          	p.lb	t1,0(zero!) # 0 <__seq_start>
     2f2:	760c                	flw	fa1,40(a2)
     2f4:	0000                	unimp
     2f6:	0800                	addi	s0,sp,16
     2f8:	0b76                	slli	s6,s6,0x1d
     2fa:	00000003          	lb	zero,0(zero) # 0 <__seq_start>
     2fe:	690c                	flw	fa1,16(a0)
     300:	08000007          	0x8000007
     304:	00007377          	0x7377
     308:	0400                	addi	s0,sp,512
     30a:	0e00                	addi	s0,sp,784
     30c:	2c04                	fld	fs1,24(s0)
     30e:	0000                	unimp
     310:	1000                	addi	s0,sp,32
     312:	0435                	addi	s0,s0,13
     314:	0000                	unimp
     316:	0868                	addi	a0,sp,28
     318:	3bb5                	jal	94 <__seq_start+0x94>
     31a:	0004                	addi	s1,sp,0
     31c:	1100                	addi	s0,sp,160
     31e:	705f 0800 0bb6      	0xbb60800705f
     324:	00000003          	lb	zero,0(zero) # 0 <__seq_start>
     328:	5f11                	li	t5,-28
     32a:	0072                	0x72
     32c:	b708                	fsd	fa0,40(a4)
     32e:	00000073          	ecall
     332:	1104                	addi	s1,sp,160
     334:	775f 0800 73b8      	0x73b80800775f
     33a:	0000                	unimp
     33c:	0800                	addi	s0,sp,16
     33e:	480c                	lw	a1,16(s0)
     340:	0001                	nop
     342:	0800                	addi	s0,sp,16
     344:	33b9                	jal	92 <__seq_start+0x92>
     346:	0000                	unimp
     348:	0c00                	addi	s0,sp,528
     34a:	300c                	fld	fa1,32(s0)
     34c:	0002                	0x2
     34e:	0800                	addi	s0,sp,16
     350:	33ba                	fld	ft7,424(sp)
     352:	0000                	unimp
     354:	0e00                	addi	s0,sp,784
     356:	5f11                	li	t5,-28
     358:	6662                	flw	fa2,24(sp)
     35a:	0800                	addi	s0,sp,16
     35c:	0002e6bb          	0x2e6bb
     360:	1000                	addi	s0,sp,32
     362:	b90c                	fsd	fa1,48(a0)
     364:	0000                	unimp
     366:	0800                	addi	s0,sp,16
     368:	73bc                	flw	fa5,96(a5)
     36a:	0000                	unimp
     36c:	1800                	addi	s0,sp,48
     36e:	380c                	fld	fa1,48(s0)
     370:	0001                	nop
     372:	0800                	addi	s0,sp,16
     374:	00013ac3          	0x13ac3
     378:	1c00                	addi	s0,sp,560
     37a:	f00c                	fsw	fa1,32(s0)
     37c:	0001                	nop
     37e:	0800                	addi	s0,sp,16
     380:	96c5                	srai	a3,a3,0x31
     382:	0005                	c.addi	zero,1
     384:	2000                	fld	fs0,0(s0)
     386:	cc0c                	sw	a1,24(s0)
     388:	0002                	0x2
     38a:	0800                	addi	s0,sp,16
     38c:	0005c0c7          	0x5c0c7
     390:	2400                	fld	fs0,8(s0)
     392:	b00c                	fsd	fa1,32(s0)
     394:	0004                	addi	s1,sp,0
     396:	0800                	addi	s0,sp,16
     398:	e4ca                	fsw	fs2,72(sp)
     39a:	0005                	c.addi	zero,1
     39c:	2800                	fld	fs0,16(s0)
     39e:	ab0c                	fsd	fa1,16(a4)
     3a0:	0006                	0x6
     3a2:	0800                	addi	s0,sp,16
     3a4:	0005fecb          	0x5fecb
     3a8:	2c00                	fld	fs0,24(s0)
     3aa:	5f11                	li	t5,-28
     3ac:	6275                	lui	tp,0x1d
     3ae:	0800                	addi	s0,sp,16
     3b0:	e6ce                	fsw	fs3,76(sp)
     3b2:	0002                	0x2
     3b4:	3000                	fld	fs0,32(s0)
     3b6:	5f11                	li	t5,-28
     3b8:	7075                	0x7075
     3ba:	0800                	addi	s0,sp,16
     3bc:	00030bcf          	0x30bcf
     3c0:	3800                	fld	fs0,48(s0)
     3c2:	5f11                	li	t5,-28
     3c4:	7275                	lui	tp,0xffffd
     3c6:	0800                	addi	s0,sp,16
     3c8:	73d0                	flw	fa2,36(a5)
     3ca:	0000                	unimp
     3cc:	3c00                	fld	fs0,56(s0)
     3ce:	150c                	addi	a1,sp,672
     3d0:	0001                	nop
     3d2:	0800                	addi	s0,sp,16
     3d4:	000604d3          	0x604d3
     3d8:	4000                	lw	s0,0(s0)
     3da:	790c                	flw	fa1,48(a0)
     3dc:	0006                	0x6
     3de:	0800                	addi	s0,sp,16
     3e0:	14d4                	addi	a3,sp,612
     3e2:	0006                	0x6
     3e4:	4300                	lw	s0,0(a4)
     3e6:	5f11                	li	t5,-28
     3e8:	626c                	flw	fa1,68(a2)
     3ea:	0800                	addi	s0,sp,16
     3ec:	0002e6d7          	pv.add.sci.h	a3,t0,0
     3f0:	4400                	lw	s0,8(s0)
     3f2:	5e0c                	lw	a1,56(a2)
     3f4:	0001                	nop
     3f6:	0800                	addi	s0,sp,16
     3f8:	73da                	flw	ft7,180(sp)
     3fa:	0000                	unimp
     3fc:	4c00                	lw	s0,24(s0)
     3fe:	6f0c                	flw	fa1,24(a4)
     400:	0001                	nop
     402:	0800                	addi	s0,sp,16
     404:	0000a7db          	0xa7db
     408:	5000                	lw	s0,32(s0)
     40a:	7c0c                	flw	fa1,56(s0)
     40c:	0000                	unimp
     40e:	0800                	addi	s0,sp,16
     410:	59de                	lw	s3,244(sp)
     412:	0004                	addi	s1,sp,0
     414:	5400                	lw	s0,40(s0)
     416:	b20c                	fsd	fa1,32(a2)
     418:	0002                	0x2
     41a:	0800                	addi	s0,sp,16
     41c:	2fe2                	fld	ft11,24(sp)
     41e:	0001                	nop
     420:	5800                	lw	s0,48(s0)
     422:	3d0c                	fld	fa1,56(a0)
     424:	0004                	addi	s1,sp,0
     426:	0800                	addi	s0,sp,16
     428:	24e4                	fld	fs1,200(s1)
     42a:	0001                	nop
     42c:	5c00                	lw	s0,56(s0)
     42e:	b80c                	fsd	fa1,48(s0)
     430:	0002                	0x2
     432:	0800                	addi	s0,sp,16
     434:	73e5                	lui	t2,0xffff9
     436:	0000                	unimp
     438:	6400                	flw	fs0,8(s0)
     43a:	1500                	addi	s0,sp,672
     43c:	00bd                	addi	ra,ra,15
     43e:	0000                	unimp
     440:	0459                	addi	s0,s0,22
     442:	0000                	unimp
     444:	5916                	lw	s2,100(sp)
     446:	0004                	addi	s1,sp,0
     448:	1600                	addi	s0,sp,800
     44a:	013a                	slli	sp,sp,0xe
     44c:	0000                	unimp
     44e:	3c16                	fld	fs8,352(sp)
     450:	0001                	nop
     452:	1600                	addi	s0,sp,800
     454:	00000073          	ecall
     458:	0e00                	addi	s0,sp,784
     45a:	6404                	flw	fs1,8(s0)
     45c:	0004                	addi	s1,sp,0
     45e:	0f00                	addi	s0,sp,912
     460:	0459                	addi	s0,s0,22
     462:	0000                	unimp
     464:	00049b17          	auipc	s6,0x49
     468:	2800                	fld	fs0,16(s0)
     46a:	0804                	addi	s1,sp,16
     46c:	0239                	addi	tp,tp,14
     46e:	0596                	slli	a1,a1,0x5
     470:	0000                	unimp
     472:	fb18                	fsw	fa4,48(a4)
     474:	08000003          	lb	zero,128(zero) # 80 <__seq_start+0x80>
     478:	0073023b          	0x73023b
     47c:	0000                	unimp
     47e:	1800                	addi	s0,sp,48
     480:	00000157          	pv.add.h	sp,zero,zero
     484:	4008                	lw	a0,0(s0)
     486:	6b02                	flw	fs6,0(sp)
     488:	0006                	0x6
     48a:	0400                	addi	s0,sp,512
     48c:	0c18                	addi	a4,sp,528
     48e:	0002                	0x2
     490:	0800                	addi	s0,sp,16
     492:	0240                	addi	s0,sp,260
     494:	0000066b          	0x66b
     498:	1808                	addi	a0,sp,48
     49a:	01d1                	addi	gp,gp,20
     49c:	0000                	unimp
     49e:	4008                	lw	a0,0(s0)
     4a0:	6b02                	flw	fs6,0(sp)
     4a2:	0006                	0x6
     4a4:	0c00                	addi	s0,sp,528
     4a6:	5e18                	lw	a4,56(a2)
     4a8:	0004                	addi	s1,sp,0
     4aa:	0800                	addi	s0,sp,16
     4ac:	0242                	slli	tp,tp,0x10
     4ae:	00000073          	ecall
     4b2:	1810                	addi	a2,sp,48
     4b4:	0049                	c.addi	zero,18
     4b6:	0000                	unimp
     4b8:	4308                	lw	a0,0(a4)
     4ba:	4d02                	lw	s10,0(sp)
     4bc:	0008                	addi	a0,sp,0
     4be:	1400                	addi	s0,sp,544
     4c0:	7a18                	flw	fa4,48(a2)
     4c2:	0004                	addi	s1,sp,0
     4c4:	0800                	addi	s0,sp,16
     4c6:	0246                	slli	tp,tp,0x11
     4c8:	00000073          	ecall
     4cc:	1830                	addi	a2,sp,56
     4ce:	0468                	addi	a0,sp,524
     4d0:	0000                	unimp
     4d2:	4708                	lw	a0,8(a4)
     4d4:	6202                	flw	ft4,0(sp)
     4d6:	0008                	addi	a0,sp,0
     4d8:	3400                	fld	fs0,40(s0)
     4da:	8918                	0x8918
     4dc:	08000003          	lb	zero,128(zero) # 80 <__seq_start+0x80>
     4e0:	0249                	addi	tp,tp,18
     4e2:	00000073          	ecall
     4e6:	1838                	addi	a4,sp,56
     4e8:	0470                	addi	a2,sp,524
     4ea:	0000                	unimp
     4ec:	4b08                	lw	a0,16(a4)
     4ee:	7302                	flw	ft6,32(sp)
     4f0:	0008                	addi	a0,sp,0
     4f2:	3c00                	fld	fs0,56(s0)
     4f4:	9d18                	0x9d18
     4f6:	0002                	0x2
     4f8:	0800                	addi	s0,sp,16
     4fa:	024e                	slli	tp,tp,0x13
     4fc:	01ac                	addi	a1,sp,200
     4fe:	0000                	unimp
     500:	1840                	addi	s0,sp,52
     502:	01f6                	slli	gp,gp,0x1d
     504:	0000                	unimp
     506:	4f08                	lw	a0,24(a4)
     508:	7302                	flw	ft6,32(sp)
     50a:	0000                	unimp
     50c:	4400                	lw	s0,8(s0)
     50e:	c518                	sw	a4,8(a0)
     510:	0006                	0x6
     512:	0800                	addi	s0,sp,16
     514:	0250                	addi	a2,sp,260
     516:	01ac                	addi	a1,sp,200
     518:	0000                	unimp
     51a:	1848                	addi	a0,sp,52
     51c:	03b0                	addi	a2,sp,456
     51e:	0000                	unimp
     520:	5108                	lw	a0,32(a0)
     522:	7902                	flw	fs2,32(sp)
     524:	0008                	addi	a0,sp,0
     526:	4c00                	lw	s0,24(s0)
     528:	1418                	addi	a4,sp,544
     52a:	0002                	0x2
     52c:	0800                	addi	s0,sp,16
     52e:	0254                	addi	a3,sp,260
     530:	00000073          	ecall
     534:	1850                	addi	a2,sp,52
     536:	00000167          	jalr	sp,zero
     53a:	5508                	lw	a0,40(a0)
     53c:	3c02                	fld	fs8,32(sp)
     53e:	0001                	nop
     540:	5400                	lw	s0,40(s0)
     542:	f418                	fsw	fa4,40(s0)
     544:	08000003          	lb	zero,128(zero) # 80 <__seq_start+0x80>
     548:	0278                	addi	a4,sp,268
     54a:	0000082b          	p.sb	zero,16(zero!) # 10 <__seq_start+0x10>
     54e:	1958                	addi	a4,sp,180
     550:	0381                	addi	t2,t2,0
     552:	0000                	unimp
     554:	7c08                	flw	fa0,56(s0)
     556:	c902                	sw	zero,144(sp)
     558:	0002                	0x2
     55a:	4800                	lw	s0,16(s0)
     55c:	1901                	addi	s2,s2,-32
     55e:	0000027b          	0x27b
     562:	7d08                	flw	fa0,56(a0)
     564:	8b02                	jr	s6
     566:	0002                	0x2
     568:	4c00                	lw	s0,24(s0)
     56a:	1901                	addi	s2,s2,-32
     56c:	0000066f          	jal	a2,56c <__seq_start+0x56c>
     570:	8108                	0x8108
     572:	8a02                	jr	s4
     574:	0008                	addi	a0,sp,0
     576:	dc00                	sw	s0,56(s0)
     578:	1902                	slli	s2,s2,0x20
     57a:	0140                	addi	s0,sp,132
     57c:	0000                	unimp
     57e:	8608                	0x8608
     580:	3002                	fld	ft0,32(sp)
     582:	0006                	0x6
     584:	e000                	fsw	fs0,0(s0)
     586:	1902                	slli	s2,s2,0x20
     588:	0125                	addi	sp,sp,9
     58a:	0000                	unimp
     58c:	8708                	0x8708
     58e:	9602                	jalr	a2
     590:	0008                	addi	a0,sp,0
     592:	ec00                	fsw	fs0,24(s0)
     594:	0002                	0x2
     596:	040e                	slli	s0,s0,0x3
     598:	0000043b          	0x43b
     59c:	bd15                	j	3d0 <__seq_start+0x3d0>
     59e:	0000                	unimp
     5a0:	ba00                	fsd	fs0,48(a2)
     5a2:	0005                	c.addi	zero,1
     5a4:	1600                	addi	s0,sp,800
     5a6:	0459                	addi	s0,s0,22
     5a8:	0000                	unimp
     5aa:	3a16                	fld	fs4,352(sp)
     5ac:	0001                	nop
     5ae:	1600                	addi	s0,sp,800
     5b0:	05ba                	slli	a1,a1,0xe
     5b2:	0000                	unimp
     5b4:	7316                	flw	ft6,100(sp)
     5b6:	0000                	unimp
     5b8:	0000                	unimp
     5ba:	040e                	slli	s0,s0,0x3
     5bc:	0149                	addi	sp,sp,18
     5be:	0000                	unimp
     5c0:	040e                	slli	s0,s0,0x3
     5c2:	059c                	addi	a5,sp,704
     5c4:	0000                	unimp
     5c6:	b215                	j	fffffeea <pulp__FC+0xfffffeeb>
     5c8:	0000                	unimp
     5ca:	e400                	fsw	fs0,8(s0)
     5cc:	0005                	c.addi	zero,1
     5ce:	1600                	addi	s0,sp,800
     5d0:	0459                	addi	s0,s0,22
     5d2:	0000                	unimp
     5d4:	3a16                	fld	fs4,352(sp)
     5d6:	0001                	nop
     5d8:	1600                	addi	s0,sp,800
     5da:	00b2                	slli	ra,ra,0xc
     5dc:	0000                	unimp
     5de:	7316                	flw	ft6,100(sp)
     5e0:	0000                	unimp
     5e2:	0000                	unimp
     5e4:	040e                	slli	s0,s0,0x3
     5e6:	05c6                	slli	a1,a1,0x11
     5e8:	0000                	unimp
     5ea:	7315                	lui	t1,0xfffe5
     5ec:	0000                	unimp
     5ee:	fe00                	fsw	fs0,56(a2)
     5f0:	0005                	c.addi	zero,1
     5f2:	1600                	addi	s0,sp,800
     5f4:	0459                	addi	s0,s0,22
     5f6:	0000                	unimp
     5f8:	3a16                	fld	fs4,352(sp)
     5fa:	0001                	nop
     5fc:	0000                	unimp
     5fe:	040e                	slli	s0,s0,0x3
     600:	05ea                	slli	a1,a1,0x1a
     602:	0000                	unimp
     604:	2c09                	jal	816 <__seq_start+0x816>
     606:	0000                	unimp
     608:	1400                	addi	s0,sp,544
     60a:	0006                	0x6
     60c:	0a00                	addi	s0,sp,272
     60e:	007a                	0x7a
     610:	0000                	unimp
     612:	0002                	0x2
     614:	2c09                	jal	826 <__seq_start+0x826>
     616:	0000                	unimp
     618:	2400                	fld	fs0,8(s0)
     61a:	0006                	0x6
     61c:	0a00                	addi	s0,sp,272
     61e:	007a                	0x7a
     620:	0000                	unimp
     622:	0000                	unimp
     624:	2306                	fld	ft6,64(sp)
     626:	0004                	addi	s1,sp,0
     628:	0800                	addi	s0,sp,16
     62a:	011f 0311 0000      	0x311011f
     630:	561a                	lw	a2,164(sp)
     632:	0006                	0x6
     634:	0c00                	addi	s0,sp,528
     636:	2308                	fld	fa0,0(a4)
     638:	6501                	lui	a0,0x0
     63a:	0006                	0x6
     63c:	1800                	addi	s0,sp,48
     63e:	0000044b          	0x44b
     642:	2508                	fld	fa0,8(a0)
     644:	6501                	lui	a0,0x0
     646:	0006                	0x6
     648:	0000                	unimp
     64a:	4a18                	lw	a4,16(a2)
     64c:	0002                	0x2
     64e:	0800                	addi	s0,sp,16
     650:	0126                	slli	sp,sp,0x9
     652:	00000073          	ecall
     656:	1804                	addi	s1,sp,48
     658:	041d                	addi	s0,s0,7
     65a:	0000                	unimp
     65c:	2708                	fld	fa0,8(a4)
     65e:	6b01                	lui	s6,0x0
     660:	0006                	0x6
     662:	0800                	addi	s0,sp,16
     664:	0e00                	addi	s0,sp,784
     666:	3004                	fld	fs1,32(s0)
     668:	0006                	0x6
     66a:	0e00                	addi	s0,sp,784
     66c:	2404                	fld	fs1,8(s0)
     66e:	0006                	0x6
     670:	1a00                	addi	s0,sp,304
     672:	0041                	c.addi	zero,16
     674:	0000                	unimp
     676:	080e                	slli	a6,a6,0x3
     678:	06a6013f a2180000 	0xa218000006a6013f
     680:	0004                	addi	s1,sp,0
     682:	0800                	addi	s0,sp,16
     684:	0140                	addi	s0,sp,132
     686:	06a6                	slli	a3,a3,0x9
     688:	0000                	unimp
     68a:	1800                	addi	s0,sp,48
     68c:	05d9                	addi	a1,a1,22
     68e:	0000                	unimp
     690:	4108                	lw	a0,0(a0)
     692:	a601                	j	992 <__seq_start+0x992>
     694:	0006                	0x6
     696:	0600                	addi	s0,sp,768
     698:	fd18                	fsw	fa4,56(a0)
     69a:	0005                	c.addi	zero,1
     69c:	0800                	addi	s0,sp,16
     69e:	0142                	slli	sp,sp,0x10
     6a0:	003a                	0x3a
     6a2:	0000                	unimp
     6a4:	000c                	addi	a1,sp,0
     6a6:	3a09                	jal	ffffffb8 <pulp__FC+0xffffffb9>
     6a8:	0000                	unimp
     6aa:	b600                	fsd	fs0,40(a2)
     6ac:	0006                	0x6
     6ae:	0a00                	addi	s0,sp,272
     6b0:	007a                	0x7a
     6b2:	0000                	unimp
     6b4:	0002                	0x2
     6b6:	5908d01b          	0x5908d01b
     6ba:	b702                	fsd	ft0,424(sp)
     6bc:	18000007          	0x18000007
     6c0:	063a                	slli	a2,a2,0xe
     6c2:	0000                	unimp
     6c4:	5b08                	lw	a0,48(a4)
     6c6:	7a02                	flw	fs4,32(sp)
     6c8:	0000                	unimp
     6ca:	0000                	unimp
     6cc:	df18                	sw	a4,56(a4)
     6ce:	0005                	c.addi	zero,1
     6d0:	0800                	addi	s0,sp,16
     6d2:	025c                	addi	a5,sp,260
     6d4:	013c                	addi	a5,sp,136
     6d6:	0000                	unimp
     6d8:	1804                	addi	s1,sp,48
     6da:	0290                	addi	a2,sp,320
     6dc:	0000                	unimp
     6de:	5d08                	lw	a0,56(a0)
     6e0:	b702                	fsd	ft0,424(sp)
     6e2:	08000007          	0x8000007
     6e6:	9c18                	0x9c18
     6e8:	0006                	0x6
     6ea:	0800                	addi	s0,sp,16
     6ec:	025e                	slli	tp,tp,0x17
     6ee:	01c2                	slli	gp,gp,0x10
     6f0:	0000                	unimp
     6f2:	1824                	addi	s1,sp,56
     6f4:	01e1                	addi	gp,gp,24
     6f6:	0000                	unimp
     6f8:	5f08                	lw	a0,56(a4)
     6fa:	7302                	flw	ft6,32(sp)
     6fc:	0000                	unimp
     6fe:	4800                	lw	s0,16(s0)
     700:	4618                	lw	a4,8(a2)
     702:	0004                	addi	s1,sp,0
     704:	0800                	addi	s0,sp,16
     706:	0260                	addi	s0,sp,268
     708:	006c                	addi	a1,sp,12
     70a:	0000                	unimp
     70c:	1850                	addi	a2,sp,52
     70e:	06b2                	slli	a3,a3,0xc
     710:	0000                	unimp
     712:	6108                	flw	fa0,0(a0)
     714:	7102                	flw	ft2,32(sp)
     716:	0006                	0x6
     718:	5800                	lw	s0,48(s0)
     71a:	5118                	lw	a4,32(a0)
     71c:	0004                	addi	s1,sp,0
     71e:	0800                	addi	s0,sp,16
     720:	0262                	slli	tp,tp,0x18
     722:	0124                	addi	s1,sp,136
     724:	0000                	unimp
     726:	1868                	addi	a0,sp,60
     728:	000006b7          	lui	a3,0x0
     72c:	6308                	flw	fa0,0(a4)
     72e:	2402                	fld	fs0,0(sp)
     730:	0001                	nop
     732:	7000                	flw	fs0,32(s0)
     734:	f018                	fsw	fa4,32(s0)
     736:	0000                	unimp
     738:	0800                	addi	s0,sp,16
     73a:	0264                	addi	s1,sp,268
     73c:	0124                	addi	s1,sp,136
     73e:	0000                	unimp
     740:	1878                	addi	a4,sp,60
     742:	0665                	addi	a2,a2,25
     744:	0000                	unimp
     746:	6508                	flw	fa0,8(a0)
     748:	c702                	sw	zero,140(sp)
     74a:	80000007          	0x80000007
     74e:	8418                	0x8418
     750:	0002                	0x2
     752:	0800                	addi	s0,sp,16
     754:	0266                	slli	tp,tp,0x19
     756:	000007d7          	pv.add.h	a5,zero,zero
     75a:	1888                	addi	a0,sp,112
     75c:	060a                	slli	a2,a2,0x2
     75e:	0000                	unimp
     760:	6708                	flw	fa0,8(a4)
     762:	7302                	flw	ft6,32(sp)
     764:	0000                	unimp
     766:	a000                	fsd	fs0,0(s0)
     768:	8818                	0x8818
     76a:	0001                	nop
     76c:	0800                	addi	s0,sp,16
     76e:	0268                	addi	a0,sp,268
     770:	0124                	addi	s1,sp,136
     772:	0000                	unimp
     774:	18a4                	addi	s1,sp,120
     776:	00e1                	addi	ra,ra,24
     778:	0000                	unimp
     77a:	6908                	flw	fa0,16(a0)
     77c:	2402                	fld	fs0,0(sp)
     77e:	0001                	nop
     780:	ac00                	fsd	fs0,24(s0)
     782:	7718                	flw	fa4,40(a4)
     784:	0001                	nop
     786:	0800                	addi	s0,sp,16
     788:	026a                	slli	tp,tp,0x1a
     78a:	0124                	addi	s1,sp,136
     78c:	0000                	unimp
     78e:	18b4                	addi	a3,sp,120
     790:	0082                	slli	ra,ra,0x0
     792:	0000                	unimp
     794:	6b08                	flw	fa0,16(a4)
     796:	2402                	fld	fs0,0(sp)
     798:	0001                	nop
     79a:	bc00                	fsd	fs0,56(s0)
     79c:	9118                	0x9118
     79e:	0000                	unimp
     7a0:	0800                	addi	s0,sp,16
     7a2:	026c                	addi	a1,sp,268
     7a4:	0124                	addi	s1,sp,136
     7a6:	0000                	unimp
     7a8:	18c4                	addi	s1,sp,116
     7aa:	03f9                	addi	t2,t2,30
     7ac:	0000                	unimp
     7ae:	6d08                	flw	fa0,24(a0)
     7b0:	7302                	flw	ft6,32(sp)
     7b2:	0000                	unimp
     7b4:	cc00                	sw	s0,24(s0)
     7b6:	0900                	addi	s0,sp,144
     7b8:	0142                	slli	sp,sp,0x10
     7ba:	0000                	unimp
     7bc:	000007c7          	0x7c7
     7c0:	7a0a                	flw	fs4,160(sp)
     7c2:	0000                	unimp
     7c4:	1900                	addi	s0,sp,176
     7c6:	0900                	addi	s0,sp,144
     7c8:	0142                	slli	sp,sp,0x10
     7ca:	0000                	unimp
     7cc:	000007d7          	pv.add.h	a5,zero,zero
     7d0:	7a0a                	flw	fs4,160(sp)
     7d2:	0000                	unimp
     7d4:	0700                	addi	s0,sp,896
     7d6:	0900                	addi	s0,sp,144
     7d8:	0142                	slli	sp,sp,0x10
     7da:	0000                	unimp
     7dc:	000007e7          	jalr	a5,zero
     7e0:	7a0a                	flw	fs4,160(sp)
     7e2:	0000                	unimp
     7e4:	1700                	addi	s0,sp,928
     7e6:	1b00                	addi	s0,sp,432
     7e8:	08f0                	addi	a2,sp,92
     7ea:	0272                	slli	tp,tp,0x1c
     7ec:	0000080b          	p.lb	a6,0(zero!) # 0 <__seq_start>
     7f0:	0918                	addi	a4,sp,144
     7f2:	08000003          	lb	zero,128(zero) # 80 <__seq_start+0x80>
     7f6:	0275                	addi	tp,tp,29
     7f8:	0000080b          	p.lb	a6,0(zero!) # 0 <__seq_start>
     7fc:	1800                	addi	s0,sp,48
     7fe:	02f1                	addi	t0,t0,28
     800:	0000                	unimp
     802:	7608                	flw	fa0,40(a2)
     804:	1b02                	slli	s6,s6,0x20
     806:	0008                	addi	a0,sp,0
     808:	7800                	flw	fs0,48(s0)
     80a:	0900                	addi	s0,sp,144
     80c:	0000030b          	p.lb	t1,0(zero!) # 0 <__seq_start>
     810:	0000081b          	0x81b
     814:	7a0a                	flw	fs4,160(sp)
     816:	0000                	unimp
     818:	1d00                	addi	s0,sp,688
     81a:	0900                	addi	s0,sp,144
     81c:	007a                	0x7a
     81e:	0000                	unimp
     820:	0000082b          	p.sb	zero,16(zero!) # 10 <__seq_start+0x10>
     824:	7a0a                	flw	fs4,160(sp)
     826:	0000                	unimp
     828:	1d00                	addi	s0,sp,688
     82a:	1c00                	addi	s0,sp,560
     82c:	08f0                	addi	a2,sp,92
     82e:	084d0257          	pv.sub.h	tp,s10,tp
     832:	0000                	unimp
     834:	9b1d                	andi	a4,a4,-25
     836:	0004                	addi	s1,sp,0
     838:	0800                	addi	s0,sp,16
     83a:	026e                	slli	tp,tp,0x1b
     83c:	06b6                	slli	a3,a3,0xd
     83e:	0000                	unimp
     840:	7f1d                	lui	t5,0xfffe7
     842:	0006                	0x6
     844:	0800                	addi	s0,sp,16
     846:	07e70277          	0x7e70277
     84a:	0000                	unimp
     84c:	0900                	addi	s0,sp,144
     84e:	0142                	slli	sp,sp,0x10
     850:	0000                	unimp
     852:	085d                	addi	a6,a6,23
     854:	0000                	unimp
     856:	7a0a                	flw	fs4,160(sp)
     858:	0000                	unimp
     85a:	1800                	addi	s0,sp,48
     85c:	1e00                	addi	s0,sp,816
     85e:	00c2                	slli	ra,ra,0x10
     860:	0000                	unimp
     862:	040e                	slli	s0,s0,0x3
     864:	085d                	addi	a6,a6,23
     866:	0000                	unimp
     868:	731f 0008 1600      	0x16000008731f
     86e:	0459                	addi	s0,s0,22
     870:	0000                	unimp
     872:	0e00                	addi	s0,sp,784
     874:	6804                	flw	fs1,16(s0)
     876:	0008                	addi	a0,sp,0
     878:	0e00                	addi	s0,sp,784
     87a:	ac04                	fsd	fs1,24(s0)
     87c:	0001                	nop
     87e:	1f00                	addi	s0,sp,944
     880:	088a                	slli	a7,a7,0x2
     882:	0000                	unimp
     884:	7316                	flw	ft6,100(sp)
     886:	0000                	unimp
     888:	0000                	unimp
     88a:	040e                	slli	s0,s0,0x3
     88c:	0890                	addi	a2,sp,80
     88e:	0000                	unimp
     890:	040e                	slli	s0,s0,0x3
     892:	087f                	0x87f
     894:	0000                	unimp
     896:	2409                	jal	a98 <__seq_start+0xa98>
     898:	0006                	0x6
     89a:	a600                	fsd	fs0,8(a2)
     89c:	0008                	addi	a0,sp,0
     89e:	0a00                	addi	s0,sp,272
     8a0:	007a                	0x7a
     8a2:	0000                	unimp
     8a4:	0002                	0x2
     8a6:	1e20                	addi	s0,sp,824
     8a8:	0006                	0x6
     8aa:	0800                	addi	s0,sp,16
     8ac:	02fe                	slli	t0,t0,0x1f
     8ae:	0459                	addi	s0,s0,22
     8b0:	0000                	unimp
     8b2:	1720                	addi	s0,sp,936
     8b4:	0006                	0x6
     8b6:	0800                	addi	s0,sp,16
     8b8:	02ff                	0x2ff
     8ba:	045f 0000 6e21      	0x6e210000045f
     8c0:	0000                	unimp
     8c2:	0200                	addi	s0,sp,256
     8c4:	4210                	lw	a2,0(a2)
     8c6:	0001                	nop
     8c8:	2100                	fld	fs0,0(a0)
     8ca:	02fa                	slli	t0,t0,0x1e
     8cc:	0000                	unimp
     8ce:	1102                	slli	sp,sp,0x20
     8d0:	008c                	addi	a1,sp,64
     8d2:	0000                	unimp
     8d4:	c021                	beqz	s0,914 <__seq_start+0x914>
     8d6:	0002                	0x2
     8d8:	0200                	addi	s0,sp,256
     8da:	9712                	add	a4,a4,tp
     8dc:	0000                	unimp
     8de:	2100                	fld	fs0,0(a0)
     8e0:	000004db          	0x4db
     8e4:	1302                	slli	t1,t1,0x20
     8e6:	00000097          	auipc	ra,0x0
     8ea:	dd21                	beqz	a0,842 <__seq_start+0x842>
     8ec:	0002                	0x2
     8ee:	0200                	addi	s0,sp,256
     8f0:	9715                	srai	a4,a4,0x25
     8f2:	0000                	unimp
     8f4:	2100                	fld	fs0,0(a0)
     8f6:	00cd                	addi	ra,ra,19
     8f8:	0000                	unimp
     8fa:	1602                	slli	a2,a2,0x20
     8fc:	00000097          	auipc	ra,0x0
     900:	b621                	j	408 <__seq_start+0x408>
     902:	0004                	addi	s1,sp,0
     904:	0200                	addi	s0,sp,256
     906:	00009717          	auipc	a4,0x9
     90a:	2100                	fld	fs0,0(a0)
     90c:	0236                	slli	tp,tp,0xd
     90e:	0000                	unimp
     910:	1802                	slli	a6,a6,0x20
     912:	00000097          	auipc	ra,0x0
     916:	1921                	addi	s2,s2,-24
     918:	0000                	unimp
     91a:	0200                	addi	s0,sp,256
     91c:	9719                	srai	a4,a4,0x26
     91e:	0000                	unimp
     920:	2100                	fld	fs0,0(a0)
     922:	03d2                	slli	t2,t2,0x14
     924:	0000                	unimp
     926:	1a02                	slli	s4,s4,0x20
     928:	00000097          	auipc	ra,0x0
     92c:	9621                	srai	a2,a2,0x28
     92e:	0001                	nop
     930:	0200                	addi	s0,sp,256
     932:	0000971b          	0x971b
     936:	2100                	fld	fs0,0(a0)
     938:	021c                	addi	a5,sp,256
     93a:	0000                	unimp
     93c:	1c02                	slli	s8,s8,0x20
     93e:	00000097          	auipc	ra,0x0
     942:	00000c03          	lb	s8,0(zero) # 0 <__seq_start>
     946:	0200                	addi	s0,sp,256
     948:	8c1e                	mv	s8,t2
     94a:	0000                	unimp
     94c:	0900                	addi	s0,sp,144
     94e:	008c                	addi	a1,sp,64
     950:	0000                	unimp
     952:	095d                	addi	s2,s2,23
     954:	0000                	unimp
     956:	7a0a                	flw	fs4,160(sp)
     958:	0000                	unimp
     95a:	ff00                	fsw	fs0,56(a4)
     95c:	2200                	fld	fs0,0(a2)
     95e:	029e                	slli	t0,t0,0x7
     960:	0000                	unimp
     962:	0d01                	addi	s10,s10,0
     964:	094d                	addi	s2,s2,19
     966:	0000                	unimp
     968:	0305                	addi	t1,t1,1
     96a:	0000                	unimp
     96c:	0002                	0x2
     96e:	0006ca23          	p.sb	zero,s4(a3)
     972:	0100                	addi	s0,sp,128
     974:	7310                	flw	fa2,32(a4)
     976:	0000                	unimp
     978:	0800                	addi	s0,sp,16
     97a:	0001                	nop
     97c:	5c80                	lw	s0,56(s1)
     97e:	0000                	unimp
     980:	0100                	addi	s0,sp,128
     982:	fc9c                	fsw	fa5,56(s1)
     984:	0009                	c.addi	zero,2
     986:	2400                	fld	fs0,8(s0)
     988:	0039                	c.addi	zero,14
     98a:	0000                	unimp
     98c:	1101                	addi	sp,sp,-32
     98e:	008c                	addi	a1,sp,64
     990:	0000                	unimp
     992:	8724                	0x8724
     994:	0006                	0x6
     996:	0100                	addi	s0,sp,128
     998:	8c12                	mv	s8,tp
     99a:	0000                	unimp
     99c:	2500                	fld	fs0,8(a0)
     99e:	03ba                	slli	t2,t2,0xe
     9a0:	0000                	unimp
     9a2:	1601                	addi	a2,a2,-32
     9a4:	0081                	addi	ra,ra,0
     9a6:	0000                	unimp
     9a8:	2600                	fld	fs0,8(a2)
     9aa:	0069                	c.addi	zero,26
     9ac:	1701                	addi	a4,a4,-32
     9ae:	008c                	addi	a1,sp,64
     9b0:	0000                	unimp
     9b2:	2704                	fld	fs1,8(a4)
     9b4:	09fc                	addi	a5,sp,220
     9b6:	0000                	unimp
     9b8:	0118                	addi	a4,sp,128
     9ba:	8000                	0x8000
     9bc:	0004                	addi	s1,sp,0
     9be:	0000                	unimp
     9c0:	1101                	addi	sp,sp,-32
     9c2:	09d6                	slli	s3,s3,0x15
     9c4:	0000                	unimp
     9c6:	1828                	addi	a0,sp,56
     9c8:	0001                	nop
     9ca:	0480                	addi	s0,sp,576
     9cc:	0000                	unimp
     9ce:	2900                	fld	fs0,16(a0)
     9d0:	0a0c                	addi	a1,sp,272
     9d2:	0000                	unimp
     9d4:	0000                	unimp
     9d6:	242a                	fld	fs0,136(sp)
     9d8:	0001                	nop
     9da:	2280                	fld	fs0,0(a3)
     9dc:	000a                	0xa
     9de:	ea00                	fsw	fs0,16(a2)
     9e0:	0009                	c.addi	zero,2
     9e2:	2b00                	fld	fs0,16(a4)
     9e4:	5a01                	li	s4,-32
     9e6:	7802                	flw	fa6,32(sp)
     9e8:	0000                	unimp
     9ea:	3c2c                	fld	fa1,120(s0)
     9ec:	0001                	nop
     9ee:	2d80                	fld	fs0,24(a1)
     9f0:	000a                	0xa
     9f2:	2b00                	fld	fs0,16(a4)
     9f4:	5a01                	li	s4,-32
     9f6:	01000a03          	lb	s4,16(zero) # 10 <__seq_start+0x10>
     9fa:	0000                	unimp
     9fc:	2d2d                	jal	1036 <__seq_start+0x1036>
     9fe:	0000                	unimp
     a00:	0200                	addi	s0,sp,256
     a02:	4225                	li	tp,9
     a04:	0009                	c.addi	zero,2
     a06:	0300                	addi	s0,sp,384
     a08:	0a16                	slli	s4,s4,0x5
     a0a:	0000                	unimp
     a0c:	722e                	flw	ft4,232(sp)
     a0e:	0200                	addi	s0,sp,256
     a10:	4226                	lw	tp,72(sp)
     a12:	0009                	c.addi	zero,2
     a14:	0000                	unimp
     a16:	0002512f          	0x2512f
     a1a:	0200                	addi	s0,sp,256
     a1c:	4222                	lw	tp,8(sp)
     a1e:	0009                	c.addi	zero,2
     a20:	0300                	addi	s0,sp,384
     a22:	9b30                	0x9b30
     a24:	9b000003          	lb	zero,-1616(zero) # fffff9b0 <pulp__FC+0xfffff9b1>
     a28:	09000003          	lb	zero,144(zero) # 90 <__seq_start+0x90>
     a2c:	062a300b          	0x62a300b
     a30:	0000                	unimp
     a32:	062a                	slli	a2,a2,0xa
     a34:	0000                	unimp
     a36:	0c09                	addi	s8,s8,2
     a38:	8e00                	0x8e00
     a3a:	04000007          	0x4000007
     a3e:	6f00                	flw	fs0,24(a4)
     a40:	0002                	0x2
     a42:	0400                	addi	s0,sp,512
     a44:	ed01                	bnez	a0,a5c <__seq_start+0xa5c>
     a46:	0004                	addi	s1,sp,0
     a48:	0c00                	addi	s0,sp,528
     a4a:	000007a7          	0x7a7
     a4e:	0310                	addi	a2,sp,384
     a50:	0000                	unimp
     a52:	0164                	addi	s1,sp,140
     a54:	8000                	0x8000
     a56:	0408                	addi	a0,sp,512
     a58:	0000                	unimp
     a5a:	02f1                	addi	t0,t0,28
     a5c:	0000                	unimp
     a5e:	0402                	slli	s0,s0,0x0
     a60:	6905                	lui	s2,0x1
     a62:	746e                	flw	fs0,248(sp)
     a64:	0300                	addi	s0,sp,384
     a66:	0704                	addi	s1,sp,896
     a68:	00ac                	addi	a1,sp,72
     a6a:	0000                	unimp
     a6c:	e8060103          	lb	sp,-384(a2)
     a70:	04000003          	lb	zero,64(zero) # 40 <__seq_start+0x40>
     a74:	0000075b          	0x75b
     a78:	2b02                	fld	fs6,0(sp)
     a7a:	0045                	c.addi	zero,17
     a7c:	0000                	unimp
     a7e:	e6080103          	lb	sp,-416(a6)
     a82:	03000003          	lb	zero,48(zero) # 30 <__seq_start+0x30>
     a86:	0502                	slli	a0,a0,0x0
     a88:	0402                	slli	s0,s0,0x0
     a8a:	0000                	unimp
     a8c:	68070203          	lb	tp,1664(a4) # 9f86 <__seq_start+0x9f86>
     a90:	0002                	0x2
     a92:	0300                	addi	s0,sp,384
     a94:	0504                	addi	s1,sp,640
     a96:	010c                	addi	a1,sp,128
     a98:	0000                	unimp
     a9a:	b704                	fsd	fs1,40(a4)
     a9c:	0001                	nop
     a9e:	0200                	addi	s0,sp,256
     aa0:	00006c4f          	0x6c4f
     aa4:	0300                	addi	s0,sp,384
     aa6:	0704                	addi	s1,sp,896
     aa8:	000000a7          	0xa7
     aac:	07050803          	lb	a6,112(a0) # 70 <__seq_start+0x70>
     ab0:	0001                	nop
     ab2:	0300                	addi	s0,sp,384
     ab4:	0708                	addi	a0,sp,896
     ab6:	00a2                	slli	ra,ra,0x8
     ab8:	0000                	unimp
     aba:	5d04                	lw	s1,56(a0)
     abc:	03000007          	0x3000007
     ac0:	3a18                	fld	fa4,48(a2)
     ac2:	0000                	unimp
     ac4:	0400                	addi	s0,sp,512
     ac6:	01b9                	addi	gp,gp,14
     ac8:	0000                	unimp
     aca:	00613003          	0x613003
     ace:	0000                	unimp
     ad0:	8c05                	sub	s0,s0,s1
     ad2:	0000                	unimp
     ad4:	0600                	addi	s0,sp,768
     ad6:	06d9                	addi	a3,a3,22
     ad8:	0000                	unimp
     ada:	0408                	addi	a0,sp,512
     adc:	c114                	sw	a3,0(a0)
     ade:	0000                	unimp
     ae0:	0700                	addi	s0,sp,896
     ae2:	076a                	slli	a4,a4,0x1a
     ae4:	0000                	unimp
     ae6:	1504                	addi	s1,sp,672
     ae8:	008c                	addi	a1,sp,64
     aea:	0000                	unimp
     aec:	0700                	addi	s0,sp,896
     aee:	044c                	addi	a1,sp,516
     af0:	0000                	unimp
     af2:	1604                	addi	s1,sp,800
     af4:	00c1                	addi	ra,ra,16
     af6:	0000                	unimp
     af8:	0004                	addi	s1,sp,0
     afa:	0408                	addi	a0,sp,512
     afc:	009c                	addi	a5,sp,64
     afe:	0000                	unimp
     b00:	e704                	fsw	fs1,8(a4)
     b02:	0006                	0x6
     b04:	0400                	addi	s0,sp,512
     b06:	00009c17          	auipc	s8,0x9
     b0a:	0900                	addi	s0,sp,144
     b0c:	0404                	addi	s1,sp,512
     b0e:	e71a                	fsw	ft6,140(sp)
     b10:	0000                	unimp
     b12:	0700                	addi	s0,sp,896
     b14:	00000833          	add	a6,zero,zero
     b18:	1b04                	addi	s1,sp,432
     b1a:	000000e7          	jalr	zero
     b1e:	0000                	unimp
     b20:	0408                	addi	a0,sp,512
     b22:	000000c7          	0xc7
     b26:	6404                	flw	fs1,8(s0)
     b28:	0008                	addi	a0,sp,0
     b2a:	0400                	addi	s0,sp,512
     b2c:	d21c                	sw	a5,32(a2)
     b2e:	0000                	unimp
     b30:	0a00                	addi	s0,sp,272
     b32:	0851                	addi	a6,a6,20
     b34:	0000                	unimp
     b36:	2001                	jal	b36 <__seq_start+0xb36>
     b38:	00ed                	addi	ra,ra,27
     b3a:	0000                	unimp
     b3c:	0305                	addi	t1,t1,1
     b3e:	2000                	fld	fs0,0(s0)
     b40:	8000                	0x8000
     b42:	0000ed0b          	0xed0b
     b46:	1900                	addi	s0,sp,176
     b48:	0001                	nop
     b4a:	0c00                	addi	s0,sp,528
     b4c:	002c                	addi	a1,sp,8
     b4e:	0000                	unimp
     b50:	390a003f 01000007 	0x1000007390a003f
     b58:	00010923          	sb	zero,18(sp)
     b5c:	0500                	addi	s0,sp,640
     b5e:	02280003          	lb	zero,34(a6)
     b62:	0900                	addi	s0,sp,144
     b64:	0108                	addi	a0,sp,128
     b66:	4b28                	lw	a0,80(a4)
     b68:	0001                	nop
     b6a:	0700                	addi	s0,sp,896
     b6c:	076a                	slli	a4,a4,0x1a
     b6e:	0000                	unimp
     b70:	2901                	jal	f80 <__seq_start+0xf80>
     b72:	008c                	addi	a1,sp,64
     b74:	0000                	unimp
     b76:	0700                	addi	s0,sp,896
     b78:	0744                	addi	s1,sp,900
     b7a:	0000                	unimp
     b7c:	2a01                	jal	c8c <__seq_start+0xc8c>
     b7e:	0081                	addi	ra,ra,0
     b80:	0000                	unimp
     b82:	0004                	addi	s1,sp,0
     b84:	1b04                	addi	s1,sp,432
     b86:	01000007          	0x1000007
     b8a:	00012a2b          	p.sw	zero,20(sp!)
     b8e:	0500                	addi	s0,sp,640
     b90:	0000014b          	0x14b
     b94:	350d                	jal	9b6 <__seq_start+0x9b6>
     b96:	01000007          	0x1000007
     b9a:	84f1                	srai	s1,s1,0x1c
     b9c:	0001                	nop
     b9e:	5800                	lw	s0,48(s0)
     ba0:	0005                	c.addi	zero,1
     ba2:	1480                	addi	s0,sp,608
     ba4:	0000                	unimp
     ba6:	0100                	addi	s0,sp,128
     ba8:	849c                	0x849c
     baa:	0001                	nop
     bac:	0e00                	addi	s0,sp,784
     bae:	072d                	addi	a4,a4,11
     bb0:	0000                	unimp
     bb2:	f101                	bnez	a0,ab2 <__seq_start+0xab2>
     bb4:	00000097          	auipc	ra,0x0
     bb8:	0000                	unimp
     bba:	0000                	unimp
     bbc:	0800                	addi	s0,sp,16
     bbe:	ed04                	fsw	fs1,24(a0)
     bc0:	0000                	unimp
     bc2:	0f00                	addi	s0,sp,912
     bc4:	084d                	addi	a6,a6,19
     bc6:	0000                	unimp
     bc8:	ef01                	bnez	a4,be0 <__seq_start+0xbe0>
     bca:	0184                	addi	s1,sp,192
     bcc:	0000                	unimp
     bce:	054c                	addi	a1,sp,644
     bd0:	8000                	0x8000
     bd2:	000c                	addi	a1,sp,0
     bd4:	0000                	unimp
     bd6:	9c01                	0x9c01
     bd8:	8710                	0x8710
     bda:	01000007          	0x1000007
     bde:	ccd6                	sw	s5,88(sp)
     be0:	0004                	addi	s1,sp,0
     be2:	8080                	0x8080
     be4:	0000                	unimp
     be6:	0100                	addi	s0,sp,128
     be8:	179c                	addi	a5,sp,992
     bea:	0002                	0x2
     bec:	0e00                	addi	s0,sp,784
     bee:	00000847          	0x847
     bf2:	d601                	beqz	a2,afa <__seq_start+0xafa>
     bf4:	0184                	addi	s1,sp,192
     bf6:	0000                	unimp
     bf8:	0021                	c.addi	zero,8
     bfa:	0000                	unimp
     bfc:	1011                	c.addi	zero,-28
     bfe:	0008                	addi	a0,sp,0
     c00:	0100                	addi	s0,sp,128
     c02:	e7d8                	fsw	fa4,12(a5)
     c04:	0000                	unimp
     c06:	4200                	lw	s0,0(a2)
     c08:	0000                	unimp
     c0a:	1200                	addi	s0,sp,288
     c0c:	04ec                	addi	a1,sp,588
     c0e:	8000                	0x8000
     c10:	0786                	slli	a5,a5,0x1
     c12:	0000                	unimp
     c14:	01e9                	addi	gp,gp,26
     c16:	0000                	unimp
     c18:	055a0113          	addi	sp,s4,85 # ffffa055 <pulp__FC+0xffffa056>
     c1c:	00184803          	lbu	a6,1(a6)
     c20:	0080                	addi	s0,sp,64
     c22:	1412                	slli	s0,s0,0x24
     c24:	0005                	c.addi	zero,1
     c26:	8680                	0x8680
     c28:	03000007          	0x3000007
     c2c:	0002                	0x2
     c2e:	1300                	addi	s0,sp,416
     c30:	5a01                	li	s4,-32
     c32:	7902                	flw	fs2,32(sp)
     c34:	1300                	addi	s0,sp,416
     c36:	5b01                	li	s6,-32
     c38:	7802                	flw	fa6,32(sp)
     c3a:	0000                	unimp
     c3c:	3814                	fld	fa3,48(s0)
     c3e:	0005                	c.addi	zero,1
     c40:	8680                	0x8680
     c42:	13000007          	0x13000007
     c46:	5a01                	li	s4,-32
     c48:	0305                	addi	t1,t1,1
     c4a:	1884                	addi	s1,sp,112
     c4c:	8000                	0x8000
     c4e:	0000                	unimp
     c50:	6f10                	flw	fa2,24(a4)
     c52:	01000007          	0x1000007
     c56:	10d1                	addi	ra,ra,-12
     c58:	0004                	addi	s1,sp,0
     c5a:	bc80                	fsd	fs0,56(s1)
     c5c:	0000                	unimp
     c5e:	0100                	addi	s0,sp,128
     c60:	f29c                	fsw	fa5,32(a3)
     c62:	0002                	0x2
     c64:	1500                	addi	s0,sp,672
     c66:	7470                	flw	fa2,108(s0)
     c68:	0072                	0x72
     c6a:	d101                	beqz	a0,b6a <__seq_start+0xb6a>
     c6c:	02f4                	addi	a3,sp,332
     c6e:	0000                	unimp
     c70:	0081                	addi	ra,ra,0
     c72:	0000                	unimp
     c74:	f916                	fsw	ft5,176(sp)
     c76:	0002                	0x2
     c78:	1000                	addi	s0,sp,32
     c7a:	0004                	addi	s1,sp,0
     c7c:	d080                	sw	s0,32(s1)
     c7e:	0000                	unimp
     c80:	0100                	addi	s0,sp,128
     c82:	17d1                	addi	a5,a5,-12
     c84:	0310                	addi	a2,sp,384
     c86:	0000                	unimp
     c88:	00d2                	slli	ra,ra,0x14
     c8a:	0000                	unimp
     c8c:	00030517          	auipc	a0,0x30
     c90:	2e00                	fld	fs0,24(a2)
     c92:	0001                	nop
     c94:	1800                	addi	s0,sp,48
     c96:	00d0                	addi	a2,sp,68
     c98:	0000                	unimp
     c9a:	f219                	bnez	a2,ba0 <__seq_start+0xba0>
     c9c:	0006                	0x6
     c9e:	1900                	addi	s0,sp,176
     ca0:	000006fb          	0x6fb
     ca4:	321a                	fld	ft4,416(sp)
     ca6:	30000003          	lb	zero,768(zero) # 300 <__seq_start+0x300>
     caa:	0004                	addi	s1,sp,0
     cac:	e880                	fsw	fs0,16(s1)
     cae:	0000                	unimp
     cb0:	0100                	addi	s0,sp,128
     cb2:	bace                	fsd	fs3,368(sp)
     cb4:	0002                	0x2
     cb6:	1700                	addi	s0,sp,928
     cb8:	0354                	addi	a3,sp,388
     cba:	0000                	unimp
     cbc:	0156                	slli	sp,sp,0x15
     cbe:	0000                	unimp
     cc0:	0003491b          	0x3491b
     cc4:	0100                	addi	s0,sp,128
     cc6:	033e1b5b          	0x33e1b5b
     cca:	0000                	unimp
     ccc:	0306                	slli	t1,t1,0x1
     cce:	2000                	fld	fs0,0(s0)
     cd0:	8000                	0x8000
     cd2:	189f 00e8 0000      	0xe8189f
     cd8:	5f1c                	lw	a5,56(a4)
     cda:	01000003          	lb	zero,16(zero) # 10 <__seq_start+0x10>
     cde:	036a1d5b          	0x36a1d5b
     ce2:	0000                	unimp
     ce4:	019c                	addi	a5,sp,192
     ce6:	0000                	unimp
     ce8:	751d                	lui	a0,0xfffe7
     cea:	ea000003          	lb	zero,-352(zero) # fffffea0 <pulp__FC+0xfffffea1>
     cee:	0001                	nop
     cf0:	0000                	unimp
     cf2:	1e00                	addi	s0,sp,816
     cf4:	00000587          	0x587
     cf8:	0458                	addi	a4,sp,516
     cfa:	8000                	0x8000
     cfc:	0004                	addi	s1,sp,0
     cfe:	0000                	unimp
     d00:	c401                	beqz	s0,d08 <__seq_start+0xd08>
     d02:	000002d3          	0x2d3
     d06:	971f 0005 0000      	0x5971f
     d0c:	3014                	fld	fa3,32(s0)
     d0e:	0004                	addi	s1,sp,0
     d10:	8680                	0x8680
     d12:	13000007          	0x13000007
     d16:	5a01                	li	s4,-32
     d18:	0305                	addi	t1,t1,1
     d1a:	1830                	addi	a2,sp,56
     d1c:	8000                	0x8000
     d1e:	055b0113          	addi	sp,s6,85 # 55 <__seq_start+0x55>
     d22:	345a01f3          	0x345a01f3
     d26:	001c                	addi	a5,sp,0
     d28:	0000                	unimp
     d2a:	2000                	fld	fs0,0(s0)
     d2c:	0504                	addi	s1,sp,640
     d2e:	02f2                	slli	t0,t0,0x1c
     d30:	0000                	unimp
     d32:	7b21                	lui	s6,0xfffe8
     d34:	01000007          	0x1000007
     d38:	033201bf 47220000 	0x47220000033201bf
     d40:	0008                	addi	a0,sp,0
     d42:	0100                	addi	s0,sp,128
     d44:	000184bf 74702300 	0x74702300000184bf
     d4c:	0072                	0x72
     d4e:	bf01                	j	c5e <__seq_start+0xc5e>
     d50:	02f4                	addi	a3,sp,332
     d52:	0000                	unimp
     d54:	5a24                	lw	s1,112(a2)
     d56:	0008                	addi	a0,sp,0
     d58:	0100                	addi	s0,sp,128
     d5a:	f2c1                	bnez	a3,cda <__seq_start+0xcda>
     d5c:	0002                	0x2
     d5e:	2400                	fld	fs0,8(s0)
     d60:	0000074b          	0x74b
     d64:	c401                	beqz	s0,d6c <__seq_start+0xd6c>
     d66:	0156                	slli	sp,sp,0x15
     d68:	0000                	unimp
     d6a:	2500                	fld	fs0,8(a0)
     d6c:	0888                	addi	a0,sp,80
     d6e:	0000                	unimp
     d70:	9901                	andi	a0,a0,-32
     d72:	8101                	srli	a0,a0,0x0
     d74:	22000003          	lb	zero,544(zero) # 220 <__seq_start+0x220>
     d78:	00000847          	0x847
     d7c:	9901                	andi	a0,a0,-32
     d7e:	0184                	addi	s1,sp,192
     d80:	0000                	unimp
     d82:	72747023          	0x72747023
     d86:	0100                	addi	s0,sp,128
     d88:	f499                	bnez	s1,c96 <__seq_start+0xc96>
     d8a:	0002                	0x2
     d8c:	2200                	fld	fs0,0(a2)
     d8e:	076a                	slli	a4,a4,0x1a
     d90:	0000                	unimp
     d92:	9901                	andi	a0,a0,-32
     d94:	00000097          	auipc	ra,0x0
     d98:	5a24                	lw	s1,112(a2)
     d9a:	0008                	addi	a0,sp,0
     d9c:	0100                	addi	s0,sp,128
     d9e:	e79a                	fsw	ft6,204(sp)
     da0:	0000                	unimp
     da2:	2400                	fld	fs0,8(s0)
     da4:	044c                	addi	a1,sp,516
     da6:	0000                	unimp
     da8:	9c01                	0x9c01
     daa:	000000e7          	jalr	zero
     dae:	6c24                	flw	fs1,88(s0)
     db0:	0008                	addi	a0,sp,0
     db2:	0100                	addi	s0,sp,128
     db4:	e79d                	bnez	a5,de2 <__seq_start+0xde2>
     db6:	0000                	unimp
     db8:	0000                	unimp
     dba:	3f0d                	jal	cec <__seq_start+0xcec>
     dbc:	0008                	addi	a0,sp,0
     dbe:	0100                	addi	s0,sp,128
     dc0:	f292                	fsw	ft4,100(sp)
     dc2:	0002                	0x2
     dc4:	6c00                	flw	fs0,24(s0)
     dc6:	0002                	0x2
     dc8:	f080                	fsw	fs0,32(s1)
     dca:	0000                	unimp
     dcc:	0100                	addi	s0,sp,128
     dce:	829c                	0x829c
     dd0:	0004                	addi	s1,sp,0
     dd2:	0e00                	addi	s0,sp,784
     dd4:	076a                	slli	a4,a4,0x1a
     dd6:	0000                	unimp
     dd8:	9201                	srli	a2,a2,0x20
     dda:	00000097          	auipc	ra,0x0
     dde:	0215                	addi	tp,tp,5
     de0:	0000                	unimp
     de2:	8216                	mv	tp,t0
     de4:	0004                	addi	s1,sp,0
     de6:	7000                	flw	fs0,32(s0)
     de8:	0002                	0x2
     dea:	4880                	lw	s0,16(s1)
     dec:	0000                	unimp
     dee:	0100                	addi	s0,sp,128
     df0:	049d1793          	0x49d1793
     df4:	0000                	unimp
     df6:	0000024f          	0x24f
     dfa:	0004921b          	0x4921b
     dfe:	0600                	addi	s0,sp,768
     e00:	00200003          	lb	zero,2(zero) # 2 <__seq_start+0x2>
     e04:	9f80                	0x9f80
     e06:	4818                	lw	a4,16(s0)
     e08:	0000                	unimp
     e0a:	1900                	addi	s0,sp,176
     e0c:	00000617          	auipc	a2,0x0
     e10:	2019                	jal	e16 <__seq_start+0xe16>
     e12:	0006                	0x6
     e14:	1900                	addi	s0,sp,176
     e16:	0629                	addi	a2,a2,10
     e18:	0000                	unimp
     e1a:	2e19                	jal	1130 <__seq_start+0x1130>
     e1c:	0006                	0x6
     e1e:	1a00                	addi	s0,sp,304
     e20:	04d5                	addi	s1,s1,21
     e22:	0000                	unimp
     e24:	0284                	addi	s1,sp,320
     e26:	8000                	0x8000
     e28:	0078                	addi	a4,sp,12
     e2a:	0000                	unimp
     e2c:	8401                	srai	s0,s0,0x0
     e2e:	00000437          	lui	s0,0x0
     e32:	0004f017          	auipc	zero,0x4f
     e36:	8900                	0x8900
     e38:	0002                	0x2
     e3a:	1700                	addi	s0,sp,928
     e3c:	04e5                	addi	s1,s1,25
     e3e:	0000                	unimp
     e40:	02b2                	slli	t0,t0,0xc
     e42:	0000                	unimp
     e44:	7818                	flw	fa4,48(s0)
     e46:	0000                	unimp
     e48:	1d00                	addi	s0,sp,688
     e4a:	000004fb          	0x4fb
     e4e:	02ea                	slli	t0,t0,0x1a
     e50:	0000                	unimp
     e52:	061d                	addi	a2,a2,7
     e54:	0005                	c.addi	zero,1
     e56:	0800                	addi	s0,sp,16
     e58:	26000003          	lb	zero,608(zero) # 260 <__seq_start+0x260>
     e5c:	0511                	addi	a0,a0,4
     e5e:	0000                	unimp
     e60:	0098                	addi	a4,sp,64
     e62:	0000                	unimp
     e64:	121d                	addi	tp,tp,-25
     e66:	0005                	c.addi	zero,1
     e68:	2800                	fld	fs0,16(s0)
     e6a:	00000003          	lb	zero,0(zero) # 0 <__seq_start>
     e6e:	0000                	unimp
     e70:	a31e                	fsd	ft7,384(sp)
     e72:	0005                	c.addi	zero,1
     e74:	f000                	fsw	fs0,32(s0)
     e76:	0002                	0x2
     e78:	0c80                	addi	s0,sp,592
     e7a:	0000                	unimp
     e7c:	0100                	addi	s0,sp,128
     e7e:	0004558b          	p.lhu	a1,0(s0!) # 0 <__seq_start>
     e82:	1f00                	addi	s0,sp,944
     e84:	05be                	slli	a1,a1,0xf
     e86:	0000                	unimp
     e88:	b31f 0005 0000      	0x5b31f
     e8e:	c812                	sw	tp,16(sp)
     e90:	0002                	0x2
     e92:	8680                	0x8680
     e94:	6c000007          	0x6c000007
     e98:	0004                	addi	s1,sp,0
     e9a:	1300                	addi	s0,sp,416
     e9c:	5a01                	li	s4,-32
     e9e:	0305                	addi	t1,t1,1
     ea0:	17fc                	addi	a5,sp,1004
     ea2:	8000                	0x8000
     ea4:	2700                	fld	fs0,8(a4)
     ea6:	0354                	addi	a3,sp,388
     ea8:	8000                	0x8000
     eaa:	0786                	slli	a5,a5,0x1
     eac:	0000                	unimp
     eae:	055a0113          	addi	sp,s4,85
     eb2:	0017c003          	lbu	zero,1(a5)
     eb6:	0080                	addi	s0,sp,64
     eb8:	0000                	unimp
     eba:	2800                	fld	fs0,16(s0)
     ebc:	0871                	addi	a6,a6,28
     ebe:	0000                	unimp
     ec0:	7701                	lui	a4,0xfffe0
     ec2:	02f2                	slli	t0,t0,0x1c
     ec4:	0000                	unimp
     ec6:	d501                	beqz	a0,dce <__seq_start+0xdce>
     ec8:	0004                	addi	s1,sp,0
     eca:	2200                	fld	fs0,0(a2)
     ecc:	00000847          	0x847
     ed0:	7701                	lui	a4,0xfffe0
     ed2:	0184                	addi	s1,sp,192
     ed4:	0000                	unimp
     ed6:	6a22                	flw	fs4,8(sp)
     ed8:	01000007          	0x1000007
     edc:	00009777          	0x9777
     ee0:	2400                	fld	fs0,8(s0)
     ee2:	0765                	addi	a4,a4,25
     ee4:	0000                	unimp
     ee6:	7901                	lui	s2,0xfffe0
     ee8:	008c                	addi	a1,sp,64
     eea:	0000                	unimp
     eec:	f524                	fsw	fs1,104(a0)
     eee:	0006                	0x6
     ef0:	0100                	addi	s0,sp,128
     ef2:	8c7a                	mv	s8,t5
     ef4:	0000                	unimp
     ef6:	2400                	fld	fs0,8(s0)
     ef8:	085a                	slli	a6,a6,0x16
     efa:	0000                	unimp
     efc:	8401                	srai	s0,s0,0x0
     efe:	02f2                	slli	t0,t0,0x1c
     f00:	0000                	unimp
     f02:	7f24                	flw	fs1,120(a4)
     f04:	0008                	addi	a0,sp,0
     f06:	0100                	addi	s0,sp,128
     f08:	f28e                	fsw	ft3,100(sp)
     f0a:	0002                	0x2
     f0c:	0000                	unimp
     f0e:	1529                	addi	a0,a0,-22
     f10:	0008                	addi	a0,sp,0
     f12:	0100                	addi	s0,sp,128
     f14:	0002f24f          	0x2f24f
     f18:	0100                	addi	s0,sp,128
     f1a:	051f 0000 4722      	0x47220000051f
     f20:	0008                	addi	a0,sp,0
     f22:	0100                	addi	s0,sp,128
     f24:	0001844f          	0x1844f
     f28:	2200                	fld	fs0,0(a2)
     f2a:	076a                	slli	a4,a4,0x1a
     f2c:	0000                	unimp
     f2e:	4f01                	li	t5,0
     f30:	00000097          	auipc	ra,0x0
     f34:	1024                	addi	s1,sp,40
     f36:	0008                	addi	a0,sp,0
     f38:	0100                	addi	s0,sp,128
     f3a:	e751                	bnez	a4,fc6 <__seq_start+0xfc6>
     f3c:	0000                	unimp
     f3e:	2400                	fld	fs0,8(s0)
     f40:	086c                	addi	a1,sp,28
     f42:	0000                	unimp
     f44:	5201                	li	tp,-32
     f46:	000000e7          	jalr	zero
     f4a:	242a                	fld	fs0,136(sp)
     f4c:	079d                	addi	a5,a5,7
     f4e:	0000                	unimp
     f50:	6501                	lui	a0,0x0
     f52:	000000e7          	jalr	zero
     f56:	0000                	unimp
     f58:	9210                	0x9210
     f5a:	01000007          	0x1000007
     f5e:	643d                	lui	s0,0xf
     f60:	0001                	nop
     f62:	2480                	fld	fs0,8(s1)
     f64:	0000                	unimp
     f66:	0100                	addi	s0,sp,128
     f68:	879c                	0x879c
     f6a:	0005                	c.addi	zero,1
     f6c:	2b00                	fld	fs0,16(a4)
     f6e:	00000847          	0x847
     f72:	3d01                	jal	d82 <__seq_start+0xd82>
     f74:	0184                	addi	s1,sp,192
     f76:	0000                	unimp
     f78:	5a01                	li	s4,-32
     f7a:	770e                	flw	fa4,224(sp)
     f7c:	0000                	unimp
     f7e:	0100                	addi	s0,sp,128
     f80:	f23d                	bnez	a2,ee6 <__seq_start+0xee6>
     f82:	0002                	0x2
     f84:	4600                	lw	s0,8(a2)
     f86:	2b000003          	lb	zero,688(zero) # 2b0 <__seq_start+0x2b0>
     f8a:	076a                	slli	a4,a4,0x1a
     f8c:	0000                	unimp
     f8e:	3d01                	jal	d9e <__seq_start+0xd9e>
     f90:	00000097          	auipc	ra,0x0
     f94:	5c01                	li	s8,-32
     f96:	002c                	addi	a1,sp,8
     f98:	01000007          	0x1000007
     f9c:	00008c3f 2c5f0100 	0x2c5f010000008c3f
     fa4:	085a                	slli	a6,a6,0x16
     fa6:	0000                	unimp
     fa8:	4001                	0x4001
     faa:	000000e7          	jalr	zero
     fae:	5f01                	li	t5,-32
     fb0:	f511                	bnez	a0,ebc <__seq_start+0xebc>
     fb2:	0006                	0x6
     fb4:	0100                	addi	s0,sp,128
     fb6:	00008c43          	0x8c43
     fba:	6700                	flw	fs0,8(a4)
     fbc:	00000003          	lb	zero,0(zero) # 0 <__seq_start>
     fc0:	0d29                	addi	s10,s10,10
     fc2:	01000007          	0x1000007
     fc6:	4b36                	lw	s6,76(sp)
     fc8:	0001                	nop
     fca:	0300                	addi	s0,sp,384
     fcc:	000005a3          	sb	zero,11(zero) # b <__seq_start+0xb>
     fd0:	ee22                	fsw	fs0,28(sp)
     fd2:	0005                	c.addi	zero,1
     fd4:	0100                	addi	s0,sp,128
     fd6:	9736                	add	a4,a4,a3
     fd8:	0000                	unimp
     fda:	0000                	unimp
     fdc:	2529                	jal	15e6 <__seq_start+0x15e6>
     fde:	0008                	addi	a0,sp,0
     fe0:	0100                	addi	s0,sp,128
     fe2:	8c31                	xor	s0,s0,a2
     fe4:	0000                	unimp
     fe6:	0300                	addi	s0,sp,384
     fe8:	05ca                	slli	a1,a1,0x12
     fea:	0000                	unimp
     fec:	72747023          	0x72747023
     ff0:	0100                	addi	s0,sp,128
     ff2:	d031                	beqz	s0,f36 <__seq_start+0xf36>
     ff4:	0005                	c.addi	zero,1
     ff6:	2200                	fld	fs0,0(a2)
     ff8:	076a                	slli	a4,a4,0x1a
     ffa:	0000                	unimp
     ffc:	3201                	jal	8fc <__seq_start+0x8fc>
     ffe:	00000097          	auipc	ra,0x0
    1002:	0800                	addi	s0,sp,16
    1004:	d504                	sw	s1,40(a0)
    1006:	0005                	c.addi	zero,1
    1008:	0500                	addi	s0,sp,640
    100a:	05ca                	slli	a1,a1,0x12
    100c:	0000                	unimp
    100e:	292d                	jal	1448 <__seq_start+0x1448>
    1010:	0744                	addi	s1,sp,900
    1012:	0000                	unimp
    1014:	2d01                	jal	1624 <__seq_start+0x1624>
    1016:	0081                	addi	ra,ra,0
    1018:	0000                	unimp
    101a:	0005f203          	p.lb	tp,zero(a1)
    101e:	2300                	fld	fs0,0(a4)
    1020:	7470                	flw	fa2,108(s0)
    1022:	0072                	0x72
    1024:	2d01                	jal	1634 <__seq_start+0x1634>
    1026:	05d0                	addi	a2,sp,708
    1028:	0000                	unimp
    102a:	2e00                	fld	fs0,24(a2)
    102c:	0482                	slli	s1,s1,0x0
    102e:	0000                	unimp
    1030:	0188                	addi	a0,sp,192
    1032:	8000                	0x8000
    1034:	00e4                	addi	s1,sp,76
    1036:	0000                	unimp
    1038:	9c01                	0x9c01
    103a:	06cd                	addi	a3,a3,19
    103c:	0000                	unimp
    103e:	00049217          	auipc	tp,0x49
    1042:	8a00                	0x8a00
    1044:	17000003          	lb	zero,368(zero) # 170 <__seq_start+0x170>
    1048:	049d                	addi	s1,s1,7
    104a:	0000                	unimp
    104c:	03dd                	addi	t2,t2,23
    104e:	0000                	unimp
    1050:	a81d                	j	1086 <__seq_start+0x1086>
    1052:	0004                	addi	s1,sp,0
    1054:	0b00                	addi	s0,sp,400
    1056:	0004                	addi	s1,sp,0
    1058:	1d00                	addi	s0,sp,688
    105a:	000004b3          	add	s1,zero,zero
    105e:	043d                	addi	s0,s0,15
    1060:	0000                	unimp
    1062:	be19                	j	b78 <__seq_start+0xb78>
    1064:	0004                	addi	s1,sp,0
    1066:	1900                	addi	s0,sp,176
    1068:	04c9                	addi	s1,s1,18
    106a:	0000                	unimp
    106c:	d51a                	sw	t1,168(sp)
    106e:	0004                	addi	s1,sp,0
    1070:	a000                	fsd	fs0,0(s0)
    1072:	0001                	nop
    1074:	1080                	addi	s0,sp,96
    1076:	0000                	unimp
    1078:	0100                	addi	s0,sp,128
    107a:	8484                	0x8484
    107c:	0006                	0x6
    107e:	1700                	addi	s0,sp,928
    1080:	04f0                	addi	a2,sp,588
    1082:	0000                	unimp
    1084:	049f 0000 e517      	0xe5170000049f
    108a:	0004                	addi	s1,sp,0
    108c:	c800                	sw	s0,16(s0)
    108e:	0004                	addi	s1,sp,0
    1090:	1800                	addi	s0,sp,48
    1092:	0010                	addi	a2,sp,0
    1094:	0000                	unimp
    1096:	fb1d                	bnez	a4,fcc <__seq_start+0xfcc>
    1098:	0004                	addi	s1,sp,0
    109a:	ff00                	fsw	fs0,56(a4)
    109c:	0004                	addi	s1,sp,0
    109e:	1d00                	addi	s0,sp,688
    10a0:	0506                	slli	a0,a0,0x1
    10a2:	0000                	unimp
    10a4:	051d                	addi	a0,a0,7
    10a6:	0000                	unimp
    10a8:	1126                	slli	sp,sp,0x29
    10aa:	0005                	c.addi	zero,1
    10ac:	3000                	fld	fs0,32(s0)
    10ae:	0000                	unimp
    10b0:	1d00                	addi	s0,sp,688
    10b2:	0512                	slli	a0,a0,0x4
    10b4:	0000                	unimp
    10b6:	053d                	addi	a0,a0,15
    10b8:	0000                	unimp
    10ba:	0000                	unimp
    10bc:	1e00                	addi	s0,sp,816
    10be:	000005a3          	sb	zero,11(zero) # b <__seq_start+0xb>
    10c2:	0204                	addi	s1,sp,256
    10c4:	8000                	0x8000
    10c6:	000c                	addi	a1,sp,0
    10c8:	0000                	unimp
    10ca:	8b01                	andi	a4,a4,0
    10cc:	06a2                	slli	a3,a3,0x8
    10ce:	0000                	unimp
    10d0:	be1f 0005 1f00      	0x1f000005be1f
    10d6:	000005b3          	add	a1,zero,zero
    10da:	1200                	addi	s0,sp,288
    10dc:	01dc                	addi	a5,sp,196
    10de:	8000                	0x8000
    10e0:	0786                	slli	a5,a5,0x1
    10e2:	0000                	unimp
    10e4:	06b9                	addi	a3,a3,14
    10e6:	0000                	unimp
    10e8:	055a0113          	addi	sp,s4,85
    10ec:	0017fc03          	p.lb	s8,ra(a5)
    10f0:	0080                	addi	s0,sp,64
    10f2:	00026427          	0x26427
    10f6:	8680                	0x8680
    10f8:	13000007          	0x13000007
    10fc:	5a01                	li	s4,-32
    10fe:	0305                	addi	t1,t1,1
    1100:	17c0                	addi	s0,sp,996
    1102:	8000                	0x8000
    1104:	0000                	unimp
    1106:	f92e                	fsw	fa1,176(sp)
    1108:	0002                	0x2
    110a:	5c00                	lw	s0,56(s0)
    110c:	b4800003          	lb	zero,-1208(zero) # fffffb48 <pulp__FC+0xfffffb49>
    1110:	0000                	unimp
    1112:	0100                	addi	s0,sp,128
    1114:	869c                	0x869c
    1116:	17000007          	0x17000007
    111a:	0305                	addi	t1,t1,1
    111c:	0000                	unimp
    111e:	0000055b          	0x55b
    1122:	00031017          	auipc	zero,0x31
    1126:	a000                	fsd	fs0,0(s0)
    1128:	0005                	c.addi	zero,1
    112a:	1d00                	addi	s0,sp,688
    112c:	0000031b          	0x31b
    1130:	05f1                	addi	a1,a1,28
    1132:	0000                	unimp
    1134:	261d                	jal	145a <__seq_start+0x145a>
    1136:	1f000003          	lb	zero,496(zero) # 1f0 <__seq_start+0x1f0>
    113a:	0006                	0x6
    113c:	1a00                	addi	s0,sp,304
    113e:	0332                	slli	t1,t1,0xc
    1140:	0000                	unimp
    1142:	0380                	addi	s0,sp,448
    1144:	8000                	0x8000
    1146:	00b0                	addi	a2,sp,72
    1148:	0000                	unimp
    114a:	ce01                	beqz	a2,1162 <__seq_start+0x1162>
    114c:	0750                	addi	a2,sp,900
    114e:	0000                	unimp
    1150:	00035417          	auipc	s0,0x35
    1154:	9900                	0x9900
    1156:	0006                	0x6
    1158:	1b00                	addi	s0,sp,432
    115a:	0349                	addi	t1,t1,18
    115c:	0000                	unimp
    115e:	5d01                	li	s10,-32
    1160:	00033e17          	auipc	t3,0x33
    1164:	df00                	sw	s0,56(a4)
    1166:	0006                	0x6
    1168:	1800                	addi	s0,sp,48
    116a:	00b0                	addi	a2,sp,72
    116c:	0000                	unimp
    116e:	5f1c                	lw	a5,56(a4)
    1170:	01000003          	lb	zero,16(zero) # 10 <__seq_start+0x10>
    1174:	1d5d                	addi	s10,s10,-9
    1176:	036a                	slli	t1,t1,0x1a
    1178:	0000                	unimp
    117a:	0000070b          	p.lb	a4,0(zero!) # 0 <__seq_start>
    117e:	751d                	lui	a0,0xfffe7
    1180:	56000003          	lb	zero,1376(zero) # 560 <__seq_start+0x560>
    1184:	00000007          	0x7
    1188:	1e00                	addi	s0,sp,816
    118a:	00000587          	0x587
    118e:	03a0                	addi	s0,sp,456
    1190:	8000                	0x8000
    1192:	0004                	addi	s1,sp,0
    1194:	0000                	unimp
    1196:	c401                	beqz	s0,119e <__seq_start+0x119e>
    1198:	0769                	addi	a4,a4,26
    119a:	0000                	unimp
    119c:	971f 0005 0000      	0x5971f
    11a2:	8014                	0x8014
    11a4:	86800003          	lb	zero,-1944(zero) # fffff868 <pulp__FC+0xfffff869>
    11a8:	13000007          	0x13000007
    11ac:	5a01                	li	s4,-32
    11ae:	0305                	addi	t1,t1,1
    11b0:	1830                	addi	a2,sp,56
    11b2:	8000                	0x8000
    11b4:	055b0113          	addi	sp,s6,85 # fffe8055 <pulp__FC+0xfffe8056>
    11b8:	345b01f3          	0x345b01f3
    11bc:	001c                	addi	a5,sp,0
    11be:	2f00                	fld	fs0,24(a4)
    11c0:	0928                	addi	a0,sp,152
    11c2:	0000                	unimp
    11c4:	0928                	addi	a0,sp,152
    11c6:	0000                	unimp
    11c8:	3b05                	jal	ef8 <__seq_start+0xef8>
    11ca:	f400                	fsw	fs0,40(s0)
    11cc:	0000                	unimp
    11ce:	0200                	addi	s0,sp,256
    11d0:	e900                	fsw	fs0,16(a0)
    11d2:	0004                	addi	s1,sp,0
    11d4:	0400                	addi	s0,sp,512
    11d6:	0201                	addi	tp,tp,0
    11d8:	0008                	addi	a0,sp,0
    11da:	0000                	unimp
    11dc:	0000                	unimp
    11de:	0880                	addi	s0,sp,80
    11e0:	0001                	nop
    11e2:	2f80                	fld	fs0,24(a5)
    11e4:	7375                	lui	t1,0xffffd
    11e6:	2f72                	fld	ft10,280(sp)
    11e8:	61726373          	csrrsi	t1,0x617,4
    11ec:	6374                	flw	fa3,68(a4)
    11ee:	3268                	fld	fa0,224(a2)
    11f0:	72616c2f          	0x72616c2f
    11f4:	6961                	lui	s2,0x18
    11f6:	386e                	fld	fa6,248(sp)
    11f8:	6369792f          	0x6369792f
    11fc:	687a                	flw	fa6,156(sp)
    11fe:	6e61                	lui	t3,0x18
    1200:	65742f67          	0x65742f67
    1204:	6172                	flw	ft2,28(sp)
    1206:	6f70                	flw	fa2,92(a4)
    1208:	645f6c6f          	jal	s8,f804c <__heap_start+0xd574c>
    120c:	6172                	flw	ft2,28(sp)
    120e:	5f6d                	li	t5,-5
    1210:	6d627573          	csrrci	a0,0x6d6,4
    1214:	6c75646f          	jal	s0,580da <__heap_start+0x357da>
    1218:	5f65                	li	t5,-7
    121a:	6572                	flw	fa0,28(sp)
    121c:	6162                	flw	ft2,24(sp)
    121e:	305f6573          	csrrsi	a0,mtvec,30
    1222:	3035                	jal	a4e <__seq_start+0xa4e>
    1224:	5f32                	lw	t5,44(sp)
    1226:	3032                	fld	ft0,296(sp)
    1228:	3432                	fld	fs0,296(sp)
    122a:	6d656d2f          	0x6d656d2f
    122e:	6f70                	flw	fa2,92(a4)
    1230:	732f6c6f          	jal	s8,f7962 <__heap_start+0xd5062>
    1234:	7774666f          	jal	a2,481aa <__heap_start+0x258aa>
    1238:	7261                	lui	tp,0xffff8
    123a:	2f65                	jal	19f2 <__seq_start+0x19f2>
    123c:	7572                	flw	fa0,60(sp)
    123e:	746e                	flw	fs0,248(sp)
    1240:	6d69                	lui	s10,0x1a
    1242:	2f65                	jal	19fa <__seq_start+0x19fa>
    1244:	30747263          	bleu	t2,s0,1548 <__seq_start+0x1548>
    1248:	532e                	lw	t1,232(sp)
    124a:	2f00                	fld	fs0,24(a4)
    124c:	7375                	lui	t1,0xffffd
    124e:	2f72                	fld	ft10,280(sp)
    1250:	61726373          	csrrsi	t1,0x617,4
    1254:	6374                	flw	fa3,68(a4)
    1256:	3268                	fld	fa0,224(a2)
    1258:	72616c2f          	0x72616c2f
    125c:	6961                	lui	s2,0x18
    125e:	386e                	fld	fa6,248(sp)
    1260:	6369792f          	0x6369792f
    1264:	687a                	flw	fa6,156(sp)
    1266:	6e61                	lui	t3,0x18
    1268:	65742f67          	0x65742f67
    126c:	6172                	flw	ft2,28(sp)
    126e:	6f70                	flw	fa2,92(a4)
    1270:	645f6c6f          	jal	s8,f80b4 <__heap_start+0xd57b4>
    1274:	6172                	flw	ft2,28(sp)
    1276:	5f6d                	li	t5,-5
    1278:	6d627573          	csrrci	a0,0x6d6,4
    127c:	6c75646f          	jal	s0,58142 <__heap_start+0x35842>
    1280:	5f65                	li	t5,-7
    1282:	6572                	flw	fa0,28(sp)
    1284:	6162                	flw	ft2,24(sp)
    1286:	305f6573          	csrrsi	a0,mtvec,30
    128a:	3035                	jal	ab6 <__seq_start+0xab6>
    128c:	5f32                	lw	t5,44(sp)
    128e:	3032                	fld	ft0,296(sp)
    1290:	3432                	fld	fs0,296(sp)
    1292:	6d656d2f          	0x6d656d2f
    1296:	6f70                	flw	fa2,92(a4)
    1298:	732f6c6f          	jal	s8,f79ca <__heap_start+0xd50ca>
    129c:	7774666f          	jal	a2,48212 <__heap_start+0x25912>
    12a0:	7261                	lui	tp,0xffff8
    12a2:	2f65                	jal	1a5a <__seq_start+0x1a5a>
    12a4:	7061                	0x7061
    12a6:	7370                	flw	fa2,100(a4)
    12a8:	7261622f          	0x7261622f
    12ac:	6d65                	lui	s10,0x19
    12ae:	7465                	lui	s0,0xffff9
    12b0:	6c61                	lui	s8,0x18
    12b2:	4700                	lw	s0,8(a4)
    12b4:	554e                	lw	a0,240(sp)
    12b6:	4120                	lw	s0,64(a0)
    12b8:	2e322053          	0x2e322053
    12bc:	3832                	fld	fa6,296(sp)
    12be:	302e                	fld	ft0,232(sp)
    12c0:	0100                	addi	s0,sp,128
    12c2:	bd80                	fsd	fs0,56(a1)
    12c4:	000c                	addi	a1,sp,0
    12c6:	0400                	addi	s0,sp,512
    12c8:	fd00                	fsw	fs0,56(a0)
    12ca:	0004                	addi	s1,sp,0
    12cc:	0400                	addi	s0,sp,512
    12ce:	ed01                	bnez	a0,12e6 <__seq_start+0x12e6>
    12d0:	0004                	addi	s1,sp,0
    12d2:	0c00                	addi	s0,sp,528
    12d4:	0930                	addi	a2,sp,152
    12d6:	0000                	unimp
    12d8:	0310                	addi	a2,sp,384
    12da:	0000                	unimp
    12dc:	056c                	addi	a1,sp,652
    12de:	8000                	0x8000
    12e0:	0d78                	addi	a4,sp,668
    12e2:	0000                	unimp
    12e4:	0a02                	slli	s4,s4,0x0
    12e6:	0000                	unimp
    12e8:	0102                	slli	sp,sp,0x0
    12ea:	e806                	fsw	ft1,16(sp)
    12ec:	02000003          	lb	zero,32(zero) # 20 <__seq_start+0x20>
    12f0:	0801                	addi	a6,a6,0
    12f2:	03e6                	slli	t2,t2,0x19
    12f4:	0000                	unimp
    12f6:	0202                	slli	tp,tp,0x0
    12f8:	0205                	addi	tp,tp,1
    12fa:	0004                	addi	s1,sp,0
    12fc:	0200                	addi	s0,sp,256
    12fe:	0702                	slli	a4,a4,0x0
    1300:	0268                	addi	a0,sp,268
    1302:	0000                	unimp
    1304:	0402                	slli	s0,s0,0x0
    1306:	0c05                	addi	s8,s8,1
    1308:	0001                	nop
    130a:	0300                	addi	s0,sp,384
    130c:	0041                	c.addi	zero,16
    130e:	0000                	unimp
    1310:	0402                	slli	s0,s0,0x0
    1312:	0000a707          	0xa707
    1316:	0200                	addi	s0,sp,256
    1318:	0508                	addi	a0,sp,640
    131a:	00000107          	0x107
    131e:	0802                	slli	a6,a6,0x0
    1320:	0000a207          	0xa207
    1324:	0400                	addi	s0,sp,512
    1326:	0504                	addi	s1,sp,640
    1328:	6e69                	lui	t3,0x1a
    132a:	0074                	addi	a3,sp,12
    132c:	00006203          	0x6203
    1330:	0500                	addi	s0,sp,640
    1332:	09dd                	addi	s3,s3,23
    1334:	0000                	unimp
    1336:	e802                	fsw	ft0,16(sp)
    1338:	0079                	c.addi	zero,30
    133a:	0000                	unimp
    133c:	0402                	slli	s0,s0,0x0
    133e:	0000ac07          	0xac07
    1342:	0300                	addi	s0,sp,384
    1344:	0079                	c.addi	zero,30
    1346:	0000                	unimp
    1348:	df05                	beqz	a4,1280 <__seq_start+0x1280>
    134a:	0009                	c.addi	zero,2
    134c:	0300                	addi	s0,sp,384
    134e:	6e52                	flw	ft8,20(sp)
    1350:	0000                	unimp
    1352:	0500                	addi	s0,sp,640
    1354:	00000a13          	li	s4,0
    1358:	2804                	fld	fs1,16(s0)
    135a:	0000009b          	0x9b
    135e:	0406                	slli	s0,s0,0x1
    1360:	000009cb          	0x9cb
    1364:	1a05                	addi	s4,s4,-31
    1366:	000a                	0xa
    1368:	0400                	addi	s0,sp,512
    136a:	00009063          	bnez	ra,136a <__seq_start+0x136a>
    136e:	0500                	addi	s0,sp,640
    1370:	0726                	slli	a4,a4,0x9
    1372:	0000                	unimp
    1374:	d805                	beqz	s0,12a4 <__seq_start+0x12a4>
    1376:	0079                	c.addi	zero,30
    1378:	0000                	unimp
    137a:	0000ac03          	lw	s8,0(ra) # ffe <__seq_start+0xffe>
    137e:	0500                	addi	s0,sp,640
    1380:	090d                	addi	s2,s2,3
    1382:	0000                	unimp
    1384:	5e01                	li	t3,-32
    1386:	000000c7          	0xc7
    138a:	00cd0407          	0xcd0407
    138e:	0000                	unimp
    1390:	e708                	fsw	fa0,8(a4)
    1392:	0000                	unimp
    1394:	0900                	addi	s0,sp,144
    1396:	000000e7          	jalr	zero
    139a:	f309                	bnez	a4,129c <__seq_start+0x129c>
    139c:	0000                	unimp
    139e:	0900                	addi	s0,sp,144
    13a0:	00ac                	addi	a1,sp,72
    13a2:	0000                	unimp
    13a4:	ac09                	j	15b6 <__seq_start+0x15b6>
    13a6:	0000                	unimp
    13a8:	0000                	unimp
    13aa:	0102                	slli	sp,sp,0x0
    13ac:	ef08                	fsw	fa0,24(a4)
    13ae:	03000003          	lb	zero,48(zero) # 30 <__seq_start+0x30>
    13b2:	000000e7          	jalr	zero
    13b6:	040a                	slli	s0,s0,0x2
    13b8:	6201080b          	p.lb	a6,1568(sp!)
    13bc:	0116                	slli	sp,sp,0x5
    13be:	0000                	unimp
    13c0:	660c                	flw	fa1,8(a2)
    13c2:	01007463          	bleu	a6,zero,13ca <__seq_start+0x13ca>
    13c6:	00012663          	p.beqimm	sp,0,13d2 <__seq_start+0x13d2>
    13ca:	0000                	unimp
    13cc:	610c                	flw	fa1,0(a0)
    13ce:	6772                	flw	fa4,28(sp)
    13d0:	0100                	addi	s0,sp,128
    13d2:	f364                	fsw	fs1,100(a4)
    13d4:	0000                	unimp
    13d6:	0400                	addi	s0,sp,512
    13d8:	0800                	addi	s0,sp,16
    13da:	0126                	slli	sp,sp,0x9
    13dc:	0000                	unimp
    13de:	e709                	bnez	a4,13e8 <__seq_start+0x13e8>
    13e0:	0000                	unimp
    13e2:	0900                	addi	s0,sp,144
    13e4:	000000f3          	0xf3
    13e8:	0700                	addi	s0,sp,896
    13ea:	1604                	addi	s1,sp,800
    13ec:	0001                	nop
    13ee:	0500                	addi	s0,sp,640
    13f0:	09fc                	addi	a5,sp,220
    13f2:	0000                	unimp
    13f4:	6501                	lui	a0,0x0
    13f6:	00f5                	addi	ra,ra,29
    13f8:	0000                	unimp
    13fa:	00012c03          	lw	s8,0(sp)
    13fe:	0d00                	addi	s0,sp,656
    1400:	08d8                	addi	a4,sp,84
    1402:	0000                	unimp
    1404:	0f01                	addi	t5,t5,0
    1406:	00006203          	0x6203
    140a:	9000                	0x9000
    140c:	0012                	0x12
    140e:	5480                	lw	s0,40(s1)
    1410:	0000                	unimp
    1412:	0100                	addi	s0,sp,128
    1414:	df9c                	sw	a5,56(a5)
    1416:	0001                	nop
    1418:	0e00                	addi	s0,sp,784
    141a:	0074756f          	jal	a0,48c20 <__heap_start+0x26320>
    141e:	0f01                	addi	t5,t5,0
    1420:	00012603          	lw	a2,0(sp)
    1424:	8100                	0x8100
    1426:	0e000007          	0xe000007
    142a:	7261                	lui	tp,0xffff8
    142c:	0f010067          	jr	240(sp)
    1430:	0000f303          	p.lb	t1,zero(ra)
    1434:	ae00                	fsd	fs0,24(a2)
    1436:	0f000007          	0xf000007
    143a:	08f1                	addi	a7,a7,28
    143c:	0000                	unimp
    143e:	1001                	c.addi	zero,-32
    1440:	0001df03          	lhu	t5,0(gp) # 0 <__seq_start>
    1444:	db00                	sw	s0,48(a4)
    1446:	10000007          	0x10000007
    144a:	7611                	lui	a2,0xfffe4
    144c:	0061                	c.addi	zero,24
    144e:	1101                	addi	sp,sp,-32
    1450:	0000a103          	lw	sp,0(ra)
    1454:	0200                	addi	s0,sp,256
    1456:	4491                	li	s1,4
    1458:	9412                	add	s0,s0,tp
    145a:	0008                	addi	a0,sp,0
    145c:	0100                	addi	s0,sp,128
    145e:	01370313          	addi	t1,a4,19 # fffe0013 <pulp__FC+0xfffe0014>
    1462:	0000                	unimp
    1464:	9102                	jalr	sp
    1466:	1148                	addi	a0,sp,164
    1468:	6572                	flw	fa0,28(sp)
    146a:	0074                	addi	a3,sp,12
    146c:	1401                	addi	s0,s0,-32
    146e:	00006903          	0x6903
    1472:	0100                	addi	s0,sp,128
    1474:	135a                	slli	t1,t1,0x36
    1476:	12d8                	addi	a4,sp,356
    1478:	8000                	0x8000
    147a:	0422                	slli	s0,s0,0x8
    147c:	0000                	unimp
    147e:	0114                	addi	a3,sp,128
    1480:	055a                	slli	a0,a0,0x16
    1482:	00057c03          	p.lb	s8,zero(a0)
    1486:	1480                	addi	s0,sp,608
    1488:	5b01                	li	s6,-32
    148a:	9102                	jalr	sp
    148c:	1448                	addi	a0,sp,548
    148e:	5c01                	li	s8,-32
    1490:	0902                	slli	s2,s2,0x0
    1492:	14ff                	0x14ff
    1494:	5d01                	li	s10,-32
    1496:	5c01f303          	0x5c01f303
    149a:	0114                	addi	a3,sp,128
    149c:	025e                	slli	tp,tp,0x17
    149e:	6c91                	lui	s9,0x4
    14a0:	0000                	unimp
    14a2:	00ee0407          	0xee0407
    14a6:	0000                	unimp
    14a8:	250d                	jal	1aca <__seq_start+0x1aca>
    14aa:	0009                	c.addi	zero,2
    14ac:	0100                	addi	s0,sp,128
    14ae:	0062030b          	p.lb	t1,6(tp!) # ffff8006 <pulp__FC+0xffff8007>
    14b2:	0000                	unimp
    14b4:	1274                	addi	a3,sp,300
    14b6:	8000                	0x8000
    14b8:	001c                	addi	a5,sp,0
    14ba:	0000                	unimp
    14bc:	9c01                	0x9c01
    14be:	026e                	slli	tp,tp,0x1b
    14c0:	0000                	unimp
    14c2:	0008a60f          	0x8a60f
    14c6:	0100                	addi	s0,sp,128
    14c8:	026e030b          	p.lb	t1,38(t3!) # 1a026 <__seq_start+0x1a026>
    14cc:	0000                	unimp
    14ce:	00000807          	0x807
    14d2:	0004aa0f          	0x4aa0f
    14d6:	0100                	addi	s0,sp,128
    14d8:	00ac030b          	p.lb	t1,10(s8!) # 1800a <__seq_start+0x1800a>
    14dc:	0000                	unimp
    14de:	00000833          	add	a6,zero,zero
    14e2:	0008f10f          	0x8f10f
    14e6:	0100                	addi	s0,sp,128
    14e8:	01df030b          	p.lb	t1,29(t5!) # fffe701d <pulp__FC+0xfffe701e>
    14ec:	0000                	unimp
    14ee:	085f 0000 760e      	0x760e0000085f
    14f4:	0061                	c.addi	zero,24
    14f6:	0b01                	addi	s6,s6,0
    14f8:	0000a103          	lw	sp,0(ra)
    14fc:	8b00                	0x8b00
    14fe:	0008                	addi	a0,sp,0
    1500:	1500                	addi	s0,sp,672
    1502:	1290                	addi	a2,sp,352
    1504:	8000                	0x8000
    1506:	0422                	slli	s0,s0,0x8
    1508:	0000                	unimp
    150a:	0114                	addi	a3,sp,128
    150c:	055a                	slli	a0,a0,0x16
    150e:	00056c03          	0x56c03
    1512:	1480                	addi	s0,sp,608
    1514:	5b01                	li	s6,-32
    1516:	5a01f303          	0x5a01f303
    151a:	0114                	addi	a3,sp,128
    151c:	035c                	addi	a5,sp,388
    151e:	145b01f3          	0x145b01f3
    1522:	5d01                	li	s10,-32
    1524:	5c01f303          	0x5c01f303
    1528:	0114                	addi	a3,sp,128
    152a:	035e                	slli	t1,t1,0x17
    152c:	005d01f3          	0x5d01f3
    1530:	0700                	addi	s0,sp,896
    1532:	e704                	fsw	fs1,8(a4)
    1534:	0000                	unimp
    1536:	0d00                	addi	s0,sp,656
    1538:	0926                	slli	s2,s2,0x9
    153a:	0000                	unimp
    153c:	0301                	addi	t1,t1,0
    153e:	00006203          	0x6203
    1542:	2800                	fld	fs0,16(s0)
    1544:	0012                	0x12
    1546:	4c80                	lw	s0,24(s1)
    1548:	0000                	unimp
    154a:	0100                	addi	s0,sp,128
    154c:	0a9c                	addi	a5,sp,336
    154e:	0f000003          	lb	zero,240(zero) # f0 <__seq_start+0xf0>
    1552:	08a6                	slli	a7,a7,0x9
    1554:	0000                	unimp
    1556:	0301                	addi	t1,t1,0
    1558:	00026e03          	0x26e03
    155c:	b700                	fsd	fs0,40(a4)
    155e:	0008                	addi	a0,sp,0
    1560:	0f00                	addi	s0,sp,912
    1562:	04aa                	slli	s1,s1,0xa
    1564:	0000                	unimp
    1566:	0301                	addi	t1,t1,0
    1568:	0000ac03          	lw	s8,0(ra)
    156c:	e300                	fsw	fs0,0(a4)
    156e:	0008                	addi	a0,sp,0
    1570:	0f00                	addi	s0,sp,912
    1572:	08f1                	addi	a7,a7,28
    1574:	0000                	unimp
    1576:	0301                	addi	t1,t1,0
    1578:	0001df03          	lhu	t5,0(gp) # 80002800 <__global_pointer$>
    157c:	0f00                	addi	s0,sp,912
    157e:	0009                	c.addi	zero,2
    1580:	1000                	addi	s0,sp,32
    1582:	7611                	lui	a2,0xfffe4
    1584:	0061                	c.addi	zero,24
    1586:	0401                	addi	s0,s0,0
    1588:	0000a103          	lw	sp,0(ra)
    158c:	0200                	addi	s0,sp,256
    158e:	4c91                	li	s9,4
    1590:	7211                	lui	tp,0xfffe4
    1592:	7465                	lui	s0,0xffff9
    1594:	0100                	addi	s0,sp,128
    1596:	0306                	slli	t1,t1,0x1
    1598:	0069                	c.addi	zero,26
    159a:	0000                	unimp
    159c:	5a01                	li	s4,-32
    159e:	00126813          	ori	a6,tp,1
    15a2:	2280                	fld	fs0,0(a3)
    15a4:	0004                	addi	s1,sp,0
    15a6:	1400                	addi	s0,sp,544
    15a8:	5a01                	li	s4,-32
    15aa:	0305                	addi	t1,t1,1
    15ac:	056c                	addi	a1,sp,652
    15ae:	8000                	0x8000
    15b0:	0114                	addi	a3,sp,128
    15b2:	01f3035b          	0x1f3035b
    15b6:	145a                	slli	s0,s0,0x36
    15b8:	5c01                	li	s8,-32
    15ba:	5b01f303          	0x5b01f303
    15be:	0114                	addi	a3,sp,128
    15c0:	035d                	addi	t1,t1,23
    15c2:	145c01f3          	0x145c01f3
    15c6:	5e01                	li	t3,-32
    15c8:	9102                	jalr	sp
    15ca:	006c                	addi	a1,sp,12
    15cc:	0d00                	addi	s0,sp,656
    15ce:	09b8                	addi	a4,sp,216
    15d0:	0000                	unimp
    15d2:	fb01                	bnez	a4,14e2 <__seq_start+0x14e2>
    15d4:	6202                	flw	ft4,0(sp)
    15d6:	0000                	unimp
    15d8:	d800                	sw	s0,48(s0)
    15da:	0011                	c.addi	zero,4
    15dc:	5080                	lw	s0,32(s1)
    15de:	0000                	unimp
    15e0:	0100                	addi	s0,sp,128
    15e2:	8f9c                	0x8f9c
    15e4:	0f000003          	lb	zero,240(zero) # f0 <__seq_start+0xf0>
    15e8:	08a6                	slli	a7,a7,0x9
    15ea:	0000                	unimp
    15ec:	fb01                	bnez	a4,14fc <__seq_start+0x14fc>
    15ee:	6e02                	flw	ft8,0(sp)
    15f0:	0002                	0x2
    15f2:	3b00                	fld	fs0,48(a4)
    15f4:	0009                	c.addi	zero,2
    15f6:	0f00                	addi	s0,sp,912
    15f8:	08f1                	addi	a7,a7,28
    15fa:	0000                	unimp
    15fc:	fb01                	bnez	a4,150c <__seq_start+0x150c>
    15fe:	df02                	sw	zero,188(sp)
    1600:	0001                	nop
    1602:	6700                	flw	fs0,8(a4)
    1604:	0009                	c.addi	zero,2
    1606:	1000                	addi	s0,sp,32
    1608:	7611                	lui	a2,0xfffe4
    160a:	0061                	c.addi	zero,24
    160c:	fc01                	bnez	s0,1524 <__seq_start+0x1524>
    160e:	a102                	fsd	ft0,128(sp)
    1610:	0000                	unimp
    1612:	0200                	addi	s0,sp,256
    1614:	4c91                	li	s9,4
    1616:	7211                	lui	tp,0xfffe4
    1618:	7465                	lui	s0,0xffff9
    161a:	0100                	addi	s0,sp,128
    161c:	02fe                	slli	t0,t0,0x1f
    161e:	0069                	c.addi	zero,26
    1620:	0000                	unimp
    1622:	5a01                	li	s4,-32
    1624:	00121c13          	slli	s8,tp,0x1
    1628:	2280                	fld	fs0,0(a3)
    162a:	0004                	addi	s1,sp,0
    162c:	1400                	addi	s0,sp,544
    162e:	5a01                	li	s4,-32
    1630:	0305                	addi	t1,t1,1
    1632:	056c                	addi	a1,sp,652
    1634:	8000                	0x8000
    1636:	0114                	addi	a3,sp,128
    1638:	01f3035b          	0x1f3035b
    163c:	145a                	slli	s0,s0,0x36
    163e:	5c01                	li	s8,-32
    1640:	0902                	slli	s2,s2,0x0
    1642:	14ff                	0x14ff
    1644:	5d01                	li	s10,-32
    1646:	5b01f303          	0x5b01f303
    164a:	0114                	addi	a3,sp,128
    164c:	025e                	slli	tp,tp,0x17
    164e:	6891                	lui	a7,0x4
    1650:	0000                	unimp
    1652:	280d                	jal	1684 <__seq_start+0x1684>
    1654:	0009                	c.addi	zero,2
    1656:	0100                	addi	s0,sp,128
    1658:	02f2                	slli	t0,t0,0x1c
    165a:	0062                	0x62
    165c:	0000                	unimp
    165e:	1184                	addi	s1,sp,224
    1660:	8000                	0x8000
    1662:	0054                	addi	a3,sp,4
    1664:	0000                	unimp
    1666:	9c01                	0x9c01
    1668:	0412                	slli	s0,s0,0x4
    166a:	0000                	unimp
    166c:	0008f10f          	0x8f10f
    1670:	0100                	addi	s0,sp,128
    1672:	02f2                	slli	t0,t0,0x1c
    1674:	01df 0000 0993      	0x993000001df
    167a:	0000                	unimp
    167c:	1110                	addi	a2,sp,160
    167e:	6176                	flw	ft2,92(sp)
    1680:	0100                	addi	s0,sp,128
    1682:	00a102f3          	0xa102f3
    1686:	0000                	unimp
    1688:	9102                	jalr	sp
    168a:	124c                	addi	a1,sp,292
    168c:	08a6                	slli	a7,a7,0x9
    168e:	0000                	unimp
    1690:	f501                	bnez	a0,1598 <__seq_start+0x1598>
    1692:	1202                	slli	tp,tp,0x20
    1694:	0004                	addi	s1,sp,0
    1696:	0200                	addi	s0,sp,256
    1698:	4891                	li	a7,4
    169a:	7211                	lui	tp,0xfffe4
    169c:	7465                	lui	s0,0xffff9
    169e:	0100                	addi	s0,sp,128
    16a0:	02f6                	slli	t0,t0,0x1d
    16a2:	0069                	c.addi	zero,26
    16a4:	0000                	unimp
    16a6:	5a01                	li	s4,-32
    16a8:	0011cc13          	xori	s8,gp,1
    16ac:	2280                	fld	fs0,0(a3)
    16ae:	0004                	addi	s1,sp,0
    16b0:	1400                	addi	s0,sp,544
    16b2:	5a01                	li	s4,-32
    16b4:	0305                	addi	t1,t1,1
    16b6:	1178                	addi	a4,sp,172
    16b8:	8000                	0x8000
    16ba:	0114                	addi	a3,sp,128
    16bc:	4891025b          	0x4891025b
    16c0:	0114                	addi	a3,sp,128
    16c2:	025c                	addi	a5,sp,260
    16c4:	ff09                	bnez	a4,15de <__seq_start+0x15de>
    16c6:	0114                	addi	a3,sp,128
    16c8:	035d                	addi	t1,t1,23
    16ca:	145a01f3          	0x145a01f3
    16ce:	5e01                	li	t3,-32
    16d0:	9102                	jalr	sp
    16d2:	0064                	addi	s1,sp,12
    16d4:	1600                	addi	s0,sp,800
    16d6:	000000e7          	jalr	zero
    16da:	0422                	slli	s0,s0,0x8
    16dc:	0000                	unimp
    16de:	00007917          	auipc	s2,0x7
    16e2:	0000                	unimp
    16e4:	1800                	addi	s0,sp,48
    16e6:	08f8                	addi	a4,sp,92
    16e8:	0000                	unimp
    16ea:	c201                	beqz	a2,16ea <__seq_start+0x16ea>
    16ec:	6201                	lui	tp,0x0
    16ee:	0000                	unimp
    16f0:	f000                	fsw	fs0,32(s0)
    16f2:	0009                	c.addi	zero,2
    16f4:	8880                	0x8880
    16f6:	01000007          	0x1000007
    16fa:	479c                	lw	a5,8(a5)
    16fc:	0008                	addi	a0,sp,0
    16fe:	0e00                	addi	s0,sp,784
    1700:	0074756f          	jal	a0,48f06 <__heap_start+0x26606>
    1704:	c201                	beqz	a2,1704 <__seq_start+0x1704>
    1706:	bc01                	j	1116 <__seq_start+0x1116>
    1708:	0000                	unimp
    170a:	bf00                	fsd	fs0,56(a4)
    170c:	0009                	c.addi	zero,2
    170e:	0f00                	addi	s0,sp,912
    1710:	08a6                	slli	a7,a7,0x9
    1712:	0000                	unimp
    1714:	c201                	beqz	a2,1714 <__seq_start+0x1714>
    1716:	6e01                	lui	t3,0x0
    1718:	0002                	0x2
    171a:	dd00                	sw	s0,56(a0)
    171c:	0009                	c.addi	zero,2
    171e:	0f00                	addi	s0,sp,912
    1720:	099a                	slli	s3,s3,0x6
    1722:	0000                	unimp
    1724:	c201                	beqz	a2,1724 <__seq_start+0x1724>
    1726:	b701                	j	1626 <__seq_start+0x1626>
    1728:	0000                	unimp
    172a:	1400                	addi	s0,sp,544
    172c:	000a                	0xa
    172e:	0f00                	addi	s0,sp,912
    1730:	08f1                	addi	a7,a7,28
    1732:	0000                	unimp
    1734:	c301                	beqz	a4,1734 <__seq_start+0x1734>
    1736:	df01                	beqz	a4,164e <__seq_start+0x164e>
    1738:	0001                	nop
    173a:	4b00                	lw	s0,16(a4)
    173c:	000a                	0xa
    173e:	0e00                	addi	s0,sp,784
    1740:	6176                	flw	ft2,92(sp)
    1742:	0100                	addi	s0,sp,128
    1744:	00a101c3          	0xa101c3
    1748:	0000                	unimp
    174a:	0c74                	addi	a3,sp,540
    174c:	0000                	unimp
    174e:	4919                	li	s2,6
    1750:	0001                	nop
    1752:	0100                	addi	s0,sp,128
    1754:	01c4                	addi	s1,sp,196
    1756:	0079                	c.addi	zero,30
    1758:	0000                	unimp
    175a:	0e3c                	addi	a5,sp,792
    175c:	0000                	unimp
    175e:	d219                	beqz	a2,1664 <__seq_start+0x1664>
    1760:	0008                	addi	a0,sp,0
    1762:	0100                	addi	s0,sp,128
    1764:	01c4                	addi	s1,sp,196
    1766:	0079                	c.addi	zero,30
    1768:	0000                	unimp
    176a:	0fdc                	addi	a5,sp,980
    176c:	0000                	unimp
    176e:	2219                	jal	1874 <__seq_start+0x1874>
    1770:	000a                	0xa
    1772:	0100                	addi	s0,sp,128
    1774:	01c4                	addi	s1,sp,196
    1776:	0079                	c.addi	zero,30
    1778:	0000                	unimp
    177a:	1041                	c.addi	zero,-16
    177c:	0000                	unimp
    177e:	6e1a                	flw	ft8,132(sp)
    1780:	0100                	addi	s0,sp,128
    1782:	01c4                	addi	s1,sp,196
    1784:	0079                	c.addi	zero,30
    1786:	0000                	unimp
    1788:	1084                	addi	s1,sp,96
    178a:	0000                	unimp
    178c:	691a                	flw	fs2,132(sp)
    178e:	7864                	flw	fs1,116(s0)
    1790:	0100                	addi	s0,sp,128
    1792:	01c5                	addi	gp,gp,17
    1794:	00ac                	addi	a1,sp,72
    1796:	0000                	unimp
    1798:	10e0                	addi	s0,sp,108
    179a:	0000                	unimp
    179c:	0002681b          	0x2681b
    17a0:	ef00                	fsw	fs0,24(a4)
    17a2:	0004                	addi	s1,sp,0
    17a4:	1100                	addi	s0,sp,160
    17a6:	00010077          	0x10077
    17aa:	6902                	flw	fs2,0(sp)
    17ac:	0000                	unimp
    17ae:	0100                	addi	s0,sp,128
    17b0:	7c1c0063          	beq	s8,ra,1f70 <__seq_start+0x1f70>
    17b4:	2080000f          	0x2080000f
    17b8:	0000                	unimp
    17ba:	0900                	addi	s0,sp,144
    17bc:	0005                	c.addi	zero,1
    17be:	1d00                	addi	s0,sp,688
    17c0:	0a0e                	slli	s4,s4,0x3
    17c2:	0000                	unimp
    17c4:	1201                	addi	tp,tp,-32
    17c6:	6902                	flw	fs2,0(sp)
    17c8:	0000                	unimp
    17ca:	0000                	unimp
    17cc:	0001f81b          	0x1f81b
    17d0:	ba00                	fsd	fs0,48(a2)
    17d2:	0005                	c.addi	zero,1
    17d4:	1900                	addi	s0,sp,176
    17d6:	00000077          	0x77
    17da:	4801                	li	a6,0
    17dc:	7902                	flw	fs2,32(sp)
    17de:	0000                	unimp
    17e0:	ba00                	fsd	fs0,48(a2)
    17e2:	0011                	c.addi	zero,4
    17e4:	1c00                	addi	s0,sp,560
    17e6:	10ec                	addi	a1,sp,108
    17e8:	8000                	0x8000
    17ea:	0030                	addi	a2,sp,8
    17ec:	0000                	unimp
    17ee:	00000567          	jalr	a0,zero
    17f2:	ee12                	fsw	ft4,28(sp)
    17f4:	0005                	c.addi	zero,1
    17f6:	0100                	addi	s0,sp,128
    17f8:	026e                	slli	tp,tp,0x1b
    17fa:	0048                	addi	a0,sp,4
    17fc:	0000                	unimp
    17fe:	5e01                	li	t3,-32
    1800:	00111813          	slli	a6,sp,0x1
    1804:	4780                	lw	s0,8(a5)
    1806:	0008                	addi	a0,sp,0
    1808:	1400                	addi	s0,sp,544
    180a:	5a01                	li	s4,-32
    180c:	8202                	jr	tp
    180e:	1400                	addi	s0,sp,544
    1810:	5b01                	li	s6,-32
    1812:	7902                	flw	fs2,32(sp)
    1814:	1400                	addi	s0,sp,544
    1816:	5c01                	li	s8,-32
    1818:	8902                	jr	s2
    181a:	1400                	addi	s0,sp,544
    181c:	5d01                	li	s10,-32
    181e:	7802                	flw	fa6,32(sp)
    1820:	1400                	addi	s0,sp,544
    1822:	7202                	flw	ft4,32(sp)
    1824:	0200                	addi	s0,sp,256
    1826:	00000087          	0x87
    182a:	0002301b          	0x2301b
    182e:	8100                	0x8100
    1830:	0005                	c.addi	zero,1
    1832:	1900                	addi	s0,sp,176
    1834:	05ee                	slli	a1,a1,0x1b
    1836:	0000                	unimp
    1838:	7301                	lui	t1,0xfffe0
    183a:	6902                	flw	fs2,0(sp)
    183c:	0000                	unimp
    183e:	0a00                	addi	s0,sp,272
    1840:	0012                	0x12
    1842:	0000                	unimp
    1844:	0002501b          	0x2501b
    1848:	9700                	0x9700
    184a:	0005                	c.addi	zero,1
    184c:	1d00                	addi	s0,sp,688
    184e:	05ee                	slli	a1,a1,0x1b
    1850:	0000                	unimp
    1852:	8601                	srai	a2,a2,0x0
    1854:	8002                	0x8002
    1856:	0000                	unimp
    1858:	0000                	unimp
    185a:	000f6413          	ori	s0,t5,0
    185e:	4780                	lw	s0,8(a5)
    1860:	0008                	addi	a0,sp,0
    1862:	1400                	addi	s0,sp,544
    1864:	5a01                	li	s4,-32
    1866:	8202                	jr	tp
    1868:	1400                	addi	s0,sp,544
    186a:	5b01                	li	s6,-32
    186c:	7902                	flw	fs2,32(sp)
    186e:	1400                	addi	s0,sp,544
    1870:	5c01                	li	s8,-32
    1872:	8902                	jr	s2
    1874:	1400                	addi	s0,sp,544
    1876:	5d01                	li	s10,-32
    1878:	7802                	flw	fa6,32(sp)
    187a:	0000                	unimp
    187c:	1b00                	addi	s0,sp,432
    187e:	0178                	addi	a4,sp,140
    1880:	0000                	unimp
    1882:	064a                	slli	a2,a2,0x12
    1884:	0000                	unimp
    1886:	6c1a                	flw	fs8,132(sp)
    1888:	0100                	addi	s0,sp,128
    188a:	0079029b          	0x79029b
    188e:	0000                	unimp
    1890:	121d                	addi	tp,tp,-25
    1892:	0000                	unimp
    1894:	f81e                	fsw	ft7,48(sp)
    1896:	000c                	addi	a1,sp,0
    1898:	ed80                	fsw	fs0,24(a1)
    189a:	0005                	c.addi	zero,1
    189c:	1400                	addi	s0,sp,544
    189e:	5b01                	li	s6,-32
    18a0:	7902                	flw	fs2,32(sp)
    18a2:	1400                	addi	s0,sp,544
    18a4:	5c01                	li	s8,-32
    18a6:	8902                	jr	s2
    18a8:	1400                	addi	s0,sp,544
    18aa:	5d01                	li	s10,-32
    18ac:	7802                	flw	fa6,32(sp)
    18ae:	0000                	unimp
    18b0:	201e                	fld	ft0,448(sp)
    18b2:	000d                	c.addi	zero,3
    18b4:	0f80                	addi	s0,sp,976
    18b6:	0006                	0x6
    18b8:	1400                	addi	s0,sp,544
    18ba:	5a01                	li	s4,-32
    18bc:	0802                	slli	a6,a6,0x0
    18be:	1420                	addi	s0,sp,552
    18c0:	5b01                	li	s6,-32
    18c2:	7902                	flw	fs2,32(sp)
    18c4:	1400                	addi	s0,sp,544
    18c6:	5c01                	li	s8,-32
    18c8:	8a02                	jr	s4
    18ca:	147f                	0x147f
    18cc:	5d01                	li	s10,-32
    18ce:	7802                	flw	fa6,32(sp)
    18d0:	0000                	unimp
    18d2:	3c1e                	fld	fs8,480(sp)
    18d4:	0010                	addi	a2,sp,0
    18d6:	3180                	fld	fs0,32(a1)
    18d8:	0006                	0x6
    18da:	1400                	addi	s0,sp,544
    18dc:	5a01                	li	s4,-32
    18de:	0802                	slli	a6,a6,0x0
    18e0:	1420                	addi	s0,sp,552
    18e2:	5b01                	li	s6,-32
    18e4:	7902                	flw	fs2,32(sp)
    18e6:	1400                	addi	s0,sp,544
    18e8:	5c01                	li	s8,-32
    18ea:	8902                	jr	s2
    18ec:	1400                	addi	s0,sp,544
    18ee:	5d01                	li	s10,-32
    18f0:	7802                	flw	fa6,32(sp)
    18f2:	0000                	unimp
    18f4:	581f 0010 1480      	0x14800010581f
    18fa:	5b01                	li	s6,-32
    18fc:	7902                	flw	fs2,32(sp)
    18fe:	1400                	addi	s0,sp,544
    1900:	5c01                	li	s8,-32
    1902:	8702                	jr	a4
    1904:	1400                	addi	s0,sp,544
    1906:	5d01                	li	s10,-32
    1908:	7802                	flw	fa6,32(sp)
    190a:	0000                	unimp
    190c:	1b00                	addi	s0,sp,432
    190e:	01a0                	addi	s0,sp,200
    1910:	0000                	unimp
    1912:	0702                	slli	a4,a4,0x0
    1914:	0000                	unimp
    1916:	701a                	flw	ft0,164(sp)
    1918:	0100                	addi	s0,sp,128
    191a:	01df02af          	0x1df02af
    191e:	0000                	unimp
    1920:	00001273          	csrrw	tp,0x0,zero
    1924:	6c1a                	flw	fs8,132(sp)
    1926:	0100                	addi	s0,sp,128
    1928:	02b0                	addi	a2,sp,328
    192a:	0079                	c.addi	zero,30
    192c:	0000                	unimp
    192e:	0000129b          	0x129b
    1932:	4420                	lw	s0,72(s0)
    1934:	0c00000b          	p.lb	zero,192(zero!) # c0 <__seq_start+0xc0>
    1938:	000c                	addi	a1,sp,0
    193a:	d880                	sw	s0,48(s1)
    193c:	0001                	nop
    193e:	0100                	addi	s0,sp,128
    1940:	02b0                	addi	a2,sp,328
    1942:	06a1                	addi	a3,a3,8
    1944:	0000                	unimp
    1946:	5f21                	li	t5,-24
    1948:	dc00000b          	p.lb	zero,-576(zero!) # fffffdc0 <pulp__FC+0xfffffdc1>
    194c:	0012                	0x12
    194e:	2200                	fld	fs0,0(a2)
    1950:	0b54                	addi	a3,sp,404
    1952:	0000                	unimp
    1954:	0001d823          	p.sh	zero,a6(gp)
    1958:	2400                	fld	fs0,8(s0)
    195a:	0b6a                	slli	s6,s6,0x1a
    195c:	0000                	unimp
    195e:	12fc                	addi	a5,sp,364
    1960:	0000                	unimp
    1962:	0000                	unimp
    1964:	741e                	flw	fs0,228(sp)
    1966:	000c                	addi	a1,sp,0
    1968:	b780                	fsd	fs0,40(a5)
    196a:	0006                	0x6
    196c:	1400                	addi	s0,sp,544
    196e:	5b01                	li	s6,-32
    1970:	7902                	flw	fs2,32(sp)
    1972:	1400                	addi	s0,sp,544
    1974:	5d01                	li	s10,-32
    1976:	7802                	flw	fa6,32(sp)
    1978:	0000                	unimp
    197a:	ec1e                	fsw	ft7,24(sp)
    197c:	000e                	0xe
    197e:	d380                	sw	s0,32(a5)
    1980:	0006                	0x6
    1982:	1400                	addi	s0,sp,544
    1984:	5a01                	li	s4,-32
    1986:	0802                	slli	a6,a6,0x0
    1988:	1420                	addi	s0,sp,552
    198a:	5b01                	li	s6,-32
    198c:	7902                	flw	fs2,32(sp)
    198e:	1400                	addi	s0,sp,544
    1990:	5d01                	li	s10,-32
    1992:	7802                	flw	fa6,32(sp)
    1994:	0000                	unimp
    1996:	e41e                	fsw	ft7,8(sp)
    1998:	ef80000f          	0xef80000f
    199c:	0006                	0x6
    199e:	1400                	addi	s0,sp,544
    19a0:	5a01                	li	s4,-32
    19a2:	0802                	slli	a6,a6,0x0
    19a4:	1420                	addi	s0,sp,552
    19a6:	5b01                	li	s6,-32
    19a8:	7902                	flw	fs2,32(sp)
    19aa:	1400                	addi	s0,sp,544
    19ac:	5d01                	li	s10,-32
    19ae:	7802                	flw	fa6,32(sp)
    19b0:	0000                	unimp
    19b2:	b41f 0010 1480      	0x14800010b41f
    19b8:	5b01                	li	s6,-32
    19ba:	7902                	flw	fs2,32(sp)
    19bc:	1400                	addi	s0,sp,544
    19be:	5d01                	li	s10,-32
    19c0:	7802                	flw	fa6,32(sp)
    19c2:	0000                	unimp
    19c4:	2500                	fld	fs0,8(a0)
    19c6:	0b29                	addi	s6,s6,10
    19c8:	0000                	unimp
    19ca:	0b2c                	addi	a1,sp,408
    19cc:	8000                	0x8000
    19ce:	0004                	addi	s1,sp,0
    19d0:	0000                	unimp
    19d2:	fd01                	bnez	a0,18ea <__seq_start+0x18ea>
    19d4:	1c01                	addi	s8,s8,-32
    19d6:	22000007          	0x22000007
    19da:	0b39                	addi	s6,s6,14
    19dc:	0000                	unimp
    19de:	2500                	fld	fs0,8(a0)
    19e0:	0afe                	slli	s5,s5,0x1f
    19e2:	0000                	unimp
    19e4:	0db8                	addi	a4,sp,728
    19e6:	8000                	0x8000
    19e8:	0034                	addi	a3,sp,8
    19ea:	0000                	unimp
    19ec:	fe01                	bnez	a2,1904 <__seq_start+0x1904>
    19ee:	5e01                	li	t3,-32
    19f0:	22000007          	0x22000007
    19f4:	0b0e                	slli	s6,s6,0x3
    19f6:	0000                	unimp
    19f8:	b826                	fsd	fs1,48(sp)
    19fa:	000d                	c.addi	zero,3
    19fc:	3480                	fld	fs0,40(s1)
    19fe:	0000                	unimp
    1a00:	2400                	fld	fs0,8(s0)
    1a02:	0b19                	addi	s6,s6,6
    1a04:	0000                	unimp
    1a06:	00001353          	0x1353
    1a0a:	000b2927          	0xb2927
    1a0e:	e000                	fsw	fs0,0(s0)
    1a10:	000d                	c.addi	zero,3
    1a12:	0480                	addi	s0,sp,576
    1a14:	0000                	unimp
    1a16:	0100                	addi	s0,sp,128
    1a18:	22a0                	fld	fs0,64(a3)
    1a1a:	0b39                	addi	s6,s6,14
    1a1c:	0000                	unimp
    1a1e:	0000                	unimp
    1a20:	2500                	fld	fs0,8(a0)
    1a22:	0b29                	addi	s6,s6,10
    1a24:	0000                	unimp
    1a26:	0e04                	addi	s1,sp,784
    1a28:	8000                	0x8000
    1a2a:	0004                	addi	s1,sp,0
    1a2c:	0000                	unimp
    1a2e:	0f01                	addi	t5,t5,0
    1a30:	7802                	flw	fa6,32(sp)
    1a32:	22000007          	0x22000007
    1a36:	0b39                	addi	s6,s6,14
    1a38:	0000                	unimp
    1a3a:	2500                	fld	fs0,8(a0)
    1a3c:	0afe                	slli	s5,s5,0x1f
    1a3e:	0000                	unimp
    1a40:	0e80                	addi	s0,sp,848
    1a42:	8000                	0x8000
    1a44:	003c                	addi	a5,sp,8
    1a46:	0000                	unimp
    1a48:	1001                	c.addi	zero,-32
    1a4a:	ba02                	fsd	ft0,304(sp)
    1a4c:	22000007          	0x22000007
    1a50:	0b0e                	slli	s6,s6,0x3
    1a52:	0000                	unimp
    1a54:	8026                	0x8026
    1a56:	000e                	0xe
    1a58:	3c80                	fld	fs0,56(s1)
    1a5a:	0000                	unimp
    1a5c:	2400                	fld	fs0,8(s0)
    1a5e:	0b19                	addi	s6,s6,6
    1a60:	0000                	unimp
    1a62:	00001373          	csrrw	t1,0x0,zero
    1a66:	000b2927          	0xb2927
    1a6a:	a800                	fsd	fs0,16(s0)
    1a6c:	000e                	0xe
    1a6e:	0480                	addi	s0,sp,576
    1a70:	0000                	unimp
    1a72:	0100                	addi	s0,sp,128
    1a74:	22a0                	fld	fs0,64(a3)
    1a76:	0b39                	addi	s6,s6,14
    1a78:	0000                	unimp
    1a7a:	0000                	unimp
    1a7c:	1e00                	addi	s0,sp,816
    1a7e:	0a74                	addi	a3,sp,284
    1a80:	8000                	0x8000
    1a82:	07d6                	slli	a5,a5,0x15
    1a84:	0000                	unimp
    1a86:	0114                	addi	a3,sp,128
    1a88:	0079025b          	0x79025b
    1a8c:	0114                	addi	a3,sp,128
    1a8e:	025c                	addi	a5,sp,260
    1a90:	0089                	addi	ra,ra,2
    1a92:	0114                	addi	a3,sp,128
    1a94:	025d                	addi	tp,tp,23
    1a96:	0078                	addi	a4,sp,12
    1a98:	1e00                	addi	s0,sp,816
    1a9a:	0a98                	addi	a4,sp,336
    1a9c:	8000                	0x8000
    1a9e:	07f1                	addi	a5,a5,28
    1aa0:	0000                	unimp
    1aa2:	0114                	addi	a3,sp,128
    1aa4:	015a                	slli	sp,sp,0x16
    1aa6:	1430                	addi	a2,sp,552
    1aa8:	5b01                	li	s6,-32
    1aaa:	7902                	flw	fs2,32(sp)
    1aac:	1400                	addi	s0,sp,544
    1aae:	5d01                	li	s10,-32
    1ab0:	7802                	flw	fa6,32(sp)
    1ab2:	0000                	unimp
    1ab4:	c028                	sw	a0,64(s0)
    1ab6:	000c                	addi	a1,sp,0
    1ab8:	4780                	lw	s0,8(a5)
    1aba:	0008                	addi	a0,sp,0
    1abc:	2800                	fld	fs0,16(s0)
    1abe:	0008                	addi	a0,sp,0
    1ac0:	1400                	addi	s0,sp,544
    1ac2:	5a01                	li	s4,-32
    1ac4:	8202                	jr	tp
    1ac6:	1400                	addi	s0,sp,544
    1ac8:	5b01                	li	s6,-32
    1aca:	7902                	flw	fs2,32(sp)
    1acc:	1400                	addi	s0,sp,544
    1ace:	5c01                	li	s8,-32
    1ad0:	8902                	jr	s2
    1ad2:	1400                	addi	s0,sp,544
    1ad4:	5d01                	li	s10,-32
    1ad6:	7802                	flw	fa6,32(sp)
    1ad8:	1400                	addi	s0,sp,544
    1ada:	5f01                	li	t5,-32
    1adc:	3001                	jal	12dc <__seq_start+0x12dc>
    1ade:	0114                	addi	a3,sp,128
    1ae0:	0260                	addi	s0,sp,268
    1ae2:	0086                	slli	ra,ra,0x1
    1ae4:	0214                	addi	a3,sp,256
    1ae6:	0072                	0x72
    1ae8:	3801                	jal	12f8 <__seq_start+0x12f8>
    1aea:	1f00                	addi	s0,sp,944
    1aec:	0db4                	addi	a3,sp,728
    1aee:	8000                	0x8000
    1af0:	0114                	addi	a3,sp,128
    1af2:	025a                	slli	tp,tp,0x16
    1af4:	0084                	addi	s1,sp,64
    1af6:	0114                	addi	a3,sp,128
    1af8:	0079025b          	0x79025b
    1afc:	0114                	addi	a3,sp,128
    1afe:	025c                	addi	a5,sp,260
    1b00:	7f89                	lui	t6,0xfffe2
    1b02:	0114                	addi	a3,sp,128
    1b04:	025d                	addi	tp,tp,23
    1b06:	0078                	addi	a4,sp,12
    1b08:	0000                	unimp
    1b0a:	1a29                	addi	s4,s4,-22
    1b0c:	0009                	c.addi	zero,2
    1b0e:	0100                	addi	s0,sp,128
    1b10:	acf4                	fsd	fa3,216(s1)
    1b12:	0000                	unimp
    1b14:	9000                	0x9000
    1b16:	0005                	c.addi	zero,1
    1b18:	6080                	flw	fs0,0(s1)
    1b1a:	0004                	addi	s1,sp,0
    1b1c:	0100                	addi	s0,sp,128
    1b1e:	389c                	fld	fa5,48(s1)
    1b20:	000a                	0xa
    1b22:	2a00                	fld	fs0,16(a2)
    1b24:	0074756f          	jal	a0,4932a <__heap_start+0x26a2a>
    1b28:	f401                	bnez	s0,1a30 <__seq_start+0x1a30>
    1b2a:	00bc                	addi	a5,sp,72
    1b2c:	0000                	unimp
    1b2e:	00001393          	slli	t2,zero,0x0
    1b32:	0008a62b          	p.sw	zero,12(a7!) # 400c <__seq_start+0x400c>
    1b36:	0100                	addi	s0,sp,128
    1b38:	6ef4                	flw	fa3,92(a3)
    1b3a:	0002                	0x2
    1b3c:	ca00                	sw	s0,16(a2)
    1b3e:	2a000013          	li	zero,672
    1b42:	6469                	lui	s0,0x1a
    1b44:	0078                	addi	a4,sp,12
    1b46:	f401                	bnez	s0,1a4e <__seq_start+0x1a4e>
    1b48:	00ac                	addi	a1,sp,72
    1b4a:	0000                	unimp
    1b4c:	1422                	slli	s0,s0,0x28
    1b4e:	0000                	unimp
    1b50:	00099a2b          	p.sh	zero,20(s3!) # b9902a8 <__heap_end+0xb8902a8>
    1b54:	0100                	addi	s0,sp,128
    1b56:	acf5                	j	1e52 <__seq_start+0x1e52>
    1b58:	0000                	unimp
    1b5a:	7a00                	flw	fs0,48(a2)
    1b5c:	0014                	addi	a3,sp,0
    1b5e:	2b00                	fld	fs0,16(a4)
    1b60:	05ee                	slli	a1,a1,0x1b
    1b62:	0000                	unimp
    1b64:	f501                	bnez	a0,1a6c <__seq_start+0x1a6c>
    1b66:	004d                	c.addi	zero,19
    1b68:	0000                	unimp
    1b6a:	14e8                	addi	a0,sp,620
    1b6c:	0000                	unimp
    1b6e:	0008e22b          	p.sw	zero,tp(a7!)
    1b72:	0100                	addi	s0,sp,128
    1b74:	38f5                	jal	1470 <__seq_start+0x1470>
    1b76:	000a                	0xa
    1b78:	4800                	lw	s0,16(s0)
    1b7a:	0015                	c.addi	zero,5
    1b7c:	2b00                	fld	fs0,16(a4)
    1b7e:	00000077          	0x77
    1b82:	f601                	bnez	a2,1a8a <__seq_start+0x1a8a>
    1b84:	004d                	c.addi	zero,19
    1b86:	0000                	unimp
    1b88:	000015bf 000a0e2b 	0xa0e2b000015bf
    1b90:	0100                	addi	s0,sp,128
    1b92:	79f6                	flw	fs3,124(sp)
    1b94:	0000                	unimp
    1b96:	0400                	addi	s0,sp,512
    1b98:	0016                	0x16
    1b9a:	2b00                	fld	fs0,16(a4)
    1b9c:	08d2                	slli	a7,a7,0x14
    1b9e:	0000                	unimp
    1ba0:	f701                	bnez	a4,1aa8 <__seq_start+0x1aa8>
    1ba2:	0079                	c.addi	zero,30
    1ba4:	0000                	unimp
    1ba6:	1649                	addi	a2,a2,-14
    1ba8:	0000                	unimp
    1baa:	0001492b          	p.sb	zero,s2(sp!)
    1bae:	0100                	addi	s0,sp,128
    1bb0:	000079f7          	0x79f7
    1bb4:	ff00                	fsw	fs0,56(a4)
    1bb6:	0016                	0x16
    1bb8:	2c00                	fld	fs0,24(s0)
    1bba:	7562                	flw	fa0,56(sp)
    1bbc:	0066                	0x66
    1bbe:	f801                	bnez	s0,1ace <__seq_start+0x1ace>
    1bc0:	00000a3f 7fb09103 	0x7fb0910300000a3f
    1bc8:	6c2d                	lui	s8,0xb
    1bca:	6e65                	lui	t3,0x19
    1bcc:	0100                	addi	s0,sp,128
    1bce:	acf9                	j	1eac <__seq_start+0x1eac>
    1bd0:	0000                	unimp
    1bd2:	3f00                	fld	fs0,56(a4)
    1bd4:	1b000017          	auipc	zero,0x1b000
    1bd8:	0108                	addi	a0,sp,128
    1bda:	0000                	unimp
    1bdc:	092e                	slli	s2,s2,0xb
    1bde:	0000                	unimp
    1be0:	c519                	beqz	a0,1bee <__seq_start+0x1bee>
    1be2:	0009                	c.addi	zero,2
    1be4:	0100                	addi	s0,sp,128
    1be6:	00ee0103          	lb	sp,14(t3) # 1900e <__seq_start+0x1900e>
    1bea:	0000                	unimp
    1bec:	17b0                	addi	a2,sp,1000
    1bee:	0000                	unimp
    1bf0:	2e00                	fld	fs0,24(a2)
    1bf2:	00000a4f          	0xa4f
    1bf6:	0650                	addi	a2,sp,772
    1bf8:	8000                	0x8000
    1bfa:	0130                	addi	a2,sp,136
    1bfc:	0000                	unimp
    1bfe:	0b01                	addi	s6,s6,0
    1c00:	2101                	jal	2000 <__seq_start+0x2000>
    1c02:	0acd                	addi	s5,s5,19
    1c04:	0000                	unimp
    1c06:	17d9                	addi	a5,a5,-10
    1c08:	0000                	unimp
    1c0a:	c221                	beqz	a2,1c4a <__seq_start+0x1c4a>
    1c0c:	000a                	0xa
    1c0e:	0200                	addi	s0,sp,256
    1c10:	0018                	addi	a4,sp,0
    1c12:	2100                	fld	fs0,0(a0)
    1c14:	00000ab7          	lui	s5,0x0
    1c18:	184e                	slli	a6,a6,0x33
    1c1a:	0000                	unimp
    1c1c:	ac21                	j	1e34 <__seq_start+0x1e34>
    1c1e:	000a                	0xa
    1c20:	9e00                	0x9e00
    1c22:	0018                	addi	a4,sp,0
    1c24:	2100                	fld	fs0,0(a0)
    1c26:	0aa1                	addi	s5,s5,8
    1c28:	0000                	unimp
    1c2a:	18ee                	slli	a7,a7,0x3b
    1c2c:	0000                	unimp
    1c2e:	9621                	srai	a2,a2,0x28
    1c30:	000a                	0xa
    1c32:	1700                	addi	s0,sp,928
    1c34:	0019                	c.addi	zero,6
    1c36:	2100                	fld	fs0,0(a0)
    1c38:	00000a8b          	p.lb	s5,0(zero!) # 0 <__seq_start>
    1c3c:	1a98                	addi	a4,sp,368
    1c3e:	0000                	unimp
    1c40:	8021                	srli	s0,s0,0x8
    1c42:	000a                	0xa
    1c44:	cf00                	sw	s0,24(a4)
    1c46:	001a                	0x1a
    1c48:	2100                	fld	fs0,0(a0)
    1c4a:	0a75                	addi	s4,s4,29
    1c4c:	0000                	unimp
    1c4e:	00001b27          	0x1b27
    1c52:	6a21                	lui	s4,0x8
    1c54:	000a                	0xa
    1c56:	ea00                	fsw	fs0,16(a2)
    1c58:	2100001b          	0x2100001b
    1c5c:	0a5f 0000 1c42      	0x1c4200000a5f
    1c62:	0000                	unimp
    1c64:	00013023          	0x13023
    1c68:	2400                	fld	fs0,8(s0)
    1c6a:	0ad8                	addi	a4,sp,340
    1c6c:	0000                	unimp
    1c6e:	1c79                	addi	s8,s8,-2
    1c70:	0000                	unimp
    1c72:	000af22f          	0xaf22f
    1c76:	5800                	lw	s0,48(s0)
    1c78:	0001                	nop
    1c7a:	de00                	sw	s0,56(a2)
    1c7c:	0009                	c.addi	zero,2
    1c7e:	2400                	fld	fs0,8(s0)
    1c80:	00000af3          	0xaf3
    1c84:	1cd1                	addi	s9,s9,-12
    1c86:	0000                	unimp
    1c88:	1c1f 0007 1480      	0x148000071c1f
    1c8e:	5b01                	li	s6,-32
    1c90:	8202                	jr	tp
    1c92:	1400                	addi	s0,sp,544
    1c94:	5c01                	li	s8,-32
    1c96:	8602                	jr	a2
    1c98:	147f                	0x147f
    1c9a:	5d01                	li	s10,-32
    1c9c:	8302                	jr	t1
    1c9e:	0000                	unimp
    1ca0:	3000                	fld	fs0,32(s0)
    1ca2:	00000ae3          	beqz	zero,24b6 <__seq_start+0x24b6>
    1ca6:	086c                	addi	a1,sp,28
    1ca8:	8000                	0x8000
    1caa:	002c                	addi	a1,sp,8
    1cac:	0000                	unimp
    1cae:	00000a17          	auipc	s4,0x0
    1cb2:	e824                	fsw	fs1,80(s0)
    1cb4:	000a                	0xa
    1cb6:	fd00                	fsw	fs0,56(a0)
    1cb8:	001c                	addi	a5,sp,0
    1cba:	1f00                	addi	s0,sp,944
    1cbc:	0890                	addi	a2,sp,80
    1cbe:	8000                	0x8000
    1cc0:	0114                	addi	a3,sp,128
    1cc2:	025a                	slli	tp,tp,0x16
    1cc4:	2008                	fld	fa0,0(s0)
    1cc6:	0114                	addi	a3,sp,128
    1cc8:	0082025b          	0x82025b
    1ccc:	0114                	addi	a3,sp,128
    1cce:	025c                	addi	a5,sp,260
    1cd0:	7f86                	flw	ft11,96(sp)
    1cd2:	0114                	addi	a3,sp,128
    1cd4:	025d                	addi	tp,tp,23
    1cd6:	00000083          	lb	ra,0(zero) # 0 <__seq_start>
    1cda:	481f 0007 1480      	0x14800007481f
    1ce0:	5a01                	li	s4,-32
    1ce2:	0802                	slli	a6,a6,0x0
    1ce4:	1420                	addi	s0,sp,552
    1ce6:	5b01                	li	s6,-32
    1ce8:	8202                	jr	tp
    1cea:	1400                	addi	s0,sp,544
    1cec:	5c01                	li	s8,-32
    1cee:	7802                	flw	fa6,32(sp)
    1cf0:	147f                	0x147f
    1cf2:	5d01                	li	s10,-32
    1cf4:	8302                	jr	t1
    1cf6:	0000                	unimp
    1cf8:	0000                	unimp
    1cfa:	0200                	addi	s0,sp,256
    1cfc:	0201                	addi	tp,tp,0
    1cfe:	09b2                	slli	s3,s3,0xc
    1d00:	0000                	unimp
    1d02:	e716                	fsw	ft5,140(sp)
    1d04:	0000                	unimp
    1d06:	4f00                	lw	s0,24(a4)
    1d08:	000a                	0xa
    1d0a:	1700                	addi	s0,sp,928
    1d0c:	0079                	c.addi	zero,30
    1d0e:	0000                	unimp
    1d10:	001f eb31 0008      	0x8eb31001f
    1d16:	0100                	addi	s0,sp,128
    1d18:	0000aca7          	0xaca7
    1d1c:	0100                	addi	s0,sp,128
    1d1e:	0afe                	slli	s5,s5,0x1f
    1d20:	0000                	unimp
    1d22:	6f32                	flw	ft10,12(sp)
    1d24:	7475                	lui	s0,0xffffd
    1d26:	0100                	addi	s0,sp,128
    1d28:	0000bca7          	0xbca7
    1d2c:	3300                	fld	fs0,32(a4)
    1d2e:	08a6                	slli	a7,a7,0x9
    1d30:	0000                	unimp
    1d32:	a701                	j	2432 <__seq_start+0x2432>
    1d34:	026e                	slli	tp,tp,0x1b
    1d36:	0000                	unimp
    1d38:	6932                	flw	fs2,12(sp)
    1d3a:	7864                	flw	fs1,116(s0)
    1d3c:	0100                	addi	s0,sp,128
    1d3e:	0000aca7          	0xaca7
    1d42:	3300                	fld	fs0,32(a4)
    1d44:	099a                	slli	s3,s3,0x6
    1d46:	0000                	unimp
    1d48:	a801                	j	1d58 <__seq_start+0x1d58>
    1d4a:	00ac                	addi	a1,sp,72
    1d4c:	0000                	unimp
    1d4e:	6232                	flw	ft4,12(sp)
    1d50:	6675                	lui	a2,0x1d
    1d52:	0100                	addi	s0,sp,128
    1d54:	6ea8                	flw	fa0,88(a3)
    1d56:	0002                	0x2
    1d58:	3200                	fld	fs0,32(a2)
    1d5a:	656c                	flw	fa1,76(a0)
    1d5c:	006e                	0x6e
    1d5e:	a801                	j	1d6e <__seq_start+0x1d6e>
    1d60:	00ac                	addi	a1,sp,72
    1d62:	0000                	unimp
    1d64:	0008e233          	or	tp,a7,zero
    1d68:	0100                	addi	s0,sp,128
    1d6a:	38a8                	fld	fa0,112(s1)
    1d6c:	000a                	0xa
    1d6e:	3300                	fld	fs0,32(a4)
    1d70:	00000077          	0x77
    1d74:	a901                	j	2184 <__seq_start+0x2184>
    1d76:	0079                	c.addi	zero,30
    1d78:	0000                	unimp
    1d7a:	000a0e33          	add	t3,s4,zero
    1d7e:	0100                	addi	s0,sp,128
    1d80:	79a9                	lui	s3,0xfffea
    1d82:	0000                	unimp
    1d84:	3300                	fld	fs0,32(a4)
    1d86:	08d2                	slli	a7,a7,0x14
    1d88:	0000                	unimp
    1d8a:	aa01                	j	1e9a <__seq_start+0x1e9a>
    1d8c:	0079                	c.addi	zero,30
    1d8e:	0000                	unimp
    1d90:	00014933          	xor	s2,sp,zero
    1d94:	0100                	addi	s0,sp,128
    1d96:	79aa                	flw	fs3,168(sp)
    1d98:	0000                	unimp
    1d9a:	3400                	fld	fs0,40(s0)
    1d9c:	08c8                	addi	a0,sp,84
    1d9e:	0000                	unimp
    1da0:	ab01                	j	22b0 <__seq_start+0x22b0>
    1da2:	000000b7          	lui	ra,0x0
    1da6:	f235                	bnez	a2,1d0a <__seq_start+0x1d0a>
    1da8:	000a                	0xa
    1daa:	3600                	fld	fs0,40(a2)
    1dac:	0069                	c.addi	zero,26
    1dae:	df01                	beqz	a4,1cc6 <__seq_start+0x1cc6>
    1db0:	00ac                	addi	a1,sp,72
    1db2:	0000                	unimp
    1db4:	3700                	fld	fs0,40(a4)
    1db6:	6936                	flw	fs2,76(sp)
    1db8:	0100                	addi	s0,sp,128
    1dba:	ace5                	j	20b2 <__seq_start+0x20b2>
    1dbc:	0000                	unimp
    1dbe:	0000                	unimp
    1dc0:	3100                	fld	fs0,32(a0)
    1dc2:	09a1                	addi	s3,s3,8
    1dc4:	0000                	unimp
    1dc6:	9e01                	0x9e01
    1dc8:	0079                	c.addi	zero,30
    1dca:	0000                	unimp
    1dcc:	2301                	jal	22cc <__seq_start+0x22cc>
    1dce:	3200000b          	p.lb	zero,800(zero!) # 320 <__seq_start+0x320>
    1dd2:	00727473          	csrrci	s0,0x7,4
    1dd6:	9e01                	0x9e01
    1dd8:	00000b23          	sb	zero,22(zero) # 16 <__seq_start+0x16>
    1ddc:	6936                	flw	fs2,76(sp)
    1dde:	0100                	addi	s0,sp,128
    1de0:	799f 0000 0000      	0x799f
    1de6:	01df0407          	0x1df0407
    1dea:	0000                	unimp
    1dec:	c131                	beqz	a0,1e30 <__seq_start+0x1e30>
    1dee:	0009                	c.addi	zero,2
    1df0:	0100                	addi	s0,sp,128
    1df2:	000a389b          	0xa389b
    1df6:	0300                	addi	s0,sp,384
    1df8:	0b44                	addi	s1,sp,404
    1dfa:	0000                	unimp
    1dfc:	6332                	flw	ft6,12(sp)
    1dfe:	0068                	addi	a0,sp,12
    1e00:	9b01                	andi	a4,a4,-32
    1e02:	000000e7          	jalr	zero
    1e06:	3100                	fld	fs0,32(a0)
    1e08:	000009a7          	0x9a7
    1e0c:	9201                	srli	a2,a2,0x20
    1e0e:	0079                	c.addi	zero,30
    1e10:	0000                	unimp
    1e12:	000b7403          	p.lb	s0,zero(s6)
    1e16:	3200                	fld	fs0,32(a2)
    1e18:	00727473          	csrrci	s0,0x7,4
    1e1c:	9201                	srli	a2,a2,0x20
    1e1e:	01df 0000 b733      	0xb733000001df
    1e24:	0008                	addi	a0,sp,0
    1e26:	0100                	addi	s0,sp,128
    1e28:	ac92                	fsd	ft4,88(sp)
    1e2a:	0000                	unimp
    1e2c:	3600                	fld	fs0,40(a2)
    1e2e:	93010073          	0x93010073
    1e32:	01df 0000 3800      	0x3800000001df
    1e38:	000008bf 057c8401 	0x57c8401000008bf
    1e40:	8000                	0x8000
    1e42:	0014                	addi	a3,sp,0
    1e44:	0000                	unimp
    1e46:	9c01                	0x9c01
    1e48:	0bc6                	slli	s7,s7,0x11
    1e4a:	0000                	unimp
    1e4c:	0009e92b          	p.sw	zero,s2(s3!)
    1e50:	0100                	addi	s0,sp,128
    1e52:	e784                	fsw	fs1,8(a5)
    1e54:	0000                	unimp
    1e56:	1000                	addi	s0,sp,32
    1e58:	001d                	c.addi	zero,7
    1e5a:	2b00                	fld	fs0,16(a4)
    1e5c:	08a6                	slli	a7,a7,0x9
    1e5e:	0000                	unimp
    1e60:	8401                	srai	s0,s0,0x0
    1e62:	000000f3          	0xf3
    1e66:	1d3c                	addi	a5,sp,696
    1e68:	0000                	unimp
    1e6a:	692a                	flw	fs2,136(sp)
    1e6c:	7864                	flw	fs1,116(s0)
    1e6e:	0100                	addi	s0,sp,128
    1e70:	ac84                	fsd	fs1,24(s1)
    1e72:	0000                	unimp
    1e74:	6800                	flw	fs0,16(s0)
    1e76:	001d                	c.addi	zero,7
    1e78:	2b00                	fld	fs0,16(a4)
    1e7a:	099a                	slli	s3,s3,0x6
    1e7c:	0000                	unimp
    1e7e:	8501                	srai	a0,a0,0x0
    1e80:	00ac                	addi	a1,sp,72
    1e82:	0000                	unimp
    1e84:	1d94                	addi	a3,sp,752
    1e86:	0000                	unimp
    1e88:	3900                	fld	fs0,48(a0)
    1e8a:	08ad                	addi	a7,a7,11
    1e8c:	0000                	unimp
    1e8e:	7901                	lui	s2,0xfffe0
    1e90:	1178                	addi	a4,sp,172
    1e92:	8000                	0x8000
    1e94:	000c                	addi	a1,sp,0
    1e96:	0000                	unimp
    1e98:	9c01                	0x9c01
    1e9a:	0c21                	addi	s8,s8,8
    1e9c:	0000                	unimp
    1e9e:	0009e92b          	p.sw	zero,s2(s3!)
    1ea2:	0100                	addi	s0,sp,128
    1ea4:	e779                	bnez	a4,1f72 <__seq_start+0x1f72>
    1ea6:	0000                	unimp
    1ea8:	c000                	sw	s0,0(s0)
    1eaa:	001d                	c.addi	zero,7
    1eac:	2b00                	fld	fs0,16(a4)
    1eae:	08a6                	slli	a7,a7,0x9
    1eb0:	0000                	unimp
    1eb2:	7901                	lui	s2,0xfffe0
    1eb4:	000000f3          	0xf3
    1eb8:	1de1                	addi	s11,s11,-8
    1eba:	0000                	unimp
    1ebc:	692a                	flw	fs2,136(sp)
    1ebe:	7864                	flw	fs1,116(s0)
    1ec0:	0100                	addi	s0,sp,128
    1ec2:	ac79                	j	2160 <__seq_start+0x2160>
    1ec4:	0000                	unimp
    1ec6:	0200                	addi	s0,sp,256
    1ec8:	001e                	0x1e
    1eca:	2b00                	fld	fs0,16(a4)
    1ecc:	099a                	slli	s3,s3,0x6
    1ece:	0000                	unimp
    1ed0:	7a01                	lui	s4,0xfffe0
    1ed2:	00ac                	addi	a1,sp,72
    1ed4:	0000                	unimp
    1ed6:	00001e23          	sh	zero,28(zero) # 1c <__seq_start+0x1c>
    1eda:	843a                	mv	s0,a4
    1edc:	0011                	c.addi	zero,4
    1ede:	b580                	fsd	fs0,40(a1)
    1ee0:	000c                	addi	a1,sp,0
    1ee2:	0000                	unimp
    1ee4:	0339                	addi	t1,t1,14
    1ee6:	0009                	c.addi	zero,2
    1ee8:	0100                	addi	s0,sp,128
    1eea:	7870                	flw	fa2,116(s0)
    1eec:	0005                	c.addi	zero,1
    1eee:	0480                	addi	s0,sp,576
    1ef0:	0000                	unimp
    1ef2:	0100                	addi	s0,sp,128
    1ef4:	6b9c                	flw	fa5,16(a5)
    1ef6:	000c                	addi	a1,sp,0
    1ef8:	3b00                	fld	fs0,48(a4)
    1efa:	09e9                	addi	s3,s3,26
    1efc:	0000                	unimp
    1efe:	7001                	0x7001
    1f00:	000000e7          	jalr	zero
    1f04:	5a01                	li	s4,-32
    1f06:	0008a63b          	0x8a63b
    1f0a:	0100                	addi	s0,sp,128
    1f0c:	f370                	fsw	fa2,100(a4)
    1f0e:	0000                	unimp
    1f10:	0100                	addi	s0,sp,128
    1f12:	64693c5b          	0x64693c5b
    1f16:	0078                	addi	a4,sp,12
    1f18:	7001                	0x7001
    1f1a:	00ac                	addi	a1,sp,72
    1f1c:	0000                	unimp
    1f1e:	5c01                	li	s8,-32
    1f20:	00099a3b          	0x99a3b
    1f24:	0100                	addi	s0,sp,128
    1f26:	ac71                	j	21c2 <__seq_start+0x21c2>
    1f28:	0000                	unimp
    1f2a:	0100                	addi	s0,sp,128
    1f2c:	005d                	c.addi	zero,23
    1f2e:	a139                	j	233c <__seq_start+0x233c>
    1f30:	0008                	addi	a0,sp,0
    1f32:	0100                	addi	s0,sp,128
    1f34:	6c68                	flw	fa0,92(s0)
    1f36:	0005                	c.addi	zero,1
    1f38:	0c80                	addi	s0,sp,592
    1f3a:	0000                	unimp
    1f3c:	0100                	addi	s0,sp,128
    1f3e:	b59c                	fsd	fa5,40(a1)
    1f40:	000c                	addi	a1,sp,0
    1f42:	3b00                	fld	fs0,48(a4)
    1f44:	09e9                	addi	s3,s3,26
    1f46:	0000                	unimp
    1f48:	6801                	lui	a6,0x0
    1f4a:	000000e7          	jalr	zero
    1f4e:	5a01                	li	s4,-32
    1f50:	0008a63b          	0x8a63b
    1f54:	0100                	addi	s0,sp,128
    1f56:	f368                	fsw	fa0,100(a4)
    1f58:	0000                	unimp
    1f5a:	0100                	addi	s0,sp,128
    1f5c:	64693c5b          	0x64693c5b
    1f60:	0078                	addi	a4,sp,12
    1f62:	6801                	lui	a6,0x0
    1f64:	00ac                	addi	a1,sp,72
    1f66:	0000                	unimp
    1f68:	5c01                	li	s8,-32
    1f6a:	00099a3b          	0x99a3b
    1f6e:	0100                	addi	s0,sp,128
    1f70:	ac69                	j	220a <__seq_start+0x220a>
    1f72:	0000                	unimp
    1f74:	0100                	addi	s0,sp,128
    1f76:	005d                	c.addi	zero,23
    1f78:	f33d                	bnez	a4,1ede <__seq_start+0x1ede>
    1f7a:	0009                	c.addi	zero,2
    1f7c:	f300                	fsw	fs0,32(a4)
    1f7e:	0009                	c.addi	zero,2
    1f80:	0600                	addi	s0,sp,768
    1f82:	0099002f          	0x99002f
    1f86:	0000                	unimp
    1f88:	0004                	addi	s1,sp,0
    1f8a:	0822                	slli	a6,a6,0x8
    1f8c:	0000                	unimp
    1f8e:	0104                	addi	s1,sp,128
    1f90:	04ed                	addi	s1,s1,27
    1f92:	0000                	unimp
    1f94:	360c                	fld	fa1,40(a2)
    1f96:	000a                	0xa
    1f98:	1000                	addi	s0,sp,32
    1f9a:	e4000003          	lb	zero,-448(zero) # fffffe40 <pulp__FC+0xfffffe41>
    1f9e:	0012                	0x12
    1fa0:	0c80                	addi	s0,sp,592
    1fa2:	0000                	unimp
    1fa4:	9600                	0x9600
    1fa6:	0014                	addi	a3,sp,0
    1fa8:	0200                	addi	s0,sp,256
    1faa:	0601                	addi	a2,a2,0
    1fac:	03e8                	addi	a0,sp,460
    1fae:	0000                	unimp
    1fb0:	0102                	slli	sp,sp,0x0
    1fb2:	e608                	fsw	fa0,8(a2)
    1fb4:	02000003          	lb	zero,32(zero) # 20 <__seq_start+0x20>
    1fb8:	0502                	slli	a0,a0,0x0
    1fba:	0402                	slli	s0,s0,0x0
    1fbc:	0000                	unimp
    1fbe:	0202                	slli	tp,tp,0x0
    1fc0:	00026807          	0x26807
    1fc4:	0200                	addi	s0,sp,256
    1fc6:	0504                	addi	s1,sp,640
    1fc8:	010c                	addi	a1,sp,128
    1fca:	0000                	unimp
    1fcc:	0402                	slli	s0,s0,0x0
    1fce:	0000a707          	0xa707
    1fd2:	0200                	addi	s0,sp,256
    1fd4:	0508                	addi	a0,sp,640
    1fd6:	00000107          	0x107
    1fda:	0802                	slli	a6,a6,0x0
    1fdc:	0000a207          	0xa207
    1fe0:	0300                	addi	s0,sp,384
    1fe2:	0504                	addi	s1,sp,640
    1fe4:	6e69                	lui	t3,0x1a
    1fe6:	0074                	addi	a3,sp,12
    1fe8:	0402                	slli	s0,s0,0x0
    1fea:	0000ac07          	0xac07
    1fee:	0400                	addi	s0,sp,512
    1ff0:	0a2c                	addi	a1,sp,280
    1ff2:	0000                	unimp
    1ff4:	0701                	addi	a4,a4,0
    1ff6:	0076                	0x76
    1ff8:	0000                	unimp
    1ffa:	0102                	slli	sp,sp,0x0
    1ffc:	ef08                	fsw	fa0,24(a4)
    1ffe:	05000003          	lb	zero,80(zero) # 50 <__seq_start+0x50>
    2002:	000009f3          	0x9f3
    2006:	0901                	addi	s2,s2,0
    2008:	12e4                	addi	s1,sp,364
    200a:	8000                	0x8000
    200c:	000c                	addi	a1,sp,0
    200e:	0000                	unimp
    2010:	9c01                	0x9c01
    2012:	e906                	fsw	ft1,144(sp)
    2014:	0009                	c.addi	zero,2
    2016:	0100                	addi	s0,sp,128
    2018:	7609                	lui	a2,0xfffe2
    201a:	0000                	unimp
    201c:	0100                	addi	s0,sp,128
    201e:	005a                	0x5a
    2020:	9b00                	0x9b00
    2022:	0400000b          	p.lb	zero,64(zero!) # 40 <__seq_start+0x40>
    2026:	8400                	0x8400
    2028:	0008                	addi	a0,sp,0
    202a:	0400                	addi	s0,sp,512
    202c:	ed01                	bnez	a0,2044 <__seq_start+0x2044>
    202e:	0004                	addi	s1,sp,0
    2030:	0c00                	addi	s0,sp,528
    2032:	00000acb          	0xacb
    2036:	0310                	addi	a2,sp,384
    2038:	0000                	unimp
    203a:	12f0                	addi	a2,sp,364
    203c:	8000                	0x8000
    203e:	0404                	addi	s1,sp,512
    2040:	0000                	unimp
    2042:	153a                	slli	a0,a0,0x2e
    2044:	0000                	unimp
    2046:	0102                	slli	sp,sp,0x0
    2048:	e806                	fsw	ft1,16(sp)
    204a:	02000003          	lb	zero,32(zero) # 20 <__seq_start+0x20>
    204e:	0801                	addi	a6,a6,0
    2050:	03e6                	slli	t2,t2,0x19
    2052:	0000                	unimp
    2054:	0202                	slli	tp,tp,0x0
    2056:	0205                	addi	tp,tp,1
    2058:	0004                	addi	s1,sp,0
    205a:	0200                	addi	s0,sp,256
    205c:	0702                	slli	a4,a4,0x0
    205e:	0268                	addi	a0,sp,268
    2060:	0000                	unimp
    2062:	0402                	slli	s0,s0,0x0
    2064:	0c05                	addi	s8,s8,1
    2066:	0001                	nop
    2068:	0200                	addi	s0,sp,256
    206a:	0704                	addi	s1,sp,896
    206c:	000000a7          	0xa7
    2070:	0802                	slli	a6,a6,0x0
    2072:	0705                	addi	a4,a4,1
    2074:	0001                	nop
    2076:	0200                	addi	s0,sp,256
    2078:	0708                	addi	a0,sp,896
    207a:	00a2                	slli	ra,ra,0x8
    207c:	0000                	unimp
    207e:	69050403          	lb	s0,1680(a0) # 690 <__seq_start+0x690>
    2082:	746e                	flw	fs0,248(sp)
    2084:	0400                	addi	s0,sp,512
    2086:	09dd                	addi	s3,s3,23
    2088:	0000                	unimp
    208a:	e802                	fsw	ft0,16(sp)
    208c:	0000006f          	j	208c <__seq_start+0x208c>
    2090:	0402                	slli	s0,s0,0x0
    2092:	0000ac07          	0xac07
    2096:	0400                	addi	s0,sp,512
    2098:	0726                	slli	a4,a4,0x9
    209a:	0000                	unimp
    209c:	006fd803          	lhu	a6,6(t6) # fffe2006 <pulp__FC+0xfffe2007>
    20a0:	0000                	unimp
    20a2:	0405                	addi	s0,s0,1
    20a4:	00000087          	0x87
    20a8:	c206                	sw	ra,4(sp)
    20aa:	0000                	unimp
    20ac:	0700                	addi	s0,sp,896
    20ae:	000000a3          	sb	zero,1(zero) # 1 <__seq_start+0x1>
    20b2:	00000097          	auipc	ra,0x0
    20b6:	0008                	addi	a0,sp,0
    20b8:	8c09                	sub	s0,s0,a0
    20ba:	0000                	unimp
    20bc:	0200                	addi	s0,sp,256
    20be:	0801                	addi	a6,a6,0
    20c0:	000003ef          	jal	t2,20c0 <__seq_start+0x20c0>
    20c4:	9c09                	0x9c09
    20c6:	0000                	unimp
    20c8:	0a00                	addi	s0,sp,272
    20ca:	0b3a                	slli	s6,s6,0xe
    20cc:	0000                	unimp
    20ce:	a508                	fsd	fa0,8(a0)
    20d0:	00000097          	auipc	ra,0x0
    20d4:	df04                	sw	s1,56(a4)
    20d6:	0009                	c.addi	zero,2
    20d8:	0400                	addi	s0,sp,512
    20da:	6452                	flw	fs0,20(sp)
    20dc:	0000                	unimp
    20de:	0900                	addi	s0,sp,144
    20e0:	000000b3          	add	ra,zero,zero
    20e4:	c004                	sw	s1,0(s0)
    20e6:	05000003          	lb	zero,80(zero) # 50 <__seq_start+0x50>
    20ea:	00005d07          	0x5d07
    20ee:	0400                	addi	s0,sp,512
    20f0:	0394                	addi	a3,sp,448
    20f2:	0000                	unimp
    20f4:	2c06                	fld	fs8,64(sp)
    20f6:	0041                	c.addi	zero,16
    20f8:	0000                	unimp
    20fa:	ca04                	sw	s1,16(a2)
    20fc:	0004                	addi	s1,sp,0
    20fe:	0600                	addi	s0,sp,768
    2100:	4172                	lw	sp,28(sp)
    2102:	0000                	unimp
    2104:	0400                	addi	s0,sp,512
    2106:	065c                	addi	a5,sp,772
    2108:	0000                	unimp
    210a:	9106                	add	sp,sp,ra
    210c:	005d                	c.addi	zero,23
    210e:	0000                	unimp
    2110:	0002ab0b          	p.lw	s6,0(t0!)
    2114:	0300                	addi	s0,sp,384
    2116:	0165                	addi	sp,sp,25
    2118:	0000006f          	j	2118 <__seq_start+0x2118>
    211c:	040c                	addi	a1,sp,512
    211e:	a606                	fsd	ft1,264(sp)
    2120:	011a                	slli	sp,sp,0x6
    2122:	0000                	unimp
    2124:	a50d                	j	2746 <__seq_start+0x2746>
    2126:	0002                	0x2
    2128:	0600                	addi	s0,sp,768
    212a:	efa8                	fsw	fa0,88(a5)
    212c:	0000                	unimp
    212e:	0d00                	addi	s0,sp,656
    2130:	0205                	addi	tp,tp,1
    2132:	0000                	unimp
    2134:	a906                	fsd	ft1,144(sp)
    2136:	011a                	slli	sp,sp,0x6
    2138:	0000                	unimp
    213a:	0700                	addi	s0,sp,896
    213c:	002c                	addi	a1,sp,8
    213e:	0000                	unimp
    2140:	012a                	slli	sp,sp,0xa
    2142:	0000                	unimp
    2144:	6f0e                	flw	ft10,192(sp)
    2146:	0000                	unimp
    2148:	0300                	addi	s0,sp,384
    214a:	0f00                	addi	s0,sp,912
    214c:	0608                	addi	a0,sp,768
    214e:	00014ba3          	p.sb	zero,s7(sp)
    2152:	1000                	addi	s0,sp,32
    2154:	04a8                	addi	a0,sp,584
    2156:	0000                	unimp
    2158:	a506                	fsd	ft1,136(sp)
    215a:	005d                	c.addi	zero,23
    215c:	0000                	unimp
    215e:	1000                	addi	s0,sp,32
    2160:	05ec                	addi	a1,sp,716
    2162:	0000                	unimp
    2164:	aa06                	fsd	ft1,272(sp)
    2166:	000000fb          	0xfb
    216a:	0004                	addi	s1,sp,0
    216c:	2a04                	fld	fs1,16(a2)
    216e:	0004                	addi	s1,sp,0
    2170:	0600                	addi	s0,sp,768
    2172:	00012aab          	p.sw	zero,21(sp!)
    2176:	0400                	addi	s0,sp,512
    2178:	01c8                	addi	a0,sp,196
    217a:	0000                	unimp
    217c:	af06                	fsd	ft1,408(sp)
    217e:	000000c3          	0xc3
    2182:	0411                	addi	s0,s0,4
    2184:	0204                	addi	s1,sp,256
    2186:	0006                	0x6
    2188:	0700                	addi	s0,sp,896
    218a:	4816                	lw	a6,68(sp)
    218c:	0000                	unimp
    218e:	1200                	addi	s0,sp,288
    2190:	01d9                	addi	gp,gp,22
    2192:	0000                	unimp
    2194:	0718                	addi	a4,sp,896
    2196:	0001c12f          	0x1c12f
    219a:	1000                	addi	s0,sp,32
    219c:	0000044b          	0x44b
    21a0:	01c13107          	0x1c13107
    21a4:	0000                	unimp
    21a6:	1300                	addi	s0,sp,416
    21a8:	6b5f 0700 5d32      	0x5d3207006b5f
    21ae:	0000                	unimp
    21b0:	0400                	addi	s0,sp,512
    21b2:	9310                	0x9310
    21b4:	0004                	addi	s1,sp,0
    21b6:	0700                	addi	s0,sp,896
    21b8:	5d32                	lw	s10,44(sp)
    21ba:	0000                	unimp
    21bc:	0800                	addi	s0,sp,16
    21be:	c210                	sw	a2,0(a2)
    21c0:	0001                	nop
    21c2:	0700                	addi	s0,sp,896
    21c4:	5d32                	lw	s10,44(sp)
    21c6:	0000                	unimp
    21c8:	0c00                	addi	s0,sp,528
    21ca:	4710                	lw	a2,8(a4)
    21cc:	0006                	0x6
    21ce:	0700                	addi	s0,sp,896
    21d0:	5d32                	lw	s10,44(sp)
    21d2:	0000                	unimp
    21d4:	1000                	addi	s0,sp,32
    21d6:	00785f13          	srli	t5,a6,0x7
    21da:	01c73307          	0x1c73307
    21de:	0000                	unimp
    21e0:	0014                	addi	a3,sp,0
    21e2:	0405                	addi	s0,s0,1
    21e4:	016e                	slli	sp,sp,0x1b
    21e6:	0000                	unimp
    21e8:	00016307          	0x16307
    21ec:	d700                	sw	s0,40(a4)
    21ee:	0001                	nop
    21f0:	0e00                	addi	s0,sp,784
    21f2:	0000006f          	j	21f2 <__seq_start+0x21f2>
    21f6:	0000                	unimp
    21f8:	0012                	0x12
    21fa:	0002                	0x2
    21fc:	2400                	fld	fs0,8(s0)
    21fe:	02503707          	0x2503707
    2202:	0000                	unimp
    2204:	fe10                	fsw	fa2,56(a2)
    2206:	0000                	unimp
    2208:	0700                	addi	s0,sp,896
    220a:	5d39                	li	s10,-18
    220c:	0000                	unimp
    220e:	0000                	unimp
    2210:	d210                	sw	a2,32(a2)
    2212:	0004                	addi	s1,sp,0
    2214:	0700                	addi	s0,sp,896
    2216:	5d3a                	lw	s10,172(sp)
    2218:	0000                	unimp
    221a:	0400                	addi	s0,sp,512
    221c:	1b10                	addi	a2,sp,432
    221e:	0001                	nop
    2220:	0700                	addi	s0,sp,896
    2222:	00005d3b          	0x5d3b
    2226:	0800                	addi	s0,sp,16
    2228:	cf10                	sw	a2,24(a4)
    222a:	0006                	0x6
    222c:	0700                	addi	s0,sp,896
    222e:	5d3c                	lw	a5,120(a0)
    2230:	0000                	unimp
    2232:	0c00                	addi	s0,sp,528
    2234:	7810                	flw	fa2,48(s0)
    2236:	07000003          	lb	zero,112(zero) # 70 <__seq_start+0x70>
    223a:	5d3d                	li	s10,-17
    223c:	0000                	unimp
    223e:	1000                	addi	s0,sp,32
    2240:	d310                	sw	a2,32(a4)
    2242:	0002                	0x2
    2244:	0700                	addi	s0,sp,896
    2246:	5d3e                	lw	s10,236(sp)
    2248:	0000                	unimp
    224a:	1400                	addi	s0,sp,544
    224c:	4c10                	lw	a2,24(s0)
    224e:	0006                	0x6
    2250:	0700                	addi	s0,sp,896
    2252:	00005d3f 0c101800 	0xc10180000005d3f
    225a:	0004                	addi	s1,sp,0
    225c:	0700                	addi	s0,sp,896
    225e:	5d40                	lw	s0,60(a0)
    2260:	0000                	unimp
    2262:	1c00                	addi	s0,sp,560
    2264:	9110                	0x9110
    2266:	0006                	0x6
    2268:	0700                	addi	s0,sp,896
    226a:	5d41                	li	s10,-16
    226c:	0000                	unimp
    226e:	2000                	fld	fs0,0(s0)
    2270:	1400                	addi	s0,sp,544
    2272:	012a                	slli	sp,sp,0xa
    2274:	0000                	unimp
    2276:	0108                	addi	a0,sp,128
    2278:	02904a07          	0x2904a07
    227c:	0000                	unimp
    227e:	aa10                	fsd	fa2,16(a2)
    2280:	0001                	nop
    2282:	0700                	addi	s0,sp,896
    2284:	0002904b          	0x2904b
    2288:	0000                	unimp
    228a:	0010                	addi	a2,sp,0
    228c:	0000                	unimp
    228e:	0700                	addi	s0,sp,896
    2290:	904c                	0x904c
    2292:	0002                	0x2
    2294:	8000                	0x8000
    2296:	f415                	bnez	s0,21c2 <__seq_start+0x21c2>
    2298:	0005                	c.addi	zero,1
    229a:	0700                	addi	s0,sp,896
    229c:	634e                	flw	ft6,208(sp)
    229e:	0001                	nop
    22a0:	0000                	unimp
    22a2:	1501                	addi	a0,a0,-32
    22a4:	0000014f          	0x14f
    22a8:	01635107          	0x1635107
    22ac:	0000                	unimp
    22ae:	0104                	addi	s1,sp,128
    22b0:	0700                	addi	s0,sp,896
    22b2:	0161                	addi	sp,sp,24
    22b4:	0000                	unimp
    22b6:	02a0                	addi	s0,sp,328
    22b8:	0000                	unimp
    22ba:	6f0e                	flw	ft10,192(sp)
    22bc:	0000                	unimp
    22be:	1f00                	addi	s0,sp,944
    22c0:	1400                	addi	s0,sp,544
    22c2:	0381                	addi	t2,t2,0
    22c4:	0000                	unimp
    22c6:	0190                	addi	a2,sp,192
    22c8:	02de5d07          	0x2de5d07
    22cc:	0000                	unimp
    22ce:	4b10                	lw	a2,16(a4)
    22d0:	0004                	addi	s1,sp,0
    22d2:	0700                	addi	s0,sp,896
    22d4:	de5e                	sw	s7,60(sp)
    22d6:	0002                	0x2
    22d8:	0000                	unimp
    22da:	6310                	flw	fa2,0(a4)
    22dc:	0004                	addi	s1,sp,0
    22de:	0700                	addi	s0,sp,896
    22e0:	5d5f 0000 0400      	0x40000005d5f
    22e6:	b210                	fsd	fa2,32(a2)
    22e8:	0001                	nop
    22ea:	0700                	addi	s0,sp,896
    22ec:	e461                	bnez	s0,23b4 <__seq_start+0x23b4>
    22ee:	0002                	0x2
    22f0:	0800                	addi	s0,sp,16
    22f2:	2a10                	fld	fa2,16(a2)
    22f4:	0001                	nop
    22f6:	0700                	addi	s0,sp,896
    22f8:	5062                	0x5062
    22fa:	0002                	0x2
    22fc:	8800                	0x8800
    22fe:	0500                	addi	s0,sp,640
    2300:	a004                	fsd	fs1,0(s0)
    2302:	0002                	0x2
    2304:	0700                	addi	s0,sp,896
    2306:	02f4                	addi	a3,sp,332
    2308:	0000                	unimp
    230a:	02f4                	addi	a3,sp,332
    230c:	0000                	unimp
    230e:	6f0e                	flw	ft10,192(sp)
    2310:	0000                	unimp
    2312:	1f00                	addi	s0,sp,944
    2314:	0500                	addi	s0,sp,640
    2316:	fa04                	fsw	fs1,48(a2)
    2318:	0002                	0x2
    231a:	1600                	addi	s0,sp,800
    231c:	1612                	slli	a2,a2,0x24
    231e:	0004                	addi	s1,sp,0
    2320:	0800                	addi	s0,sp,16
    2322:	03207507          	0x3207507
    2326:	0000                	unimp
    2328:	7610                	flw	fa2,40(a2)
    232a:	0000                	unimp
    232c:	0700                	addi	s0,sp,896
    232e:	2076                	fld	ft0,344(sp)
    2330:	00000003          	lb	zero,0(zero) # 0 <__seq_start>
    2334:	6910                	flw	fa2,16(a0)
    2336:	07000007          	0x7000007
    233a:	00005d77          	0x5d77
    233e:	0400                	addi	s0,sp,512
    2340:	0500                	addi	s0,sp,640
    2342:	2c04                	fld	fs1,24(s0)
    2344:	0000                	unimp
    2346:	1200                	addi	s0,sp,288
    2348:	0435                	addi	s0,s0,13
    234a:	0000                	unimp
    234c:	0768                	addi	a0,sp,908
    234e:	50b5                	li	ra,-19
    2350:	0004                	addi	s1,sp,0
    2352:	1300                	addi	s0,sp,416
    2354:	705f 0700 20b6      	0x20b60700705f
    235a:	00000003          	lb	zero,0(zero) # 0 <__seq_start>
    235e:	00725f13          	srli	t5,tp,0x7
    2362:	005db707          	0x5db707
    2366:	0000                	unimp
    2368:	1304                	addi	s1,sp,416
    236a:	775f 0700 5db8      	0x5db80700775f
    2370:	0000                	unimp
    2372:	0800                	addi	s0,sp,16
    2374:	4810                	lw	a2,16(s0)
    2376:	0001                	nop
    2378:	0700                	addi	s0,sp,896
    237a:	33b9                	jal	20c8 <__seq_start+0x20c8>
    237c:	0000                	unimp
    237e:	0c00                	addi	s0,sp,528
    2380:	3010                	fld	fa2,32(s0)
    2382:	0002                	0x2
    2384:	0700                	addi	s0,sp,896
    2386:	33ba                	fld	ft7,424(sp)
    2388:	0000                	unimp
    238a:	0e00                	addi	s0,sp,784
    238c:	66625f13          	0x66625f13
    2390:	0700                	addi	s0,sp,896
    2392:	0002fbbb          	0x2fbbb
    2396:	1000                	addi	s0,sp,32
    2398:	b910                	fsd	fa2,48(a0)
    239a:	0000                	unimp
    239c:	0700                	addi	s0,sp,896
    239e:	5dbc                	lw	a5,120(a1)
    23a0:	0000                	unimp
    23a2:	1800                	addi	s0,sp,48
    23a4:	3810                	fld	fa2,48(s0)
    23a6:	0001                	nop
    23a8:	0700                	addi	s0,sp,896
    23aa:	000161c3          	0x161c3
    23ae:	1c00                	addi	s0,sp,560
    23b0:	f010                	fsw	fa2,32(s0)
    23b2:	0001                	nop
    23b4:	0700                	addi	s0,sp,896
    23b6:	b1c5                	j	2096 <__seq_start+0x2096>
    23b8:	0005                	c.addi	zero,1
    23ba:	2000                	fld	fs0,0(s0)
    23bc:	cc10                	sw	a2,24(s0)
    23be:	0002                	0x2
    23c0:	0700                	addi	s0,sp,896
    23c2:	0005dbc7          	0x5dbc7
    23c6:	2400                	fld	fs0,8(s0)
    23c8:	b010                	fsd	fa2,32(s0)
    23ca:	0004                	addi	s1,sp,0
    23cc:	0700                	addi	s0,sp,896
    23ce:	ffca                	fsw	fs2,252(sp)
    23d0:	0005                	c.addi	zero,1
    23d2:	2800                	fld	fs0,16(s0)
    23d4:	ab10                	fsd	fa2,16(a4)
    23d6:	0006                	0x6
    23d8:	0700                	addi	s0,sp,896
    23da:	000619cb          	0x619cb
    23de:	2c00                	fld	fs0,24(s0)
    23e0:	62755f13          	0x62755f13
    23e4:	0700                	addi	s0,sp,896
    23e6:	fbce                	fsw	fs3,244(sp)
    23e8:	0002                	0x2
    23ea:	3000                	fld	fs0,32(s0)
    23ec:	70755f13          	0x70755f13
    23f0:	0700                	addi	s0,sp,896
    23f2:	000320cf          	0x320cf
    23f6:	3800                	fld	fs0,48(s0)
    23f8:	72755f13          	0x72755f13
    23fc:	0700                	addi	s0,sp,896
    23fe:	5dd0                	lw	a2,60(a1)
    2400:	0000                	unimp
    2402:	3c00                	fld	fs0,56(s0)
    2404:	1510                	addi	a2,sp,672
    2406:	0001                	nop
    2408:	0700                	addi	s0,sp,896
    240a:	00061fd3          	0x61fd3
    240e:	4000                	lw	s0,0(s0)
    2410:	7910                	flw	fa2,48(a0)
    2412:	0006                	0x6
    2414:	0700                	addi	s0,sp,896
    2416:	2fd4                	fld	fa3,152(a5)
    2418:	0006                	0x6
    241a:	4300                	lw	s0,0(a4)
    241c:	626c5f13          	0x626c5f13
    2420:	0700                	addi	s0,sp,896
    2422:	0002fbd7          	pv.add.sci.b	s7,t0,0
    2426:	4400                	lw	s0,8(s0)
    2428:	5e10                	lw	a2,56(a2)
    242a:	0001                	nop
    242c:	0700                	addi	s0,sp,896
    242e:	5dda                	lw	s11,180(sp)
    2430:	0000                	unimp
    2432:	4c00                	lw	s0,24(s0)
    2434:	6f10                	flw	fa2,24(a4)
    2436:	0001                	nop
    2438:	0700                	addi	s0,sp,896
    243a:	0000cedb          	0xcedb
    243e:	5000                	lw	s0,32(s0)
    2440:	7c10                	flw	fa2,56(s0)
    2442:	0000                	unimp
    2444:	0700                	addi	s0,sp,896
    2446:	6ede                	flw	ft9,212(sp)
    2448:	0004                	addi	s1,sp,0
    244a:	5400                	lw	s0,40(s0)
    244c:	b210                	fsd	fa2,32(a2)
    244e:	0002                	0x2
    2450:	0700                	addi	s0,sp,896
    2452:	56e2                	lw	a3,56(sp)
    2454:	0001                	nop
    2456:	5800                	lw	s0,48(s0)
    2458:	3d10                	fld	fa2,56(a0)
    245a:	0004                	addi	s1,sp,0
    245c:	0700                	addi	s0,sp,896
    245e:	4be4                	lw	s1,84(a5)
    2460:	0001                	nop
    2462:	5c00                	lw	s0,56(s0)
    2464:	b810                	fsd	fa2,48(s0)
    2466:	0002                	0x2
    2468:	0700                	addi	s0,sp,896
    246a:	5de5                	li	s11,-7
    246c:	0000                	unimp
    246e:	6400                	flw	fs0,8(s0)
    2470:	1700                	addi	s0,sp,928
    2472:	00e4                	addi	s1,sp,76
    2474:	0000                	unimp
    2476:	046e                	slli	s0,s0,0x1b
    2478:	0000                	unimp
    247a:	6e18                	flw	fa4,24(a2)
    247c:	0004                	addi	s1,sp,0
    247e:	1800                	addi	s0,sp,48
    2480:	0161                	addi	sp,sp,24
    2482:	0000                	unimp
    2484:	ab18                	fsd	fa4,16(a4)
    2486:	0005                	c.addi	zero,1
    2488:	1800                	addi	s0,sp,48
    248a:	005d                	c.addi	zero,23
    248c:	0000                	unimp
    248e:	0500                	addi	s0,sp,640
    2490:	7904                	flw	fs1,48(a0)
    2492:	0004                	addi	s1,sp,0
    2494:	0900                	addi	s0,sp,144
    2496:	046e                	slli	s0,s0,0x1b
    2498:	0000                	unimp
    249a:	9b19                	andi	a4,a4,-26
    249c:	0004                	addi	s1,sp,0
    249e:	2800                	fld	fs0,16(s0)
    24a0:	0704                	addi	s1,sp,896
    24a2:	0239                	addi	tp,tp,14
    24a4:	000005ab          	p.sb	zero,11(zero!) # b <__seq_start+0xb>
    24a8:	fb1a                	fsw	ft6,180(sp)
    24aa:	07000003          	lb	zero,112(zero) # 70 <__seq_start+0x70>
    24ae:	005d023b          	0x5d023b
    24b2:	0000                	unimp
    24b4:	1a00                	addi	s0,sp,304
    24b6:	00000157          	pv.add.h	sp,zero,zero
    24ba:	86024007          	0x86024007
    24be:	0006                	0x6
    24c0:	0400                	addi	s0,sp,512
    24c2:	0c1a                	slli	s8,s8,0x6
    24c4:	0002                	0x2
    24c6:	0700                	addi	s0,sp,896
    24c8:	0240                	addi	s0,sp,260
    24ca:	0686                	slli	a3,a3,0x1
    24cc:	0000                	unimp
    24ce:	1a08                	addi	a0,sp,304
    24d0:	01d1                	addi	gp,gp,20
    24d2:	0000                	unimp
    24d4:	86024007          	0x86024007
    24d8:	0006                	0x6
    24da:	0c00                	addi	s0,sp,528
    24dc:	5e1a                	lw	t3,164(sp)
    24de:	0004                	addi	s1,sp,0
    24e0:	0700                	addi	s0,sp,896
    24e2:	0242                	slli	tp,tp,0x10
    24e4:	005d                	c.addi	zero,23
    24e6:	0000                	unimp
    24e8:	1a10                	addi	a2,sp,304
    24ea:	0049                	c.addi	zero,18
    24ec:	0000                	unimp
    24ee:	68024307          	0x68024307
    24f2:	0008                	addi	a0,sp,0
    24f4:	1400                	addi	s0,sp,544
    24f6:	7a1a                	flw	fs4,164(sp)
    24f8:	0004                	addi	s1,sp,0
    24fa:	0700                	addi	s0,sp,896
    24fc:	0246                	slli	tp,tp,0x11
    24fe:	005d                	c.addi	zero,23
    2500:	0000                	unimp
    2502:	1a30                	addi	a2,sp,312
    2504:	0468                	addi	a0,sp,524
    2506:	0000                	unimp
    2508:	81024707          	0x81024707
    250c:	0000                	unimp
    250e:	3400                	fld	fs0,40(s0)
    2510:	891a                	mv	s2,t1
    2512:	07000003          	lb	zero,112(zero) # 70 <__seq_start+0x70>
    2516:	0249                	addi	tp,tp,18
    2518:	005d                	c.addi	zero,23
    251a:	0000                	unimp
    251c:	1a38                	addi	a4,sp,312
    251e:	0470                	addi	a2,sp,524
    2520:	0000                	unimp
    2522:	83024b07          	0x83024b07
    2526:	0008                	addi	a0,sp,0
    2528:	3c00                	fld	fs0,56(s0)
    252a:	9d1a                	add	s10,s10,t1
    252c:	0002                	0x2
    252e:	0700                	addi	s0,sp,896
    2530:	024e                	slli	tp,tp,0x13
    2532:	01c1                	addi	gp,gp,16
    2534:	0000                	unimp
    2536:	1a40                	addi	s0,sp,308
    2538:	01f6                	slli	gp,gp,0x1d
    253a:	0000                	unimp
    253c:	5d024f07          	0x5d024f07
    2540:	0000                	unimp
    2542:	4400                	lw	s0,8(s0)
    2544:	c51a                	sw	t1,136(sp)
    2546:	0006                	0x6
    2548:	0700                	addi	s0,sp,896
    254a:	0250                	addi	a2,sp,260
    254c:	01c1                	addi	gp,gp,16
    254e:	0000                	unimp
    2550:	1a48                	addi	a0,sp,308
    2552:	03b0                	addi	a2,sp,456
    2554:	0000                	unimp
    2556:	89025107          	0x89025107
    255a:	0008                	addi	a0,sp,0
    255c:	4c00                	lw	s0,24(s0)
    255e:	141a                	slli	s0,s0,0x26
    2560:	0002                	0x2
    2562:	0700                	addi	s0,sp,896
    2564:	0254                	addi	a3,sp,260
    2566:	005d                	c.addi	zero,23
    2568:	0000                	unimp
    256a:	1a50                	addi	a2,sp,308
    256c:	00000167          	jalr	sp,zero
    2570:	ab025507          	0xab025507
    2574:	0005                	c.addi	zero,1
    2576:	5400                	lw	s0,40(s0)
    2578:	f41a                	fsw	ft6,40(sp)
    257a:	07000003          	lb	zero,112(zero) # 70 <__seq_start+0x70>
    257e:	0278                	addi	a4,sp,268
    2580:	0846                	slli	a6,a6,0x11
    2582:	0000                	unimp
    2584:	1b58                	addi	a4,sp,436
    2586:	0381                	addi	t2,t2,0
    2588:	0000                	unimp
    258a:	de027c07          	0xde027c07
    258e:	0002                	0x2
    2590:	4800                	lw	s0,16(s0)
    2592:	1b01                	addi	s6,s6,-32
    2594:	0000027b          	0x27b
    2598:	a0027d07          	0xa0027d07
    259c:	0002                	0x2
    259e:	4c00                	lw	s0,24(s0)
    25a0:	1b01                	addi	s6,s6,-32
    25a2:	0000066f          	jal	a2,25a2 <__seq_start+0x25a2>
    25a6:	9a028107          	0x9a028107
    25aa:	0008                	addi	a0,sp,0
    25ac:	dc00                	sw	s0,56(s0)
    25ae:	1b02                	slli	s6,s6,0x20
    25b0:	0140                	addi	s0,sp,132
    25b2:	0000                	unimp
    25b4:	4b028607          	0x4b028607
    25b8:	0006                	0x6
    25ba:	e000                	fsw	fs0,0(s0)
    25bc:	1b02                	slli	s6,s6,0x20
    25be:	0125                	addi	sp,sp,9
    25c0:	0000                	unimp
    25c2:	a6028707          	0xa6028707
    25c6:	0008                	addi	a0,sp,0
    25c8:	ec00                	fsw	fs0,24(s0)
    25ca:	0002                	0x2
    25cc:	0405                	addi	s0,s0,1
    25ce:	009c                	addi	a5,sp,64
    25d0:	0000                	unimp
    25d2:	0405                	addi	s0,s0,1
    25d4:	0450                	addi	a2,sp,516
    25d6:	0000                	unimp
    25d8:	0000e417          	auipc	s0,0xe
    25dc:	d500                	sw	s0,40(a0)
    25de:	0005                	c.addi	zero,1
    25e0:	1800                	addi	s0,sp,48
    25e2:	046e                	slli	s0,s0,0x1b
    25e4:	0000                	unimp
    25e6:	6118                	flw	fa4,0(a0)
    25e8:	0001                	nop
    25ea:	1800                	addi	s0,sp,48
    25ec:	05d5                	addi	a1,a1,21
    25ee:	0000                	unimp
    25f0:	5d18                	lw	a4,56(a0)
    25f2:	0000                	unimp
    25f4:	0000                	unimp
    25f6:	0405                	addi	s0,s0,1
    25f8:	000000a3          	sb	zero,1(zero) # 1 <__seq_start+0x1>
    25fc:	0405                	addi	s0,s0,1
    25fe:	000005b7          	lui	a1,0x0
    2602:	0000d917          	auipc	s2,0xd
    2606:	ff00                	fsw	fs0,56(a4)
    2608:	0005                	c.addi	zero,1
    260a:	1800                	addi	s0,sp,48
    260c:	046e                	slli	s0,s0,0x1b
    260e:	0000                	unimp
    2610:	6118                	flw	fa4,0(a0)
    2612:	0001                	nop
    2614:	1800                	addi	s0,sp,48
    2616:	00d9                	addi	ra,ra,22
    2618:	0000                	unimp
    261a:	5d18                	lw	a4,56(a0)
    261c:	0000                	unimp
    261e:	0000                	unimp
    2620:	0405                	addi	s0,s0,1
    2622:	05e1                	addi	a1,a1,24
    2624:	0000                	unimp
    2626:	00005d17          	auipc	s10,0x5
    262a:	1900                	addi	s0,sp,176
    262c:	0006                	0x6
    262e:	1800                	addi	s0,sp,48
    2630:	046e                	slli	s0,s0,0x1b
    2632:	0000                	unimp
    2634:	6118                	flw	fa4,0(a0)
    2636:	0001                	nop
    2638:	0000                	unimp
    263a:	0405                	addi	s0,s0,1
    263c:	0605                	addi	a2,a2,1
    263e:	0000                	unimp
    2640:	00002c07          	0x2c07
    2644:	2f00                	fld	fs0,24(a4)
    2646:	0006                	0x6
    2648:	0e00                	addi	s0,sp,784
    264a:	0000006f          	j	264a <__seq_start+0x264a>
    264e:	0002                	0x2
    2650:	00002c07          	0x2c07
    2654:	3f00                	fld	fs0,56(a4)
    2656:	0006                	0x6
    2658:	0e00                	addi	s0,sp,784
    265a:	0000006f          	j	265a <__seq_start+0x265a>
    265e:	0000                	unimp
    2660:	0004230b          	p.lw	t1,0(s0!) # 105d8 <__seq_start+0x105d8>
    2664:	0700                	addi	s0,sp,896
    2666:	011f 0326 0000      	0x326011f
    266c:	561c                	lw	a5,40(a2)
    266e:	0006                	0x6
    2670:	0c00                	addi	s0,sp,528
    2672:	80012307          	0x80012307
    2676:	0006                	0x6
    2678:	1a00                	addi	s0,sp,304
    267a:	0000044b          	0x44b
    267e:	80012507          	0x80012507
    2682:	0006                	0x6
    2684:	0000                	unimp
    2686:	4a1a                	lw	s4,132(sp)
    2688:	0002                	0x2
    268a:	0700                	addi	s0,sp,896
    268c:	0126                	slli	sp,sp,0x9
    268e:	005d                	c.addi	zero,23
    2690:	0000                	unimp
    2692:	1a04                	addi	s1,sp,304
    2694:	041d                	addi	s0,s0,7
    2696:	0000                	unimp
    2698:	86012707          	0x86012707
    269c:	0006                	0x6
    269e:	0800                	addi	s0,sp,16
    26a0:	0500                	addi	s0,sp,640
    26a2:	4b04                	lw	s1,16(a4)
    26a4:	0006                	0x6
    26a6:	0500                	addi	s0,sp,640
    26a8:	3f04                	fld	fs1,56(a4)
    26aa:	0006                	0x6
    26ac:	1c00                	addi	s0,sp,560
    26ae:	0041                	c.addi	zero,16
    26b0:	0000                	unimp
    26b2:	070e                	slli	a4,a4,0x3
    26b4:	06c1013f a21a0000 	0xa21a000006c1013f
    26bc:	0004                	addi	s1,sp,0
    26be:	0700                	addi	s0,sp,896
    26c0:	0140                	addi	s0,sp,132
    26c2:	06c1                	addi	a3,a3,16
    26c4:	0000                	unimp
    26c6:	1a00                	addi	s0,sp,304
    26c8:	05d9                	addi	a1,a1,22
    26ca:	0000                	unimp
    26cc:	c1014107          	0xc1014107
    26d0:	0006                	0x6
    26d2:	0600                	addi	s0,sp,768
    26d4:	fd1a                	fsw	ft6,184(sp)
    26d6:	0005                	c.addi	zero,1
    26d8:	0700                	addi	s0,sp,896
    26da:	0142                	slli	sp,sp,0x10
    26dc:	003a                	0x3a
    26de:	0000                	unimp
    26e0:	000c                	addi	a1,sp,0
    26e2:	00003a07          	0x3a07
    26e6:	d100                	sw	s0,32(a0)
    26e8:	0006                	0x6
    26ea:	0e00                	addi	s0,sp,784
    26ec:	0000006f          	j	26ec <__seq_start+0x26ec>
    26f0:	0002                	0x2
    26f2:	d01d                	beqz	s0,2618 <__seq_start+0x2618>
    26f4:	d2025907          	0xd2025907
    26f8:	1a000007          	0x1a000007
    26fc:	063a                	slli	a2,a2,0xe
    26fe:	0000                	unimp
    2700:	6f025b07          	0x6f025b07
    2704:	0000                	unimp
    2706:	0000                	unimp
    2708:	df1a                	sw	t1,188(sp)
    270a:	0005                	c.addi	zero,1
    270c:	0700                	addi	s0,sp,896
    270e:	025c                	addi	a5,sp,260
    2710:	000005ab          	p.sb	zero,11(zero!) # b <__seq_start+0xb>
    2714:	1a04                	addi	s1,sp,304
    2716:	0290                	addi	a2,sp,320
    2718:	0000                	unimp
    271a:	d2025d07          	0xd2025d07
    271e:	08000007          	0x8000007
    2722:	9c1a                	add	s8,s8,t1
    2724:	0006                	0x6
    2726:	0700                	addi	s0,sp,896
    2728:	025e                	slli	tp,tp,0x17
    272a:	000001d7          	pv.add.h	gp,zero,zero
    272e:	1a24                	addi	s1,sp,312
    2730:	01e1                	addi	gp,gp,24
    2732:	0000                	unimp
    2734:	5d025f07          	0x5d025f07
    2738:	0000                	unimp
    273a:	4800                	lw	s0,16(s0)
    273c:	461a                	lw	a2,132(sp)
    273e:	0004                	addi	s1,sp,0
    2740:	0700                	addi	s0,sp,896
    2742:	0260                	addi	s0,sp,268
    2744:	0056                	0x56
    2746:	0000                	unimp
    2748:	1a50                	addi	a2,sp,308
    274a:	06b2                	slli	a3,a3,0xc
    274c:	0000                	unimp
    274e:	8c026107          	0x8c026107
    2752:	0006                	0x6
    2754:	5800                	lw	s0,48(s0)
    2756:	511a                	lw	sp,164(sp)
    2758:	0004                	addi	s1,sp,0
    275a:	0700                	addi	s0,sp,896
    275c:	0262                	slli	tp,tp,0x18
    275e:	0000014b          	0x14b
    2762:	1a68                	addi	a0,sp,316
    2764:	000006b7          	lui	a3,0x0
    2768:	4b026307          	0x4b026307
    276c:	0001                	nop
    276e:	7000                	flw	fs0,32(s0)
    2770:	f01a                	fsw	ft6,32(sp)
    2772:	0000                	unimp
    2774:	0700                	addi	s0,sp,896
    2776:	0264                	addi	s1,sp,268
    2778:	0000014b          	0x14b
    277c:	1a78                	addi	a4,sp,316
    277e:	0665                	addi	a2,a2,25
    2780:	0000                	unimp
    2782:	e2026507          	0xe2026507
    2786:	80000007          	0x80000007
    278a:	841a                	mv	s0,t1
    278c:	0002                	0x2
    278e:	0700                	addi	s0,sp,896
    2790:	0266                	slli	tp,tp,0x19
    2792:	07f2                	slli	a5,a5,0x1c
    2794:	0000                	unimp
    2796:	1a88                	addi	a0,sp,368
    2798:	060a                	slli	a2,a2,0x2
    279a:	0000                	unimp
    279c:	5d026707          	0x5d026707
    27a0:	0000                	unimp
    27a2:	a000                	fsd	fs0,0(s0)
    27a4:	881a                	mv	a6,t1
    27a6:	0001                	nop
    27a8:	0700                	addi	s0,sp,896
    27aa:	0268                	addi	a0,sp,268
    27ac:	0000014b          	0x14b
    27b0:	1aa4                	addi	s1,sp,376
    27b2:	00e1                	addi	ra,ra,24
    27b4:	0000                	unimp
    27b6:	4b026907          	0x4b026907
    27ba:	0001                	nop
    27bc:	ac00                	fsd	fs0,24(s0)
    27be:	771a                	flw	fa4,164(sp)
    27c0:	0001                	nop
    27c2:	0700                	addi	s0,sp,896
    27c4:	026a                	slli	tp,tp,0x1a
    27c6:	0000014b          	0x14b
    27ca:	1ab4                	addi	a3,sp,376
    27cc:	0082                	slli	ra,ra,0x0
    27ce:	0000                	unimp
    27d0:	4b026b07          	0x4b026b07
    27d4:	0001                	nop
    27d6:	bc00                	fsd	fs0,56(s0)
    27d8:	911a                	add	sp,sp,t1
    27da:	0000                	unimp
    27dc:	0700                	addi	s0,sp,896
    27de:	026c                	addi	a1,sp,268
    27e0:	0000014b          	0x14b
    27e4:	1ac4                	addi	s1,sp,372
    27e6:	03f9                	addi	t2,t2,30
    27e8:	0000                	unimp
    27ea:	5d026d07          	0x5d026d07
    27ee:	0000                	unimp
    27f0:	cc00                	sw	s0,24(s0)
    27f2:	0700                	addi	s0,sp,896
    27f4:	009c                	addi	a5,sp,64
    27f6:	0000                	unimp
    27f8:	07e2                	slli	a5,a5,0x18
    27fa:	0000                	unimp
    27fc:	6f0e                	flw	ft10,192(sp)
    27fe:	0000                	unimp
    2800:	1900                	addi	s0,sp,176
    2802:	0700                	addi	s0,sp,896
    2804:	009c                	addi	a5,sp,64
    2806:	0000                	unimp
    2808:	07f2                	slli	a5,a5,0x1c
    280a:	0000                	unimp
    280c:	6f0e                	flw	ft10,192(sp)
    280e:	0000                	unimp
    2810:	0700                	addi	s0,sp,896
    2812:	0700                	addi	s0,sp,896
    2814:	009c                	addi	a5,sp,64
    2816:	0000                	unimp
    2818:	0802                	slli	a6,a6,0x0
    281a:	0000                	unimp
    281c:	6f0e                	flw	ft10,192(sp)
    281e:	0000                	unimp
    2820:	1700                	addi	s0,sp,928
    2822:	1d00                	addi	s0,sp,688
    2824:	07f0                	addi	a2,sp,972
    2826:	0272                	slli	tp,tp,0x1c
    2828:	0826                	slli	a6,a6,0x9
    282a:	0000                	unimp
    282c:	091a                	slli	s2,s2,0x6
    282e:	07000003          	lb	zero,112(zero) # 70 <__seq_start+0x70>
    2832:	0275                	addi	tp,tp,29
    2834:	0826                	slli	a6,a6,0x9
    2836:	0000                	unimp
    2838:	1a00                	addi	s0,sp,304
    283a:	02f1                	addi	t0,t0,28
    283c:	0000                	unimp
    283e:	36027607          	0x36027607
    2842:	0008                	addi	a0,sp,0
    2844:	7800                	flw	fs0,48(s0)
    2846:	0700                	addi	s0,sp,896
    2848:	0320                	addi	s0,sp,392
    284a:	0000                	unimp
    284c:	0836                	slli	a6,a6,0xd
    284e:	0000                	unimp
    2850:	6f0e                	flw	ft10,192(sp)
    2852:	0000                	unimp
    2854:	1d00                	addi	s0,sp,688
    2856:	0700                	addi	s0,sp,896
    2858:	0000006f          	j	2858 <__seq_start+0x2858>
    285c:	0846                	slli	a6,a6,0x11
    285e:	0000                	unimp
    2860:	6f0e                	flw	ft10,192(sp)
    2862:	0000                	unimp
    2864:	1d00                	addi	s0,sp,688
    2866:	1e00                	addi	s0,sp,816
    2868:	07f0                	addi	a2,sp,972
    286a:	08680257          	pv.sub.h	tp,a6,t1
    286e:	0000                	unimp
    2870:	9b1f 0004 0700      	0x70000049b1f
    2876:	026e                	slli	tp,tp,0x1b
    2878:	06d1                	addi	a3,a3,20
    287a:	0000                	unimp
    287c:	7f1f 0006 0700      	0x70000067f1f
    2882:	08020277          	0x8020277
    2886:	0000                	unimp
    2888:	0700                	addi	s0,sp,896
    288a:	009c                	addi	a5,sp,64
    288c:	0000                	unimp
    288e:	0878                	addi	a4,sp,28
    2890:	0000                	unimp
    2892:	6f0e                	flw	ft10,192(sp)
    2894:	0000                	unimp
    2896:	1800                	addi	s0,sp,48
    2898:	2000                	fld	fs0,0(s0)
    289a:	00000883          	lb	a7,0(zero) # 0 <__seq_start>
    289e:	6e18                	flw	fa4,24(a2)
    28a0:	0004                	addi	s1,sp,0
    28a2:	0000                	unimp
    28a4:	0405                	addi	s0,s0,1
    28a6:	0878                	addi	a4,sp,28
    28a8:	0000                	unimp
    28aa:	0405                	addi	s0,s0,1
    28ac:	01c1                	addi	gp,gp,16
    28ae:	0000                	unimp
    28b0:	9a20                	0x9a20
    28b2:	0008                	addi	a0,sp,0
    28b4:	1800                	addi	s0,sp,48
    28b6:	005d                	c.addi	zero,23
    28b8:	0000                	unimp
    28ba:	0500                	addi	s0,sp,640
    28bc:	a004                	fsd	fs1,0(s0)
    28be:	0008                	addi	a0,sp,0
    28c0:	0500                	addi	s0,sp,640
    28c2:	8f04                	0x8f04
    28c4:	0008                	addi	a0,sp,0
    28c6:	0700                	addi	s0,sp,896
    28c8:	0000063f 000008b6 	0x8b60000063f
    28d0:	6f0e                	flw	ft10,192(sp)
    28d2:	0000                	unimp
    28d4:	0200                	addi	s0,sp,256
    28d6:	2100                	fld	fs0,0(a0)
    28d8:	061e                	slli	a2,a2,0x7
    28da:	0000                	unimp
    28dc:	6e02fe07          	0x6e02fe07
    28e0:	0004                	addi	s1,sp,0
    28e2:	2100                	fld	fs0,0(a0)
    28e4:	00000617          	auipc	a2,0x0
    28e8:	7402ff07          	0x7402ff07
    28ec:	0004                	addi	s1,sp,0
    28ee:	2200                	fld	fs0,0(a2)
    28f0:	0b35                	addi	s6,s6,13
    28f2:	0000                	unimp
    28f4:	5e01                	li	t3,-32
    28f6:	0041                	c.addi	zero,16
    28f8:	0000                	unimp
    28fa:	1660                	addi	s0,sp,812
    28fc:	8000                	0x8000
    28fe:	0094                	addi	a3,sp,64
    2900:	0000                	unimp
    2902:	9c01                	0x9c01
    2904:	0915                	addi	s2,s2,5
    2906:	0000                	unimp
    2908:	72747323          	0x72747323
    290c:	0100                	addi	s0,sp,128
    290e:	d55e                	sw	s7,168(sp)
    2910:	0005                	c.addi	zero,1
    2912:	4400                	lw	s0,8(s0)
    2914:	001e                	0x1e
    2916:	2400                	fld	fs0,8(s0)
    2918:	6572                	flw	fa0,28(sp)
    291a:	5f010073          	0x5f010073
    291e:	0041                	c.addi	zero,16
    2920:	0000                	unimp
    2922:	00001ecf          	0x1ecf
    2926:	c325                	beqz	a4,2986 <__seq_start+0x2986>
    2928:	0001                	nop
    292a:	0100                	addi	s0,sp,128
    292c:	5d60                	lw	s0,124(a0)
    292e:	0000                	unimp
    2930:	1100                	addi	s0,sp,160
    2932:	001f 0000 ba22      	0xba220000001f
    2938:	000a                	0xa
    293a:	0900                	addi	s0,sp,144
    293c:	ab22                	fsd	fs0,400(sp)
    293e:	0005                	c.addi	zero,1
    2940:	4c00                	lw	s0,24(s0)
    2942:	0016                	0x16
    2944:	1480                	addi	s0,sp,608
    2946:	0000                	unimp
    2948:	0100                	addi	s0,sp,128
    294a:	589c                	lw	a5,48(s1)
    294c:	0009                	c.addi	zero,2
    294e:	2600                	fld	fs0,8(a2)
    2950:	0ac6                	slli	s5,s5,0x11
    2952:	0000                	unimp
    2954:	5701                	li	a4,-32
    2956:	000005ab          	p.sb	zero,11(zero!) # b <__seq_start+0xb>
    295a:	5a01                	li	s4,-32
    295c:	63727323          	0x63727323
    2960:	0100                	addi	s0,sp,128
    2962:	0005d557          	pv.add.sc.b	a0,a1,zero
    2966:	4900                	lw	s0,16(a0)
    2968:	001f 2400 0064      	0x642400001f
    296e:	5801                	li	a6,-32
    2970:	000005ab          	p.sb	zero,11(zero!) # b <__seq_start+0xb>
    2974:	1f74                	addi	a3,sp,956
    2976:	0000                	unimp
    2978:	2200                	fld	fs0,0(a2)
    297a:	0b42                	slli	s6,s6,0x10
    297c:	0000                	unimp
    297e:	1a09                	addi	s4,s4,-30
    2980:	005d                	c.addi	zero,23
    2982:	0000                	unimp
    2984:	15cc                	addi	a1,sp,740
    2986:	8000                	0x8000
    2988:	0080                	addi	s0,sp,64
    298a:	0000                	unimp
    298c:	9c01                	0x9c01
    298e:	09fa                	slli	s3,s3,0x1e
    2990:	0000                	unimp
    2992:	00317323          	0x317323
    2996:	3d01                	jal	27a6 <__seq_start+0x27a6>
    2998:	09fa                	slli	s3,s3,0x1e
    299a:	0000                	unimp
    299c:	00001f87          	0x1f87
    29a0:	00327323          	0x327323
    29a4:	3d01                	jal	27b4 <__seq_start+0x27b4>
    29a6:	09fa                	slli	s3,s3,0x1e
    29a8:	0000                	unimp
    29aa:	1fd8                	addi	a4,sp,1012
    29ac:	0000                	unimp
    29ae:	01006e23          	p.sw	a6,t3(zero)
    29b2:	763d                	lui	a2,0xfffef
    29b4:	0000                	unimp
    29b6:	1c00                	addi	s0,sp,560
    29b8:	0020                	addi	s0,sp,8
    29ba:	2700                	fld	fs0,8(a4)
    29bc:	15d8                	addi	a4,sp,740
    29be:	8000                	0x8000
    29c0:	0054                	addi	a3,sp,4
    29c2:	0000                	unimp
    29c4:	000009d3          	0x9d3
    29c8:	7524                	flw	fs1,104(a0)
    29ca:	0031                	c.addi	zero,12
    29cc:	3f01                	jal	28dc <__seq_start+0x28dc>
    29ce:	0a01                	addi	s4,s4,0
    29d0:	0000                	unimp
    29d2:	0000202f          	amoadd.w	zero,zero,(zero)
    29d6:	7524                	flw	fs1,104(a0)
    29d8:	0032                	0x32
    29da:	4001                	0x4001
    29dc:	0a01                	addi	s4,s4,0
    29de:	0000                	unimp
    29e0:	2065                	jal	2a88 <__seq_start+0x2a88>
    29e2:	0000                	unimp
    29e4:	6524                	flw	fs1,72(a0)
    29e6:	646e                	flw	fs0,216(sp)
    29e8:	0100                	addi	s0,sp,128
    29ea:	0141                	addi	sp,sp,16
    29ec:	000a                	0xa
    29ee:	a800                	fsd	fs0,16(s0)
    29f0:	0020                	addi	s0,sp,8
    29f2:	0000                	unimp
    29f4:	3028                	fld	fa0,96(s0)
    29f6:	0016                	0x16
    29f8:	1480                	addi	s0,sp,608
    29fa:	0000                	unimp
    29fc:	2400                	fld	fs0,8(s0)
    29fe:	01003163          	p.bneimm	zero,-16,2a00 <__seq_start+0x2a00>
    2a02:	2c4e                	fld	fs8,208(sp)
    2a04:	0000                	unimp
    2a06:	bb00                	fsd	fs0,48(a4)
    2a08:	0020                	addi	s0,sp,8
    2a0a:	2400                	fld	fs0,8(s0)
    2a0c:	01003263          	p.bneimm	zero,-16,2a10 <__seq_start+0x2a10>
    2a10:	00002c4f          	0x2c4f
    2a14:	da00                	sw	s0,48(a2)
    2a16:	0020                	addi	s0,sp,8
    2a18:	0000                	unimp
    2a1a:	0500                	addi	s0,sp,640
    2a1c:	0004                	addi	s1,sp,0
    2a1e:	000a                	0xa
    2a20:	2900                	fld	fs0,16(a0)
    2a22:	0405                	addi	s0,s0,1
    2a24:	00be                	slli	ra,ra,0xf
    2a26:	0000                	unimp
    2a28:	a022                	fsd	fs0,0(sp)
    2a2a:	000a                	0xa
    2a2c:	0900                	addi	s0,sp,144
    2a2e:	5d20                	lw	s0,120(a0)
    2a30:	0000                	unimp
    2a32:	ac00                	fsd	fs0,24(s0)
    2a34:	0015                	c.addi	zero,5
    2a36:	2080                	fld	fs0,0(s1)
    2a38:	0000                	unimp
    2a3a:	0100                	addi	s0,sp,128
    2a3c:	599c                	lw	a5,48(a1)
    2a3e:	000a                	0xa
    2a40:	2a00                	fld	fs0,16(a2)
    2a42:	01003173          	csrrc	sp,0x10,zero
    2a46:	d532                	sw	a2,168(sp)
    2a48:	0005                	c.addi	zero,1
    2a4a:	0400                	addi	s0,sp,512
    2a4c:	9f5a01f3          	0x9f5a01f3
    2a50:	732a                	flw	ft6,168(sp)
    2a52:	0032                	0x32
    2a54:	3201                	jal	2354 <__seq_start+0x2354>
    2a56:	05d5                	addi	a1,a1,21
    2a58:	0000                	unimp
    2a5a:	f304                	fsw	fs1,32(a4)
    2a5c:	5b01                	li	s6,-32
    2a5e:	249f 3163 0100      	0x1003163249f
    2a64:	00002c33          	sltz	s8,zero
    2a68:	ee00                	fsw	fs0,24(a2)
    2a6a:	0020                	addi	s0,sp,8
    2a6c:	2b00                	fld	fs0,16(a4)
    2a6e:	01003263          	p.bneimm	zero,-16,2a72 <__seq_start+0x2a72>
    2a72:	00002c33          	sltz	s8,zero
    2a76:	0100                	addi	s0,sp,128
    2a78:	005e                	0x5e
    2a7a:	ac22                	fsd	fs0,24(sp)
    2a7c:	000a                	0xa
    2a7e:	0900                	addi	s0,sp,144
    2a80:	7625                	lui	a2,0xfffe9
    2a82:	0000                	unimp
    2a84:	7c00                	flw	fs0,56(s0)
    2a86:	0015                	c.addi	zero,5
    2a88:	3080                	fld	fs0,32(s1)
    2a8a:	0000                	unimp
    2a8c:	0100                	addi	s0,sp,128
    2a8e:	8d9c                	0x8d9c
    2a90:	000a                	0xa
    2a92:	2300                	fld	fs0,0(a4)
    2a94:	2b010073          	0x2b010073
    2a98:	05d5                	addi	a1,a1,21
    2a9a:	0000                	unimp
    2a9c:	210e                	fld	ft2,192(sp)
    2a9e:	0000                	unimp
    2aa0:	7024                	flw	fs1,96(s0)
    2aa2:	0100                	addi	s0,sp,128
    2aa4:	d52c                	sw	a1,104(a0)
    2aa6:	0005                	c.addi	zero,1
    2aa8:	4800                	lw	s0,16(s0)
    2aaa:	0021                	c.addi	zero,8
    2aac:	0000                	unimp
    2aae:	4922                	lw	s2,8(sp)
    2ab0:	0900000b          	p.lb	zero,144(zero!) # 90 <__seq_start+0x90>
    2ab4:	611d                	addi	sp,sp,416
    2ab6:	0001                	nop
    2ab8:	5c00                	lw	s0,56(s0)
    2aba:	0014                	addi	a3,sp,0
    2abc:	2080                	fld	fs0,0(s1)
    2abe:	0001                	nop
    2ac0:	0100                	addi	s0,sp,128
    2ac2:	0f9c                	addi	a5,sp,976
    2ac4:	2600000b          	p.lb	zero,608(zero!) # 260 <__seq_start+0x260>
    2ac8:	0ac6                	slli	s5,s5,0x11
    2aca:	0000                	unimp
    2acc:	1901                	addi	s2,s2,-32
    2ace:	0161                	addi	sp,sp,24
    2ad0:	0000                	unimp
    2ad2:	5a01                	li	s4,-32
    2ad4:	a72c                	fsd	fa1,72(a4)
    2ad6:	000a                	0xa
    2ad8:	0100                	addi	s0,sp,128
    2ada:	5d19                	li	s10,-26
    2adc:	0000                	unimp
    2ade:	5b00                	lw	s0,48(a4)
    2ae0:	0021                	c.addi	zero,8
    2ae2:	2300                	fld	fs0,0(a4)
    2ae4:	656c                	flw	fa1,76(a0)
    2ae6:	006e                	0x6e
    2ae8:	1901                	addi	s2,s2,-32
    2aea:	0076                	0x76
    2aec:	0000                	unimp
    2aee:	21ae                	fld	ft3,200(sp)
    2af0:	0000                	unimp
    2af2:	00153c27          	0x153c27
    2af6:	2c80                	fld	fs0,24(s1)
    2af8:	0000                	unimp
    2afa:	fb00                	fsw	fs0,48(a4)
    2afc:	000a                	0xa
    2afe:	2500                	fld	fs0,8(a0)
    2b00:	0ac1                	addi	s5,s5,16
    2b02:	0000                	unimp
    2b04:	1b01                	addi	s6,s6,-32
    2b06:	000000b3          	add	ra,zero,zero
    2b0a:	2202                	fld	ft4,0(sp)
    2b0c:	0000                	unimp
    2b0e:	6424                	flw	fs1,72(s0)
    2b10:	0100                	addi	s0,sp,128
    2b12:	0f20                	addi	s0,sp,920
    2b14:	2b00000b          	p.lb	zero,688(zero!) # 2b0 <__seq_start+0x2b0>
    2b18:	0022                	0x22
    2b1a:	0000                	unimp
    2b1c:	a02d                	j	2b46 <__seq_start+0x2b46>
    2b1e:	0002                	0x2
    2b20:	2400                	fld	fs0,8(s0)
    2b22:	0064                	addi	s1,sp,12
    2b24:	2401                	jal	2d24 <__seq_start+0x2d24>
    2b26:	000005ab          	p.sb	zero,11(zero!) # b <__seq_start+0xb>
    2b2a:	2249                	jal	2cac <__seq_start+0x2cac>
    2b2c:	0000                	unimp
    2b2e:	0000                	unimp
    2b30:	0405                	addi	s0,s0,1
    2b32:	000000b3          	add	ra,zero,zero
    2b36:	b32e                	fsd	fa1,416(sp)
    2b38:	000a                	0xa
    2b3a:	0900                	addi	s0,sp,144
    2b3c:	0001611b          	0x1611b
    2b40:	f000                	fsw	fs0,32(s0)
    2b42:	0012                	0x12
    2b44:	6c80                	flw	fs0,24(s1)
    2b46:	0001                	nop
    2b48:	0100                	addi	s0,sp,128
    2b4a:	269c                	fld	fa5,8(a3)
    2b4c:	0ac6                	slli	s5,s5,0x11
    2b4e:	0000                	unimp
    2b50:	0901                	addi	s2,s2,0
    2b52:	0161                	addi	sp,sp,24
    2b54:	0000                	unimp
    2b56:	5a01                	li	s4,-32
    2b58:	63727323          	0x63727323
    2b5c:	0100                	addi	s0,sp,128
    2b5e:	fa09                	bnez	a2,2a70 <__seq_start+0x2a70>
    2b60:	0009                	c.addi	zero,2
    2b62:	3200                	fld	fs0,32(a2)
    2b64:	23000023          	sb	a6,544(zero) # 220 <__seq_start+0x220>
    2b68:	656c                	flw	fa1,76(a0)
    2b6a:	006e                	0x6e
    2b6c:	0901                	addi	s2,s2,0
    2b6e:	0076                	0x76
    2b70:	0000                	unimp
    2b72:	2390                	fld	fa2,0(a5)
    2b74:	0000                	unimp
    2b76:	00142427          	0x142427
    2b7a:	1880                	addi	s0,sp,112
    2b7c:	0000                	unimp
    2b7e:	7d00                	flw	fs0,56(a0)
    2b80:	2400000b          	p.lb	zero,576(zero!) # 240 <__seq_start+0x240>
    2b84:	0c010073          	0xc010073
    2b88:	0a01                	addi	s4,s4,0
    2b8a:	0000                	unimp
    2b8c:	000023ef          	jal	t2,4b8c <__seq_start+0x4b8c>
    2b90:	6424                	flw	fs1,72(s0)
    2b92:	0100                	addi	s0,sp,128
    2b94:	0f0d                	addi	t5,t5,3
    2b96:	1a00000b          	p.lb	zero,416(zero!) # 1a0 <__seq_start+0x1a0>
    2b9a:	0024                	addi	s1,sp,8
    2b9c:	0000                	unimp
    2b9e:	802d                	srli	s0,s0,0xb
    2ba0:	0002                	0x2
    2ba2:	2400                	fld	fs0,8(s0)
    2ba4:	11010073          	0x11010073
    2ba8:	05d5                	addi	a1,a1,21
    2baa:	0000                	unimp
    2bac:	242d                	jal	2dd6 <__seq_start+0x2dd6>
    2bae:	0000                	unimp
    2bb0:	6424                	flw	fs1,72(s0)
    2bb2:	0100                	addi	s0,sp,128
    2bb4:	ab12                	fsd	ft4,400(sp)
    2bb6:	0005                	c.addi	zero,1
    2bb8:	0c00                	addi	s0,sp,528
    2bba:	0025                	c.addi	zero,9
    2bbc:	0000                	unimp
    2bbe:	0000                	unimp
    2bc0:	000002af          	0x2af
    2bc4:	0004                	addi	s1,sp,0
    2bc6:	00000ad7          	pv.add.h	s5,zero,zero
    2bca:	0104                	addi	s1,sp,128
    2bcc:	04ed                	addi	s1,s1,27
    2bce:	0000                	unimp
    2bd0:	500c                	lw	a1,32(s0)
    2bd2:	1000000b          	p.lb	zero,256(zero!) # 100 <__seq_start+0x100>
    2bd6:	f4000003          	lb	zero,-192(zero) # ffffff40 <pulp__FC+0xffffff41>
    2bda:	0016                	0x16
    2bdc:	b080                	fsd	fs0,32(s1)
    2bde:	0000                	unimp
    2be0:	b700                	fsd	fs0,40(a4)
    2be2:	001a                	0x1a
    2be4:	0200                	addi	s0,sp,256
    2be6:	0601                	addi	a2,a2,0
    2be8:	03e8                	addi	a0,sp,460
    2bea:	0000                	unimp
    2bec:	0102                	slli	sp,sp,0x0
    2bee:	e608                	fsw	fa0,8(a2)
    2bf0:	02000003          	lb	zero,32(zero) # 20 <__seq_start+0x20>
    2bf4:	0502                	slli	a0,a0,0x0
    2bf6:	0402                	slli	s0,s0,0x0
    2bf8:	0000                	unimp
    2bfa:	0202                	slli	tp,tp,0x0
    2bfc:	00026807          	0x26807
    2c00:	0200                	addi	s0,sp,256
    2c02:	0504                	addi	s1,sp,640
    2c04:	010c                	addi	a1,sp,128
    2c06:	0000                	unimp
    2c08:	0001b703          	0x1b703
    2c0c:	0300                	addi	s0,sp,384
    2c0e:	0000534f          	0x534f
    2c12:	0200                	addi	s0,sp,256
    2c14:	0704                	addi	s1,sp,896
    2c16:	000000a7          	0xa7
    2c1a:	0802                	slli	a6,a6,0x0
    2c1c:	0705                	addi	a4,a4,1
    2c1e:	0001                	nop
    2c20:	0200                	addi	s0,sp,256
    2c22:	0708                	addi	a0,sp,896
    2c24:	00a2                	slli	ra,ra,0x8
    2c26:	0000                	unimp
    2c28:	0404                	addi	s1,sp,512
    2c2a:	6905                	lui	s2,0x1
    2c2c:	746e                	flw	fs0,248(sp)
    2c2e:	0200                	addi	s0,sp,256
    2c30:	0704                	addi	s1,sp,896
    2c32:	00ac                	addi	a1,sp,72
    2c34:	0000                	unimp
    2c36:	0001b903          	0x1b903
    2c3a:	0400                	addi	s0,sp,512
    2c3c:	4830                	lw	a2,80(s0)
    2c3e:	0000                	unimp
    2c40:	0500                	addi	s0,sp,640
    2c42:	0076                	0x76
    2c44:	0000                	unimp
    2c46:	6e06                	flw	ft8,64(sp)
    2c48:	0000                	unimp
    2c4a:	0200                	addi	s0,sp,256
    2c4c:	9110                	0x9110
    2c4e:	0000                	unimp
    2c50:	0200                	addi	s0,sp,256
    2c52:	0801                	addi	a6,a6,0
    2c54:	000003ef          	jal	t2,2c54 <__seq_start+0x2c54>
    2c58:	fa06                	fsw	ft1,52(sp)
    2c5a:	0002                	0x2
    2c5c:	0200                	addi	s0,sp,256
    2c5e:	7611                	lui	a2,0xfffe4
    2c60:	0000                	unimp
    2c62:	0600                	addi	s0,sp,768
    2c64:	02c0                	addi	s0,sp,324
    2c66:	0000                	unimp
    2c68:	1202                	slli	tp,tp,0x20
    2c6a:	0081                	addi	ra,ra,0
    2c6c:	0000                	unimp
    2c6e:	db06                	sw	ra,180(sp)
    2c70:	0004                	addi	s1,sp,0
    2c72:	0200                	addi	s0,sp,256
    2c74:	00008113          	mv	sp,ra
    2c78:	0600                	addi	s0,sp,768
    2c7a:	02dd                	addi	t0,t0,23
    2c7c:	0000                	unimp
    2c7e:	1502                	slli	a0,a0,0x20
    2c80:	0081                	addi	ra,ra,0
    2c82:	0000                	unimp
    2c84:	cd06                	sw	ra,152(sp)
    2c86:	0000                	unimp
    2c88:	0200                	addi	s0,sp,256
    2c8a:	8116                	mv	sp,t0
    2c8c:	0000                	unimp
    2c8e:	0600                	addi	s0,sp,768
    2c90:	04b6                	slli	s1,s1,0xd
    2c92:	0000                	unimp
    2c94:	1702                	slli	a4,a4,0x20
    2c96:	0081                	addi	ra,ra,0
    2c98:	0000                	unimp
    2c9a:	3606                	fld	fa2,96(sp)
    2c9c:	0002                	0x2
    2c9e:	0200                	addi	s0,sp,256
    2ca0:	8118                	0x8118
    2ca2:	0000                	unimp
    2ca4:	0600                	addi	s0,sp,768
    2ca6:	0019                	c.addi	zero,6
    2ca8:	0000                	unimp
    2caa:	1902                	slli	s2,s2,0x20
    2cac:	0081                	addi	ra,ra,0
    2cae:	0000                	unimp
    2cb0:	d206                	sw	ra,36(sp)
    2cb2:	02000003          	lb	zero,32(zero) # 20 <__seq_start+0x20>
    2cb6:	811a                	mv	sp,t1
    2cb8:	0000                	unimp
    2cba:	0600                	addi	s0,sp,768
    2cbc:	0196                	slli	gp,gp,0x5
    2cbe:	0000                	unimp
    2cc0:	1b02                	slli	s6,s6,0x20
    2cc2:	0081                	addi	ra,ra,0
    2cc4:	0000                	unimp
    2cc6:	1c06                	slli	s8,s8,0x21
    2cc8:	0002                	0x2
    2cca:	0200                	addi	s0,sp,256
    2ccc:	811c                	0x811c
    2cce:	0000                	unimp
    2cd0:	0700                	addi	s0,sp,896
    2cd2:	0301                	addi	t1,t1,0
    2cd4:	0000                	unimp
    2cd6:	0d01                	addi	s10,s10,0
    2cd8:	0081                	addi	ra,ra,0
    2cda:	0000                	unimp
    2cdc:	0305                	addi	t1,t1,1
    2cde:	0400                	addi	s0,sp,512
    2ce0:	0002                	0x2
    2ce2:	8108                	0x8108
    2ce4:	0000                	unimp
    2ce6:	3300                	fld	fs0,32(a4)
    2ce8:	0001                	nop
    2cea:	0900                	addi	s0,sp,144
    2cec:	0000006f          	j	2cec <__seq_start+0x2cec>
    2cf0:	03ff                	0x3ff
    2cf2:	0500                	addi	s0,sp,640
    2cf4:	0122                	slli	sp,sp,0x8
    2cf6:	0000                	unimp
    2cf8:	d30a                	sw	sp,164(sp)
    2cfa:	0100000b          	p.lb	zero,16(zero!) # 10 <__seq_start+0x10>
    2cfe:	330e                	fld	ft6,224(sp)
    2d00:	0001                	nop
    2d02:	0000                	unimp
    2d04:	0504                	addi	s1,sp,640
    2d06:	02180003          	lb	zero,33(a6) # 21 <__seq_start+0x21>
    2d0a:	0a00                	addi	s0,sp,272
    2d0c:	00000bc3          	0xbc3
    2d10:	1001                	c.addi	zero,-32
    2d12:	00000133          	add	sp,zero,zero
    2d16:	0400                	addi	s0,sp,512
    2d18:	0305                	addi	t1,t1,1
    2d1a:	0800                	addi	s0,sp,16
    2d1c:	0002                	0x2
    2d1e:	00062a0b          	p.lw	s4,0(a2!) # fffe4000 <pulp__FC+0xfffe4001>
    2d22:	0100                	addi	s0,sp,128
    2d24:	0124                	addi	s1,sp,136
    2d26:	0176                	slli	sp,sp,0x1d
    2d28:	0000                	unimp
    2d2a:	870c                	0x870c
    2d2c:	0006                	0x6
    2d2e:	0100                	addi	s0,sp,128
    2d30:	7624                	flw	fs1,104(a2)
    2d32:	0000                	unimp
    2d34:	0000                	unimp
    2d36:	9b0d                	andi	a4,a4,-29
    2d38:	01000003          	lb	zero,16(zero) # 10 <__seq_start+0x10>
    2d3c:	0016f413          	andi	s0,a3,1
    2d40:	7480                	flw	fs0,40(s1)
    2d42:	0000                	unimp
    2d44:	0100                	addi	s0,sp,128
    2d46:	399c                	fld	fa5,48(a1)
    2d48:	0002                	0x2
    2d4a:	0e00                	addi	s0,sp,784
    2d4c:	0039                	c.addi	zero,14
    2d4e:	0000                	unimp
    2d50:	1301                	addi	t1,t1,-32
    2d52:	0076                	0x76
    2d54:	0000                	unimp
    2d56:	5a01                	li	s4,-32
    2d58:	0002590f          	0x2590f
    2d5c:	f800                	fsw	fs0,48(s0)
    2d5e:	0016                	0x16
    2d60:	0480                	addi	s0,sp,576
    2d62:	0000                	unimp
    2d64:	0100                	addi	s0,sp,128
    2d66:	101a                	0x101a
    2d68:	015e                	slli	sp,sp,0x17
    2d6a:	0000                	unimp
    2d6c:	16fc                	addi	a5,sp,876
    2d6e:	8000                	0x8000
    2d70:	02b8                	addi	a4,sp,328
    2d72:	0000                	unimp
    2d74:	2101                	jal	3174 <__seq_start+0x3174>
    2d76:	01fc                	addi	a5,sp,204
    2d78:	0000                	unimp
    2d7a:	6a11                	lui	s4,0x4
    2d7c:	0001                	nop
    2d7e:	f500                	fsw	fs0,40(a0)
    2d80:	0025                	c.addi	zero,9
    2d82:	1200                	addi	s0,sp,288
    2d84:	0259                	addi	tp,tp,22
    2d86:	0000                	unimp
    2d88:	1714                	addi	a3,sp,928
    2d8a:	8000                	0x8000
    2d8c:	02d0                	addi	a2,sp,324
    2d8e:	0000                	unimp
    2d90:	2d01                	jal	33a0 <__seq_start+0x33a0>
    2d92:	00023913          	sltiu	s2,tp,0
    2d96:	5000                	lw	s0,32(s0)
    2d98:	e8800017          	auipc	zero,0xe8800
    2d9c:	0002                	0x2
    2d9e:	0100                	addi	s0,sp,128
    2da0:	1329                	addi	t1,t1,-22
    2da2:	0241                	addi	tp,tp,16
    2da4:	0000                	unimp
    2da6:	1750                	addi	a2,sp,932
    2da8:	8000                	0x8000
    2daa:	02e8                	addi	a0,sp,332
    2dac:	0000                	unimp
    2dae:	8302                	jr	t1
    2db0:	4d11                	li	s10,4
    2db2:	0002                	0x2
    2db4:	1900                	addi	s0,sp,176
    2db6:	0026                	0x26
    2db8:	0000                	unimp
    2dba:	0000                	unimp
    2dbc:	3914                	fld	fa3,48(a0)
    2dbe:	0002                	0x2
    2dc0:	2400                	fld	fs0,8(s0)
    2dc2:	0c800017          	auipc	zero,0xc800
    2dc6:	0000                	unimp
    2dc8:	0100                	addi	s0,sp,128
    2dca:	00022917          	auipc	s2,0x22
    2dce:	1500                	addi	s0,sp,672
    2dd0:	0241                	addi	tp,tp,16
    2dd2:	0000                	unimp
    2dd4:	1724                	addi	s1,sp,936
    2dd6:	8000                	0x8000
    2dd8:	000c                	addi	a1,sp,0
    2dda:	0000                	unimp
    2ddc:	8302                	jr	t1
    2dde:	4d11                	li	s10,4
    2de0:	0002                	0x2
    2de2:	2e00                	fld	fs0,24(a2)
    2de4:	0026                	0x26
    2de6:	0000                	unimp
    2de8:	0f00                	addi	s0,sp,912
    2dea:	0259                	addi	tp,tp,22
    2dec:	0000                	unimp
    2dee:	1730                	addi	a2,sp,936
    2df0:	8000                	0x8000
    2df2:	0004                	addi	s1,sp,0
    2df4:	0000                	unimp
    2df6:	1801                	addi	a6,a6,-32
    2df8:	1600                	addi	s0,sp,800
    2dfa:	00000be7          	jalr	s7,zero
    2dfe:	8302                	jr	t1
    2e00:	0bdf1703          	lh	a4,189(t5)
    2e04:	0000                	unimp
    2e06:	8202                	jr	tp
    2e08:	00025903          	lhu	s2,0(tp) # 0 <__seq_start>
    2e0c:	0c00                	addi	s0,sp,528
    2e0e:	0039                	c.addi	zero,14
    2e10:	0000                	unimp
    2e12:	8202                	jr	tp
    2e14:	0076                	0x76
    2e16:	0000                	unimp
    2e18:	1600                	addi	s0,sp,800
    2e1a:	00000bf3          	0xbf3
    2e1e:	7e02                	flw	ft8,32(sp)
    2e20:	015e1803          	lh	a6,21(t3) # 1a015 <__seq_start+0x1a015>
    2e24:	0000                	unimp
    2e26:	1768                	addi	a0,sp,940
    2e28:	8000                	0x8000
    2e2a:	003c                	addi	a5,sp,8
    2e2c:	0000                	unimp
    2e2e:	9c01                	0x9c01
    2e30:	6a11                	lui	s4,0x4
    2e32:	0001                	nop
    2e34:	4300                	lw	s0,0(a4)
    2e36:	0026                	0x26
    2e38:	1200                	addi	s0,sp,288
    2e3a:	0259                	addi	tp,tp,22
    2e3c:	0000                	unimp
    2e3e:	1780                	addi	s0,sp,992
    2e40:	8000                	0x8000
    2e42:	0300                	addi	s0,sp,384
    2e44:	0000                	unimp
    2e46:	2d01                	jal	3456 <__seq_start+0x3456>
    2e48:	00023913          	sltiu	s2,tp,0
    2e4c:	8c00                	0x8c00
    2e4e:	18800017          	auipc	zero,0x18800
    2e52:	01000003          	lb	zero,16(zero) # 10 <__seq_start+0x10>
    2e56:	1329                	addi	t1,t1,-22
    2e58:	0241                	addi	tp,tp,16
    2e5a:	0000                	unimp
    2e5c:	178c                	addi	a1,sp,992
    2e5e:	8000                	0x8000
    2e60:	0318                	addi	a4,sp,384
    2e62:	0000                	unimp
    2e64:	8302                	jr	t1
    2e66:	4d11                	li	s10,4
    2e68:	0002                	0x2
    2e6a:	6300                	flw	fs0,0(a4)
    2e6c:	0026                	0x26
    2e6e:	0000                	unimp
    2e70:	0000                	unimp
	...

Disassembly of section .debug_abbrev:

00000000 <.debug_abbrev>:
   0:	1101                	addi	sp,sp,-32
   2:	2501                	jal	602 <__seq_start+0x602>
   4:	130e                	slli	t1,t1,0x23
   6:	1b0e030b          	p.lb	t1,432(t3!)
   a:	550e                	lw	a0,224(sp)
   c:	10011117          	auipc	sp,0x10011
  10:	02000017          	auipc	zero,0x2000
  14:	0024                	addi	s1,sp,8
  16:	0b3e0b0b          	p.lb	s6,179(t3!)
  1a:	00000e03          	lb	t3,0(zero) # 0 <__seq_start>
  1e:	03001603          	lh	a2,48(zero) # 30 <__seq_start+0x30>
  22:	3a0e                	fld	fs4,224(sp)
  24:	490b3b0b          	0x490b3b0b
  28:	04000013          	li	zero,64
  2c:	0024                	addi	s1,sp,8
  2e:	0b3e0b0b          	p.lb	s6,179(t3!)
  32:	00000803          	lb	a6,0(zero) # 0 <__seq_start>
  36:	3505                	jal	fffffe56 <pulp__FC+0xfffffe57>
  38:	4900                	lw	s0,16(a0)
  3a:	06000013          	li	zero,96
  3e:	0016                	0x16
  40:	0b3a0e03          	lb	t3,179(s4) # 40b3 <__seq_start+0x40b3>
  44:	1349053b          	0x1349053b
  48:	0000                	unimp
  4a:	0b011707          	0xb011707
  4e:	3b0b3a0b          	0x3b0b3a0b
  52:	0013010b          	p.lb	sp,1(t1!) # fffe0001 <pulp__FC+0xfffe0002>
  56:	0800                	addi	s0,sp,16
  58:	000d                	c.addi	zero,3
  5a:	0b3a0e03          	lb	t3,179(s4)
  5e:	13490b3b          	0x13490b3b
  62:	0000                	unimp
  64:	0109                	addi	sp,sp,2
  66:	4901                	li	s2,0
  68:	00130113          	addi	sp,t1,1
  6c:	0a00                	addi	s0,sp,272
  6e:	0021                	c.addi	zero,8
  70:	1349                	addi	t1,t1,-14
  72:	00000b2f          	0xb2f
  76:	0b01130b          	p.lh	t1,176(sp!) # 100110bc <__heap_end+0xff110bc>
  7a:	3b0b3a0b          	0x3b0b3a0b
  7e:	0013010b          	p.lb	sp,1(t1!)
  82:	0c00                	addi	s0,sp,528
  84:	000d                	c.addi	zero,3
  86:	0b3a0e03          	lb	t3,179(s4)
  8a:	13490b3b          	0x13490b3b
  8e:	0b38                	addi	a4,sp,408
  90:	0000                	unimp
  92:	0f0d                	addi	t5,t5,3
  94:	0b00                	addi	s0,sp,400
  96:	0e00000b          	p.lb	zero,224(zero!) # e0 <__seq_start+0xe0>
  9a:	0b0b000f          	0xb0b000f
  9e:	1349                	addi	t1,t1,-14
  a0:	0000                	unimp
  a2:	4900260f          	0x4900260f
  a6:	10000013          	li	zero,256
  aa:	0e030113          	addi	sp,t1,224
  ae:	0b3a0b0b          	p.lb	s6,179(s4!)
  b2:	13010b3b          	0x13010b3b
  b6:	0000                	unimp
  b8:	0d11                	addi	s10,s10,4
  ba:	0300                	addi	s0,sp,384
  bc:	3a08                	fld	fa0,48(a2)
  be:	490b3b0b          	0x490b3b0b
  c2:	000b3813          	sltiu	a6,s6,0
  c6:	1200                	addi	s0,sp,288
  c8:	0e030113          	addi	sp,t1,224
  cc:	0b3a050b          	p.lb	a0,179(s4!)
  d0:	13010b3b          	0x13010b3b
  d4:	0000                	unimp
  d6:	03000d13          	li	s10,48
  da:	3a0e                	fld	fs4,224(sp)
  dc:	490b3b0b          	0x490b3b0b
  e0:	00053813          	sltiu	a6,a0,0
  e4:	1400                	addi	s0,sp,544
  e6:	0015                	c.addi	zero,5
  e8:	00001927          	0x1927
  ec:	1515                	addi	a0,a0,-27
  ee:	2701                	jal	7ee <__seq_start+0x7ee>
  f0:	4919                	li	s2,6
  f2:	00130113          	addi	sp,t1,1
  f6:	1600                	addi	s0,sp,800
  f8:	0005                	c.addi	zero,1
  fa:	1349                	addi	t1,t1,-14
  fc:	0000                	unimp
  fe:	03011317          	auipc	t1,0x3011
 102:	0b0e                	slli	s6,s6,0x3
 104:	3a05                	jal	fffffa34 <pulp__FC+0xfffffa35>
 106:	01053b0b          	0x1053b0b
 10a:	18000013          	li	zero,384
 10e:	000d                	c.addi	zero,3
 110:	0b3a0e03          	lb	t3,179(s4)
 114:	1349053b          	0x1349053b
 118:	0b38                	addi	a4,sp,408
 11a:	0000                	unimp
 11c:	0d19                	addi	s10,s10,6
 11e:	0300                	addi	s0,sp,384
 120:	3a0e                	fld	fs4,224(sp)
 122:	49053b0b          	0x49053b0b
 126:	00053813          	sltiu	a6,a0,0
 12a:	1a00                	addi	s0,sp,304
 12c:	0e030113          	addi	sp,t1,224 # 30111de <__heap_end+0x2f111de>
 130:	0b3a0b0b          	p.lb	s6,179(s4!)
 134:	1301053b          	0x1301053b
 138:	0000                	unimp
 13a:	0b01131b          	0xb01131b
 13e:	3b0b3a0b          	0x3b0b3a0b
 142:	0105                	addi	sp,sp,1
 144:	1c000013          	li	zero,448
 148:	0b0b0117          	auipc	sp,0xb0b0
 14c:	0b3a                	slli	s6,s6,0xe
 14e:	1301053b          	0x1301053b
 152:	0000                	unimp
 154:	0d1d                	addi	s10,s10,7
 156:	0300                	addi	s0,sp,384
 158:	3a0e                	fld	fs4,224(sp)
 15a:	49053b0b          	0x49053b0b
 15e:	1e000013          	li	zero,480
 162:	0e030013          	addi	zero,t1,224
 166:	193c                	addi	a5,sp,184
 168:	0000                	unimp
 16a:	151f 2701 0119      	0x1192701151f
 170:	20000013          	li	zero,512
 174:	0034                	addi	a3,sp,8
 176:	0b3a0e03          	lb	t3,179(s4)
 17a:	1349053b          	0x1349053b
 17e:	193c193f 34210000 	0x34210000193c193f
 186:	0300                	addi	s0,sp,384
 188:	3a0e                	fld	fs4,224(sp)
 18a:	490b3b0b          	0x490b3b0b
 18e:	3c193f13          	sltiu	t5,s2,961
 192:	0019                	c.addi	zero,6
 194:	2200                	fld	fs0,0(a2)
 196:	0034                	addi	a3,sp,8
 198:	0b3a0e03          	lb	t3,179(s4)
 19c:	13490b3b          	0x13490b3b
 1a0:	1802193f 2e230000 	0x2e2300001802193f
 1a8:	3f01                	jal	b8 <__seq_start+0xb8>
 1aa:	0319                	addi	t1,t1,6
 1ac:	3a0e                	fld	fs4,224(sp)
 1ae:	490b3b0b          	0x490b3b0b
 1b2:	12011113          	0x12011113
 1b6:	4006                	0x4006
 1b8:	9718                	0x9718
 1ba:	1942                	slli	s2,s2,0x30
 1bc:	1301                	addi	t1,t1,-32
 1be:	0000                	unimp
 1c0:	3424                	fld	fs1,104(s0)
 1c2:	0300                	addi	s0,sp,384
 1c4:	3a0e                	fld	fs4,224(sp)
 1c6:	490b3b0b          	0x490b3b0b
 1ca:	25000013          	li	zero,592
 1ce:	0034                	addi	a3,sp,8
 1d0:	0b3a0e03          	lb	t3,179(s4)
 1d4:	13490b3b          	0x13490b3b
 1d8:	0b1c                	addi	a5,sp,400
 1da:	0000                	unimp
 1dc:	3426                	fld	fs0,104(sp)
 1de:	0300                	addi	s0,sp,384
 1e0:	3a08                	fld	fa0,48(a2)
 1e2:	490b3b0b          	0x490b3b0b
 1e6:	000b1c13          	slli	s8,s6,0x0
 1ea:	2700                	fld	fs0,8(a4)
 1ec:	011d                	addi	sp,sp,7
 1ee:	1331                	addi	t1,t1,-20
 1f0:	0111                	addi	sp,sp,4
 1f2:	0612                	slli	a2,a2,0x4
 1f4:	0b58                	addi	a4,sp,404
 1f6:	0b59                	addi	s6,s6,22
 1f8:	1301                	addi	t1,t1,-32
 1fa:	0000                	unimp
 1fc:	0b28                	addi	a0,sp,408
 1fe:	1101                	addi	sp,sp,-32
 200:	1201                	addi	tp,tp,-32
 202:	0006                	0x6
 204:	2900                	fld	fs0,16(a0)
 206:	0034                	addi	a3,sp,8
 208:	1331                	addi	t1,t1,-20
 20a:	0000                	unimp
 20c:	892a                	mv	s2,a0
 20e:	0182                	slli	gp,gp,0x0
 210:	1101                	addi	sp,sp,-32
 212:	3101                	jal	fffffe12 <pulp__FC+0xfffffe13>
 214:	00130113          	addi	sp,t1,1
 218:	2b00                	fld	fs0,16(a4)
 21a:	828a                	mv	t0,sp
 21c:	0001                	nop
 21e:	1802                	slli	a6,a6,0x20
 220:	4291                	li	t0,4
 222:	0018                	addi	a4,sp,0
 224:	2c00                	fld	fs0,24(s0)
 226:	8289                	srli	a3,a3,0x2
 228:	0101                	addi	sp,sp,0
 22a:	0111                	addi	sp,sp,4
 22c:	1331                	addi	t1,t1,-20
 22e:	0000                	unimp
 230:	2e2d                	jal	56a <__seq_start+0x56a>
 232:	0301                	addi	t1,t1,0
 234:	3a0e                	fld	fs4,224(sp)
 236:	490b3b0b          	0x490b3b0b
 23a:	010b2013          	slti	zero,s6,16
 23e:	2e000013          	li	zero,736
 242:	0034                	addi	a3,sp,8
 244:	0b3a0803          	lb	a6,179(s4)
 248:	13490b3b          	0x13490b3b
 24c:	0000                	unimp
 24e:	03002e2f          	amoadd.w.rl	t3,a6,(zero)
 252:	3a0e                	fld	fs4,224(sp)
 254:	490b3b0b          	0x490b3b0b
 258:	000b2013          	slti	zero,s6,0
 25c:	3000                	fld	fs0,32(s0)
 25e:	002e                	0x2e
 260:	193c193f 0e030e6e 	0xe030e6e193c193f
 268:	0b3a                	slli	s6,s6,0xe
 26a:	00000b3b          	0xb3b
 26e:	0100                	addi	s0,sp,128
 270:	0111                	addi	sp,sp,4
 272:	0e25                	addi	t3,t3,9
 274:	0e030b13          	addi	s6,t1,224
 278:	01110e1b          	0x1110e1b
 27c:	0612                	slli	a2,a2,0x4
 27e:	1710                	addi	a2,sp,928
 280:	0000                	unimp
 282:	2402                	fld	fs0,0(sp)
 284:	0b00                	addi	s0,sp,400
 286:	030b3e0b          	0x30b3e0b
 28a:	0008                	addi	a0,sp,0
 28c:	0300                	addi	s0,sp,384
 28e:	0024                	addi	s1,sp,8
 290:	0b3e0b0b          	p.lb	s6,179(t3!)
 294:	00000e03          	lb	t3,0(zero) # 0 <__seq_start>
 298:	1604                	addi	s1,sp,800
 29a:	0300                	addi	s0,sp,384
 29c:	3a0e                	fld	fs4,224(sp)
 29e:	490b3b0b          	0x490b3b0b
 2a2:	05000013          	li	zero,80
 2a6:	0026                	0x26
 2a8:	1349                	addi	t1,t1,-14
 2aa:	0000                	unimp
 2ac:	1306                	slli	t1,t1,0x21
 2ae:	0301                	addi	t1,t1,0
 2b0:	0b0e                	slli	s6,s6,0x3
 2b2:	3b0b3a0b          	0x3b0b3a0b
 2b6:	0013010b          	p.lb	sp,1(t1!)
 2ba:	0700                	addi	s0,sp,896
 2bc:	000d                	c.addi	zero,3
 2be:	0b3a0e03          	lb	t3,179(s4)
 2c2:	13490b3b          	0x13490b3b
 2c6:	0b38                	addi	a4,sp,408
 2c8:	0000                	unimp
 2ca:	0f08                	addi	a0,sp,912
 2cc:	0b00                	addi	s0,sp,400
 2ce:	0013490b          	p.lbu	s2,1(t1!)
 2d2:	0900                	addi	s0,sp,144
 2d4:	0b0b0113          	addi	sp,s6,176
 2d8:	0b3a                	slli	s6,s6,0xe
 2da:	13010b3b          	0x13010b3b
 2de:	0000                	unimp
 2e0:	340a                	fld	fs0,160(sp)
 2e2:	0300                	addi	s0,sp,384
 2e4:	3a0e                	fld	fs4,224(sp)
 2e6:	490b3b0b          	0x490b3b0b
 2ea:	02193f13          	sltiu	t5,s2,33
 2ee:	0018                	addi	a4,sp,0
 2f0:	0b00                	addi	s0,sp,400
 2f2:	0101                	addi	sp,sp,0
 2f4:	1349                	addi	t1,t1,-14
 2f6:	1301                	addi	t1,t1,-32
 2f8:	0000                	unimp
 2fa:	210c                	fld	fa1,0(a0)
 2fc:	4900                	lw	s0,16(a0)
 2fe:	000b2f13          	slti	t5,s6,0
 302:	0d00                	addi	s0,sp,656
 304:	012e                	slli	sp,sp,0xb
 306:	0e03193f 0b3b0b3a 	0xb3b0b3a0e03193f
 30e:	13491927          	0x13491927
 312:	0111                	addi	sp,sp,4
 314:	0612                	slli	a2,a2,0x4
 316:	1840                	addi	s0,sp,52
 318:	01194297          	auipc	t0,0x1194
 31c:	0e000013          	li	zero,224
 320:	0005                	c.addi	zero,1
 322:	0b3a0e03          	lb	t3,179(s4)
 326:	13490b3b          	0x13490b3b
 32a:	1702                	slli	a4,a4,0x20
 32c:	0000                	unimp
 32e:	3f002e0f          	0x3f002e0f
 332:	0319                	addi	t1,t1,6
 334:	3a0e                	fld	fs4,224(sp)
 336:	490b3b0b          	0x490b3b0b
 33a:	12011113          	0x12011113
 33e:	4006                	0x4006
 340:	9718                	0x9718
 342:	1942                	slli	s2,s2,0x30
 344:	0000                	unimp
 346:	2e10                	fld	fa2,24(a2)
 348:	3f01                	jal	258 <__seq_start+0x258>
 34a:	0319                	addi	t1,t1,6
 34c:	3a0e                	fld	fs4,224(sp)
 34e:	270b3b0b          	0x270b3b0b
 352:	1119                	addi	sp,sp,-26
 354:	1201                	addi	tp,tp,-32
 356:	4006                	0x4006
 358:	9718                	0x9718
 35a:	1942                	slli	s2,s2,0x30
 35c:	1301                	addi	t1,t1,-32
 35e:	0000                	unimp
 360:	3411                	jal	fffffd64 <pulp__FC+0xfffffd65>
 362:	0300                	addi	s0,sp,384
 364:	3a0e                	fld	fs4,224(sp)
 366:	490b3b0b          	0x490b3b0b
 36a:	00170213          	addi	tp,a4,1
 36e:	1200                	addi	s0,sp,288
 370:	8289                	srli	a3,a3,0x2
 372:	0101                	addi	sp,sp,0
 374:	0111                	addi	sp,sp,4
 376:	1331                	addi	t1,t1,-20
 378:	1301                	addi	t1,t1,-32
 37a:	0000                	unimp
 37c:	01828a13          	addi	s4,t0,24 # 1194330 <__heap_end+0x1094330>
 380:	0200                	addi	s0,sp,256
 382:	9118                	0x9118
 384:	1842                	slli	a6,a6,0x30
 386:	0000                	unimp
 388:	8914                	0x8914
 38a:	0182                	slli	gp,gp,0x0
 38c:	1101                	addi	sp,sp,-32
 38e:	9501                	srai	a0,a0,0x20
 390:	1942                	slli	s2,s2,0x30
 392:	1331                	addi	t1,t1,-20
 394:	0000                	unimp
 396:	0515                	addi	a0,a0,5
 398:	0300                	addi	s0,sp,384
 39a:	3a08                	fld	fa0,48(a2)
 39c:	490b3b0b          	0x490b3b0b
 3a0:	00170213          	addi	tp,a4,1
 3a4:	1600                	addi	s0,sp,800
 3a6:	011d                	addi	sp,sp,7
 3a8:	1331                	addi	t1,t1,-20
 3aa:	0152                	slli	sp,sp,0x14
 3ac:	1755                	addi	a4,a4,-11
 3ae:	0b58                	addi	a4,sp,404
 3b0:	0b59                	addi	s6,s6,22
 3b2:	0000                	unimp
 3b4:	31000517          	auipc	a0,0x31000
 3b8:	00170213          	addi	tp,a4,1
 3bc:	1800                	addi	s0,sp,48
 3be:	1755010b          	p.lb	sp,373(a0!) # 31000529 <__heap_end+0x30f00529>
 3c2:	0000                	unimp
 3c4:	3419                	jal	fffffdca <pulp__FC+0xfffffdcb>
 3c6:	3100                	fld	fs0,32(a0)
 3c8:	1a000013          	li	zero,416
 3cc:	011d                	addi	sp,sp,7
 3ce:	1331                	addi	t1,t1,-20
 3d0:	0152                	slli	sp,sp,0x14
 3d2:	1755                	addi	a4,a4,-11
 3d4:	0b58                	addi	a4,sp,404
 3d6:	0b59                	addi	s6,s6,22
 3d8:	1301                	addi	t1,t1,-32
 3da:	0000                	unimp
 3dc:	3100051b          	0x3100051b
 3e0:	00180213          	addi	tp,a6,1
 3e4:	1c00                	addi	s0,sp,560
 3e6:	0034                	addi	a3,sp,8
 3e8:	1331                	addi	t1,t1,-20
 3ea:	1802                	slli	a6,a6,0x20
 3ec:	0000                	unimp
 3ee:	341d                	jal	fffffe14 <pulp__FC+0xfffffe15>
 3f0:	3100                	fld	fs0,32(a0)
 3f2:	00170213          	addi	tp,a4,1
 3f6:	1e00                	addi	s0,sp,816
 3f8:	011d                	addi	sp,sp,7
 3fa:	1331                	addi	t1,t1,-20
 3fc:	0111                	addi	sp,sp,4
 3fe:	0612                	slli	a2,a2,0x4
 400:	0b58                	addi	a4,sp,404
 402:	0b59                	addi	s6,s6,22
 404:	1301                	addi	t1,t1,-32
 406:	0000                	unimp
 408:	051f 3100 0013      	0x133100051f
 40e:	2000                	fld	fs0,0(s0)
 410:	0b0b000f          	0xb0b000f
 414:	0000                	unimp
 416:	2e21                	jal	72e <__seq_start+0x72e>
 418:	3f01                	jal	328 <__seq_start+0x328>
 41a:	0319                	addi	t1,t1,6
 41c:	3a0e                	fld	fs4,224(sp)
 41e:	270b3b0b          	0x270b3b0b
 422:	2019                	jal	428 <__seq_start+0x428>
 424:	0013010b          	p.lb	sp,1(t1!)
 428:	2200                	fld	fs0,0(a2)
 42a:	0005                	c.addi	zero,1
 42c:	0b3a0e03          	lb	t3,179(s4)
 430:	13490b3b          	0x13490b3b
 434:	0000                	unimp
 436:	03000523          	sb	a6,42(zero) # 2a <__seq_start+0x2a>
 43a:	3a08                	fld	fa0,48(a2)
 43c:	490b3b0b          	0x490b3b0b
 440:	24000013          	li	zero,576
 444:	0034                	addi	a3,sp,8
 446:	0b3a0e03          	lb	t3,179(s4)
 44a:	13490b3b          	0x13490b3b
 44e:	0000                	unimp
 450:	2e25                	jal	788 <__seq_start+0x788>
 452:	0301                	addi	t1,t1,0
 454:	3a0e                	fld	fs4,224(sp)
 456:	270b3b0b          	0x270b3b0b
 45a:	2019                	jal	460 <__seq_start+0x460>
 45c:	0013010b          	p.lb	sp,1(t1!)
 460:	2600                	fld	fs0,8(a2)
 462:	1331010b          	p.lb	sp,307(sp!) # b0b027b <__heap_end+0xafb027b>
 466:	1755                	addi	a4,a4,-11
 468:	0000                	unimp
 46a:	01828927          	0x1828927
 46e:	1101                	addi	sp,sp,-32
 470:	3101                	jal	70 <__seq_start+0x70>
 472:	28000013          	li	zero,640
 476:	012e                	slli	sp,sp,0xb
 478:	0e03193f 0b3b0b3a 	0xb3b0b3a0e03193f
 480:	13491927          	0x13491927
 484:	0b20                	addi	s0,sp,408
 486:	1301                	addi	t1,t1,-32
 488:	0000                	unimp
 48a:	2e29                	jal	7a4 <__seq_start+0x7a4>
 48c:	0301                	addi	t1,t1,0
 48e:	3a0e                	fld	fs4,224(sp)
 490:	270b3b0b          	0x270b3b0b
 494:	4919                	li	s2,6
 496:	010b2013          	slti	zero,s6,16
 49a:	2a000013          	li	zero,672
 49e:	0000010b          	p.lb	sp,0(zero!) # 0 <__seq_start>
 4a2:	0300052b          	p.sb	a6,42(zero!) # 2a <__seq_start+0x2a>
 4a6:	3a0e                	fld	fs4,224(sp)
 4a8:	490b3b0b          	0x490b3b0b
 4ac:	00180213          	addi	tp,a6,1
 4b0:	2c00                	fld	fs0,24(s0)
 4b2:	0034                	addi	a3,sp,8
 4b4:	0b3a0e03          	lb	t3,179(s4)
 4b8:	13490b3b          	0x13490b3b
 4bc:	1802                	slli	a6,a6,0x20
 4be:	0000                	unimp
 4c0:	262d                	jal	7ea <__seq_start+0x7ea>
 4c2:	0000                	unimp
 4c4:	2e00                	fld	fs0,24(a2)
 4c6:	012e                	slli	sp,sp,0xb
 4c8:	1331                	addi	t1,t1,-20
 4ca:	0111                	addi	sp,sp,4
 4cc:	0612                	slli	a2,a2,0x4
 4ce:	1840                	addi	s0,sp,52
 4d0:	01194297          	auipc	t0,0x1194
 4d4:	2f000013          	li	zero,752
 4d8:	002e                	0x2e
 4da:	193c193f 0e030e6e 	0xe030e6e193c193f
 4e2:	0b3a                	slli	s6,s6,0xe
 4e4:	00000b3b          	0xb3b
 4e8:	0100                	addi	s0,sp,128
 4ea:	0011                	c.addi	zero,4
 4ec:	0610                	addi	a2,sp,768
 4ee:	0111                	addi	sp,sp,4
 4f0:	0112                	slli	sp,sp,0x4
 4f2:	081b0803          	lb	a6,129(s6)
 4f6:	0825                	addi	a6,a6,9
 4f8:	00000513          	li	a0,0
 4fc:	0100                	addi	s0,sp,128
 4fe:	0111                	addi	sp,sp,4
 500:	0e25                	addi	t3,t3,9
 502:	0e030b13          	addi	s6,t1,224
 506:	01110e1b          	0x1110e1b
 50a:	0612                	slli	a2,a2,0x4
 50c:	1710                	addi	a2,sp,928
 50e:	0000                	unimp
 510:	2402                	fld	fs0,0(sp)
 512:	0b00                	addi	s0,sp,400
 514:	030b3e0b          	0x30b3e0b
 518:	000e                	0xe
 51a:	0300                	addi	s0,sp,384
 51c:	0026                	0x26
 51e:	1349                	addi	t1,t1,-14
 520:	0000                	unimp
 522:	2404                	fld	fs1,8(s0)
 524:	0b00                	addi	s0,sp,400
 526:	030b3e0b          	0x30b3e0b
 52a:	0008                	addi	a0,sp,0
 52c:	0500                	addi	s0,sp,640
 52e:	0016                	0x16
 530:	0b3a0e03          	lb	t3,179(s4)
 534:	13490b3b          	0x13490b3b
 538:	0000                	unimp
 53a:	0f06                	slli	t5,t5,0x1
 53c:	0b00                	addi	s0,sp,400
 53e:	000e030b          	p.lb	t1,0(t3!)
 542:	0700                	addi	s0,sp,896
 544:	0b0b000f          	0xb0b000f
 548:	1349                	addi	t1,t1,-14
 54a:	0000                	unimp
 54c:	1508                	addi	a0,sp,672
 54e:	2701                	jal	c4e <__seq_start+0xc4e>
 550:	0119                	addi	sp,sp,6
 552:	09000013          	li	zero,144
 556:	0005                	c.addi	zero,1
 558:	1349                	addi	t1,t1,-14
 55a:	0000                	unimp
 55c:	0f0a                	slli	t5,t5,0x2
 55e:	0b00                	addi	s0,sp,400
 560:	0b00000b          	p.lb	zero,176(zero!) # b0 <__seq_start+0xb0>
 564:	0b0b0113          	addi	sp,s6,176
 568:	0b3a                	slli	s6,s6,0xe
 56a:	13010b3b          	0x13010b3b
 56e:	0000                	unimp
 570:	0d0c                	addi	a1,sp,656
 572:	0300                	addi	s0,sp,384
 574:	3a08                	fld	fa0,48(a2)
 576:	490b3b0b          	0x490b3b0b
 57a:	000b3813          	sltiu	a6,s6,0
 57e:	0d00                	addi	s0,sp,656
 580:	012e                	slli	sp,sp,0xb
 582:	0e03193f 053b0b3a 	0x53b0b3a0e03193f
 58a:	13491927          	0x13491927
 58e:	0111                	addi	sp,sp,4
 590:	0612                	slli	a2,a2,0x4
 592:	1840                	addi	s0,sp,52
 594:	01194297          	auipc	t0,0x1194
 598:	0e000013          	li	zero,224
 59c:	0005                	c.addi	zero,1
 59e:	0b3a0803          	lb	a6,179(s4)
 5a2:	1349053b          	0x1349053b
 5a6:	1702                	slli	a4,a4,0x20
 5a8:	0000                	unimp
 5aa:	0300050f          	0x300050f
 5ae:	3a0e                	fld	fs4,224(sp)
 5b0:	49053b0b          	0x49053b0b
 5b4:	00170213          	addi	tp,a4,1
 5b8:	1000                	addi	s0,sp,32
 5ba:	0018                	addi	a4,sp,0
 5bc:	0000                	unimp
 5be:	3411                	jal	ffffffc2 <pulp__FC+0xffffffc3>
 5c0:	0300                	addi	s0,sp,384
 5c2:	3a08                	fld	fa0,48(a2)
 5c4:	49053b0b          	0x49053b0b
 5c8:	00180213          	addi	tp,a6,1
 5cc:	1200                	addi	s0,sp,288
 5ce:	0034                	addi	a3,sp,8
 5d0:	0b3a0e03          	lb	t3,179(s4)
 5d4:	1349053b          	0x1349053b
 5d8:	1802                	slli	a6,a6,0x20
 5da:	0000                	unimp
 5dc:	01828913          	addi	s2,t0,24 # 11945ac <__heap_end+0x10945ac>
 5e0:	1101                	addi	sp,sp,-32
 5e2:	3101                	jal	1e2 <__seq_start+0x1e2>
 5e4:	14000013          	li	zero,320
 5e8:	828a                	mv	t0,sp
 5ea:	0001                	nop
 5ec:	1802                	slli	a6,a6,0x20
 5ee:	4291                	li	t0,4
 5f0:	0018                	addi	a4,sp,0
 5f2:	1500                	addi	s0,sp,672
 5f4:	8289                	srli	a3,a3,0x2
 5f6:	0101                	addi	sp,sp,0
 5f8:	0111                	addi	sp,sp,4
 5fa:	4295                	li	t0,5
 5fc:	3119                	jal	202 <__seq_start+0x202>
 5fe:	16000013          	li	zero,352
 602:	0101                	addi	sp,sp,0
 604:	1349                	addi	t1,t1,-14
 606:	1301                	addi	t1,t1,-32
 608:	0000                	unimp
 60a:	49002117          	auipc	sp,0x49002
 60e:	000b2f13          	slti	t5,s6,0
 612:	1800                	addi	s0,sp,48
 614:	012e                	slli	sp,sp,0xb
 616:	0b3a0e03          	lb	t3,179(s4)
 61a:	1927053b          	0x1927053b
 61e:	1349                	addi	t1,t1,-14
 620:	0111                	addi	sp,sp,4
 622:	0612                	slli	a2,a2,0x4
 624:	1840                	addi	s0,sp,52
 626:	01194297          	auipc	t0,0x1194
 62a:	19000013          	li	zero,400
 62e:	0034                	addi	a3,sp,8
 630:	0b3a0e03          	lb	t3,179(s4)
 634:	1349053b          	0x1349053b
 638:	1702                	slli	a4,a4,0x20
 63a:	0000                	unimp
 63c:	341a                	fld	fs0,416(sp)
 63e:	0300                	addi	s0,sp,384
 640:	3a08                	fld	fa0,48(a2)
 642:	49053b0b          	0x49053b0b
 646:	00170213          	addi	tp,a4,1
 64a:	1b00                	addi	s0,sp,432
 64c:	1755010b          	p.lb	sp,373(a0!)
 650:	1301                	addi	t1,t1,-32
 652:	0000                	unimp
 654:	0b1c                	addi	a5,sp,400
 656:	1101                	addi	sp,sp,-32
 658:	1201                	addi	tp,tp,-32
 65a:	0106                	slli	sp,sp,0x1
 65c:	1d000013          	li	zero,464
 660:	0034                	addi	a3,sp,8
 662:	0b3a0e03          	lb	t3,179(s4)
 666:	1349053b          	0x1349053b
 66a:	0000                	unimp
 66c:	891e                	mv	s2,t2
 66e:	0182                	slli	gp,gp,0x0
 670:	1101                	addi	sp,sp,-32
 672:	0101                	addi	sp,sp,0
 674:	1f000013          	li	zero,496
 678:	8289                	srli	a3,a3,0x2
 67a:	0101                	addi	sp,sp,0
 67c:	0111                	addi	sp,sp,4
 67e:	0000                	unimp
 680:	1d20                	addi	s0,sp,696
 682:	3101                	jal	282 <__seq_start+0x282>
 684:	55015213          	0x55015213
 688:	590b5817          	auipc	a6,0x590b5
 68c:	0105                	addi	sp,sp,1
 68e:	21000013          	li	zero,528
 692:	0005                	c.addi	zero,1
 694:	1331                	addi	t1,t1,-20
 696:	1702                	slli	a4,a4,0x20
 698:	0000                	unimp
 69a:	0522                	slli	a0,a0,0x8
 69c:	3100                	fld	fs0,32(a0)
 69e:	23000013          	li	zero,560
 6a2:	1755010b          	p.lb	sp,373(a0!)
 6a6:	0000                	unimp
 6a8:	3424                	fld	fs1,104(s0)
 6aa:	3100                	fld	fs0,32(a0)
 6ac:	00170213          	addi	tp,a4,1
 6b0:	2500                	fld	fs0,8(a0)
 6b2:	011d                	addi	sp,sp,7
 6b4:	1331                	addi	t1,t1,-20
 6b6:	0111                	addi	sp,sp,4
 6b8:	0612                	slli	a2,a2,0x4
 6ba:	0b58                	addi	a4,sp,404
 6bc:	0559                	addi	a0,a0,22
 6be:	1301                	addi	t1,t1,-32
 6c0:	0000                	unimp
 6c2:	0b26                	slli	s6,s6,0x9
 6c4:	1101                	addi	sp,sp,-32
 6c6:	1201                	addi	tp,tp,-32
 6c8:	0006                	0x6
 6ca:	2700                	fld	fs0,8(a4)
 6cc:	011d                	addi	sp,sp,7
 6ce:	1331                	addi	t1,t1,-20
 6d0:	0111                	addi	sp,sp,4
 6d2:	0612                	slli	a2,a2,0x4
 6d4:	0b58                	addi	a4,sp,404
 6d6:	0b59                	addi	s6,s6,22
 6d8:	0000                	unimp
 6da:	8928                	0x8928
 6dc:	0182                	slli	gp,gp,0x0
 6de:	1101                	addi	sp,sp,-32
 6e0:	3101                	jal	2e0 <__seq_start+0x2e0>
 6e2:	00130113          	addi	sp,t1,1
 6e6:	2900                	fld	fs0,16(a0)
 6e8:	012e                	slli	sp,sp,0xb
 6ea:	0b3a0e03          	lb	t3,179(s4)
 6ee:	19270b3b          	0x19270b3b
 6f2:	1349                	addi	t1,t1,-14
 6f4:	0111                	addi	sp,sp,4
 6f6:	0612                	slli	a2,a2,0x4
 6f8:	1840                	addi	s0,sp,52
 6fa:	01194297          	auipc	t0,0x1194
 6fe:	2a000013          	li	zero,672
 702:	0005                	c.addi	zero,1
 704:	0b3a0803          	lb	a6,179(s4)
 708:	13490b3b          	0x13490b3b
 70c:	1702                	slli	a4,a4,0x20
 70e:	0000                	unimp
 710:	0300052b          	p.sb	a6,42(zero!) # 2a <__seq_start+0x2a>
 714:	3a0e                	fld	fs4,224(sp)
 716:	490b3b0b          	0x490b3b0b
 71a:	00170213          	addi	tp,a4,1
 71e:	2c00                	fld	fs0,24(s0)
 720:	0034                	addi	a3,sp,8
 722:	0b3a0803          	lb	a6,179(s4)
 726:	13490b3b          	0x13490b3b
 72a:	1802                	slli	a6,a6,0x20
 72c:	0000                	unimp
 72e:	342d                	jal	158 <__seq_start+0x158>
 730:	0300                	addi	s0,sp,384
 732:	3a08                	fld	fa0,48(a2)
 734:	490b3b0b          	0x490b3b0b
 738:	00170213          	addi	tp,a4,1
 73c:	2e00                	fld	fs0,24(a2)
 73e:	011d                	addi	sp,sp,7
 740:	1331                	addi	t1,t1,-20
 742:	0152                	slli	sp,sp,0x14
 744:	1755                	addi	a4,a4,-11
 746:	0b58                	addi	a4,sp,404
 748:	0559                	addi	a0,a0,22
 74a:	0000                	unimp
 74c:	31010b2f          	0x31010b2f
 750:	01175513          	srli	a0,a4,0x11
 754:	30000013          	li	zero,768
 758:	1331010b          	p.lb	sp,307(sp!) # 4900273d <wake_up_tile_g7_reg+0x90026e1>
 75c:	0111                	addi	sp,sp,4
 75e:	0612                	slli	a2,a2,0x4
 760:	1301                	addi	t1,t1,-32
 762:	0000                	unimp
 764:	2e31                	jal	a80 <__seq_start+0xa80>
 766:	0301                	addi	t1,t1,0
 768:	3a0e                	fld	fs4,224(sp)
 76a:	270b3b0b          	0x270b3b0b
 76e:	4919                	li	s2,6
 770:	010b2013          	slti	zero,s6,16
 774:	32000013          	li	zero,800
 778:	0005                	c.addi	zero,1
 77a:	0b3a0803          	lb	a6,179(s4)
 77e:	13490b3b          	0x13490b3b
 782:	0000                	unimp
 784:	03000533          	mul	a0,zero,a6
 788:	3a0e                	fld	fs4,224(sp)
 78a:	490b3b0b          	0x490b3b0b
 78e:	34000013          	li	zero,832
 792:	0034                	addi	a3,sp,8
 794:	0b3a0e03          	lb	t3,179(s4)
 798:	13490b3b          	0x13490b3b
 79c:	0000                	unimp
 79e:	0b35                	addi	s6,s6,13
 7a0:	0101                	addi	sp,sp,0
 7a2:	36000013          	li	zero,864
 7a6:	0034                	addi	a3,sp,8
 7a8:	0b3a0803          	lb	a6,179(s4)
 7ac:	13490b3b          	0x13490b3b
 7b0:	0000                	unimp
 7b2:	00010b37          	lui	s6,0x10
 7b6:	3800                	fld	fs0,48(s0)
 7b8:	012e                	slli	sp,sp,0xb
 7ba:	0b3a0e03          	lb	t3,179(s4)
 7be:	19270b3b          	0x19270b3b
 7c2:	0111                	addi	sp,sp,4
 7c4:	0612                	slli	a2,a2,0x4
 7c6:	1840                	addi	s0,sp,52
 7c8:	1301                	addi	t1,t1,-32
 7ca:	0000                	unimp
 7cc:	2e39                	jal	aea <__seq_start+0xaea>
 7ce:	0301                	addi	t1,t1,0
 7d0:	3a0e                	fld	fs4,224(sp)
 7d2:	270b3b0b          	0x270b3b0b
 7d6:	1119                	addi	sp,sp,-26
 7d8:	1201                	addi	tp,tp,-32
 7da:	4006                	0x4006
 7dc:	9718                	0x9718
 7de:	1942                	slli	s2,s2,0x30
 7e0:	1301                	addi	t1,t1,-32
 7e2:	0000                	unimp
 7e4:	893a                	mv	s2,a4
 7e6:	0182                	slli	gp,gp,0x0
 7e8:	1100                	addi	s0,sp,160
 7ea:	9501                	srai	a0,a0,0x20
 7ec:	1942                	slli	s2,s2,0x30
 7ee:	1331                	addi	t1,t1,-20
 7f0:	0000                	unimp
 7f2:	0300053b          	0x300053b
 7f6:	3a0e                	fld	fs4,224(sp)
 7f8:	490b3b0b          	0x490b3b0b
 7fc:	00180213          	addi	tp,a6,1 # 590b5689 <wake_up_tile_g7_reg+0x190b562d>
 800:	3c00                	fld	fs0,56(s0)
 802:	0005                	c.addi	zero,1
 804:	0b3a0803          	lb	a6,179(s4)
 808:	13490b3b          	0x13490b3b
 80c:	1802                	slli	a6,a6,0x20
 80e:	0000                	unimp
 810:	2e3d                	jal	b4e <__seq_start+0xb4e>
 812:	3f00                	fld	fs0,56(a4)
 814:	3c19                	jal	22a <__seq_start+0x22a>
 816:	6e19                	lui	t3,0x6
 818:	030e                	slli	t1,t1,0x3
 81a:	3a0e                	fld	fs4,224(sp)
 81c:	000b3b0b          	0xb3b0b
 820:	0000                	unimp
 822:	1101                	addi	sp,sp,-32
 824:	2501                	jal	e24 <__seq_start+0xe24>
 826:	130e                	slli	t1,t1,0x23
 828:	1b0e030b          	p.lb	t1,432(t3!) # 61b0 <__seq_start+0x61b0>
 82c:	110e                	slli	sp,sp,0x23
 82e:	1201                	addi	tp,tp,-32
 830:	1006                	0x1006
 832:	02000017          	auipc	zero,0x2000
 836:	0024                	addi	s1,sp,8
 838:	0b3e0b0b          	p.lb	s6,179(t3!)
 83c:	00000e03          	lb	t3,0(zero) # 0 <__seq_start>
 840:	0b002403          	lw	s0,176(zero) # b0 <__seq_start+0xb0>
 844:	030b3e0b          	0x30b3e0b
 848:	0008                	addi	a0,sp,0
 84a:	0400                	addi	s0,sp,512
 84c:	0034                	addi	a3,sp,8
 84e:	0b3a0e03          	lb	t3,179(s4)
 852:	13490b3b          	0x13490b3b
 856:	193c193f 2e050000 	0x2e050000193c193f
 85e:	3f01                	jal	76e <__seq_start+0x76e>
 860:	0319                	addi	t1,t1,6
 862:	3a0e                	fld	fs4,224(sp)
 864:	270b3b0b          	0x270b3b0b
 868:	1119                	addi	sp,sp,-26
 86a:	1201                	addi	tp,tp,-32
 86c:	4006                	0x4006
 86e:	9718                	0x9718
 870:	1942                	slli	s2,s2,0x30
 872:	0000                	unimp
 874:	0506                	slli	a0,a0,0x1
 876:	0300                	addi	s0,sp,384
 878:	3a0e                	fld	fs4,224(sp)
 87a:	490b3b0b          	0x490b3b0b
 87e:	00180213          	addi	tp,a6,1
 882:	0000                	unimp
 884:	1101                	addi	sp,sp,-32
 886:	2501                	jal	e86 <__seq_start+0xe86>
 888:	130e                	slli	t1,t1,0x23
 88a:	1b0e030b          	p.lb	t1,432(t3!)
 88e:	110e                	slli	sp,sp,0x23
 890:	1201                	addi	tp,tp,-32
 892:	1006                	0x1006
 894:	02000017          	auipc	zero,0x2000
 898:	0024                	addi	s1,sp,8
 89a:	0b3e0b0b          	p.lb	s6,179(t3!)
 89e:	00000e03          	lb	t3,0(zero) # 0 <__seq_start>
 8a2:	0b002403          	lw	s0,176(zero) # b0 <__seq_start+0xb0>
 8a6:	030b3e0b          	0x30b3e0b
 8aa:	0008                	addi	a0,sp,0
 8ac:	0400                	addi	s0,sp,512
 8ae:	0016                	0x16
 8b0:	0b3a0e03          	lb	t3,179(s4)
 8b4:	13490b3b          	0x13490b3b
 8b8:	0000                	unimp
 8ba:	0f05                	addi	t5,t5,1
 8bc:	0b00                	addi	s0,sp,400
 8be:	0013490b          	p.lbu	s2,1(t1!)
 8c2:	0600                	addi	s0,sp,768
 8c4:	0e030013          	addi	zero,t1,224
 8c8:	193c                	addi	a5,sp,184
 8ca:	0000                	unimp
 8cc:	49010107          	0x49010107
 8d0:	00130113          	addi	sp,t1,1
 8d4:	0800                	addi	s0,sp,16
 8d6:	0021                	c.addi	zero,8
 8d8:	0000                	unimp
 8da:	2609                	jal	bdc <__seq_start+0xbdc>
 8dc:	4900                	lw	s0,16(a0)
 8de:	0a000013          	li	zero,160
 8e2:	0034                	addi	a3,sp,8
 8e4:	0b3a0e03          	lb	t3,179(s4)
 8e8:	13490b3b          	0x13490b3b
 8ec:	193c193f 160b0000 	0x160b0000193c193f
 8f4:	0300                	addi	s0,sp,384
 8f6:	3a0e                	fld	fs4,224(sp)
 8f8:	49053b0b          	0x49053b0b
 8fc:	0c000013          	li	zero,192
 900:	0b0b0117          	auipc	sp,0xb0b0
 904:	0b3a                	slli	s6,s6,0xe
 906:	13010b3b          	0x13010b3b
 90a:	0000                	unimp
 90c:	0d0d                	addi	s10,s10,3
 90e:	0300                	addi	s0,sp,384
 910:	3a0e                	fld	fs4,224(sp)
 912:	490b3b0b          	0x490b3b0b
 916:	0e000013          	li	zero,224
 91a:	0021                	c.addi	zero,8
 91c:	1349                	addi	t1,t1,-14
 91e:	00000b2f          	0xb2f
 922:	0b01130f          	0xb01130f
 926:	3b0b3a0b          	0x3b0b3a0b
 92a:	0013010b          	p.lb	sp,1(t1!)
 92e:	1000                	addi	s0,sp,32
 930:	000d                	c.addi	zero,3
 932:	0b3a0e03          	lb	t3,179(s4)
 936:	13490b3b          	0x13490b3b
 93a:	0b38                	addi	a4,sp,408
 93c:	0000                	unimp
 93e:	0f11                	addi	t5,t5,4
 940:	0b00                	addi	s0,sp,400
 942:	1200000b          	p.lb	zero,288(zero!) # 120 <__seq_start+0x120>
 946:	0e030113          	addi	sp,t1,224
 94a:	0b3a0b0b          	p.lb	s6,179(s4!)
 94e:	13010b3b          	0x13010b3b
 952:	0000                	unimp
 954:	03000d13          	li	s10,48
 958:	3a08                	fld	fa0,48(a2)
 95a:	490b3b0b          	0x490b3b0b
 95e:	000b3813          	sltiu	a6,s6,0
 962:	1400                	addi	s0,sp,544
 964:	0e030113          	addi	sp,t1,224
 968:	0b3a050b          	p.lb	a0,179(s4!)
 96c:	13010b3b          	0x13010b3b
 970:	0000                	unimp
 972:	0d15                	addi	s10,s10,5
 974:	0300                	addi	s0,sp,384
 976:	3a0e                	fld	fs4,224(sp)
 978:	490b3b0b          	0x490b3b0b
 97c:	00053813          	sltiu	a6,a0,0
 980:	1600                	addi	s0,sp,800
 982:	0015                	c.addi	zero,5
 984:	00001927          	0x1927
 988:	27011517          	auipc	a0,0x27011
 98c:	4919                	li	s2,6
 98e:	00130113          	addi	sp,t1,1
 992:	1800                	addi	s0,sp,48
 994:	0005                	c.addi	zero,1
 996:	1349                	addi	t1,t1,-14
 998:	0000                	unimp
 99a:	1319                	addi	t1,t1,-26
 99c:	0301                	addi	t1,t1,0
 99e:	0b0e                	slli	s6,s6,0x3
 9a0:	3a05                	jal	2d0 <__seq_start+0x2d0>
 9a2:	01053b0b          	0x1053b0b
 9a6:	1a000013          	li	zero,416
 9aa:	000d                	c.addi	zero,3
 9ac:	0b3a0e03          	lb	t3,179(s4)
 9b0:	1349053b          	0x1349053b
 9b4:	0b38                	addi	a4,sp,408
 9b6:	0000                	unimp
 9b8:	03000d1b          	0x3000d1b
 9bc:	3a0e                	fld	fs4,224(sp)
 9be:	49053b0b          	0x49053b0b
 9c2:	00053813          	sltiu	a6,a0,0
 9c6:	1c00                	addi	s0,sp,560
 9c8:	0e030113          	addi	sp,t1,224
 9cc:	0b3a0b0b          	p.lb	s6,179(s4!)
 9d0:	1301053b          	0x1301053b
 9d4:	0000                	unimp
 9d6:	131d                	addi	t1,t1,-25
 9d8:	0b01                	addi	s6,s6,0
 9da:	3b0b3a0b          	0x3b0b3a0b
 9de:	0105                	addi	sp,sp,1
 9e0:	1e000013          	li	zero,480
 9e4:	0b0b0117          	auipc	sp,0xb0b0
 9e8:	0b3a                	slli	s6,s6,0xe
 9ea:	1301053b          	0x1301053b
 9ee:	0000                	unimp
 9f0:	0d1f 0300 3a0e      	0x3a0e03000d1f
 9f6:	49053b0b          	0x49053b0b
 9fa:	20000013          	li	zero,512
 9fe:	0115                	addi	sp,sp,5
 a00:	13011927          	0x13011927
 a04:	0000                	unimp
 a06:	3421                	jal	40e <__seq_start+0x40e>
 a08:	0300                	addi	s0,sp,384
 a0a:	3a0e                	fld	fs4,224(sp)
 a0c:	49053b0b          	0x49053b0b
 a10:	3c193f13          	sltiu	t5,s2,961
 a14:	0019                	c.addi	zero,6
 a16:	2200                	fld	fs0,0(a2)
 a18:	012e                	slli	sp,sp,0xb
 a1a:	0e03193f 0b3b0b3a 	0xb3b0b3a0e03193f
 a22:	13491927          	0x13491927
 a26:	0111                	addi	sp,sp,4
 a28:	0612                	slli	a2,a2,0x4
 a2a:	1840                	addi	s0,sp,52
 a2c:	01194297          	auipc	t0,0x1194
 a30:	23000013          	li	zero,560
 a34:	0005                	c.addi	zero,1
 a36:	0b3a0803          	lb	a6,179(s4)
 a3a:	13490b3b          	0x13490b3b
 a3e:	1702                	slli	a4,a4,0x20
 a40:	0000                	unimp
 a42:	3424                	fld	fs1,104(s0)
 a44:	0300                	addi	s0,sp,384
 a46:	3a08                	fld	fa0,48(a2)
 a48:	490b3b0b          	0x490b3b0b
 a4c:	00170213          	addi	tp,a4,1
 a50:	2500                	fld	fs0,8(a0)
 a52:	0034                	addi	a3,sp,8
 a54:	0b3a0e03          	lb	t3,179(s4)
 a58:	13490b3b          	0x13490b3b
 a5c:	1702                	slli	a4,a4,0x20
 a5e:	0000                	unimp
 a60:	0526                	slli	a0,a0,0x9
 a62:	0300                	addi	s0,sp,384
 a64:	3a0e                	fld	fs4,224(sp)
 a66:	490b3b0b          	0x490b3b0b
 a6a:	00180213          	addi	tp,a6,1
 a6e:	2700                	fld	fs0,8(a4)
 a70:	0111010b          	p.lb	sp,17(sp!) # b0b09f5 <__heap_end+0xafb09f5>
 a74:	0612                	slli	a2,a2,0x4
 a76:	1301                	addi	t1,t1,-32
 a78:	0000                	unimp
 a7a:	0b28                	addi	a0,sp,408
 a7c:	1101                	addi	sp,sp,-32
 a7e:	1201                	addi	tp,tp,-32
 a80:	0006                	0x6
 a82:	2900                	fld	fs0,16(a0)
 a84:	0026                	0x26
 a86:	0000                	unimp
 a88:	052a                	slli	a0,a0,0xa
 a8a:	0300                	addi	s0,sp,384
 a8c:	3a08                	fld	fa0,48(a2)
 a8e:	490b3b0b          	0x490b3b0b
 a92:	00180213          	addi	tp,a6,1
 a96:	2b00                	fld	fs0,16(a4)
 a98:	0034                	addi	a3,sp,8
 a9a:	0b3a0803          	lb	a6,179(s4)
 a9e:	13490b3b          	0x13490b3b
 aa2:	1802                	slli	a6,a6,0x20
 aa4:	0000                	unimp
 aa6:	052c                	addi	a1,sp,648
 aa8:	0300                	addi	s0,sp,384
 aaa:	3a0e                	fld	fs4,224(sp)
 aac:	490b3b0b          	0x490b3b0b
 ab0:	00170213          	addi	tp,a4,1
 ab4:	2d00                	fld	fs0,24(a0)
 ab6:	1755010b          	p.lb	sp,373(a0!) # 27011afd <__heap_end+0x26f11afd>
 aba:	0000                	unimp
 abc:	2e2e                	fld	ft8,200(sp)
 abe:	3f01                	jal	9ce <__seq_start+0x9ce>
 ac0:	0319                	addi	t1,t1,6
 ac2:	3a0e                	fld	fs4,224(sp)
 ac4:	270b3b0b          	0x270b3b0b
 ac8:	4919                	li	s2,6
 aca:	12011113          	0x12011113
 ace:	4006                	0x4006
 ad0:	9718                	0x9718
 ad2:	1942                	slli	s2,s2,0x30
 ad4:	0000                	unimp
 ad6:	0100                	addi	s0,sp,128
 ad8:	0111                	addi	sp,sp,4
 ada:	0e25                	addi	t3,t3,9
 adc:	0e030b13          	addi	s6,t1,224
 ae0:	01110e1b          	0x1110e1b
 ae4:	0612                	slli	a2,a2,0x4
 ae6:	1710                	addi	a2,sp,928
 ae8:	0000                	unimp
 aea:	2402                	fld	fs0,0(sp)
 aec:	0b00                	addi	s0,sp,400
 aee:	030b3e0b          	0x30b3e0b
 af2:	000e                	0xe
 af4:	0300                	addi	s0,sp,384
 af6:	0016                	0x16
 af8:	0b3a0e03          	lb	t3,179(s4)
 afc:	13490b3b          	0x13490b3b
 b00:	0000                	unimp
 b02:	2404                	fld	fs1,8(s0)
 b04:	0b00                	addi	s0,sp,400
 b06:	030b3e0b          	0x30b3e0b
 b0a:	0008                	addi	a0,sp,0
 b0c:	0500                	addi	s0,sp,640
 b0e:	0035                	c.addi	zero,13
 b10:	1349                	addi	t1,t1,-14
 b12:	0000                	unimp
 b14:	3406                	fld	fs0,96(sp)
 b16:	0300                	addi	s0,sp,384
 b18:	3a0e                	fld	fs4,224(sp)
 b1a:	490b3b0b          	0x490b3b0b
 b1e:	3c193f13          	sltiu	t5,s2,961
 b22:	0019                	c.addi	zero,6
 b24:	0700                	addi	s0,sp,896
 b26:	0034                	addi	a3,sp,8
 b28:	0b3a0e03          	lb	t3,179(s4)
 b2c:	13490b3b          	0x13490b3b
 b30:	1802193f 01080000 	0x10800001802193f
 b38:	4901                	li	s2,0
 b3a:	00130113          	addi	sp,t1,1
 b3e:	0900                	addi	s0,sp,144
 b40:	0021                	c.addi	zero,8
 b42:	1349                	addi	t1,t1,-14
 b44:	0000052f          	0x52f
 b48:	340a                	fld	fs0,160(sp)
 b4a:	0300                	addi	s0,sp,384
 b4c:	3a0e                	fld	fs4,224(sp)
 b4e:	490b3b0b          	0x490b3b0b
 b52:	88193f13          	sltiu	t5,s2,-1919
 b56:	0501                	addi	a0,a0,0
 b58:	1802                	slli	a6,a6,0x20
 b5a:	0000                	unimp
 b5c:	3f012e0b          	p.lw	t3,1008(sp!)
 b60:	0319                	addi	t1,t1,6
 b62:	3a0e                	fld	fs4,224(sp)
 b64:	270b3b0b          	0x270b3b0b
 b68:	2019                	jal	b6e <__seq_start+0xb6e>
 b6a:	0013010b          	p.lb	sp,1(t1!)
 b6e:	0c00                	addi	s0,sp,528
 b70:	0005                	c.addi	zero,1
 b72:	0b3a0e03          	lb	t3,179(s4)
 b76:	13490b3b          	0x13490b3b
 b7a:	0000                	unimp
 b7c:	2e0d                	jal	eae <__seq_start+0xeae>
 b7e:	3f01                	jal	a8e <__seq_start+0xa8e>
 b80:	0319                	addi	t1,t1,6
 b82:	3a0e                	fld	fs4,224(sp)
 b84:	270b3b0b          	0x270b3b0b
 b88:	1119                	addi	sp,sp,-26
 b8a:	1201                	addi	tp,tp,-32
 b8c:	4006                	0x4006
 b8e:	9718                	0x9718
 b90:	1942                	slli	s2,s2,0x30
 b92:	1301                	addi	t1,t1,-32
 b94:	0000                	unimp
 b96:	050e                	slli	a0,a0,0x3
 b98:	0300                	addi	s0,sp,384
 b9a:	3a0e                	fld	fs4,224(sp)
 b9c:	490b3b0b          	0x490b3b0b
 ba0:	00180213          	addi	tp,a6,1
 ba4:	0f00                	addi	s0,sp,912
 ba6:	001d                	c.addi	zero,7
 ba8:	1331                	addi	t1,t1,-20
 baa:	0111                	addi	sp,sp,4
 bac:	0612                	slli	a2,a2,0x4
 bae:	0b58                	addi	a4,sp,404
 bb0:	0b59                	addi	s6,s6,22
 bb2:	0000                	unimp
 bb4:	1d10                	addi	a2,sp,688
 bb6:	3101                	jal	7b6 <__seq_start+0x7b6>
 bb8:	55015213          	0x55015213
 bbc:	590b5817          	auipc	a6,0x590b5
 bc0:	0013010b          	p.lb	sp,1(t1!)
 bc4:	1100                	addi	s0,sp,160
 bc6:	0005                	c.addi	zero,1
 bc8:	1331                	addi	t1,t1,-20
 bca:	1702                	slli	a4,a4,0x20
 bcc:	0000                	unimp
 bce:	1d12                	slli	s10,s10,0x24
 bd0:	3100                	fld	fs0,32(a0)
 bd2:	55015213          	0x55015213
 bd6:	590b5817          	auipc	a6,0x590b5
 bda:	1300000b          	p.lb	zero,304(zero!) # 130 <__seq_start+0x130>
 bde:	011d                	addi	sp,sp,7
 be0:	1331                	addi	t1,t1,-20
 be2:	0152                	slli	sp,sp,0x14
 be4:	1755                	addi	a4,a4,-11
 be6:	0b58                	addi	a4,sp,404
 be8:	0b59                	addi	s6,s6,22
 bea:	0000                	unimp
 bec:	1d14                	addi	a3,sp,688
 bee:	3101                	jal	7ee <__seq_start+0x7ee>
 bf0:	12011113          	0x12011113
 bf4:	5806                	lw	a6,96(sp)
 bf6:	010b590b          	p.lhu	s2,16(s6!) # 10010 <__seq_start+0x10010>
 bfa:	15000013          	li	zero,336
 bfe:	011d                	addi	sp,sp,7
 c00:	1331                	addi	t1,t1,-20
 c02:	0111                	addi	sp,sp,4
 c04:	0612                	slli	a2,a2,0x4
 c06:	0b58                	addi	a4,sp,404
 c08:	0b59                	addi	s6,s6,22
 c0a:	0000                	unimp
 c0c:	2e16                	fld	ft8,320(sp)
 c0e:	0300                	addi	s0,sp,384
 c10:	3a0e                	fld	fs4,224(sp)
 c12:	200b3b0b          	0x200b3b0b
 c16:	1700000b          	p.lb	zero,368(zero!) # 170 <__seq_start+0x170>
 c1a:	012e                	slli	sp,sp,0xb
 c1c:	0b3a0e03          	lb	t3,179(s4)
 c20:	19270b3b          	0x19270b3b
 c24:	0b20                	addi	s0,sp,408
 c26:	1301                	addi	t1,t1,-32
 c28:	0000                	unimp
 c2a:	2e18                	fld	fa4,24(a2)
 c2c:	3101                	jal	82c <__seq_start+0x82c>
 c2e:	12011113          	0x12011113
 c32:	4006                	0x4006
 c34:	9718                	0x9718
 c36:	1942                	slli	s2,s2,0x30
 c38:	0000                	unimp
	...

Disassembly of section .debug_aranges:

00000000 <.debug_aranges>:
   0:	001c                	addi	a5,sp,0
   2:	0000                	unimp
   4:	0002                	0x2
   6:	0000                	unimp
   8:	0000                	unimp
   a:	0004                	addi	s1,sp,0
   c:	0000                	unimp
   e:	0000                	unimp
  10:	0108                	addi	a0,sp,128
  12:	8000                	0x8000
  14:	005c                	addi	a5,sp,4
	...
  1e:	0000                	unimp
  20:	001c                	addi	a5,sp,0
  22:	0000                	unimp
  24:	0002                	0x2
  26:	0a39                	addi	s4,s4,14
  28:	0000                	unimp
  2a:	0004                	addi	s1,sp,0
  2c:	0000                	unimp
  2e:	0000                	unimp
  30:	0164                	addi	s1,sp,140
  32:	8000                	0x8000
  34:	0408                	addi	a0,sp,512
	...
  3e:	0000                	unimp
  40:	001c                	addi	a5,sp,0
  42:	0000                	unimp
  44:	0002                	0x2
  46:	000011cb          	0x11cb
  4a:	0004                	addi	s1,sp,0
  4c:	0000                	unimp
  4e:	0000                	unimp
  50:	0000                	unimp
  52:	8000                	0x8000
  54:	0108                	addi	a0,sp,128
	...
  5e:	0000                	unimp
  60:	001c                	addi	a5,sp,0
  62:	0000                	unimp
  64:	0002                	0x2
  66:	000012c3          	0x12c3
  6a:	0004                	addi	s1,sp,0
  6c:	0000                	unimp
  6e:	0000                	unimp
  70:	056c                	addi	a1,sp,652
  72:	8000                	0x8000
  74:	0d78                	addi	a4,sp,668
	...
  7e:	0000                	unimp
  80:	001c                	addi	a5,sp,0
  82:	0000                	unimp
  84:	0002                	0x2
  86:	1f84                	addi	s1,sp,1008
  88:	0000                	unimp
  8a:	0004                	addi	s1,sp,0
  8c:	0000                	unimp
  8e:	0000                	unimp
  90:	12e4                	addi	s1,sp,364
  92:	8000                	0x8000
  94:	000c                	addi	a1,sp,0
	...
  9e:	0000                	unimp
  a0:	001c                	addi	a5,sp,0
  a2:	0000                	unimp
  a4:	0002                	0x2
  a6:	2021                	jal	ae <__seq_start+0xae>
  a8:	0000                	unimp
  aa:	0004                	addi	s1,sp,0
  ac:	0000                	unimp
  ae:	0000                	unimp
  b0:	12f0                	addi	a2,sp,364
  b2:	8000                	0x8000
  b4:	0404                	addi	s1,sp,512
	...
  be:	0000                	unimp
  c0:	001c                	addi	a5,sp,0
  c2:	0000                	unimp
  c4:	0002                	0x2
  c6:	2bc0                	fld	fs0,144(a5)
  c8:	0000                	unimp
  ca:	0004                	addi	s1,sp,0
  cc:	0000                	unimp
  ce:	0000                	unimp
  d0:	16f4                	addi	a3,sp,876
  d2:	8000                	0x8000
  d4:	00b0                	addi	a2,sp,72
	...

Disassembly of section .debug_ranges:

00000000 <.debug_ranges>:
   0:	0108                	addi	a0,sp,128
   2:	8000                	0x8000
   4:	0164                	addi	s1,sp,140
   6:	8000                	0x8000
	...
  10:	003c                	addi	a5,sp,8
  12:	0000                	unimp
  14:	006c                	addi	a1,sp,12
  16:	0000                	unimp
  18:	0088                	addi	a0,sp,64
  1a:	0000                	unimp
  1c:	00a0                	addi	s0,sp,72
  1e:	0000                	unimp
  20:	00c0                	addi	s0,sp,68
  22:	0000                	unimp
  24:	00f4                	addi	a3,sp,76
	...
  2e:	0000                	unimp
  30:	008c                	addi	a1,sp,64
  32:	0000                	unimp
  34:	00a0                	addi	s0,sp,72
  36:	0000                	unimp
  38:	00cc                	addi	a1,sp,68
  3a:	0000                	unimp
  3c:	00e8                	addi	a0,sp,76
	...
  46:	0000                	unimp
  48:	010c                	addi	a1,sp,128
  4a:	0000                	unimp
  4c:	0110                	addi	a2,sp,128
  4e:	0000                	unimp
  50:	0114                	addi	a3,sp,128
  52:	0000                	unimp
  54:	0164                	addi	s1,sp,140
  56:	0000                	unimp
  58:	0168                	addi	a0,sp,140
  5a:	0000                	unimp
  5c:	016c                	addi	a1,sp,140
  5e:	0000                	unimp
  60:	0174                	addi	a3,sp,140
  62:	0000                	unimp
  64:	019c                	addi	a5,sp,192
  66:	0000                	unimp
  68:	01a8                	addi	a0,sp,200
  6a:	0000                	unimp
  6c:	01f8                	addi	a4,sp,204
	...
  76:	0000                	unimp
  78:	0120                	addi	s0,sp,136
  7a:	0000                	unimp
  7c:	0158                	addi	a4,sp,132
  7e:	0000                	unimp
  80:	0174                	addi	a3,sp,140
  82:	0000                	unimp
  84:	018c                	addi	a1,sp,192
  86:	0000                	unimp
  88:	01a8                	addi	a0,sp,200
  8a:	0000                	unimp
  8c:	01e4                	addi	s1,sp,204
	...
  96:	0000                	unimp
  98:	0178                	addi	a4,sp,140
  9a:	0000                	unimp
  9c:	018c                	addi	a1,sp,192
  9e:	0000                	unimp
  a0:	01b4                	addi	a3,sp,200
  a2:	0000                	unimp
  a4:	01d4                	addi	a3,sp,196
	...
  ae:	0000                	unimp
  b0:	021c                	addi	a5,sp,256
  b2:	0000                	unimp
  b4:	023c                	addi	a5,sp,264
  b6:	0000                	unimp
  b8:	0240                	addi	s0,sp,260
  ba:	0000                	unimp
  bc:	027c                	addi	a5,sp,268
  be:	0000                	unimp
  c0:	0280                	addi	s0,sp,320
  c2:	0000                	unimp
  c4:	02ac                	addi	a1,sp,328
	...
  ce:	0000                	unimp
  d0:	02ac                	addi	a1,sp,328
  d2:	0000                	unimp
  d4:	0338                	addi	a4,sp,392
  d6:	0000                	unimp
  d8:	033c                	addi	a5,sp,392
  da:	0000                	unimp
  dc:	0368                	addi	a0,sp,396
	...
  e6:	0000                	unimp
  e8:	02cc                	addi	a1,sp,324
  ea:	0000                	unimp
  ec:	02f4                	addi	a3,sp,332
  ee:	0000                	unimp
  f0:	02f8                	addi	a4,sp,332
  f2:	0000                	unimp
  f4:	0338                	addi	a4,sp,392
  f6:	0000                	unimp
  f8:	033c                	addi	a5,sp,392
  fa:	0000                	unimp
  fc:	0368                	addi	a0,sp,396
	...
 106:	0000                	unimp
 108:	0078                	addi	a4,sp,12
 10a:	0000                	unimp
 10c:	007c                	addi	a5,sp,12
 10e:	0000                	unimp
 110:	0088                	addi	a0,sp,64
 112:	0000                	unimp
 114:	00b4                	addi	a3,sp,72
 116:	0000                	unimp
 118:	00bc                	addi	a5,sp,72
 11a:	0000                	unimp
 11c:	00e0                	addi	s0,sp,76
 11e:	0000                	unimp
 120:	021c                	addi	a5,sp,256
 122:	0000                	unimp
 124:	0230                	addi	a2,sp,264
	...
 12e:	0000                	unimp
 130:	00e4                	addi	s1,sp,76
 132:	0000                	unimp
 134:	01e4                	addi	s1,sp,204
 136:	0000                	unimp
 138:	0230                	addi	a2,sp,264
 13a:	0000                	unimp
 13c:	023c                	addi	a5,sp,264
 13e:	0000                	unimp
 140:	0240                	addi	s0,sp,260
 142:	0000                	unimp
 144:	0344                	addi	s1,sp,388
 146:	0000                	unimp
 148:	034c                	addi	a1,sp,388
 14a:	0000                	unimp
 14c:	0484                	addi	s1,sp,576
	...
 156:	0000                	unimp
 158:	0194                	addi	a3,sp,192
 15a:	0000                	unimp
 15c:	01b4                	addi	a3,sp,200
 15e:	0000                	unimp
 160:	032c                	addi	a1,sp,392
 162:	0000                	unimp
 164:	0338                	addi	a4,sp,392
 166:	0000                	unimp
 168:	033c                	addi	a5,sp,392
 16a:	0000                	unimp
 16c:	0344                	addi	s1,sp,388
	...
 176:	0000                	unimp
 178:	04d4                	addi	a3,sp,580
 17a:	0000                	unimp
 17c:	04d8                	addi	a4,sp,580
 17e:	0000                	unimp
 180:	0768                	addi	a0,sp,908
 182:	0000                	unimp
 184:	07c4                	addi	s1,sp,964
 186:	0000                	unimp
 188:	0a9c                	addi	a5,sp,336
 18a:	0000                	unimp
 18c:	0af8                	addi	a4,sp,348
 18e:	0000                	unimp
 190:	0be0                	addi	s0,sp,476
 192:	0000                	unimp
 194:	0bec                	addi	a1,sp,476
	...
 19e:	0000                	unimp
 1a0:	068c                	addi	a1,sp,832
 1a2:	0000                	unimp
 1a4:	0724                	addi	s1,sp,904
 1a6:	0000                	unimp
 1a8:	0950                	addi	a2,sp,148
 1aa:	0000                	unimp
 1ac:	0994                	addi	a3,sp,208
 1ae:	0000                	unimp
 1b0:	0a50                	addi	a2,sp,276
 1b2:	0000                	unimp
 1b4:	0a9c                	addi	a5,sp,336
 1b6:	0000                	unimp
 1b8:	0b30                	addi	a2,sp,408
 1ba:	0000                	unimp
 1bc:	0b60                	addi	s0,sp,412
 1be:	0000                	unimp
 1c0:	0bd8                	addi	a4,sp,468
 1c2:	0000                	unimp
 1c4:	0be0                	addi	s0,sp,476
 1c6:	0000                	unimp
 1c8:	0bec                	addi	a1,sp,476
 1ca:	0000                	unimp
 1cc:	0bf8                	addi	a4,sp,476
	...
 1d6:	0000                	unimp
 1d8:	06a0                	addi	s0,sp,840
 1da:	0000                	unimp
 1dc:	06d0                	addi	a2,sp,836
 1de:	0000                	unimp
 1e0:	0950                	addi	a2,sp,148
 1e2:	0000                	unimp
 1e4:	095c                	addi	a5,sp,148
 1e6:	0000                	unimp
 1e8:	0bd8                	addi	a4,sp,468
 1ea:	0000                	unimp
 1ec:	0be0                	addi	s0,sp,476
	...
 1f6:	0000                	unimp
 1f8:	07c4                	addi	s1,sp,964
 1fa:	0000                	unimp
 1fc:	0830                	addi	a2,sp,24
 1fe:	0000                	unimp
 200:	0994                	addi	a3,sp,208
 202:	0000                	unimp
 204:	0a04                	addi	s1,sp,272
 206:	0000                	unimp
 208:	0a40                	addi	s0,sp,276
 20a:	0000                	unimp
 20c:	0a50                	addi	a2,sp,276
 20e:	0000                	unimp
 210:	0af8                	addi	a4,sp,348
 212:	0000                	unimp
 214:	0b30                	addi	a2,sp,408
 216:	0000                	unimp
 218:	0b60                	addi	s0,sp,412
 21a:	0000                	unimp
 21c:	0bd8                	addi	a4,sp,468
 21e:	0000                	unimp
 220:	0bf8                	addi	a4,sp,476
 222:	0000                	unimp
 224:	0c0c                	addi	a1,sp,528
	...
 22e:	0000                	unimp
 230:	0810                	addi	a2,sp,16
 232:	0000                	unimp
 234:	0830                	addi	a2,sp,24
 236:	0000                	unimp
 238:	0b70                	addi	a2,sp,412
 23a:	0000                	unimp
 23c:	0b80                	addi	s0,sp,464
 23e:	0000                	unimp
 240:	0bf8                	addi	a4,sp,476
 242:	0000                	unimp
 244:	0c00                	addi	s0,sp,528
	...
 24e:	0000                	unimp
 250:	09cc                	addi	a1,sp,212
 252:	0000                	unimp
 254:	09d8                	addi	a4,sp,212
 256:	0000                	unimp
 258:	0bbc                	addi	a5,sp,472
 25a:	0000                	unimp
 25c:	0bd8                	addi	a4,sp,468
	...
 266:	0000                	unimp
 268:	08d8                	addi	a4,sp,84
 26a:	0000                	unimp
 26c:	08fc                	addi	a5,sp,92
 26e:	0000                	unimp
 270:	0a04                	addi	s1,sp,272
 272:	0000                	unimp
 274:	0a10                	addi	a2,sp,272
	...
 27e:	0000                	unimp
 280:	0018                	addi	a4,sp,0
 282:	0000                	unimp
 284:	0134                	addi	a3,sp,136
 286:	0000                	unimp
 288:	014c                	addi	a1,sp,132
 28a:	0000                	unimp
 28c:	0158                	addi	a4,sp,132
 28e:	0000                	unimp
 290:	0160                	addi	s0,sp,140
 292:	0000                	unimp
 294:	016c                	addi	a1,sp,140
	...
 29e:	0000                	unimp
 2a0:	017c                	addi	a5,sp,140
 2a2:	0000                	unimp
 2a4:	0248                	addi	a0,sp,260
 2a6:	0000                	unimp
 2a8:	0278                	addi	a4,sp,268
 2aa:	0000                	unimp
 2ac:	028c                	addi	a1,sp,320
	...
 2b6:	0000                	unimp
 2b8:	0008                	addi	a0,sp,0
 2ba:	0000                	unimp
 2bc:	0024                	addi	s1,sp,8
 2be:	0000                	unimp
 2c0:	0040                	addi	s0,sp,4
 2c2:	0000                	unimp
 2c4:	0070                	addi	a2,sp,12
	...
 2ce:	0000                	unimp
 2d0:	0020                	addi	s0,sp,8
 2d2:	0000                	unimp
 2d4:	0024                	addi	s1,sp,8
 2d6:	0000                	unimp
 2d8:	006c                	addi	a1,sp,12
 2da:	0000                	unimp
 2dc:	0070                	addi	a2,sp,12
	...
 2e6:	0000                	unimp
 2e8:	005c                	addi	a5,sp,4
 2ea:	0000                	unimp
 2ec:	0060                	addi	s0,sp,12
 2ee:	0000                	unimp
 2f0:	0064                	addi	s1,sp,12
 2f2:	0000                	unimp
 2f4:	006c                	addi	a1,sp,12
	...
 2fe:	0000                	unimp
 300:	008c                	addi	a1,sp,64
 302:	0000                	unimp
 304:	0090                	addi	a2,sp,64
 306:	0000                	unimp
 308:	00a8                	addi	a0,sp,72
 30a:	0000                	unimp
 30c:	00ac                	addi	a1,sp,72
	...
 316:	0000                	unimp
 318:	0098                	addi	a4,sp,64
 31a:	0000                	unimp
 31c:	009c                	addi	a5,sp,64
 31e:	0000                	unimp
 320:	00a0                	addi	s0,sp,72
 322:	0000                	unimp
 324:	00a8                	addi	a0,sp,72
	...

Disassembly of section .debug_line:

00000000 <.debug_line>:
       0:	02ed                	addi	t0,t0,27
       2:	0000                	unimp
       4:	0002                	0x2
       6:	029d                	addi	t0,t0,7
       8:	0000                	unimp
       a:	0101                	addi	sp,sp,0
       c:	000d0efb          	0xd0efb
      10:	0101                	addi	sp,sp,0
      12:	0101                	addi	sp,sp,0
      14:	0000                	unimp
      16:	0100                	addi	s0,sp,128
      18:	0000                	unimp
      1a:	6701                	lui	a4,0x0
      1c:	7376                	flw	ft6,124(sp)
      1e:	745f636f          	jal	t1,f6f62 <__heap_start+0xd4662>
      22:	7365                	lui	t1,0xffff9
      24:	5f74                	lw	a3,124(a4)
      26:	6162                	flw	ft2,24(sp)
      28:	7272                	flw	ft4,60(sp)
      2a:	6569                	lui	a0,0x1a
      2c:	0072                	0x72
      2e:	7273752f          	0x7273752f
      32:	7263732f          	0x7263732f
      36:	7461                	lui	s0,0xffff8
      38:	2f326863          	bltu	tp,s3,328 <__seq_start+0x328>
      3c:	616c                	flw	fa1,68(a0)
      3e:	6172                	flw	ft2,28(sp)
      40:	6e69                	lui	t3,0x1a
      42:	2f38                	fld	fa4,88(a4)
      44:	6979                	lui	s2,0x1e
      46:	61687a63          	bleu	s6,a6,65a <__seq_start+0x65a>
      4a:	676e                	flw	fa4,216(sp)
      4c:	7265742f          	0x7265742f
      50:	7061                	0x7061
      52:	5f6c6f6f          	jal	t5,c6648 <__heap_start+0xa3d48>
      56:	7264                	flw	fs1,100(a2)
      58:	6d61                	lui	s10,0x18
      5a:	735f 6275 6f6d      	0x6f6d6275735f
      60:	7564                	flw	fs1,108(a0)
      62:	656c                	flw	fa1,76(a0)
      64:	725f 6265 7361      	0x73616265725f
      6a:	5f65                	li	t5,-7
      6c:	3530                	fld	fa2,104(a0)
      6e:	3230                	fld	fa2,96(a2)
      70:	325f 3230 2f34      	0x2f343230325f
      76:	656d                	lui	a0,0x1b
      78:	706d                	0x706d
      7a:	2f6c6f6f          	jal	t5,c6370 <__heap_start+0xa3a70>
      7e:	74666f73          	csrrsi	t5,0x746,12
      82:	65726177          	0x65726177
      86:	6e75722f          	0x6e75722f
      8a:	6974                	flw	fa3,84(a0)
      8c:	656d                	lui	a0,0x1b
      8e:	2f00                	fld	fs0,24(a4)
      90:	7375                	lui	t1,0xffffd
      92:	2f72                	fld	ft10,280(sp)
      94:	61726373          	csrrsi	t1,0x617,4
      98:	6374                	flw	fa3,68(a4)
      9a:	3268                	fld	fa0,224(a2)
      9c:	72616c2f          	0x72616c2f
      a0:	6961                	lui	s2,0x18
      a2:	386e                	fld	fa6,248(sp)
      a4:	6369792f          	0x6369792f
      a8:	687a                	flw	fa6,156(sp)
      aa:	6e61                	lui	t3,0x18
      ac:	65742f67          	0x65742f67
      b0:	6172                	flw	ft2,28(sp)
      b2:	6f70                	flw	fa2,92(a4)
      b4:	645f6c6f          	jal	s8,f6ef8 <__heap_start+0xd45f8>
      b8:	6172                	flw	ft2,28(sp)
      ba:	5f6d                	li	t5,-5
      bc:	6d627573          	csrrci	a0,0x6d6,4
      c0:	6c75646f          	jal	s0,56f86 <__heap_start+0x34686>
      c4:	5f65                	li	t5,-7
      c6:	6572                	flw	fa0,28(sp)
      c8:	6162                	flw	ft2,24(sp)
      ca:	305f6573          	csrrsi	a0,mtvec,30
      ce:	3035                	jal	fffff8fa <pulp__FC+0xfffff8fb>
      d0:	5f32                	lw	t5,44(sp)
      d2:	3032                	fld	ft0,296(sp)
      d4:	3432                	fld	fs0,296(sp)
      d6:	6d656d2f          	0x6d656d2f
      da:	6f70                	flw	fa2,92(a4)
      dc:	692f6c6f          	jal	s8,f676e <__heap_start+0xd3e6e>
      e0:	736e                	flw	ft6,248(sp)
      e2:	6174                	flw	fa3,68(a0)
      e4:	6c6c                	flw	fa1,92(s0)
      e6:	7369722f          	0x7369722f
      ea:	672d7663          	bleu	s2,s10,756 <__seq_start+0x756>
      ee:	722f6363          	bltu	t5,sp,814 <__seq_start+0x814>
      f2:	7369                	lui	t1,0xffffa
      f4:	32337663          	bleu	gp,t1,420 <__seq_start+0x420>
      f8:	752d                	lui	a0,0xfffeb
      fa:	6b6e                	flw	fs6,216(sp)
      fc:	6f6e                	flw	ft10,216(sp)
      fe:	652d6e77          	0x652d6e77
     102:	666c                	flw	fa1,76(a2)
     104:	7379732f          	0x7379732f
     108:	692d                	lui	s2,0xb
     10a:	636e                	flw	ft6,216(sp)
     10c:	756c                	flw	fa1,108(a0)
     10e:	6564                	flw	fs1,76(a0)
     110:	63616d2f          	0x63616d2f
     114:	6968                	flw	fa0,84(a0)
     116:	656e                	flw	fa0,216(sp)
     118:	2f00                	fld	fs0,24(a4)
     11a:	7375                	lui	t1,0xffffd
     11c:	2f72                	fld	ft10,280(sp)
     11e:	61726373          	csrrsi	t1,0x617,4
     122:	6374                	flw	fa3,68(a4)
     124:	3268                	fld	fa0,224(a2)
     126:	72616c2f          	0x72616c2f
     12a:	6961                	lui	s2,0x18
     12c:	386e                	fld	fa6,248(sp)
     12e:	6369792f          	0x6369792f
     132:	687a                	flw	fa6,156(sp)
     134:	6e61                	lui	t3,0x18
     136:	65742f67          	0x65742f67
     13a:	6172                	flw	ft2,28(sp)
     13c:	6f70                	flw	fa2,92(a4)
     13e:	645f6c6f          	jal	s8,f6f82 <__heap_start+0xd4682>
     142:	6172                	flw	ft2,28(sp)
     144:	5f6d                	li	t5,-5
     146:	6d627573          	csrrci	a0,0x6d6,4
     14a:	6c75646f          	jal	s0,57010 <__heap_start+0x34710>
     14e:	5f65                	li	t5,-7
     150:	6572                	flw	fa0,28(sp)
     152:	6162                	flw	ft2,24(sp)
     154:	305f6573          	csrrsi	a0,mtvec,30
     158:	3035                	jal	fffff984 <pulp__FC+0xfffff985>
     15a:	5f32                	lw	t5,44(sp)
     15c:	3032                	fld	ft0,296(sp)
     15e:	3432                	fld	fs0,296(sp)
     160:	6d656d2f          	0x6d656d2f
     164:	6f70                	flw	fa2,92(a4)
     166:	692f6c6f          	jal	s8,f67f8 <__heap_start+0xd3ef8>
     16a:	736e                	flw	ft6,248(sp)
     16c:	6174                	flw	fa3,68(a0)
     16e:	6c6c                	flw	fa1,92(s0)
     170:	7369722f          	0x7369722f
     174:	672d7663          	bleu	s2,s10,7e0 <__seq_start+0x7e0>
     178:	722f6363          	bltu	t5,sp,89e <__seq_start+0x89e>
     17c:	7369                	lui	t1,0xffffa
     17e:	32337663          	bleu	gp,t1,4aa <__seq_start+0x4aa>
     182:	752d                	lui	a0,0xfffeb
     184:	6b6e                	flw	fs6,216(sp)
     186:	6f6e                	flw	ft10,216(sp)
     188:	652d6e77          	0x652d6e77
     18c:	666c                	flw	fa1,76(a2)
     18e:	7379732f          	0x7379732f
     192:	692d                	lui	s2,0xb
     194:	636e                	flw	ft6,216(sp)
     196:	756c                	flw	fa1,108(a0)
     198:	6564                	flw	fs1,76(a0)
     19a:	7379732f          	0x7379732f
     19e:	2f00                	fld	fs0,24(a4)
     1a0:	7375                	lui	t1,0xffffd
     1a2:	2f72                	fld	ft10,280(sp)
     1a4:	61726373          	csrrsi	t1,0x617,4
     1a8:	6374                	flw	fa3,68(a4)
     1aa:	3268                	fld	fa0,224(a2)
     1ac:	72616c2f          	0x72616c2f
     1b0:	6961                	lui	s2,0x18
     1b2:	386e                	fld	fa6,248(sp)
     1b4:	6369792f          	0x6369792f
     1b8:	687a                	flw	fa6,156(sp)
     1ba:	6e61                	lui	t3,0x18
     1bc:	65742f67          	0x65742f67
     1c0:	6172                	flw	ft2,28(sp)
     1c2:	6f70                	flw	fa2,92(a4)
     1c4:	645f6c6f          	jal	s8,f7008 <__heap_start+0xd4708>
     1c8:	6172                	flw	ft2,28(sp)
     1ca:	5f6d                	li	t5,-5
     1cc:	6d627573          	csrrci	a0,0x6d6,4
     1d0:	6c75646f          	jal	s0,57096 <__heap_start+0x34796>
     1d4:	5f65                	li	t5,-7
     1d6:	6572                	flw	fa0,28(sp)
     1d8:	6162                	flw	ft2,24(sp)
     1da:	305f6573          	csrrsi	a0,mtvec,30
     1de:	3035                	jal	fffffa0a <pulp__FC+0xfffffa0b>
     1e0:	5f32                	lw	t5,44(sp)
     1e2:	3032                	fld	ft0,296(sp)
     1e4:	3432                	fld	fs0,296(sp)
     1e6:	6d656d2f          	0x6d656d2f
     1ea:	6f70                	flw	fa2,92(a4)
     1ec:	692f6c6f          	jal	s8,f687e <__heap_start+0xd3f7e>
     1f0:	736e                	flw	ft6,248(sp)
     1f2:	6174                	flw	fa3,68(a0)
     1f4:	6c6c                	flw	fa1,92(s0)
     1f6:	7369722f          	0x7369722f
     1fa:	672d7663          	bleu	s2,s10,866 <__seq_start+0x866>
     1fe:	6c2f6363          	bltu	t5,sp,8c4 <__seq_start+0x8c4>
     202:	6269                	lui	tp,0x1a
     204:	6363672f          	0x6363672f
     208:	7369722f          	0x7369722f
     20c:	32337663          	bleu	gp,t1,538 <__seq_start+0x538>
     210:	752d                	lui	a0,0xfffeb
     212:	6b6e                	flw	fs6,216(sp)
     214:	6f6e                	flw	ft10,216(sp)
     216:	652d6e77          	0x652d6e77
     21a:	666c                	flw	fa1,76(a2)
     21c:	312e372f          	0x312e372f
     220:	312e                	fld	ft2,232(sp)
     222:	636e692f          	0x636e692f
     226:	756c                	flw	fa1,108(a0)
     228:	6564                	flw	fs1,76(a0)
     22a:	0000                	unimp
     22c:	616d                	addi	sp,sp,240
     22e:	6e69                	lui	t3,0x1a
     230:	632e                	flw	ft6,200(sp)
     232:	0100                	addi	s0,sp,128
     234:	0000                	unimp
     236:	7572                	flw	fa0,60(sp)
     238:	746e                	flw	fs0,248(sp)
     23a:	6d69                	lui	s10,0x1a
     23c:	2e65                	jal	5f4 <__seq_start+0x5f4>
     23e:	0068                	addi	a0,sp,12
     240:	0002                	0x2
     242:	5f00                	lw	s0,56(a4)
     244:	6564                	flw	fs1,76(a0)
     246:	6166                	flw	ft2,88(sp)
     248:	6c75                	lui	s8,0x1d
     24a:	5f74                	lw	a3,124(a4)
     24c:	7974                	flw	fa3,116(a0)
     24e:	6570                	flw	fa2,76(a0)
     250:	00682e73          	csrrs	t3,0x6,a6
     254:	5f000003          	lb	zero,1520(zero) # 5f0 <__seq_start+0x5f0>
     258:	69647473          	csrrci	s0,0x696,8
     25c:	746e                	flw	fs0,248(sp)
     25e:	682e                	flw	fa6,200(sp)
     260:	0400                	addi	s0,sp,512
     262:	0000                	unimp
     264:	6f6c                	flw	fa1,92(a4)
     266:	682e6b63          	bltu	t3,sp,8fc <__seq_start+0x8fc>
     26a:	0400                	addi	s0,sp,512
     26c:	0000                	unimp
     26e:	745f 7079 7365      	0x73657079745f
     274:	682e                	flw	fa6,200(sp)
     276:	0400                	addi	s0,sp,512
     278:	0000                	unimp
     27a:	64647473          	csrrci	s0,0x646,8
     27e:	6665                	lui	a2,0x19
     280:	682e                	flw	fa6,200(sp)
     282:	0500                	addi	s0,sp,640
     284:	0000                	unimp
     286:	6572                	flw	fa0,28(sp)
     288:	6e65                	lui	t3,0x19
     28a:	2e74                	fld	fa3,216(a2)
     28c:	0068                	addi	a0,sp,12
     28e:	0004                	addi	s1,sp,0
     290:	7300                	flw	fs0,32(a4)
     292:	6e79                	lui	t3,0x1e
     294:	6f726863          	bltu	tp,s7,984 <__seq_start+0x984>
     298:	696e                	flw	fs2,216(sp)
     29a:	617a                	flw	ft2,156(sp)
     29c:	6974                	flw	fa3,84(a0)
     29e:	682e6e6f          	jal	t3,e6920 <__heap_start+0xc4020>
     2a2:	0200                	addi	s0,sp,256
     2a4:	0000                	unimp
     2a6:	0000                	unimp
     2a8:	0205                	addi	tp,tp,1
     2aa:	0108                	addi	a0,sp,128
     2ac:	8000                	0x8000
     2ae:	04010f03          	lb	t5,64(sp)
     2b2:	0302                	slli	t1,t1,0x0
     2b4:	00100917          	auipc	s2,0x100
     2b8:	0401                	addi	s0,s0,0
     2ba:	0301                	addi	t1,t1,0
     2bc:	096d                	addi	s2,s2,27
     2be:	0004                	addi	s1,sp,0
     2c0:	0301                	addi	t1,t1,0
     2c2:	090a                	slli	s2,s2,0x2
     2c4:	0008                	addi	a0,sp,0
     2c6:	0301                	addi	t1,t1,0
     2c8:	000c0903          	lb	s2,0(s8) # 1d000 <__seq_start+0x1d000>
     2cc:	0301                	addi	t1,t1,0
     2ce:	097d                	addi	s2,s2,31
     2d0:	0004                	addi	s1,sp,0
     2d2:	0301                	addi	t1,t1,0
     2d4:	00040903          	lb	s2,0(s0) # ffff8000 <pulp__FC+0xffff8001>
     2d8:	0301                	addi	t1,t1,0
     2da:	00040903          	lb	s2,0(s0)
     2de:	0301                	addi	t1,t1,0
     2e0:	0901                	addi	s2,s2,0
     2e2:	0004                	addi	s1,sp,0
     2e4:	0301                	addi	t1,t1,0
     2e6:	0906                	slli	s2,s2,0x1
     2e8:	0008                	addi	a0,sp,0
     2ea:	0901                	addi	s2,s2,0
     2ec:	001c                	addi	a5,sp,0
     2ee:	0100                	addi	s0,sp,128
     2f0:	0d01                	addi	s10,s10,0
     2f2:	0005                	c.addi	zero,1
     2f4:	0200                	addi	s0,sp,256
     2f6:	c700                	sw	s0,8(a4)
     2f8:	0001                	nop
     2fa:	0100                	addi	s0,sp,128
     2fc:	fb01                	bnez	a4,20c <__seq_start+0x20c>
     2fe:	0d0e                	slli	s10,s10,0x3
     300:	0100                	addi	s0,sp,128
     302:	0101                	addi	sp,sp,0
     304:	0001                	nop
     306:	0000                	unimp
     308:	0001                	nop
     30a:	0100                	addi	s0,sp,128
     30c:	7273752f          	0x7273752f
     310:	7263732f          	0x7263732f
     314:	7461                	lui	s0,0xffff8
     316:	2f326863          	bltu	tp,s3,606 <__seq_start+0x606>
     31a:	616c                	flw	fa1,68(a0)
     31c:	6172                	flw	ft2,28(sp)
     31e:	6e69                	lui	t3,0x1a
     320:	2f38                	fld	fa4,88(a4)
     322:	6979                	lui	s2,0x1e
     324:	61687a63          	bleu	s6,a6,938 <__seq_start+0x938>
     328:	676e                	flw	fa4,216(sp)
     32a:	7265742f          	0x7265742f
     32e:	7061                	0x7061
     330:	5f6c6f6f          	jal	t5,c6926 <__heap_start+0xa4026>
     334:	7264                	flw	fs1,100(a2)
     336:	6d61                	lui	s10,0x18
     338:	735f 6275 6f6d      	0x6f6d6275735f
     33e:	7564                	flw	fs1,108(a0)
     340:	656c                	flw	fa1,76(a0)
     342:	725f 6265 7361      	0x73616265725f
     348:	5f65                	li	t5,-7
     34a:	3530                	fld	fa2,104(a0)
     34c:	3230                	fld	fa2,96(a2)
     34e:	325f 3230 2f34      	0x2f343230325f
     354:	656d                	lui	a0,0x1b
     356:	706d                	0x706d
     358:	2f6c6f6f          	jal	t5,c664e <__heap_start+0xa3d4e>
     35c:	74666f73          	csrrsi	t5,0x746,12
     360:	65726177          	0x65726177
     364:	6e75722f          	0x6e75722f
     368:	6974                	flw	fa3,84(a0)
     36a:	656d                	lui	a0,0x1b
     36c:	2f00                	fld	fs0,24(a4)
     36e:	7375                	lui	t1,0xffffd
     370:	2f72                	fld	ft10,280(sp)
     372:	61726373          	csrrsi	t1,0x617,4
     376:	6374                	flw	fa3,68(a4)
     378:	3268                	fld	fa0,224(a2)
     37a:	72616c2f          	0x72616c2f
     37e:	6961                	lui	s2,0x18
     380:	386e                	fld	fa6,248(sp)
     382:	6369792f          	0x6369792f
     386:	687a                	flw	fa6,156(sp)
     388:	6e61                	lui	t3,0x18
     38a:	65742f67          	0x65742f67
     38e:	6172                	flw	ft2,28(sp)
     390:	6f70                	flw	fa2,92(a4)
     392:	645f6c6f          	jal	s8,f71d6 <__heap_start+0xd48d6>
     396:	6172                	flw	ft2,28(sp)
     398:	5f6d                	li	t5,-5
     39a:	6d627573          	csrrci	a0,0x6d6,4
     39e:	6c75646f          	jal	s0,57264 <__heap_start+0x34964>
     3a2:	5f65                	li	t5,-7
     3a4:	6572                	flw	fa0,28(sp)
     3a6:	6162                	flw	ft2,24(sp)
     3a8:	305f6573          	csrrsi	a0,mtvec,30
     3ac:	3035                	jal	fffffbd8 <pulp__FC+0xfffffbd9>
     3ae:	5f32                	lw	t5,44(sp)
     3b0:	3032                	fld	ft0,296(sp)
     3b2:	3432                	fld	fs0,296(sp)
     3b4:	6d656d2f          	0x6d656d2f
     3b8:	6f70                	flw	fa2,92(a4)
     3ba:	692f6c6f          	jal	s8,f6a4c <__heap_start+0xd414c>
     3be:	736e                	flw	ft6,248(sp)
     3c0:	6174                	flw	fa3,68(a0)
     3c2:	6c6c                	flw	fa1,92(s0)
     3c4:	7369722f          	0x7369722f
     3c8:	672d7663          	bleu	s2,s10,a34 <__seq_start+0xa34>
     3cc:	722f6363          	bltu	t5,sp,af2 <__seq_start+0xaf2>
     3d0:	7369                	lui	t1,0xffffa
     3d2:	32337663          	bleu	gp,t1,6fe <__seq_start+0x6fe>
     3d6:	752d                	lui	a0,0xfffeb
     3d8:	6b6e                	flw	fs6,216(sp)
     3da:	6f6e                	flw	ft10,216(sp)
     3dc:	652d6e77          	0x652d6e77
     3e0:	666c                	flw	fa1,76(a2)
     3e2:	7379732f          	0x7379732f
     3e6:	692d                	lui	s2,0xb
     3e8:	636e                	flw	ft6,216(sp)
     3ea:	756c                	flw	fa1,108(a0)
     3ec:	6564                	flw	fs1,76(a0)
     3ee:	63616d2f          	0x63616d2f
     3f2:	6968                	flw	fa0,84(a0)
     3f4:	656e                	flw	fa0,216(sp)
     3f6:	2f00                	fld	fs0,24(a4)
     3f8:	7375                	lui	t1,0xffffd
     3fa:	2f72                	fld	ft10,280(sp)
     3fc:	61726373          	csrrsi	t1,0x617,4
     400:	6374                	flw	fa3,68(a4)
     402:	3268                	fld	fa0,224(a2)
     404:	72616c2f          	0x72616c2f
     408:	6961                	lui	s2,0x18
     40a:	386e                	fld	fa6,248(sp)
     40c:	6369792f          	0x6369792f
     410:	687a                	flw	fa6,156(sp)
     412:	6e61                	lui	t3,0x18
     414:	65742f67          	0x65742f67
     418:	6172                	flw	ft2,28(sp)
     41a:	6f70                	flw	fa2,92(a4)
     41c:	645f6c6f          	jal	s8,f7260 <__heap_start+0xd4960>
     420:	6172                	flw	ft2,28(sp)
     422:	5f6d                	li	t5,-5
     424:	6d627573          	csrrci	a0,0x6d6,4
     428:	6c75646f          	jal	s0,572ee <__heap_start+0x349ee>
     42c:	5f65                	li	t5,-7
     42e:	6572                	flw	fa0,28(sp)
     430:	6162                	flw	ft2,24(sp)
     432:	305f6573          	csrrsi	a0,mtvec,30
     436:	3035                	jal	fffffc62 <pulp__FC+0xfffffc63>
     438:	5f32                	lw	t5,44(sp)
     43a:	3032                	fld	ft0,296(sp)
     43c:	3432                	fld	fs0,296(sp)
     43e:	6d656d2f          	0x6d656d2f
     442:	6f70                	flw	fa2,92(a4)
     444:	692f6c6f          	jal	s8,f6ad6 <__heap_start+0xd41d6>
     448:	736e                	flw	ft6,248(sp)
     44a:	6174                	flw	fa3,68(a0)
     44c:	6c6c                	flw	fa1,92(s0)
     44e:	7369722f          	0x7369722f
     452:	672d7663          	bleu	s2,s10,abe <__seq_start+0xabe>
     456:	722f6363          	bltu	t5,sp,b7c <__seq_start+0xb7c>
     45a:	7369                	lui	t1,0xffffa
     45c:	32337663          	bleu	gp,t1,788 <__seq_start+0x788>
     460:	752d                	lui	a0,0xfffeb
     462:	6b6e                	flw	fs6,216(sp)
     464:	6f6e                	flw	ft10,216(sp)
     466:	652d6e77          	0x652d6e77
     46a:	666c                	flw	fa1,76(a2)
     46c:	7379732f          	0x7379732f
     470:	692d                	lui	s2,0xb
     472:	636e                	flw	ft6,216(sp)
     474:	756c                	flw	fa1,108(a0)
     476:	6564                	flw	fs1,76(a0)
     478:	7379732f          	0x7379732f
     47c:	0000                	unimp
     47e:	6c61                	lui	s8,0x18
     480:	6f6c                	flw	fa1,92(a4)
     482:	00632e63          	p.beqimm	t1,6,49e <__seq_start+0x49e>
     486:	0001                	nop
     488:	5f00                	lw	s0,56(a4)
     48a:	6564                	flw	fs1,76(a0)
     48c:	6166                	flw	ft2,88(sp)
     48e:	6c75                	lui	s8,0x1d
     490:	5f74                	lw	a3,124(a4)
     492:	7974                	flw	fa3,116(a0)
     494:	6570                	flw	fa2,76(a0)
     496:	00682e73          	csrrs	t3,0x6,a6
     49a:	0002                	0x2
     49c:	5f00                	lw	s0,56(a4)
     49e:	69647473          	csrrci	s0,0x696,8
     4a2:	746e                	flw	fs0,248(sp)
     4a4:	682e                	flw	fa6,200(sp)
     4a6:	0300                	addi	s0,sp,384
     4a8:	0000                	unimp
     4aa:	6c61                	lui	s8,0x18
     4ac:	6f6c                	flw	fa1,92(a4)
     4ae:	00682e63          	p.beqimm	a6,6,4ca <__seq_start+0x4ca>
     4b2:	0001                	nop
     4b4:	7000                	flw	fs0,32(s0)
     4b6:	6972                	flw	fs2,28(sp)
     4b8:	746e                	flw	fs0,248(sp)
     4ba:	2e66                	fld	ft8,88(sp)
     4bc:	0068                	addi	a0,sp,12
     4be:	0001                	nop
     4c0:	0000                	unimp
     4c2:	0500                	addi	s0,sp,640
     4c4:	6402                	flw	fs0,0(sp)
     4c6:	0001                	nop
     4c8:	0380                	addi	s0,sp,448
     4ca:	013c                	addi	a5,sp,136
     4cc:	00090203          	lb	tp,0(s2) # b000 <__seq_start+0xb000>
     4d0:	0100                	addi	s0,sp,128
     4d2:	08090403          	lb	s0,128(s2)
     4d6:	0100                	addi	s0,sp,128
     4d8:	08090103          	lb	sp,128(s2)
     4dc:	0100                	addi	s0,sp,128
     4de:	04090303          	lb	t1,64(s2)
     4e2:	0100                	addi	s0,sp,128
     4e4:	04090103          	lb	sp,64(s2)
     4e8:	0100                	addi	s0,sp,128
     4ea:	04090103          	lb	sp,64(s2)
     4ee:	0100                	addi	s0,sp,128
     4f0:	04090103          	lb	sp,64(s2)
     4f4:	0100                	addi	s0,sp,128
     4f6:	04092d03          	lw	s10,64(s2)
     4fa:	0100                	addi	s0,sp,128
     4fc:	04090303          	lb	t1,64(s2)
     500:	0100                	addi	s0,sp,128
     502:	04097d03          	0x4097d03
     506:	0100                	addi	s0,sp,128
     508:	04090303          	lb	t1,64(s2)
     50c:	0100                	addi	s0,sp,128
     50e:	04090403          	lb	s0,64(s2)
     512:	0100                	addi	s0,sp,128
     514:	08095303          	lhu	t1,128(s2)
     518:	0100                	addi	s0,sp,128
     51a:	04090403          	lb	s0,64(s2)
     51e:	0100                	addi	s0,sp,128
     520:	2c093103          	0x2c093103
     524:	0100                	addi	s0,sp,128
     526:	0c090a03          	lb	s4,192(s2)
     52a:	0100                	addi	s0,sp,128
     52c:	04097703          	0x4097703
     530:	0100                	addi	s0,sp,128
     532:	04090903          	lb	s2,64(s2)
     536:	0100                	addi	s0,sp,128
     538:	08094c03          	lbu	s8,128(s2)
     53c:	0100                	addi	s0,sp,128
     53e:	04090903          	lb	s2,64(s2)
     542:	0100                	addi	s0,sp,128
     544:	04090103          	lb	sp,64(s2)
     548:	0100                	addi	s0,sp,128
     54a:	08090103          	lb	sp,128(s2)
     54e:	0100                	addi	s0,sp,128
     550:	04090203          	lb	tp,64(s2)
     554:	0100                	addi	s0,sp,128
     556:	04094a03          	lbu	s4,64(s2)
     55a:	0100                	addi	s0,sp,128
     55c:	0900d803          	lhu	a6,144(ra) # 2160 <__seq_start+0x2160>
     560:	000c                	addi	a1,sp,0
     562:	0301                	addi	t1,t1,0
     564:	0905                	addi	s2,s2,1
     566:	0008                	addi	a0,sp,0
     568:	0301                	addi	t1,t1,0
     56a:	000c094f          	0xc094f
     56e:	0301                	addi	t1,t1,0
     570:	097d                	addi	s2,s2,31
     572:	0008                	addi	a0,sp,0
     574:	0301                	addi	t1,t1,0
     576:	0909                	addi	s2,s2,2
     578:	0004                	addi	s1,sp,0
     57a:	0301                	addi	t1,t1,0
     57c:	0901                	addi	s2,s2,0
     57e:	0004                	addi	s1,sp,0
     580:	0301                	addi	t1,t1,0
     582:	0901                	addi	s2,s2,0
     584:	0004                	addi	s1,sp,0
     586:	0301                	addi	t1,t1,0
     588:	097f                	0x97f
     58a:	0004                	addi	s1,sp,0
     58c:	0301                	addi	t1,t1,0
     58e:	0905                	addi	s2,s2,1
     590:	0004                	addi	s1,sp,0
     592:	0301                	addi	t1,t1,0
     594:	0976                	slli	s2,s2,0x1d
     596:	000c                	addi	a1,sp,0
     598:	0301                	addi	t1,t1,0
     59a:	091e                	slli	s2,s2,0x7
     59c:	000c                	addi	a1,sp,0
     59e:	0301                	addi	t1,t1,0
     5a0:	0901                	addi	s2,s2,0
     5a2:	000c                	addi	a1,sp,0
     5a4:	0301                	addi	t1,t1,0
     5a6:	0912                	slli	s2,s2,0x4
     5a8:	0008                	addi	a0,sp,0
     5aa:	0301                	addi	t1,t1,0
     5ac:	0968                	addi	a0,sp,156
     5ae:	0004                	addi	s1,sp,0
     5b0:	0301                	addi	t1,t1,0
     5b2:	0918                	addi	a4,sp,144
     5b4:	0004                	addi	s1,sp,0
     5b6:	0301                	addi	t1,t1,0
     5b8:	0968                	addi	a0,sp,156
     5ba:	0004                	addi	s1,sp,0
     5bc:	0301                	addi	t1,t1,0
     5be:	0904                	addi	s1,sp,144
     5c0:	0004                	addi	s1,sp,0
     5c2:	0301                	addi	t1,t1,0
     5c4:	00080953          	0x80953
     5c8:	0301                	addi	t1,t1,0
     5ca:	0904                	addi	s1,sp,144
     5cc:	000c                	addi	a1,sp,0
     5ce:	0301                	addi	t1,t1,0
     5d0:	0931                	addi	s2,s2,12
     5d2:	002c                	addi	a1,sp,8
     5d4:	0301                	addi	t1,t1,0
     5d6:	090e                	slli	s2,s2,0x3
     5d8:	000c                	addi	a1,sp,0
     5da:	0301                	addi	t1,t1,0
     5dc:	00040973          	0x40973
     5e0:	0301                	addi	t1,t1,0
     5e2:	090d                	addi	s2,s2,3
     5e4:	0004                	addi	s1,sp,0
     5e6:	0301                	addi	t1,t1,0
     5e8:	0948                	addi	a0,sp,148
     5ea:	0008                	addi	a0,sp,0
     5ec:	0301                	addi	t1,t1,0
     5ee:	0909                	addi	s2,s2,2
     5f0:	0004                	addi	s1,sp,0
     5f2:	0301                	addi	t1,t1,0
     5f4:	0901                	addi	s2,s2,0
     5f6:	0004                	addi	s1,sp,0
     5f8:	0301                	addi	t1,t1,0
     5fa:	0901                	addi	s2,s2,0
     5fc:	0008                	addi	a0,sp,0
     5fe:	0301                	addi	t1,t1,0
     600:	0902                	slli	s2,s2,0x0
     602:	0004                	addi	s1,sp,0
     604:	0301                	addi	t1,t1,0
     606:	094a                	slli	s2,s2,0x12
     608:	0004                	addi	s1,sp,0
     60a:	0301                	addi	t1,t1,0
     60c:	00d8                	addi	a4,sp,68
     60e:	0c09                	addi	s8,s8,2
     610:	0100                	addi	s0,sp,128
     612:	04090903          	lb	s2,64(s2)
     616:	0100                	addi	s0,sp,128
     618:	0c094b03          	lbu	s6,192(s2)
     61c:	0100                	addi	s0,sp,128
     61e:	08097d03          	0x8097d03
     622:	0100                	addi	s0,sp,128
     624:	04090903          	lb	s2,64(s2)
     628:	0100                	addi	s0,sp,128
     62a:	04090103          	lb	sp,64(s2)
     62e:	0100                	addi	s0,sp,128
     630:	08090103          	lb	sp,128(s2)
     634:	0100                	addi	s0,sp,128
     636:	04090403          	lb	s0,64(s2)
     63a:	0100                	addi	s0,sp,128
     63c:	10097603          	p.lh	a2,zero(s2)
     640:	0100                	addi	s0,sp,128
     642:	10091e03          	lh	t3,256(s2)
     646:	0100                	addi	s0,sp,128
     648:	0c090103          	lb	sp,192(s2)
     64c:	0100                	addi	s0,sp,128
     64e:	08093f03          	0x8093f03
     652:	0100                	addi	s0,sp,128
     654:	00090603          	lb	a2,0(s2)
     658:	0100                	addi	s0,sp,128
     65a:	04097c03          	0x4097c03
     65e:	0100                	addi	s0,sp,128
     660:	04090703          	lb	a4,64(s2)
     664:	0100                	addi	s0,sp,128
     666:	0c090103          	lb	sp,192(s2)
     66a:	0100                	addi	s0,sp,128
     66c:	10095303          	lhu	t1,256(s2)
     670:	0100                	addi	s0,sp,128
     672:	04090403          	lb	s0,64(s2)
     676:	0100                	addi	s0,sp,128
     678:	14090203          	lb	tp,320(s2)
     67c:	0100                	addi	s0,sp,128
     67e:	04097e03          	0x4097e03
     682:	0100                	addi	s0,sp,128
     684:	097f9703          	lh	a4,151(t6)
     688:	0004                	addi	s1,sp,0
     68a:	0301                	addi	t1,t1,0
     68c:	040900ef          	jal	ra,906cc <__heap_start+0x6ddcc>
     690:	0100                	addi	s0,sp,128
     692:	08090603          	lb	a2,128(s2)
     696:	0100                	addi	s0,sp,128
     698:	04090103          	lb	sp,64(s2)
     69c:	0100                	addi	s0,sp,128
     69e:	04090303          	lb	t1,64(s2)
     6a2:	0100                	addi	s0,sp,128
     6a4:	04090203          	lb	tp,64(s2)
     6a8:	0100                	addi	s0,sp,128
     6aa:	0c090603          	lb	a2,192(s2)
     6ae:	0100                	addi	s0,sp,128
     6b0:	08097c03          	0x8097c03
     6b4:	0100                	addi	s0,sp,128
     6b6:	08090103          	lb	sp,128(s2)
     6ba:	0100                	addi	s0,sp,128
     6bc:	08090603          	lb	a2,128(s2)
     6c0:	0100                	addi	s0,sp,128
     6c2:	04091403          	lh	s0,64(s2)
     6c6:	0100                	addi	s0,sp,128
     6c8:	04095903          	lhu	s2,64(s2)
     6cc:	0100                	addi	s0,sp,128
     6ce:	04090103          	lb	sp,64(s2)
     6d2:	0100                	addi	s0,sp,128
     6d4:	04097f03          	0x4097f03
     6d8:	0100                	addi	s0,sp,128
     6da:	08090103          	lb	sp,128(s2)
     6de:	0100                	addi	s0,sp,128
     6e0:	08097703          	0x8097703
     6e4:	0100                	addi	s0,sp,128
     6e6:	0c097d03          	0xc097d03
     6ea:	0100                	addi	s0,sp,128
     6ec:	08093403          	0x8093403
     6f0:	0100                	addi	s0,sp,128
     6f2:	00097403          	p.lb	s0,zero(s2)
     6f6:	0100                	addi	s0,sp,128
     6f8:	04097c03          	0x4097c03
     6fc:	0100                	addi	s0,sp,128
     6fe:	04090703          	lb	a4,64(s2)
     702:	0100                	addi	s0,sp,128
     704:	0c090103          	lb	sp,192(s2)
     708:	0100                	addi	s0,sp,128
     70a:	0c095303          	lhu	t1,192(s2)
     70e:	0100                	addi	s0,sp,128
     710:	0c090403          	lb	s0,192(s2)
     714:	0100                	addi	s0,sp,128
     716:	14090203          	lb	tp,320(s2)
     71a:	0100                	addi	s0,sp,128
     71c:	04097e03          	0x4097e03
     720:	0100                	addi	s0,sp,128
     722:	097f9703          	lh	a4,151(t6)
     726:	0004                	addi	s1,sp,0
     728:	0301                	addi	t1,t1,0
     72a:	040900ef          	jal	ra,9076a <__heap_start+0x6de6a>
     72e:	0100                	addi	s0,sp,128
     730:	08090603          	lb	a2,128(s2)
     734:	0100                	addi	s0,sp,128
     736:	04090103          	lb	sp,64(s2)
     73a:	0100                	addi	s0,sp,128
     73c:	04090303          	lb	t1,64(s2)
     740:	0100                	addi	s0,sp,128
     742:	04090203          	lb	tp,64(s2)
     746:	0100                	addi	s0,sp,128
     748:	0c090603          	lb	a2,192(s2)
     74c:	0100                	addi	s0,sp,128
     74e:	08097c03          	0x8097c03
     752:	0100                	addi	s0,sp,128
     754:	08090103          	lb	sp,128(s2)
     758:	0100                	addi	s0,sp,128
     75a:	08090603          	lb	a2,128(s2)
     75e:	0100                	addi	s0,sp,128
     760:	08091603          	lh	a2,128(s2)
     764:	0100                	addi	s0,sp,128
     766:	04095703          	lhu	a4,64(s2)
     76a:	0100                	addi	s0,sp,128
     76c:	04090103          	lb	sp,64(s2)
     770:	0100                	addi	s0,sp,128
     772:	04097f03          	0x4097f03
     776:	0100                	addi	s0,sp,128
     778:	08090103          	lb	sp,128(s2)
     77c:	0100                	addi	s0,sp,128
     77e:	08097703          	0x8097703
     782:	0100                	addi	s0,sp,128
     784:	0c097d03          	0xc097d03
     788:	0100                	addi	s0,sp,128
     78a:	08093903          	0x8093903
     78e:	0100                	addi	s0,sp,128
     790:	08090203          	lb	tp,128(s2)
     794:	0100                	addi	s0,sp,128
     796:	04090203          	lb	tp,64(s2)
     79a:	0100                	addi	s0,sp,128
     79c:	08097c03          	0x8097c03
     7a0:	0100                	addi	s0,sp,128
     7a2:	08090403          	lb	s0,128(s2)
     7a6:	0100                	addi	s0,sp,128
     7a8:	04090303          	lb	t1,64(s2)
     7ac:	0100                	addi	s0,sp,128
     7ae:	04090203          	lb	tp,64(s2)
     7b2:	0100                	addi	s0,sp,128
     7b4:	10097e03          	p.lh	t3,zero(s2)
     7b8:	0100                	addi	s0,sp,128
     7ba:	04090203          	lb	tp,64(s2)
     7be:	0100                	addi	s0,sp,128
     7c0:	10090303          	lb	t1,256(s2)
     7c4:	0100                	addi	s0,sp,128
     7c6:	08090803          	lb	a6,128(s2)
     7ca:	0100                	addi	s0,sp,128
     7cc:	0c097903          	0xc097903
     7d0:	0100                	addi	s0,sp,128
     7d2:	08090703          	lb	a4,128(s2)
     7d6:	0100                	addi	s0,sp,128
     7d8:	04097903          	0x4097903
     7dc:	0100                	addi	s0,sp,128
     7de:	04090703          	lb	a4,64(s2)
     7e2:	0100                	addi	s0,sp,128
     7e4:	14090503          	lb	a0,320(s2)
     7e8:	0100                	addi	s0,sp,128
     7ea:	00090003          	lb	zero,0(s2)
     7ee:	0100                	addi	s0,sp,128
     7f0:	0c090203          	lb	tp,192(s2)
     7f4:	0100                	addi	s0,sp,128
     7f6:	00090003          	lb	zero,0(s2)
     7fa:	0100                	addi	s0,sp,128
     7fc:	1409                	addi	s0,s0,-30
     7fe:	0000                	unimp
     800:	0101                	addi	sp,sp,0
     802:	01fc                	addi	a5,sp,204
     804:	0000                	unimp
     806:	0002                	0x2
     808:	007e                	0x7e
     80a:	0000                	unimp
     80c:	0101                	addi	sp,sp,0
     80e:	000d0efb          	0xd0efb
     812:	0101                	addi	sp,sp,0
     814:	0101                	addi	sp,sp,0
     816:	0000                	unimp
     818:	0100                	addi	s0,sp,128
     81a:	0000                	unimp
     81c:	2f01                	jal	f2c <__seq_start+0xf2c>
     81e:	7375                	lui	t1,0xffffd
     820:	2f72                	fld	ft10,280(sp)
     822:	61726373          	csrrsi	t1,0x617,4
     826:	6374                	flw	fa3,68(a4)
     828:	3268                	fld	fa0,224(a2)
     82a:	72616c2f          	0x72616c2f
     82e:	6961                	lui	s2,0x18
     830:	386e                	fld	fa6,248(sp)
     832:	6369792f          	0x6369792f
     836:	687a                	flw	fa6,156(sp)
     838:	6e61                	lui	t3,0x18
     83a:	65742f67          	0x65742f67
     83e:	6172                	flw	ft2,28(sp)
     840:	6f70                	flw	fa2,92(a4)
     842:	645f6c6f          	jal	s8,f7686 <__heap_start+0xd4d86>
     846:	6172                	flw	ft2,28(sp)
     848:	5f6d                	li	t5,-5
     84a:	6d627573          	csrrci	a0,0x6d6,4
     84e:	6c75646f          	jal	s0,57714 <__heap_start+0x34e14>
     852:	5f65                	li	t5,-7
     854:	6572                	flw	fa0,28(sp)
     856:	6162                	flw	ft2,24(sp)
     858:	305f6573          	csrrsi	a0,mtvec,30
     85c:	3035                	jal	88 <__seq_start+0x88>
     85e:	5f32                	lw	t5,44(sp)
     860:	3032                	fld	ft0,296(sp)
     862:	3432                	fld	fs0,296(sp)
     864:	6d656d2f          	0x6d656d2f
     868:	6f70                	flw	fa2,92(a4)
     86a:	732f6c6f          	jal	s8,f6f9c <__heap_start+0xd469c>
     86e:	7774666f          	jal	a2,477e4 <__heap_start+0x24ee4>
     872:	7261                	lui	tp,0xffff8
     874:	2f65                	jal	102c <__seq_start+0x102c>
     876:	7572                	flw	fa0,60(sp)
     878:	746e                	flw	fs0,248(sp)
     87a:	6d69                	lui	s10,0x1a
     87c:	0065                	c.addi	zero,25
     87e:	6300                	flw	fs0,0(a4)
     880:	7472                	flw	fs0,60(sp)
     882:	2e30                	fld	fa2,88(a2)
     884:	00010053          	0x10053
     888:	0000                	unimp
     88a:	0500                	addi	s0,sp,640
     88c:	0002                	0x2
     88e:	0000                	unimp
     890:	0380                	addi	s0,sp,448
     892:	0112                	slli	sp,sp,0x4
     894:	04090103          	lb	sp,64(s2) # 18040 <__seq_start+0x18040>
     898:	0100                	addi	s0,sp,128
     89a:	04090403          	lb	s0,64(s2)
     89e:	0100                	addi	s0,sp,128
     8a0:	04090203          	lb	tp,64(s2)
     8a4:	0100                	addi	s0,sp,128
     8a6:	04090103          	lb	sp,64(s2)
     8aa:	0100                	addi	s0,sp,128
     8ac:	04090103          	lb	sp,64(s2)
     8b0:	0100                	addi	s0,sp,128
     8b2:	04090103          	lb	sp,64(s2)
     8b6:	0100                	addi	s0,sp,128
     8b8:	04090103          	lb	sp,64(s2)
     8bc:	0100                	addi	s0,sp,128
     8be:	04090103          	lb	sp,64(s2)
     8c2:	0100                	addi	s0,sp,128
     8c4:	04090103          	lb	sp,64(s2)
     8c8:	0100                	addi	s0,sp,128
     8ca:	04090103          	lb	sp,64(s2)
     8ce:	0100                	addi	s0,sp,128
     8d0:	04090103          	lb	sp,64(s2)
     8d4:	0100                	addi	s0,sp,128
     8d6:	04090103          	lb	sp,64(s2)
     8da:	0100                	addi	s0,sp,128
     8dc:	04090103          	lb	sp,64(s2)
     8e0:	0100                	addi	s0,sp,128
     8e2:	04090103          	lb	sp,64(s2)
     8e6:	0100                	addi	s0,sp,128
     8e8:	04090103          	lb	sp,64(s2)
     8ec:	0100                	addi	s0,sp,128
     8ee:	04090103          	lb	sp,64(s2)
     8f2:	0100                	addi	s0,sp,128
     8f4:	04090103          	lb	sp,64(s2)
     8f8:	0100                	addi	s0,sp,128
     8fa:	04090103          	lb	sp,64(s2)
     8fe:	0100                	addi	s0,sp,128
     900:	04090103          	lb	sp,64(s2)
     904:	0100                	addi	s0,sp,128
     906:	04090103          	lb	sp,64(s2)
     90a:	0100                	addi	s0,sp,128
     90c:	04090103          	lb	sp,64(s2)
     910:	0100                	addi	s0,sp,128
     912:	04090103          	lb	sp,64(s2)
     916:	0100                	addi	s0,sp,128
     918:	04090103          	lb	sp,64(s2)
     91c:	0100                	addi	s0,sp,128
     91e:	04090103          	lb	sp,64(s2)
     922:	0100                	addi	s0,sp,128
     924:	04090103          	lb	sp,64(s2)
     928:	0100                	addi	s0,sp,128
     92a:	04090103          	lb	sp,64(s2)
     92e:	0100                	addi	s0,sp,128
     930:	04090103          	lb	sp,64(s2)
     934:	0100                	addi	s0,sp,128
     936:	04090103          	lb	sp,64(s2)
     93a:	0100                	addi	s0,sp,128
     93c:	04090103          	lb	sp,64(s2)
     940:	0100                	addi	s0,sp,128
     942:	04090103          	lb	sp,64(s2)
     946:	0100                	addi	s0,sp,128
     948:	04090103          	lb	sp,64(s2)
     94c:	0100                	addi	s0,sp,128
     94e:	04090103          	lb	sp,64(s2)
     952:	0100                	addi	s0,sp,128
     954:	04090103          	lb	sp,64(s2)
     958:	0100                	addi	s0,sp,128
     95a:	08090103          	lb	sp,128(s2)
     95e:	0100                	addi	s0,sp,128
     960:	04090203          	lb	tp,64(s2)
     964:	0100                	addi	s0,sp,128
     966:	04090103          	lb	sp,64(s2)
     96a:	0100                	addi	s0,sp,128
     96c:	04090203          	lb	tp,64(s2)
     970:	0100                	addi	s0,sp,128
     972:	04090103          	lb	sp,64(s2)
     976:	0100                	addi	s0,sp,128
     978:	04090103          	lb	sp,64(s2)
     97c:	0100                	addi	s0,sp,128
     97e:	04090103          	lb	sp,64(s2)
     982:	0100                	addi	s0,sp,128
     984:	04090103          	lb	sp,64(s2)
     988:	0100                	addi	s0,sp,128
     98a:	04090103          	lb	sp,64(s2)
     98e:	0100                	addi	s0,sp,128
     990:	04090203          	lb	tp,64(s2)
     994:	0100                	addi	s0,sp,128
     996:	04090103          	lb	sp,64(s2)
     99a:	0100                	addi	s0,sp,128
     99c:	04090203          	lb	tp,64(s2)
     9a0:	0100                	addi	s0,sp,128
     9a2:	04090103          	lb	sp,64(s2)
     9a6:	0100                	addi	s0,sp,128
     9a8:	04090103          	lb	sp,64(s2)
     9ac:	0100                	addi	s0,sp,128
     9ae:	04090203          	lb	tp,64(s2)
     9b2:	0100                	addi	s0,sp,128
     9b4:	04090103          	lb	sp,64(s2)
     9b8:	0100                	addi	s0,sp,128
     9ba:	04090203          	lb	tp,64(s2)
     9be:	0100                	addi	s0,sp,128
     9c0:	04090103          	lb	sp,64(s2)
     9c4:	0100                	addi	s0,sp,128
     9c6:	08090103          	lb	sp,128(s2)
     9ca:	0100                	addi	s0,sp,128
     9cc:	08090103          	lb	sp,128(s2)
     9d0:	0100                	addi	s0,sp,128
     9d2:	04090203          	lb	tp,64(s2)
     9d6:	0100                	addi	s0,sp,128
     9d8:	04090303          	lb	t1,64(s2)
     9dc:	0100                	addi	s0,sp,128
     9de:	08090103          	lb	sp,128(s2)
     9e2:	0100                	addi	s0,sp,128
     9e4:	04090103          	lb	sp,64(s2)
     9e8:	0100                	addi	s0,sp,128
     9ea:	04090103          	lb	sp,64(s2)
     9ee:	0100                	addi	s0,sp,128
     9f0:	04090103          	lb	sp,64(s2)
     9f4:	0100                	addi	s0,sp,128
     9f6:	08090103          	lb	sp,128(s2)
     9fa:	0100                	addi	s0,sp,128
     9fc:	0409                	addi	s0,s0,2
     9fe:	0000                	unimp
     a00:	0101                	addi	sp,sp,0
     a02:	0a90                	addi	a2,sp,336
     a04:	0000                	unimp
     a06:	0002                	0x2
     a08:	0261                	addi	tp,tp,24
     a0a:	0000                	unimp
     a0c:	0101                	addi	sp,sp,0
     a0e:	000d0efb          	0xd0efb
     a12:	0101                	addi	sp,sp,0
     a14:	0101                	addi	sp,sp,0
     a16:	0000                	unimp
     a18:	0100                	addi	s0,sp,128
     a1a:	0000                	unimp
     a1c:	2f01                	jal	112c <__seq_start+0x112c>
     a1e:	7375                	lui	t1,0xffffd
     a20:	2f72                	fld	ft10,280(sp)
     a22:	61726373          	csrrsi	t1,0x617,4
     a26:	6374                	flw	fa3,68(a4)
     a28:	3268                	fld	fa0,224(a2)
     a2a:	72616c2f          	0x72616c2f
     a2e:	6961                	lui	s2,0x18
     a30:	386e                	fld	fa6,248(sp)
     a32:	6369792f          	0x6369792f
     a36:	687a                	flw	fa6,156(sp)
     a38:	6e61                	lui	t3,0x18
     a3a:	65742f67          	0x65742f67
     a3e:	6172                	flw	ft2,28(sp)
     a40:	6f70                	flw	fa2,92(a4)
     a42:	645f6c6f          	jal	s8,f7886 <__heap_start+0xd4f86>
     a46:	6172                	flw	ft2,28(sp)
     a48:	5f6d                	li	t5,-5
     a4a:	6d627573          	csrrci	a0,0x6d6,4
     a4e:	6c75646f          	jal	s0,57914 <__heap_start+0x35014>
     a52:	5f65                	li	t5,-7
     a54:	6572                	flw	fa0,28(sp)
     a56:	6162                	flw	ft2,24(sp)
     a58:	305f6573          	csrrsi	a0,mtvec,30
     a5c:	3035                	jal	288 <__seq_start+0x288>
     a5e:	5f32                	lw	t5,44(sp)
     a60:	3032                	fld	ft0,296(sp)
     a62:	3432                	fld	fs0,296(sp)
     a64:	6d656d2f          	0x6d656d2f
     a68:	6f70                	flw	fa2,92(a4)
     a6a:	732f6c6f          	jal	s8,f719c <__heap_start+0xd489c>
     a6e:	7774666f          	jal	a2,479e4 <__heap_start+0x250e4>
     a72:	7261                	lui	tp,0xffff8
     a74:	2f65                	jal	122c <__seq_start+0x122c>
     a76:	7572                	flw	fa0,60(sp)
     a78:	746e                	flw	fs0,248(sp)
     a7a:	6d69                	lui	s10,0x1a
     a7c:	0065                	c.addi	zero,25
     a7e:	7273752f          	0x7273752f
     a82:	7263732f          	0x7263732f
     a86:	7461                	lui	s0,0xffff8
     a88:	2f326863          	bltu	tp,s3,d78 <__seq_start+0xd78>
     a8c:	616c                	flw	fa1,68(a0)
     a8e:	6172                	flw	ft2,28(sp)
     a90:	6e69                	lui	t3,0x1a
     a92:	2f38                	fld	fa4,88(a4)
     a94:	6979                	lui	s2,0x1e
     a96:	61687a63          	bleu	s6,a6,10aa <__seq_start+0x10aa>
     a9a:	676e                	flw	fa4,216(sp)
     a9c:	7265742f          	0x7265742f
     aa0:	7061                	0x7061
     aa2:	5f6c6f6f          	jal	t5,c7098 <__heap_start+0xa4798>
     aa6:	7264                	flw	fs1,100(a2)
     aa8:	6d61                	lui	s10,0x18
     aaa:	735f 6275 6f6d      	0x6f6d6275735f
     ab0:	7564                	flw	fs1,108(a0)
     ab2:	656c                	flw	fa1,76(a0)
     ab4:	725f 6265 7361      	0x73616265725f
     aba:	5f65                	li	t5,-7
     abc:	3530                	fld	fa2,104(a0)
     abe:	3230                	fld	fa2,96(a2)
     ac0:	325f 3230 2f34      	0x2f343230325f
     ac6:	656d                	lui	a0,0x1b
     ac8:	706d                	0x706d
     aca:	2f6c6f6f          	jal	t5,c6dc0 <__heap_start+0xa44c0>
     ace:	6e69                	lui	t3,0x1a
     ad0:	6c617473          	csrrci	s0,0x6c6,2
     ad4:	2f6c                	fld	fa1,216(a4)
     ad6:	6972                	flw	fs2,28(sp)
     ad8:	2d766373          	csrrsi	t1,0x2d7,12
     adc:	2f636367          	0x2f636367
     ae0:	6972                	flw	fs2,28(sp)
     ae2:	33766373          	csrrsi	t1,0x337,12
     ae6:	2d32                	fld	fs10,264(sp)
     ae8:	6e75                	lui	t3,0x1d
     aea:	776f6e6b          	0x776f6e6b
     aee:	2d6e                	fld	fs10,216(sp)
     af0:	6c65                	lui	s8,0x19
     af2:	2f66                	fld	ft10,88(sp)
     af4:	2d737973          	csrrci	s2,0x2d7,6
     af8:	6e69                	lui	t3,0x1a
     afa:	64756c63          	bltu	a0,t2,1152 <__seq_start+0x1152>
     afe:	2f65                	jal	12b6 <__seq_start+0x12b6>
     b00:	616d                	addi	sp,sp,240
     b02:	6e696863          	bltu	s2,t1,11f2 <__seq_start+0x11f2>
     b06:	0065                	c.addi	zero,25
     b08:	7273752f          	0x7273752f
     b0c:	7263732f          	0x7263732f
     b10:	7461                	lui	s0,0xffff8
     b12:	2f326863          	bltu	tp,s3,e02 <__seq_start+0xe02>
     b16:	616c                	flw	fa1,68(a0)
     b18:	6172                	flw	ft2,28(sp)
     b1a:	6e69                	lui	t3,0x1a
     b1c:	2f38                	fld	fa4,88(a4)
     b1e:	6979                	lui	s2,0x1e
     b20:	61687a63          	bleu	s6,a6,1134 <__seq_start+0x1134>
     b24:	676e                	flw	fa4,216(sp)
     b26:	7265742f          	0x7265742f
     b2a:	7061                	0x7061
     b2c:	5f6c6f6f          	jal	t5,c7122 <__heap_start+0xa4822>
     b30:	7264                	flw	fs1,100(a2)
     b32:	6d61                	lui	s10,0x18
     b34:	735f 6275 6f6d      	0x6f6d6275735f
     b3a:	7564                	flw	fs1,108(a0)
     b3c:	656c                	flw	fa1,76(a0)
     b3e:	725f 6265 7361      	0x73616265725f
     b44:	5f65                	li	t5,-7
     b46:	3530                	fld	fa2,104(a0)
     b48:	3230                	fld	fa2,96(a2)
     b4a:	325f 3230 2f34      	0x2f343230325f
     b50:	656d                	lui	a0,0x1b
     b52:	706d                	0x706d
     b54:	2f6c6f6f          	jal	t5,c6e4a <__heap_start+0xa454a>
     b58:	6e69                	lui	t3,0x1a
     b5a:	6c617473          	csrrci	s0,0x6c6,2
     b5e:	2f6c                	fld	fa1,216(a4)
     b60:	6972                	flw	fs2,28(sp)
     b62:	2d766373          	csrrsi	t1,0x2d7,12
     b66:	2f636367          	0x2f636367
     b6a:	6972                	flw	fs2,28(sp)
     b6c:	33766373          	csrrsi	t1,0x337,12
     b70:	2d32                	fld	fs10,264(sp)
     b72:	6e75                	lui	t3,0x1d
     b74:	776f6e6b          	0x776f6e6b
     b78:	2d6e                	fld	fs10,216(sp)
     b7a:	6c65                	lui	s8,0x19
     b7c:	2f66                	fld	ft10,88(sp)
     b7e:	2d737973          	csrrci	s2,0x2d7,6
     b82:	6e69                	lui	t3,0x1a
     b84:	64756c63          	bltu	a0,t2,11dc <__seq_start+0x11dc>
     b88:	2f65                	jal	1340 <__seq_start+0x1340>
     b8a:	00737973          	csrrci	s2,0x7,6
     b8e:	7273752f          	0x7273752f
     b92:	7263732f          	0x7263732f
     b96:	7461                	lui	s0,0xffff8
     b98:	2f326863          	bltu	tp,s3,e88 <__seq_start+0xe88>
     b9c:	616c                	flw	fa1,68(a0)
     b9e:	6172                	flw	ft2,28(sp)
     ba0:	6e69                	lui	t3,0x1a
     ba2:	2f38                	fld	fa4,88(a4)
     ba4:	6979                	lui	s2,0x1e
     ba6:	61687a63          	bleu	s6,a6,11ba <__seq_start+0x11ba>
     baa:	676e                	flw	fa4,216(sp)
     bac:	7265742f          	0x7265742f
     bb0:	7061                	0x7061
     bb2:	5f6c6f6f          	jal	t5,c71a8 <__heap_start+0xa48a8>
     bb6:	7264                	flw	fs1,100(a2)
     bb8:	6d61                	lui	s10,0x18
     bba:	735f 6275 6f6d      	0x6f6d6275735f
     bc0:	7564                	flw	fs1,108(a0)
     bc2:	656c                	flw	fa1,76(a0)
     bc4:	725f 6265 7361      	0x73616265725f
     bca:	5f65                	li	t5,-7
     bcc:	3530                	fld	fa2,104(a0)
     bce:	3230                	fld	fa2,96(a2)
     bd0:	325f 3230 2f34      	0x2f343230325f
     bd6:	656d                	lui	a0,0x1b
     bd8:	706d                	0x706d
     bda:	2f6c6f6f          	jal	t5,c6ed0 <__heap_start+0xa45d0>
     bde:	6e69                	lui	t3,0x1a
     be0:	6c617473          	csrrci	s0,0x6c6,2
     be4:	2f6c                	fld	fa1,216(a4)
     be6:	6972                	flw	fs2,28(sp)
     be8:	2d766373          	csrrsi	t1,0x2d7,12
     bec:	2f636367          	0x2f636367
     bf0:	696c                	flw	fa1,84(a0)
     bf2:	2f62                	fld	ft10,24(sp)
     bf4:	2f636367          	0x2f636367
     bf8:	6972                	flw	fs2,28(sp)
     bfa:	33766373          	csrrsi	t1,0x337,12
     bfe:	2d32                	fld	fs10,264(sp)
     c00:	6e75                	lui	t3,0x1d
     c02:	776f6e6b          	0x776f6e6b
     c06:	2d6e                	fld	fs10,216(sp)
     c08:	6c65                	lui	s8,0x19
     c0a:	2f66                	fld	ft10,88(sp)
     c0c:	2e312e37          	lui	t3,0x2e312
     c10:	2f31                	jal	132c <__seq_start+0x132c>
     c12:	6e69                	lui	t3,0x1a
     c14:	64756c63          	bltu	a0,t2,126c <__seq_start+0x126c>
     c18:	0065                	c.addi	zero,25
     c1a:	7000                	flw	fs0,32(s0)
     c1c:	6972                	flw	fs2,28(sp)
     c1e:	746e                	flw	fs0,248(sp)
     c20:	2e66                	fld	ft8,88(sp)
     c22:	00010063          	beqz	sp,c22 <__seq_start+0xc22>
     c26:	5f00                	lw	s0,56(a4)
     c28:	6564                	flw	fs1,76(a0)
     c2a:	6166                	flw	ft2,88(sp)
     c2c:	6c75                	lui	s8,0x1d
     c2e:	5f74                	lw	a3,124(a4)
     c30:	7974                	flw	fa3,116(a0)
     c32:	6570                	flw	fa2,76(a0)
     c34:	00682e73          	csrrs	t3,0x6,a6
     c38:	0002                	0x2
     c3a:	5f00                	lw	s0,56(a4)
     c3c:	69647473          	csrrci	s0,0x696,8
     c40:	746e                	flw	fs0,248(sp)
     c42:	682e                	flw	fa6,200(sp)
     c44:	0300                	addi	s0,sp,384
     c46:	0000                	unimp
     c48:	61647473          	csrrci	s0,0x616,8
     c4c:	6772                	flw	fa4,28(sp)
     c4e:	682e                	flw	fa6,200(sp)
     c50:	0400                	addi	s0,sp,512
     c52:	0000                	unimp
     c54:	64647473          	csrrci	s0,0x646,8
     c58:	6665                	lui	a2,0x19
     c5a:	682e                	flw	fa6,200(sp)
     c5c:	0400                	addi	s0,sp,512
     c5e:	0000                	unimp
     c60:	7270                	flw	fa2,100(a2)
     c62:	6e69                	lui	t3,0x1a
     c64:	6674                	flw	fa3,76(a2)
     c66:	682e                	flw	fa6,200(sp)
     c68:	0100                	addi	s0,sp,128
     c6a:	0000                	unimp
     c6c:	0000                	unimp
     c6e:	0205                	addi	tp,tp,1
     c70:	056c                	addi	a1,sp,652
     c72:	8000                	0x8000
     c74:	0100e803          	0x100e803
     c78:	00090103          	lb	sp,0(s2) # 1e000 <__seq_start+0x1e000>
     c7c:	0100                	addi	s0,sp,128
     c7e:	04090103          	lb	sp,64(s2)
     c82:	0100                	addi	s0,sp,128
     c84:	04090203          	lb	tp,64(s2)
     c88:	0100                	addi	s0,sp,128
     c8a:	04090403          	lb	s0,64(s2)
     c8e:	0100                	addi	s0,sp,128
     c90:	00090503          	lb	a0,0(s2)
     c94:	0100                	addi	s0,sp,128
     c96:	04090f03          	lb	t5,64(s2)
     c9a:	0100                	addi	s0,sp,128
     c9c:	00090303          	lb	t1,0(s2)
     ca0:	0100                	addi	s0,sp,128
     ca2:	04090203          	lb	tp,64(s2)
     ca6:	0100                	addi	s0,sp,128
     ca8:	0c090303          	lb	t1,192(s2)
     cac:	0100                	addi	s0,sp,128
     cae:	0900ea03          	0x900ea03
     cb2:	0004                	addi	s1,sp,0
     cb4:	0301                	addi	t1,t1,0
     cb6:	0900                	addi	s0,sp,144
     cb8:	0030                	addi	a2,sp,8
     cba:	0301                	addi	t1,t1,0
     cbc:	0905                	addi	s2,s2,1
     cbe:	0018                	addi	a4,sp,0
     cc0:	0301                	addi	t1,t1,0
     cc2:	0901                	addi	s2,s2,0
     cc4:	0004                	addi	s1,sp,0
     cc6:	0301                	addi	t1,t1,0
     cc8:	0904                	addi	s1,sp,144
     cca:	0004                	addi	s1,sp,0
     ccc:	0301                	addi	t1,t1,0
     cce:	0904                	addi	s1,sp,144
     cd0:	0004                	addi	s1,sp,0
     cd2:	0301                	addi	t1,t1,0
     cd4:	097c                	addi	a5,sp,156
     cd6:	0004                	addi	s1,sp,0
     cd8:	0301                	addi	t1,t1,0
     cda:	0904                	addi	s1,sp,144
     cdc:	000c                	addi	a1,sp,0
     cde:	0301                	addi	t1,t1,0
     ce0:	097f                	0x97f
     ce2:	000c                	addi	a1,sp,0
     ce4:	0001                	nop
     ce6:	0402                	slli	s0,s0,0x0
     ce8:	0301                	addi	t1,t1,0
     cea:	00100903          	lb	s2,1(zero) # 1 <__seq_start+0x1>
     cee:	0001                	nop
     cf0:	0402                	slli	s0,s0,0x0
     cf2:	0301                	addi	t1,t1,0
     cf4:	097d                	addi	s2,s2,31
     cf6:	0004                	addi	s1,sp,0
     cf8:	0001                	nop
     cfa:	0402                	slli	s0,s0,0x0
     cfc:	0301                	addi	t1,t1,0
     cfe:	0904                	addi	s1,sp,144
     d00:	000c                	addi	a1,sp,0
     d02:	0301                	addi	t1,t1,0
     d04:	0008097b          	0x8097b
     d08:	0301                	addi	t1,t1,0
     d0a:	0901                	addi	s2,s2,0
     d0c:	0008                	addi	a0,sp,0
     d0e:	0001                	nop
     d10:	0402                	slli	s0,s0,0x0
     d12:	0304                	addi	s1,sp,384
     d14:	000c0903          	lb	s2,0(s8) # 1d000 <__seq_start+0x1d000>
     d18:	0001                	nop
     d1a:	0402                	slli	s0,s0,0x0
     d1c:	0304                	addi	s1,sp,384
     d1e:	097d                	addi	s2,s2,31
     d20:	0004                	addi	s1,sp,0
     d22:	0001                	nop
     d24:	0402                	slli	s0,s0,0x0
     d26:	0304                	addi	s1,sp,384
     d28:	0904                	addi	s1,sp,144
     d2a:	000c                	addi	a1,sp,0
     d2c:	0301                	addi	t1,t1,0
     d2e:	7fa6                	flw	ft11,104(sp)
     d30:	0409                	addi	s0,s0,2
     d32:	0100                	addi	s0,sp,128
     d34:	0c090103          	lb	sp,192(s2)
     d38:	0100                	addi	s0,sp,128
     d3a:	0c090103          	lb	sp,192(s2)
     d3e:	0100                	addi	s0,sp,128
     d40:	08090303          	lb	t1,128(s2)
     d44:	0100                	addi	s0,sp,128
     d46:	0c090303          	lb	t1,192(s2)
     d4a:	0100                	addi	s0,sp,128
     d4c:	04090703          	lb	a4,64(s2)
     d50:	0100                	addi	s0,sp,128
     d52:	08090103          	lb	sp,128(s2)
     d56:	0100                	addi	s0,sp,128
     d58:	0c090103          	lb	sp,192(s2)
     d5c:	0100                	addi	s0,sp,128
     d5e:	04090603          	lb	a2,64(s2)
     d62:	0100                	addi	s0,sp,128
     d64:	08090603          	lb	a2,128(s2)
     d68:	0100                	addi	s0,sp,128
     d6a:	08090303          	lb	t1,128(s2)
     d6e:	0100                	addi	s0,sp,128
     d70:	08090103          	lb	sp,128(s2)
     d74:	0100                	addi	s0,sp,128
     d76:	14090403          	lb	s0,320(s2)
     d7a:	0100                	addi	s0,sp,128
     d7c:	08090103          	lb	sp,128(s2)
     d80:	0100                	addi	s0,sp,128
     d82:	04090103          	lb	sp,64(s2)
     d86:	0100                	addi	s0,sp,128
     d88:	14090903          	lb	s2,320(s2)
     d8c:	0100                	addi	s0,sp,128
     d8e:	1c090803          	lb	a6,448(s2)
     d92:	0100                	addi	s0,sp,128
     d94:	1c097f03          	0x1c097f03
     d98:	0100                	addi	s0,sp,128
     d9a:	04090503          	lb	a0,64(s2)
     d9e:	0100                	addi	s0,sp,128
     da0:	04090103          	lb	sp,64(s2)
     da4:	0100                	addi	s0,sp,128
     da6:	08090103          	lb	sp,128(s2)
     daa:	0100                	addi	s0,sp,128
     dac:	1c097f03          	0x1c097f03
     db0:	0100                	addi	s0,sp,128
     db2:	08092203          	lw	tp,128(s2)
     db6:	0100                	addi	s0,sp,128
     db8:	34096f03          	0x34096f03
     dbc:	0100                	addi	s0,sp,128
     dbe:	04090903          	lb	s2,64(s2)
     dc2:	0100                	addi	s0,sp,128
     dc4:	097fa903          	lw	s2,151(t6)
     dc8:	0014                	addi	a3,sp,0
     dca:	0301                	addi	t1,t1,0
     dcc:	0c0900cb          	0xc0900cb
     dd0:	0100                	addi	s0,sp,128
     dd2:	04095b03          	lhu	s6,64(s2)
     dd6:	0100                	addi	s0,sp,128
     dd8:	04090203          	lb	tp,64(s2)
     ddc:	0100                	addi	s0,sp,128
     dde:	08090203          	lb	tp,128(s2)
     de2:	0100                	addi	s0,sp,128
     de4:	08090103          	lb	sp,128(s2)
     de8:	0100                	addi	s0,sp,128
     dea:	18095a03          	lhu	s4,384(s2)
     dee:	0100                	addi	s0,sp,128
     df0:	18090103          	lb	sp,384(s2)
     df4:	0100                	addi	s0,sp,128
     df6:	08097f03          	0x8097f03
     dfa:	0100                	addi	s0,sp,128
     dfc:	04090103          	lb	sp,64(s2)
     e00:	0100                	addi	s0,sp,128
     e02:	08097f03          	0x8097f03
     e06:	0100                	addi	s0,sp,128
     e08:	04090303          	lb	t1,64(s2)
     e0c:	0100                	addi	s0,sp,128
     e0e:	28090203          	lb	tp,640(s2)
     e12:	0100                	addi	s0,sp,128
     e14:	08097e03          	0x8097e03
     e18:	0100                	addi	s0,sp,128
     e1a:	08090203          	lb	tp,128(s2)
     e1e:	0100                	addi	s0,sp,128
     e20:	04097e03          	0x4097e03
     e24:	0100                	addi	s0,sp,128
     e26:	08090703          	lb	a4,128(s2)
     e2a:	0100                	addi	s0,sp,128
     e2c:	04091603          	lh	a2,64(s2)
     e30:	0100                	addi	s0,sp,128
     e32:	0c097803          	0xc097803
     e36:	0100                	addi	s0,sp,128
     e38:	08091303          	lh	t1,128(s2)
     e3c:	0100                	addi	s0,sp,128
     e3e:	08090103          	lb	sp,128(s2)
     e42:	0100                	addi	s0,sp,128
     e44:	10090103          	lb	sp,256(s2)
     e48:	0100                	addi	s0,sp,128
     e4a:	18097f03          	0x18097f03
     e4e:	0100                	addi	s0,sp,128
     e50:	04090603          	lb	a2,64(s2)
     e54:	0100                	addi	s0,sp,128
     e56:	0c097903          	0xc097903
     e5a:	0100                	addi	s0,sp,128
     e5c:	04090703          	lb	a4,64(s2)
     e60:	0100                	addi	s0,sp,128
     e62:	10097203          	p.lh	tp,zero(s2)
     e66:	0100                	addi	s0,sp,128
     e68:	18096e03          	0x18096e03
     e6c:	0100                	addi	s0,sp,128
     e6e:	08090603          	lb	a2,128(s2)
     e72:	0100                	addi	s0,sp,128
     e74:	10096803          	0x10096803
     e78:	0100                	addi	s0,sp,128
     e7a:	0c090a03          	lb	s4,192(s2)
     e7e:	0100                	addi	s0,sp,128
     e80:	08097103          	0x8097103
     e84:	0100                	addi	s0,sp,128
     e86:	08091e03          	lh	t3,128(s2)
     e8a:	0100                	addi	s0,sp,128
     e8c:	10096503          	0x10096503
     e90:	0100                	addi	s0,sp,128
     e92:	08090f03          	lb	t5,128(s2)
     e96:	0100                	addi	s0,sp,128
     e98:	04090103          	lb	sp,64(s2)
     e9c:	0100                	addi	s0,sp,128
     e9e:	04090403          	lb	s0,64(s2)
     ea2:	0100                	addi	s0,sp,128
     ea4:	08090603          	lb	a2,128(s2)
     ea8:	0100                	addi	s0,sp,128
     eaa:	08090403          	lb	s0,128(s2)
     eae:	0100                	addi	s0,sp,128
     eb0:	10097303          	p.lh	t1,zero(s2)
     eb4:	0100                	addi	s0,sp,128
     eb6:	04090303          	lb	t1,64(s2)
     eba:	0100                	addi	s0,sp,128
     ebc:	08090303          	lb	t1,128(s2)
     ec0:	0100                	addi	s0,sp,128
     ec2:	08090203          	lb	tp,128(s2)
     ec6:	0100                	addi	s0,sp,128
     ec8:	18097b03          	0x18097b03
     ecc:	0100                	addi	s0,sp,128
     ece:	08090203          	lb	tp,128(s2)
     ed2:	0100                	addi	s0,sp,128
     ed4:	18097a03          	0x18097a03
     ed8:	0100                	addi	s0,sp,128
     eda:	10090b03          	lb	s6,256(s2)
     ede:	0100                	addi	s0,sp,128
     ee0:	18097903          	0x18097903
     ee4:	0100                	addi	s0,sp,128
     ee6:	08090503          	lb	a0,128(s2)
     eea:	0100                	addi	s0,sp,128
     eec:	10097d03          	p.lh	s10,zero(s2)
     ef0:	0100                	addi	s0,sp,128
     ef2:	10097e03          	p.lh	t3,zero(s2)
     ef6:	0100                	addi	s0,sp,128
     ef8:	0901fe03          	0x901fe03
     efc:	0010                	addi	a2,sp,0
     efe:	0301                	addi	t1,t1,0
     f00:	0900                	addi	s0,sp,144
     f02:	0038                	addi	a4,sp,8
     f04:	0301                	addi	t1,t1,0
     f06:	0904                	addi	s1,sp,144
     f08:	0010                	addi	a2,sp,0
     f0a:	0301                	addi	t1,t1,0
     f0c:	01e4                	addi	s1,sp,204
     f0e:	0809                	addi	a6,a6,2
     f10:	0100                	addi	s0,sp,128
     f12:	097ea303          	lw	t1,151(t4)
     f16:	0004                	addi	s1,sp,0
     f18:	0301                	addi	t1,t1,0
     f1a:	090d                	addi	s2,s2,3
     f1c:	0004                	addi	s1,sp,0
     f1e:	0301                	addi	t1,t1,0
     f20:	0971                	addi	s2,s2,28
     f22:	000c                	addi	a1,sp,0
     f24:	0301                	addi	t1,t1,0
     f26:	0902                	slli	s2,s2,0x0
     f28:	000c                	addi	a1,sp,0
     f2a:	0301                	addi	t1,t1,0
     f2c:	0295                	addi	t0,t0,5
     f2e:	0409                	addi	s0,s0,2
     f30:	0100                	addi	s0,sp,128
     f32:	097de903          	0x97de903
     f36:	0010                	addi	a2,sp,0
     f38:	0301                	addi	t1,t1,0
     f3a:	04090297          	auipc	t0,0x4090
     f3e:	0100                	addi	s0,sp,128
     f40:	097de903          	0x97de903
     f44:	0004                	addi	s1,sp,0
     f46:	0301                	addi	t1,t1,0
     f48:	029e                	slli	t0,t0,0x7
     f4a:	0409                	addi	s0,s0,2
     f4c:	0100                	addi	s0,sp,128
     f4e:	0200                	addi	s0,sp,256
     f50:	0104                	addi	s1,sp,128
     f52:	0306                	slli	t1,t1,0x1
     f54:	0900                	addi	s0,sp,144
     f56:	0004                	addi	s1,sp,0
     f58:	0001                	nop
     f5a:	0402                	slli	s0,s0,0x0
     f5c:	0304                	addi	s1,sp,384
     f5e:	0900                	addi	s0,sp,144
     f60:	0004                	addi	s1,sp,0
     f62:	0001                	nop
     f64:	0402                	slli	s0,s0,0x0
     f66:	0604                	addi	s1,sp,768
     f68:	10090403          	lb	s0,256(s2)
     f6c:	0100                	addi	s0,sp,128
     f6e:	097ded03          	0x97ded03
     f72:	0048                	addi	a0,sp,4
     f74:	0301                	addi	t1,t1,0
     f76:	097e                	slli	s2,s2,0x1f
     f78:	0008                	addi	a0,sp,0
     f7a:	0301                	addi	t1,t1,0
     f7c:	0902                	slli	s2,s2,0x0
     f7e:	0004                	addi	s1,sp,0
     f80:	0301                	addi	t1,t1,0
     f82:	0902                	slli	s2,s2,0x0
     f84:	0020                	addi	s0,sp,8
     f86:	0301                	addi	t1,t1,0
     f88:	097e                	slli	s2,s2,0x1f
     f8a:	0008                	addi	a0,sp,0
     f8c:	0301                	addi	t1,t1,0
     f8e:	7dc0                	flw	fs0,60(a1)
     f90:	1809                	addi	a6,a6,-30
     f92:	0100                	addi	s0,sp,128
     f94:	0902e203          	0x902e203
     f98:	0004                	addi	s1,sp,0
     f9a:	0301                	addi	t1,t1,0
     f9c:	0902                	slli	s2,s2,0x0
     f9e:	000c                	addi	a1,sp,0
     fa0:	0301                	addi	t1,t1,0
     fa2:	097d                	addi	s2,s2,31
     fa4:	0008                	addi	a0,sp,0
     fa6:	0301                	addi	t1,t1,0
     fa8:	0910                	addi	a2,sp,144
     faa:	0004                	addi	s1,sp,0
     fac:	0301                	addi	t1,t1,0
     fae:	097f                	0x97f
     fb0:	0008                	addi	a0,sp,0
     fb2:	0301                	addi	t1,t1,0
     fb4:	090e                	slli	s2,s2,0x3
     fb6:	0004                	addi	s1,sp,0
     fb8:	0301                	addi	t1,t1,0
     fba:	091e                	slli	s2,s2,0x7
     fbc:	0020                	addi	s0,sp,8
     fbe:	0301                	addi	t1,t1,0
     fc0:	0908                	addi	a0,sp,144
     fc2:	0008                	addi	a0,sp,0
     fc4:	0301                	addi	t1,t1,0
     fc6:	7fa8                	flw	fa0,120(a5)
     fc8:	2809                	jal	fda <__seq_start+0xfda>
     fca:	0100                	addi	s0,sp,128
     fcc:	0c097b03          	0xc097b03
     fd0:	0100                	addi	s0,sp,128
     fd2:	0c090f03          	lb	t5,192(s2)
     fd6:	0100                	addi	s0,sp,128
     fd8:	0c097b03          	0xc097b03
     fdc:	0100                	addi	s0,sp,128
     fde:	0c095d03          	lhu	s10,192(s2)
     fe2:	0100                	addi	s0,sp,128
     fe4:	0900d403          	lhu	s0,144(ra)
     fe8:	000c                	addi	a1,sp,0
     fea:	0301                	addi	t1,t1,0
     fec:	0901                	addi	s2,s2,0
     fee:	000c                	addi	a1,sp,0
     ff0:	0301                	addi	t1,t1,0
     ff2:	0191                	addi	gp,gp,4
     ff4:	0c09                	addi	s8,s8,2
     ff6:	0100                	addi	s0,sp,128
     ff8:	10090103          	lb	sp,256(s2)
     ffc:	0100                	addi	s0,sp,128
     ffe:	097be403          	0x97be403
    1002:	0004                	addi	s1,sp,0
    1004:	0301                	addi	t1,t1,0
    1006:	049e                	slli	s1,s1,0x7
    1008:	3009                	jal	80a <__seq_start+0x80a>
    100a:	0100                	addi	s0,sp,128
    100c:	0c090103          	lb	sp,192(s2)
    1010:	0100                	addi	s0,sp,128
    1012:	04090203          	lb	tp,64(s2)
    1016:	0100                	addi	s0,sp,128
    1018:	08090603          	lb	a2,128(s2)
    101c:	0100                	addi	s0,sp,128
    101e:	10090103          	lb	sp,256(s2)
    1022:	0100                	addi	s0,sp,128
    1024:	0200                	addi	s0,sp,256
    1026:	0104                	addi	s1,sp,128
    1028:	0306                	slli	t1,t1,0x1
    102a:	0900                	addi	s0,sp,144
    102c:	0004                	addi	s1,sp,0
    102e:	0001                	nop
    1030:	0402                	slli	s0,s0,0x0
    1032:	0601                	addi	a2,a2,0
    1034:	0c097f03          	0xc097f03
    1038:	0100                	addi	s0,sp,128
    103a:	0200                	addi	s0,sp,256
    103c:	0104                	addi	s1,sp,128
    103e:	04090103          	lb	sp,64(s2)
    1042:	0100                	addi	s0,sp,128
    1044:	0200                	addi	s0,sp,256
    1046:	0104                	addi	s1,sp,128
    1048:	08097f03          	0x8097f03
    104c:	0100                	addi	s0,sp,128
    104e:	04090403          	lb	s0,64(s2)
    1052:	0100                	addi	s0,sp,128
    1054:	04097003          	0x4097003
    1058:	0100                	addi	s0,sp,128
    105a:	04091603          	lh	a2,64(s2)
    105e:	0100                	addi	s0,sp,128
    1060:	04090e03          	lb	t3,64(s2)
    1064:	0100                	addi	s0,sp,128
    1066:	04097703          	0x4097703
    106a:	0100                	addi	s0,sp,128
    106c:	04090903          	lb	s2,64(s2)
    1070:	0100                	addi	s0,sp,128
    1072:	28090103          	lb	sp,640(s2)
    1076:	0100                	addi	s0,sp,128
    1078:	04097f03          	0x4097f03
    107c:	0100                	addi	s0,sp,128
    107e:	04090703          	lb	a4,64(s2)
    1082:	0100                	addi	s0,sp,128
    1084:	0c094303          	lbu	t1,192(s2)
    1088:	0100                	addi	s0,sp,128
    108a:	10090603          	lb	a2,256(s2)
    108e:	0100                	addi	s0,sp,128
    1090:	14090303          	lb	t1,320(s2)
    1094:	0100                	addi	s0,sp,128
    1096:	0c090103          	lb	sp,192(s2)
    109a:	0100                	addi	s0,sp,128
    109c:	1c097f03          	0x1c097f03
    10a0:	0100                	addi	s0,sp,128
    10a2:	08090503          	lb	a0,128(s2)
    10a6:	0100                	addi	s0,sp,128
    10a8:	097f9e03          	lh	t3,151(t6)
    10ac:	0008                	addi	a0,sp,0
    10ae:	0001                	nop
    10b0:	0402                	slli	s0,s0,0x0
    10b2:	0601                	addi	a2,a2,0
    10b4:	08090003          	lb	zero,128(s2)
    10b8:	0100                	addi	s0,sp,128
    10ba:	0306                	slli	t1,t1,0x1
    10bc:	0902                	slli	s2,s2,0x0
    10be:	0008                	addi	a0,sp,0
    10c0:	0301                	addi	t1,t1,0
    10c2:	0902                	slli	s2,s2,0x0
    10c4:	0008                	addi	a0,sp,0
    10c6:	0301                	addi	t1,t1,0
    10c8:	090c                	addi	a1,sp,144
    10ca:	0008                	addi	a0,sp,0
    10cc:	0301                	addi	t1,t1,0
    10ce:	0978                	addi	a4,sp,156
    10d0:	0004                	addi	s1,sp,0
    10d2:	0301                	addi	t1,t1,0
    10d4:	0908                	addi	a0,sp,144
    10d6:	0004                	addi	s1,sp,0
    10d8:	0301                	addi	t1,t1,0
    10da:	0905                	addi	s2,s2,1
    10dc:	0004                	addi	s1,sp,0
    10de:	0301                	addi	t1,t1,0
    10e0:	0972                	slli	s2,s2,0x1c
    10e2:	000c                	addi	a1,sp,0
    10e4:	0301                	addi	t1,t1,0
    10e6:	0915                	addi	s2,s2,5
    10e8:	0004                	addi	s1,sp,0
    10ea:	0301                	addi	t1,t1,0
    10ec:	0908                	addi	a0,sp,144
    10ee:	0004                	addi	s1,sp,0
    10f0:	0301                	addi	t1,t1,0
    10f2:	0906                	slli	s2,s2,0x1
    10f4:	000c                	addi	a1,sp,0
    10f6:	0301                	addi	t1,t1,0
    10f8:	0901                	addi	s2,s2,0
    10fa:	0004                	addi	s1,sp,0
    10fc:	0301                	addi	t1,t1,0
    10fe:	0902                	slli	s2,s2,0x0
    1100:	0008                	addi	a0,sp,0
    1102:	0301                	addi	t1,t1,0
    1104:	00e8                	addi	a0,sp,76
    1106:	1409                	addi	s0,s0,-30
    1108:	0100                	addi	s0,sp,128
    110a:	18090203          	lb	tp,384(s2)
    110e:	0100                	addi	s0,sp,128
    1110:	097bbf03          	0x97bbf03
    1114:	0004                	addi	s1,sp,0
    1116:	0301                	addi	t1,t1,0
    1118:	0902                	slli	s2,s2,0x0
    111a:	0004                	addi	s1,sp,0
    111c:	0301                	addi	t1,t1,0
    111e:	097f                	0x97f
    1120:	0010                	addi	a2,sp,0
    1122:	0301                	addi	t1,t1,0
    1124:	0901                	addi	s2,s2,0
    1126:	0008                	addi	a0,sp,0
    1128:	0301                	addi	t1,t1,0
    112a:	097a                	slli	s2,s2,0x1e
    112c:	000c                	addi	a1,sp,0
    112e:	0301                	addi	t1,t1,0
    1130:	0905                	addi	s2,s2,1
    1132:	0004                	addi	s1,sp,0
    1134:	0301                	addi	t1,t1,0
    1136:	02ec                	addi	a1,sp,332
    1138:	0809                	addi	a6,a6,2
    113a:	0100                	addi	s0,sp,128
    113c:	0c090303          	lb	t1,192(s2)
    1140:	0100                	addi	s0,sp,128
    1142:	08097e03          	0x8097e03
    1146:	0100                	addi	s0,sp,128
    1148:	097d8e03          	lb	t3,151(s11)
    114c:	0004                	addi	s1,sp,0
    114e:	0301                	addi	t1,t1,0
    1150:	02f4                	addi	a3,sp,332
    1152:	0409                	addi	s0,s0,2
    1154:	0100                	addi	s0,sp,128
    1156:	08090203          	lb	tp,128(s2)
    115a:	0100                	addi	s0,sp,128
    115c:	08097d03          	0x8097d03
    1160:	0100                	addi	s0,sp,128
    1162:	04097d03          	0x4097d03
    1166:	0100                	addi	s0,sp,128
    1168:	04090603          	lb	a2,64(s2)
    116c:	0100                	addi	s0,sp,128
    116e:	08090803          	lb	a6,128(s2)
    1172:	0100                	addi	s0,sp,128
    1174:	08090c03          	lb	s8,128(s2)
    1178:	0100                	addi	s0,sp,128
    117a:	08097e03          	0x8097e03
    117e:	0100                	addi	s0,sp,128
    1180:	0c095d03          	lhu	s10,192(s2)
    1184:	0100                	addi	s0,sp,128
    1186:	08090103          	lb	sp,128(s2)
    118a:	0100                	addi	s0,sp,128
    118c:	04090403          	lb	s0,64(s2)
    1190:	0100                	addi	s0,sp,128
    1192:	0c097b03          	0xc097b03
    1196:	0100                	addi	s0,sp,128
    1198:	0c093203          	0xc093203
    119c:	0100                	addi	s0,sp,128
    119e:	08090303          	lb	t1,128(s2)
    11a2:	0100                	addi	s0,sp,128
    11a4:	04096403          	0x4096403
    11a8:	0100                	addi	s0,sp,128
    11aa:	097d8603          	lb	a2,151(s11)
    11ae:	000c                	addi	a1,sp,0
    11b0:	0301                	addi	t1,t1,0
    11b2:	0902                	slli	s2,s2,0x0
    11b4:	0004                	addi	s1,sp,0
    11b6:	0301                	addi	t1,t1,0
    11b8:	097f                	0x97f
    11ba:	0010                	addi	a2,sp,0
    11bc:	0301                	addi	t1,t1,0
    11be:	0901                	addi	s2,s2,0
    11c0:	0008                	addi	a0,sp,0
    11c2:	0301                	addi	t1,t1,0
    11c4:	097a                	slli	s2,s2,0x1e
    11c6:	000c                	addi	a1,sp,0
    11c8:	0301                	addi	t1,t1,0
    11ca:	0905                	addi	s2,s2,1
    11cc:	0004                	addi	s1,sp,0
    11ce:	0301                	addi	t1,t1,0
    11d0:	0974                	addi	a3,sp,156
    11d2:	0010                	addi	a2,sp,0
    11d4:	0301                	addi	t1,t1,0
    11d6:	04ac                	addi	a1,sp,584
    11d8:	0c09                	addi	s8,s8,2
    11da:	0100                	addi	s0,sp,128
    11dc:	10090103          	lb	sp,256(s2)
    11e0:	0100                	addi	s0,sp,128
    11e2:	18097f03          	0x18097f03
    11e6:	0100                	addi	s0,sp,128
    11e8:	04096f03          	0x4096f03
    11ec:	0100                	addi	s0,sp,128
    11ee:	097faf03          	lw	t5,151(t6)
    11f2:	000c                	addi	a1,sp,0
    11f4:	0301                	addi	t1,t1,0
    11f6:	097c                	addi	a5,sp,156
    11f8:	0004                	addi	s1,sp,0
    11fa:	0301                	addi	t1,t1,0
    11fc:	0904                	addi	s1,sp,144
    11fe:	0004                	addi	s1,sp,0
    1200:	0301                	addi	t1,t1,0
    1202:	096c                	addi	a1,sp,156
    1204:	0004                	addi	s1,sp,0
    1206:	0301                	addi	t1,t1,0
    1208:	0915                	addi	s2,s2,5
    120a:	0004                	addi	s1,sp,0
    120c:	0301                	addi	t1,t1,0
    120e:	0904                	addi	s1,sp,144
    1210:	0004                	addi	s1,sp,0
    1212:	0001                	nop
    1214:	0402                	slli	s0,s0,0x0
    1216:	0601                	addi	a2,a2,0
    1218:	0c090003          	lb	zero,192(s2)
    121c:	0100                	addi	s0,sp,128
    121e:	0306                	slli	t1,t1,0x1
    1220:	0919                	addi	s2,s2,6
    1222:	0008                	addi	a0,sp,0
    1224:	0301                	addi	t1,t1,0
    1226:	0906                	slli	s2,s2,0x1
    1228:	0004                	addi	s1,sp,0
    122a:	0301                	addi	t1,t1,0
    122c:	0905                	addi	s2,s2,1
    122e:	000c                	addi	a1,sp,0
    1230:	0301                	addi	t1,t1,0
    1232:	0901                	addi	s2,s2,0
    1234:	0004                	addi	s1,sp,0
    1236:	0301                	addi	t1,t1,0
    1238:	0008097b          	0x8097b
    123c:	0301                	addi	t1,t1,0
    123e:	7eff                	0x7eff
    1240:	2c09                	jal	1452 <__seq_start+0x1452>
    1242:	0100                	addi	s0,sp,128
    1244:	04090103          	lb	sp,64(s2)
    1248:	0100                	addi	s0,sp,128
    124a:	08091003          	lh	zero,128(s2)
    124e:	0100                	addi	s0,sp,128
    1250:	0c097f03          	0xc097f03
    1254:	0100                	addi	s0,sp,128
    1256:	04090203          	lb	tp,64(s2)
    125a:	0100                	addi	s0,sp,128
    125c:	04097f03          	0x4097f03
    1260:	0100                	addi	s0,sp,128
    1262:	0c091303          	lh	t1,192(s2)
    1266:	0100                	addi	s0,sp,128
    1268:	10092403          	lw	s0,256(s2)
    126c:	0100                	addi	s0,sp,128
    126e:	04091003          	lh	zero,64(s2)
    1272:	0100                	addi	s0,sp,128
    1274:	04090403          	lb	s0,64(s2)
    1278:	0100                	addi	s0,sp,128
    127a:	0900d803          	lhu	a6,144(ra)
    127e:	0008                	addi	a0,sp,0
    1280:	0301                	addi	t1,t1,0
    1282:	0901                	addi	s2,s2,0
    1284:	0014                	addi	a3,sp,0
    1286:	0301                	addi	t1,t1,0
    1288:	097f                	0x97f
    128a:	001c                	addi	a5,sp,0
    128c:	0301                	addi	t1,t1,0
    128e:	0905                	addi	s2,s2,1
    1290:	0010                	addi	a2,sp,0
    1292:	0301                	addi	t1,t1,0
    1294:	0974                	addi	a3,sp,156
    1296:	0004                	addi	s1,sp,0
    1298:	0301                	addi	t1,t1,0
    129a:	0008096f          	jal	s2,8129a <__heap_start+0x5e99a>
    129e:	0301                	addi	t1,t1,0
    12a0:	0901                	addi	s2,s2,0
    12a2:	001c                	addi	a5,sp,0
    12a4:	0301                	addi	t1,t1,0
    12a6:	097f                	0x97f
    12a8:	0018                	addi	a4,sp,0
    12aa:	0301                	addi	t1,t1,0
    12ac:	0905                	addi	s2,s2,1
    12ae:	0008                	addi	a0,sp,0
    12b0:	0301                	addi	t1,t1,0
    12b2:	0908                	addi	a0,sp,144
    12b4:	0014                	addi	a3,sp,0
    12b6:	0301                	addi	t1,t1,0
    12b8:	7f9f 0c09 0100      	0x1000c097f9f
    12be:	08090603          	lb	a2,128(s2)
    12c2:	0100                	addi	s0,sp,128
    12c4:	08097c03          	0x8097c03
    12c8:	0100                	addi	s0,sp,128
    12ca:	0200                	addi	s0,sp,256
    12cc:	0104                	addi	s1,sp,128
    12ce:	04090d03          	lb	s10,64(s2)
    12d2:	0100                	addi	s0,sp,128
    12d4:	0c090503          	lb	a0,192(s2)
    12d8:	0100                	addi	s0,sp,128
    12da:	0900d803          	lhu	a6,144(ra)
    12de:	0018                	addi	a4,sp,0
    12e0:	0301                	addi	t1,t1,0
    12e2:	0905                	addi	s2,s2,1
    12e4:	0008                	addi	a0,sp,0
    12e6:	0301                	addi	t1,t1,0
    12e8:	0901                	addi	s2,s2,0
    12ea:	0004                	addi	s1,sp,0
    12ec:	0301                	addi	t1,t1,0
    12ee:	097f                	0x97f
    12f0:	000c                	addi	a1,sp,0
    12f2:	0301                	addi	t1,t1,0
    12f4:	0901                	addi	s2,s2,0
    12f6:	0004                	addi	s1,sp,0
    12f8:	0301                	addi	t1,t1,0
    12fa:	097f                	0x97f
    12fc:	0004                	addi	s1,sp,0
    12fe:	0301                	addi	t1,t1,0
    1300:	0901                	addi	s2,s2,0
    1302:	0004                	addi	s1,sp,0
    1304:	0301                	addi	t1,t1,0
    1306:	000c0947          	0xc0947
    130a:	0301                	addi	t1,t1,0
    130c:	0008095b          	0x8095b
    1310:	0001                	nop
    1312:	0402                	slli	s0,s0,0x0
    1314:	0302                	slli	t1,t1,0x0
    1316:	0916                	slli	s2,s2,0x5
    1318:	0008                	addi	a0,sp,0
    131a:	0001                	nop
    131c:	0402                	slli	s0,s0,0x0
    131e:	0302                	slli	t1,t1,0x0
    1320:	0901                	addi	s2,s2,0
    1322:	0004                	addi	s1,sp,0
    1324:	0601                	addi	a2,a2,0
    1326:	04090003          	lb	zero,64(s2)
    132a:	0100                	addi	s0,sp,128
    132c:	0306                	slli	t1,t1,0x1
    132e:	0979                	addi	s2,s2,30
    1330:	0008                	addi	a0,sp,0
    1332:	0301                	addi	t1,t1,0
    1334:	0901                	addi	s2,s2,0
    1336:	0004                	addi	s1,sp,0
    1338:	0301                	addi	t1,t1,0
    133a:	097f                	0x97f
    133c:	0018                	addi	a4,sp,0
    133e:	0301                	addi	t1,t1,0
    1340:	0901                	addi	s2,s2,0
    1342:	0004                	addi	s1,sp,0
    1344:	0301                	addi	t1,t1,0
    1346:	095f 0014 0001      	0x10014095f
    134c:	0402                	slli	s0,s0,0x0
    134e:	0302                	slli	t1,t1,0x0
    1350:	093a                	slli	s2,s2,0xe
    1352:	0008                	addi	a0,sp,0
    1354:	0001                	nop
    1356:	0402                	slli	s0,s0,0x0
    1358:	0302                	slli	t1,t1,0x0
    135a:	0902                	slli	s2,s2,0x0
    135c:	0004                	addi	s1,sp,0
    135e:	0301                	addi	t1,t1,0
    1360:	7c8a                	flw	fs9,160(sp)
    1362:	1809                	addi	a6,a6,-30
    1364:	0100                	addi	s0,sp,128
    1366:	09048a03          	lb	s4,144(s1)
    136a:	0008                	addi	a0,sp,0
    136c:	0301                	addi	t1,t1,0
    136e:	0918                	addi	a4,sp,144
    1370:	000c                	addi	a1,sp,0
    1372:	0301                	addi	t1,t1,0
    1374:	0905                	addi	s2,s2,1
    1376:	0004                	addi	s1,sp,0
    1378:	0301                	addi	t1,t1,0
    137a:	7fba                	flw	ft11,172(sp)
    137c:	0809                	addi	a6,a6,2
    137e:	0100                	addi	s0,sp,128
    1380:	08095c03          	lhu	s8,128(s2)
    1384:	0100                	addi	s0,sp,128
    1386:	04097f03          	0x4097f03
    138a:	0100                	addi	s0,sp,128
    138c:	097caa03          	lw	s4,151(s9) # 4097 <__seq_start+0x4097>
    1390:	0008                	addi	a0,sp,0
    1392:	0301                	addi	t1,t1,0
    1394:	0904                	addi	s1,sp,144
    1396:	0000                	unimp
    1398:	0301                	addi	t1,t1,0
    139a:	00040903          	lb	s2,0(s0) # ffff8000 <pulp__FC+0xffff8001>
    139e:	0301                	addi	t1,t1,0
    13a0:	097e                	slli	s2,s2,0x1f
    13a2:	0004                	addi	s1,sp,0
    13a4:	0301                	addi	t1,t1,0
    13a6:	040904f3          	0x40904f3
    13aa:	0100                	addi	s0,sp,128
    13ac:	04090203          	lb	tp,64(s2)
    13b0:	0100                	addi	s0,sp,128
    13b2:	04097e03          	0x4097e03
    13b6:	0100                	addi	s0,sp,128
    13b8:	10090403          	lb	s0,256(s2)
    13bc:	0100                	addi	s0,sp,128
    13be:	18097c03          	0x18097c03
    13c2:	0100                	addi	s0,sp,128
    13c4:	04090003          	lb	zero,64(s2)
    13c8:	0100                	addi	s0,sp,128
    13ca:	0c090203          	lb	tp,192(s2)
    13ce:	0100                	addi	s0,sp,128
    13d0:	04090203          	lb	tp,64(s2)
    13d4:	0100                	addi	s0,sp,128
    13d6:	04090303          	lb	t1,64(s2)
    13da:	0100                	addi	s0,sp,128
    13dc:	0c090203          	lb	tp,192(s2)
    13e0:	0100                	addi	s0,sp,128
    13e2:	04090203          	lb	tp,64(s2)
    13e6:	0100                	addi	s0,sp,128
    13e8:	04097e03          	0x4097e03
    13ec:	0100                	addi	s0,sp,128
    13ee:	0c090303          	lb	t1,192(s2)
    13f2:	0100                	addi	s0,sp,128
    13f4:	18097d03          	0x18097d03
    13f8:	0100                	addi	s0,sp,128
    13fa:	04090003          	lb	zero,64(s2)
    13fe:	0100                	addi	s0,sp,128
    1400:	0c090203          	lb	tp,192(s2)
    1404:	0100                	addi	s0,sp,128
    1406:	04090103          	lb	sp,64(s2)
    140a:	0100                	addi	s0,sp,128
    140c:	04090303          	lb	t1,64(s2)
    1410:	0100                	addi	s0,sp,128
    1412:	0c090203          	lb	tp,192(s2)
    1416:	0100                	addi	s0,sp,128
    1418:	04090203          	lb	tp,64(s2)
    141c:	0100                	addi	s0,sp,128
    141e:	04097e03          	0x4097e03
    1422:	0100                	addi	s0,sp,128
    1424:	08090303          	lb	t1,128(s2)
    1428:	0100                	addi	s0,sp,128
    142a:	18097d03          	0x18097d03
    142e:	0100                	addi	s0,sp,128
    1430:	04090003          	lb	zero,64(s2)
    1434:	0100                	addi	s0,sp,128
    1436:	0c090203          	lb	tp,192(s2)
    143a:	0100                	addi	s0,sp,128
    143c:	04090103          	lb	sp,64(s2)
    1440:	0100                	addi	s0,sp,128
    1442:	04090303          	lb	t1,64(s2)
    1446:	0100                	addi	s0,sp,128
    1448:	0c090203          	lb	tp,192(s2)
    144c:	0100                	addi	s0,sp,128
    144e:	00090103          	lb	sp,0(s2)
    1452:	0100                	addi	s0,sp,128
    1454:	1c090403          	lb	s0,448(s2)
    1458:	0100                	addi	s0,sp,128
    145a:	04090203          	lb	tp,64(s2)
    145e:	0100                	addi	s0,sp,128
    1460:	04097e03          	0x4097e03
    1464:	0100                	addi	s0,sp,128
    1466:	08090303          	lb	t1,128(s2)
    146a:	0100                	addi	s0,sp,128
    146c:	08090103          	lb	sp,128(s2)
    1470:	0100                	addi	s0,sp,128
    1472:	18097c03          	0x18097c03
    1476:	0100                	addi	s0,sp,128
    1478:	04090003          	lb	zero,64(s2)
    147c:	0100                	addi	s0,sp,128
    147e:	0c090203          	lb	tp,192(s2)
    1482:	0100                	addi	s0,sp,128
    1484:	04090203          	lb	tp,64(s2)
    1488:	0100                	addi	s0,sp,128
    148a:	04090403          	lb	s0,64(s2)
    148e:	0100                	addi	s0,sp,128
    1490:	0c09                	addi	s8,s8,2
    1492:	0000                	unimp
    1494:	0101                	addi	sp,sp,0
    1496:	00a0                	addi	s0,sp,72
    1498:	0000                	unimp
    149a:	0002                	0x2
    149c:	0080                	addi	s0,sp,64
    149e:	0000                	unimp
    14a0:	0101                	addi	sp,sp,0
    14a2:	000d0efb          	0xd0efb
    14a6:	0101                	addi	sp,sp,0
    14a8:	0101                	addi	sp,sp,0
    14aa:	0000                	unimp
    14ac:	0100                	addi	s0,sp,128
    14ae:	0000                	unimp
    14b0:	2f01                	jal	1bc0 <__seq_start+0x1bc0>
    14b2:	7375                	lui	t1,0xffffd
    14b4:	2f72                	fld	ft10,280(sp)
    14b6:	61726373          	csrrsi	t1,0x617,4
    14ba:	6374                	flw	fa3,68(a4)
    14bc:	3268                	fld	fa0,224(a2)
    14be:	72616c2f          	0x72616c2f
    14c2:	6961                	lui	s2,0x18
    14c4:	386e                	fld	fa6,248(sp)
    14c6:	6369792f          	0x6369792f
    14ca:	687a                	flw	fa6,156(sp)
    14cc:	6e61                	lui	t3,0x18
    14ce:	65742f67          	0x65742f67
    14d2:	6172                	flw	ft2,28(sp)
    14d4:	6f70                	flw	fa2,92(a4)
    14d6:	645f6c6f          	jal	s8,f831a <__heap_start+0xd5a1a>
    14da:	6172                	flw	ft2,28(sp)
    14dc:	5f6d                	li	t5,-5
    14de:	6d627573          	csrrci	a0,0x6d6,4
    14e2:	6c75646f          	jal	s0,583a8 <__heap_start+0x35aa8>
    14e6:	5f65                	li	t5,-7
    14e8:	6572                	flw	fa0,28(sp)
    14ea:	6162                	flw	ft2,24(sp)
    14ec:	305f6573          	csrrsi	a0,mtvec,30
    14f0:	3035                	jal	d1c <__seq_start+0xd1c>
    14f2:	5f32                	lw	t5,44(sp)
    14f4:	3032                	fld	ft0,296(sp)
    14f6:	3432                	fld	fs0,296(sp)
    14f8:	6d656d2f          	0x6d656d2f
    14fc:	6f70                	flw	fa2,92(a4)
    14fe:	732f6c6f          	jal	s8,f7c30 <__heap_start+0xd5330>
    1502:	7774666f          	jal	a2,48478 <__heap_start+0x25b78>
    1506:	7261                	lui	tp,0xffff8
    1508:	2f65                	jal	1cc0 <__seq_start+0x1cc0>
    150a:	7572                	flw	fa0,60(sp)
    150c:	746e                	flw	fs0,248(sp)
    150e:	6d69                	lui	s10,0x1a
    1510:	0065                	c.addi	zero,25
    1512:	7300                	flw	fs0,32(a4)
    1514:	7265                	lui	tp,0xffff9
    1516:	6169                	addi	sp,sp,208
    1518:	2e6c                	fld	fa1,216(a2)
    151a:	00010063          	beqz	sp,151a <__seq_start+0x151a>
    151e:	0000                	unimp
    1520:	0500                	addi	s0,sp,640
    1522:	e402                	fsw	ft0,8(sp)
    1524:	0012                	0x12
    1526:	1a80                	addi	s0,sp,368
    1528:	00090203          	lb	tp,0(s2) # 18000 <__seq_start+0x18000>
    152c:	0100                	addi	s0,sp,128
    152e:	08090103          	lb	sp,128(s2)
    1532:	0100                	addi	s0,sp,128
    1534:	0409                	addi	s0,s0,2
    1536:	0000                	unimp
    1538:	0101                	addi	sp,sp,0
    153a:	0579                	addi	a0,a0,30
    153c:	0000                	unimp
    153e:	0002                	0x2
    1540:	00000303          	lb	t1,0(zero) # 0 <__seq_start>
    1544:	0101                	addi	sp,sp,0
    1546:	000d0efb          	0xd0efb
    154a:	0101                	addi	sp,sp,0
    154c:	0101                	addi	sp,sp,0
    154e:	0000                	unimp
    1550:	0100                	addi	s0,sp,128
    1552:	0000                	unimp
    1554:	2f01                	jal	1c64 <__seq_start+0x1c64>
    1556:	7375                	lui	t1,0xffffd
    1558:	2f72                	fld	ft10,280(sp)
    155a:	61726373          	csrrsi	t1,0x617,4
    155e:	6374                	flw	fa3,68(a4)
    1560:	3268                	fld	fa0,224(a2)
    1562:	72616c2f          	0x72616c2f
    1566:	6961                	lui	s2,0x18
    1568:	386e                	fld	fa6,248(sp)
    156a:	6369792f          	0x6369792f
    156e:	687a                	flw	fa6,156(sp)
    1570:	6e61                	lui	t3,0x18
    1572:	65742f67          	0x65742f67
    1576:	6172                	flw	ft2,28(sp)
    1578:	6f70                	flw	fa2,92(a4)
    157a:	645f6c6f          	jal	s8,f83be <__heap_start+0xd5abe>
    157e:	6172                	flw	ft2,28(sp)
    1580:	5f6d                	li	t5,-5
    1582:	6d627573          	csrrci	a0,0x6d6,4
    1586:	6c75646f          	jal	s0,5844c <__heap_start+0x35b4c>
    158a:	5f65                	li	t5,-7
    158c:	6572                	flw	fa0,28(sp)
    158e:	6162                	flw	ft2,24(sp)
    1590:	305f6573          	csrrsi	a0,mtvec,30
    1594:	3035                	jal	dc0 <__seq_start+0xdc0>
    1596:	5f32                	lw	t5,44(sp)
    1598:	3032                	fld	ft0,296(sp)
    159a:	3432                	fld	fs0,296(sp)
    159c:	6d656d2f          	0x6d656d2f
    15a0:	6f70                	flw	fa2,92(a4)
    15a2:	732f6c6f          	jal	s8,f7cd4 <__heap_start+0xd53d4>
    15a6:	7774666f          	jal	a2,4851c <__heap_start+0x25c1c>
    15aa:	7261                	lui	tp,0xffff8
    15ac:	2f65                	jal	1d64 <__seq_start+0x1d64>
    15ae:	7572                	flw	fa0,60(sp)
    15b0:	746e                	flw	fs0,248(sp)
    15b2:	6d69                	lui	s10,0x1a
    15b4:	0065                	c.addi	zero,25
    15b6:	7273752f          	0x7273752f
    15ba:	7263732f          	0x7263732f
    15be:	7461                	lui	s0,0xffff8
    15c0:	2f326863          	bltu	tp,s3,18b0 <__seq_start+0x18b0>
    15c4:	616c                	flw	fa1,68(a0)
    15c6:	6172                	flw	ft2,28(sp)
    15c8:	6e69                	lui	t3,0x1a
    15ca:	2f38                	fld	fa4,88(a4)
    15cc:	6979                	lui	s2,0x1e
    15ce:	61687a63          	bleu	s6,a6,1be2 <__seq_start+0x1be2>
    15d2:	676e                	flw	fa4,216(sp)
    15d4:	7265742f          	0x7265742f
    15d8:	7061                	0x7061
    15da:	5f6c6f6f          	jal	t5,c7bd0 <__heap_start+0xa52d0>
    15de:	7264                	flw	fs1,100(a2)
    15e0:	6d61                	lui	s10,0x18
    15e2:	735f 6275 6f6d      	0x6f6d6275735f
    15e8:	7564                	flw	fs1,108(a0)
    15ea:	656c                	flw	fa1,76(a0)
    15ec:	725f 6265 7361      	0x73616265725f
    15f2:	5f65                	li	t5,-7
    15f4:	3530                	fld	fa2,104(a0)
    15f6:	3230                	fld	fa2,96(a2)
    15f8:	325f 3230 2f34      	0x2f343230325f
    15fe:	656d                	lui	a0,0x1b
    1600:	706d                	0x706d
    1602:	2f6c6f6f          	jal	t5,c78f8 <__heap_start+0xa4ff8>
    1606:	6e69                	lui	t3,0x1a
    1608:	6c617473          	csrrci	s0,0x6c6,2
    160c:	2f6c                	fld	fa1,216(a4)
    160e:	6972                	flw	fs2,28(sp)
    1610:	2d766373          	csrrsi	t1,0x2d7,12
    1614:	2f636367          	0x2f636367
    1618:	6972                	flw	fs2,28(sp)
    161a:	33766373          	csrrsi	t1,0x337,12
    161e:	2d32                	fld	fs10,264(sp)
    1620:	6e75                	lui	t3,0x1d
    1622:	776f6e6b          	0x776f6e6b
    1626:	2d6e                	fld	fs10,216(sp)
    1628:	6c65                	lui	s8,0x19
    162a:	2f66                	fld	ft10,88(sp)
    162c:	2d737973          	csrrci	s2,0x2d7,6
    1630:	6e69                	lui	t3,0x1a
    1632:	64756c63          	bltu	a0,t2,1c8a <__seq_start+0x1c8a>
    1636:	2f65                	jal	1dee <__seq_start+0x1dee>
    1638:	616d                	addi	sp,sp,240
    163a:	6e696863          	bltu	s2,t1,1d2a <__seq_start+0x1d2a>
    163e:	0065                	c.addi	zero,25
    1640:	7273752f          	0x7273752f
    1644:	7263732f          	0x7263732f
    1648:	7461                	lui	s0,0xffff8
    164a:	2f326863          	bltu	tp,s3,193a <__seq_start+0x193a>
    164e:	616c                	flw	fa1,68(a0)
    1650:	6172                	flw	ft2,28(sp)
    1652:	6e69                	lui	t3,0x1a
    1654:	2f38                	fld	fa4,88(a4)
    1656:	6979                	lui	s2,0x1e
    1658:	61687a63          	bleu	s6,a6,1c6c <__seq_start+0x1c6c>
    165c:	676e                	flw	fa4,216(sp)
    165e:	7265742f          	0x7265742f
    1662:	7061                	0x7061
    1664:	5f6c6f6f          	jal	t5,c7c5a <__heap_start+0xa535a>
    1668:	7264                	flw	fs1,100(a2)
    166a:	6d61                	lui	s10,0x18
    166c:	735f 6275 6f6d      	0x6f6d6275735f
    1672:	7564                	flw	fs1,108(a0)
    1674:	656c                	flw	fa1,76(a0)
    1676:	725f 6265 7361      	0x73616265725f
    167c:	5f65                	li	t5,-7
    167e:	3530                	fld	fa2,104(a0)
    1680:	3230                	fld	fa2,96(a2)
    1682:	325f 3230 2f34      	0x2f343230325f
    1688:	656d                	lui	a0,0x1b
    168a:	706d                	0x706d
    168c:	2f6c6f6f          	jal	t5,c7982 <__heap_start+0xa5082>
    1690:	6e69                	lui	t3,0x1a
    1692:	6c617473          	csrrci	s0,0x6c6,2
    1696:	2f6c                	fld	fa1,216(a4)
    1698:	6972                	flw	fs2,28(sp)
    169a:	2d766373          	csrrsi	t1,0x2d7,12
    169e:	2f636367          	0x2f636367
    16a2:	696c                	flw	fa1,84(a0)
    16a4:	2f62                	fld	ft10,24(sp)
    16a6:	2f636367          	0x2f636367
    16aa:	6972                	flw	fs2,28(sp)
    16ac:	33766373          	csrrsi	t1,0x337,12
    16b0:	2d32                	fld	fs10,264(sp)
    16b2:	6e75                	lui	t3,0x1d
    16b4:	776f6e6b          	0x776f6e6b
    16b8:	2d6e                	fld	fs10,216(sp)
    16ba:	6c65                	lui	s8,0x19
    16bc:	2f66                	fld	ft10,88(sp)
    16be:	2e312e37          	lui	t3,0x2e312
    16c2:	2f31                	jal	1dde <__seq_start+0x1dde>
    16c4:	6e69                	lui	t3,0x1a
    16c6:	64756c63          	bltu	a0,t2,1d1e <__seq_start+0x1d1e>
    16ca:	0065                	c.addi	zero,25
    16cc:	7273752f          	0x7273752f
    16d0:	7263732f          	0x7263732f
    16d4:	7461                	lui	s0,0xffff8
    16d6:	2f326863          	bltu	tp,s3,19c6 <__seq_start+0x19c6>
    16da:	616c                	flw	fa1,68(a0)
    16dc:	6172                	flw	ft2,28(sp)
    16de:	6e69                	lui	t3,0x1a
    16e0:	2f38                	fld	fa4,88(a4)
    16e2:	6979                	lui	s2,0x1e
    16e4:	61687a63          	bleu	s6,a6,1cf8 <__seq_start+0x1cf8>
    16e8:	676e                	flw	fa4,216(sp)
    16ea:	7265742f          	0x7265742f
    16ee:	7061                	0x7061
    16f0:	5f6c6f6f          	jal	t5,c7ce6 <__heap_start+0xa53e6>
    16f4:	7264                	flw	fs1,100(a2)
    16f6:	6d61                	lui	s10,0x18
    16f8:	735f 6275 6f6d      	0x6f6d6275735f
    16fe:	7564                	flw	fs1,108(a0)
    1700:	656c                	flw	fa1,76(a0)
    1702:	725f 6265 7361      	0x73616265725f
    1708:	5f65                	li	t5,-7
    170a:	3530                	fld	fa2,104(a0)
    170c:	3230                	fld	fa2,96(a2)
    170e:	325f 3230 2f34      	0x2f343230325f
    1714:	656d                	lui	a0,0x1b
    1716:	706d                	0x706d
    1718:	2f6c6f6f          	jal	t5,c7a0e <__heap_start+0xa510e>
    171c:	6e69                	lui	t3,0x1a
    171e:	6c617473          	csrrci	s0,0x6c6,2
    1722:	2f6c                	fld	fa1,216(a4)
    1724:	6972                	flw	fs2,28(sp)
    1726:	2d766373          	csrrsi	t1,0x2d7,12
    172a:	2f636367          	0x2f636367
    172e:	6972                	flw	fs2,28(sp)
    1730:	33766373          	csrrsi	t1,0x337,12
    1734:	2d32                	fld	fs10,264(sp)
    1736:	6e75                	lui	t3,0x1d
    1738:	776f6e6b          	0x776f6e6b
    173c:	2d6e                	fld	fs10,216(sp)
    173e:	6c65                	lui	s8,0x19
    1740:	2f66                	fld	ft10,88(sp)
    1742:	2d737973          	csrrci	s2,0x2d7,6
    1746:	6e69                	lui	t3,0x1a
    1748:	64756c63          	bltu	a0,t2,1da0 <__seq_start+0x1da0>
    174c:	2f65                	jal	1f04 <__seq_start+0x1f04>
    174e:	00737973          	csrrci	s2,0x7,6
    1752:	7273752f          	0x7273752f
    1756:	7263732f          	0x7263732f
    175a:	7461                	lui	s0,0xffff8
    175c:	2f326863          	bltu	tp,s3,1a4c <__seq_start+0x1a4c>
    1760:	616c                	flw	fa1,68(a0)
    1762:	6172                	flw	ft2,28(sp)
    1764:	6e69                	lui	t3,0x1a
    1766:	2f38                	fld	fa4,88(a4)
    1768:	6979                	lui	s2,0x1e
    176a:	61687a63          	bleu	s6,a6,1d7e <__seq_start+0x1d7e>
    176e:	676e                	flw	fa4,216(sp)
    1770:	7265742f          	0x7265742f
    1774:	7061                	0x7061
    1776:	5f6c6f6f          	jal	t5,c7d6c <__heap_start+0xa546c>
    177a:	7264                	flw	fs1,100(a2)
    177c:	6d61                	lui	s10,0x18
    177e:	735f 6275 6f6d      	0x6f6d6275735f
    1784:	7564                	flw	fs1,108(a0)
    1786:	656c                	flw	fa1,76(a0)
    1788:	725f 6265 7361      	0x73616265725f
    178e:	5f65                	li	t5,-7
    1790:	3530                	fld	fa2,104(a0)
    1792:	3230                	fld	fa2,96(a2)
    1794:	325f 3230 2f34      	0x2f343230325f
    179a:	656d                	lui	a0,0x1b
    179c:	706d                	0x706d
    179e:	2f6c6f6f          	jal	t5,c7a94 <__heap_start+0xa5194>
    17a2:	6e69                	lui	t3,0x1a
    17a4:	6c617473          	csrrci	s0,0x6c6,2
    17a8:	2f6c                	fld	fa1,216(a4)
    17aa:	6972                	flw	fs2,28(sp)
    17ac:	2d766373          	csrrsi	t1,0x2d7,12
    17b0:	2f636367          	0x2f636367
    17b4:	6972                	flw	fs2,28(sp)
    17b6:	33766373          	csrrsi	t1,0x337,12
    17ba:	2d32                	fld	fs10,264(sp)
    17bc:	6e75                	lui	t3,0x1d
    17be:	776f6e6b          	0x776f6e6b
    17c2:	2d6e                	fld	fs10,216(sp)
    17c4:	6c65                	lui	s8,0x19
    17c6:	2f66                	fld	ft10,88(sp)
    17c8:	2d737973          	csrrci	s2,0x2d7,6
    17cc:	6e69                	lui	t3,0x1a
    17ce:	64756c63          	bltu	a0,t2,1e26 <__seq_start+0x1e26>
    17d2:	0065                	c.addi	zero,25
    17d4:	7300                	flw	fs0,32(a4)
    17d6:	7274                	flw	fa3,100(a2)
    17d8:	6e69                	lui	t3,0x1a
    17da:	00632e67          	0x632e67
    17de:	0001                	nop
    17e0:	5f00                	lw	s0,56(a4)
    17e2:	6564                	flw	fs1,76(a0)
    17e4:	6166                	flw	ft2,88(sp)
    17e6:	6c75                	lui	s8,0x1d
    17e8:	5f74                	lw	a3,124(a4)
    17ea:	7974                	flw	fa3,116(a0)
    17ec:	6570                	flw	fa2,76(a0)
    17ee:	00682e73          	csrrs	t3,0x6,a6
    17f2:	0002                	0x2
    17f4:	7300                	flw	fs0,32(a4)
    17f6:	6474                	flw	fa3,76(s0)
    17f8:	6564                	flw	fs1,76(a0)
    17fa:	2e66                	fld	ft8,88(sp)
    17fc:	0068                	addi	a0,sp,12
    17fe:	5f000003          	lb	zero,1520(zero) # 5f0 <__seq_start+0x5f0>
    1802:	69647473          	csrrci	s0,0x696,8
    1806:	746e                	flw	fs0,248(sp)
    1808:	682e                	flw	fa6,200(sp)
    180a:	0400                	addi	s0,sp,512
    180c:	0000                	unimp
    180e:	6f6c                	flw	fa1,92(a4)
    1810:	682e6b63          	bltu	t3,sp,1ea6 <__seq_start+0x1ea6>
    1814:	0400                	addi	s0,sp,512
    1816:	0000                	unimp
    1818:	745f 7079 7365      	0x73657079745f
    181e:	682e                	flw	fa6,200(sp)
    1820:	0400                	addi	s0,sp,512
    1822:	0000                	unimp
    1824:	6572                	flw	fa0,28(sp)
    1826:	6e65                	lui	t3,0x19
    1828:	2e74                	fld	fa3,216(a2)
    182a:	0068                	addi	a0,sp,12
    182c:	0004                	addi	s1,sp,0
    182e:	6300                	flw	fs0,0(a4)
    1830:	7974                	flw	fa3,116(a0)
    1832:	6570                	flw	fa2,76(a0)
    1834:	682e                	flw	fa6,200(sp)
    1836:	0500                	addi	s0,sp,640
    1838:	0000                	unimp
    183a:	69727473          	csrrci	s0,0x697,4
    183e:	676e                	flw	fa4,216(sp)
    1840:	682e                	flw	fa6,200(sp)
    1842:	0500                	addi	s0,sp,640
    1844:	0000                	unimp
    1846:	0000                	unimp
    1848:	0205                	addi	tp,tp,1
    184a:	12f0                	addi	a2,sp,364
    184c:	8000                	0x8000
    184e:	031a                	slli	t1,t1,0x6
    1850:	0901                	addi	s2,s2,0
    1852:	0000                	unimp
    1854:	0301                	addi	t1,t1,0
    1856:	0909                	addi	s2,s2,2
    1858:	0018                	addi	a4,sp,0
    185a:	0301                	addi	t1,t1,0
    185c:	0901                	addi	s2,s2,0
    185e:	004c                	addi	a1,sp,4
    1860:	0301                	addi	t1,t1,0
    1862:	097f                	0x97f
    1864:	0050                	addi	a2,sp,4
    1866:	0301                	addi	t1,t1,0
    1868:	0901                	addi	s2,s2,0
    186a:	0004                	addi	s1,sp,0
    186c:	0301                	addi	t1,t1,0
    186e:	097f                	0x97f
    1870:	002c                	addi	a1,sp,8
    1872:	0301                	addi	t1,t1,0
    1874:	0901                	addi	s2,s2,0
    1876:	0004                	addi	s1,sp,0
    1878:	0301                	addi	t1,t1,0
    187a:	097f                	0x97f
    187c:	000c                	addi	a1,sp,0
    187e:	0301                	addi	t1,t1,0
    1880:	0901                	addi	s2,s2,0
    1882:	0004                	addi	s1,sp,0
    1884:	0301                	addi	t1,t1,0
    1886:	097f                	0x97f
    1888:	000c                	addi	a1,sp,0
    188a:	0301                	addi	t1,t1,0
    188c:	0901                	addi	s2,s2,0
    188e:	0004                	addi	s1,sp,0
    1890:	0301                	addi	t1,t1,0
    1892:	097f                	0x97f
    1894:	000c                	addi	a1,sp,0
    1896:	0301                	addi	t1,t1,0
    1898:	0901                	addi	s2,s2,0
    189a:	0004                	addi	s1,sp,0
    189c:	0301                	addi	t1,t1,0
    189e:	097f                	0x97f
    18a0:	000c                	addi	a1,sp,0
    18a2:	0301                	addi	t1,t1,0
    18a4:	0901                	addi	s2,s2,0
    18a6:	0004                	addi	s1,sp,0
    18a8:	0301                	addi	t1,t1,0
    18aa:	097a                	slli	s2,s2,0x1e
    18ac:	000c                	addi	a1,sp,0
    18ae:	0301                	addi	t1,t1,0
    18b0:	0901                	addi	s2,s2,0
    18b2:	0004                	addi	s1,sp,0
    18b4:	0301                	addi	t1,t1,0
    18b6:	097f                	0x97f
    18b8:	0008                	addi	a0,sp,0
    18ba:	0301                	addi	t1,t1,0
    18bc:	0906                	slli	s2,s2,0x1
    18be:	000c                	addi	a1,sp,0
    18c0:	0301                	addi	t1,t1,0
    18c2:	097f                	0x97f
    18c4:	0008                	addi	a0,sp,0
    18c6:	0301                	addi	t1,t1,0
    18c8:	0904                	addi	s1,sp,144
    18ca:	0004                	addi	s1,sp,0
    18cc:	0301                	addi	t1,t1,0
    18ce:	097c                	addi	a5,sp,156
    18d0:	0008                	addi	a0,sp,0
    18d2:	0301                	addi	t1,t1,0
    18d4:	0906                	slli	s2,s2,0x1
    18d6:	000c                	addi	a1,sp,0
    18d8:	0301                	addi	t1,t1,0
    18da:	0901                	addi	s2,s2,0
    18dc:	0000                	unimp
    18de:	0301                	addi	t1,t1,0
    18e0:	0010090b          	p.lb	s2,1(zero!) # 1 <__seq_start+0x1>
    18e4:	0301                	addi	t1,t1,0
    18e6:	0901                	addi	s2,s2,0
    18e8:	0034                	addi	a3,sp,8
    18ea:	0301                	addi	t1,t1,0
    18ec:	097f                	0x97f
    18ee:	003c                	addi	a5,sp,8
    18f0:	0301                	addi	t1,t1,0
    18f2:	0901                	addi	s2,s2,0
    18f4:	0004                	addi	s1,sp,0
    18f6:	0301                	addi	t1,t1,0
    18f8:	097f                	0x97f
    18fa:	0020                	addi	s0,sp,8
    18fc:	0301                	addi	t1,t1,0
    18fe:	0901                	addi	s2,s2,0
    1900:	0004                	addi	s1,sp,0
    1902:	0301                	addi	t1,t1,0
    1904:	097f                	0x97f
    1906:	0008                	addi	a0,sp,0
    1908:	0301                	addi	t1,t1,0
    190a:	0901                	addi	s2,s2,0
    190c:	0004                	addi	s1,sp,0
    190e:	0301                	addi	t1,t1,0
    1910:	097f                	0x97f
    1912:	0008                	addi	a0,sp,0
    1914:	0301                	addi	t1,t1,0
    1916:	0901                	addi	s2,s2,0
    1918:	0004                	addi	s1,sp,0
    191a:	0301                	addi	t1,t1,0
    191c:	097f                	0x97f
    191e:	0008                	addi	a0,sp,0
    1920:	0301                	addi	t1,t1,0
    1922:	0901                	addi	s2,s2,0
    1924:	0004                	addi	s1,sp,0
    1926:	0301                	addi	t1,t1,0
    1928:	097f                	0x97f
    192a:	0008                	addi	a0,sp,0
    192c:	0301                	addi	t1,t1,0
    192e:	0901                	addi	s2,s2,0
    1930:	0004                	addi	s1,sp,0
    1932:	0301                	addi	t1,t1,0
    1934:	00040903          	lb	s2,0(s0) # ffff8000 <pulp__FC+0xffff8001>
    1938:	0301                	addi	t1,t1,0
    193a:	0972                	slli	s2,s2,0x1c
    193c:	0004                	addi	s1,sp,0
    193e:	0301                	addi	t1,t1,0
    1940:	0901                	addi	s2,s2,0
    1942:	0004                	addi	s1,sp,0
    1944:	0301                	addi	t1,t1,0
    1946:	0901                	addi	s2,s2,0
    1948:	0008                	addi	a0,sp,0
    194a:	0301                	addi	t1,t1,0
    194c:	0904                	addi	s1,sp,144
    194e:	0008                	addi	a0,sp,0
    1950:	0301                	addi	t1,t1,0
    1952:	0901                	addi	s2,s2,0
    1954:	0008                	addi	a0,sp,0
    1956:	0301                	addi	t1,t1,0
    1958:	097f                	0x97f
    195a:	0004                	addi	s1,sp,0
    195c:	0301                	addi	t1,t1,0
    195e:	0904                	addi	s1,sp,144
    1960:	000c                	addi	a1,sp,0
    1962:	0301                	addi	t1,t1,0
    1964:	0906                	slli	s2,s2,0x1
    1966:	0014                	addi	a3,sp,0
    1968:	0301                	addi	t1,t1,0
    196a:	0902                	slli	s2,s2,0x0
    196c:	0000                	unimp
    196e:	0301                	addi	t1,t1,0
    1970:	002c0903          	lb	s2,2(s8) # 1d002 <__seq_start+0x1d002>
    1974:	0301                	addi	t1,t1,0
    1976:	0902                	slli	s2,s2,0x0
    1978:	0004                	addi	s1,sp,0
    197a:	0001                	nop
    197c:	0402                	slli	s0,s0,0x0
    197e:	0302                	slli	t1,t1,0x0
    1980:	0904                	addi	s1,sp,144
    1982:	0000                	unimp
    1984:	0001                	nop
    1986:	0402                	slli	s0,s0,0x0
    1988:	0302                	slli	t1,t1,0x0
    198a:	0901                	addi	s2,s2,0
    198c:	0004                	addi	s1,sp,0
    198e:	0001                	nop
    1990:	0402                	slli	s0,s0,0x0
    1992:	0302                	slli	t1,t1,0x0
    1994:	0901                	addi	s2,s2,0
    1996:	0004                	addi	s1,sp,0
    1998:	0001                	nop
    199a:	0402                	slli	s0,s0,0x0
    199c:	0601                	addi	a2,a2,0
    199e:	04090003          	lb	zero,64(s2) # 1e040 <__seq_start+0x1e040>
    19a2:	0100                	addi	s0,sp,128
    19a4:	0306                	slli	t1,t1,0x1
    19a6:	00040903          	lb	s2,0(s0)
    19aa:	0301                	addi	t1,t1,0
    19ac:	0902                	slli	s2,s2,0x0
    19ae:	0010                	addi	a2,sp,0
    19b0:	0301                	addi	t1,t1,0
    19b2:	0901                	addi	s2,s2,0
    19b4:	0000                	unimp
    19b6:	0301                	addi	t1,t1,0
    19b8:	000c0903          	lb	s2,0(s8)
    19bc:	0301                	addi	t1,t1,0
    19be:	0901                	addi	s2,s2,0
    19c0:	000c                	addi	a1,sp,0
    19c2:	0301                	addi	t1,t1,0
    19c4:	0901                	addi	s2,s2,0
    19c6:	0004                	addi	s1,sp,0
    19c8:	0301                	addi	t1,t1,0
    19ca:	0902                	slli	s2,s2,0x0
    19cc:	002c                	addi	a1,sp,8
    19ce:	0301                	addi	t1,t1,0
    19d0:	0901                	addi	s2,s2,0
    19d2:	0004                	addi	s1,sp,0
    19d4:	0301                	addi	t1,t1,0
    19d6:	097c                	addi	a5,sp,156
    19d8:	0004                	addi	s1,sp,0
    19da:	0301                	addi	t1,t1,0
    19dc:	0010090b          	p.lb	s2,1(zero!) # 1 <__seq_start+0x1>
    19e0:	0301                	addi	t1,t1,0
    19e2:	0901                	addi	s2,s2,0
    19e4:	0004                	addi	s1,sp,0
    19e6:	0301                	addi	t1,t1,0
    19e8:	0901                	addi	s2,s2,0
    19ea:	0004                	addi	s1,sp,0
    19ec:	0301                	addi	t1,t1,0
    19ee:	0901                	addi	s2,s2,0
    19f0:	0004                	addi	s1,sp,0
    19f2:	0301                	addi	t1,t1,0
    19f4:	0901                	addi	s2,s2,0
    19f6:	0004                	addi	s1,sp,0
    19f8:	0301                	addi	t1,t1,0
    19fa:	00080903          	lb	s2,0(a6) # 590b5bd6 <wake_up_tile_g7_reg+0x190b5b7a>
    19fe:	0301                	addi	t1,t1,0
    1a00:	0901                	addi	s2,s2,0
    1a02:	0004                	addi	s1,sp,0
    1a04:	0301                	addi	t1,t1,0
    1a06:	0902                	slli	s2,s2,0x0
    1a08:	0004                	addi	s1,sp,0
    1a0a:	0001                	nop
    1a0c:	0402                	slli	s0,s0,0x0
    1a0e:	0301                	addi	t1,t1,0
    1a10:	0902                	slli	s2,s2,0x0
    1a12:	0004                	addi	s1,sp,0
    1a14:	0301                	addi	t1,t1,0
    1a16:	000c0903          	lb	s2,0(s8)
    1a1a:	0301                	addi	t1,t1,0
    1a1c:	0902                	slli	s2,s2,0x0
    1a1e:	0004                	addi	s1,sp,0
    1a20:	0301                	addi	t1,t1,0
    1a22:	0904                	addi	s1,sp,144
    1a24:	0000                	unimp
    1a26:	0301                	addi	t1,t1,0
    1a28:	0901                	addi	s2,s2,0
    1a2a:	0014                	addi	a3,sp,0
    1a2c:	0301                	addi	t1,t1,0
    1a2e:	097f                	0x97f
    1a30:	0004                	addi	s1,sp,0
    1a32:	0301                	addi	t1,t1,0
    1a34:	00080903          	lb	s2,0(a6)
    1a38:	0001                	nop
    1a3a:	0402                	slli	s0,s0,0x0
    1a3c:	0601                	addi	a2,a2,0
    1a3e:	08090003          	lb	zero,128(s2)
    1a42:	0100                	addi	s0,sp,128
    1a44:	0306                	slli	t1,t1,0x1
    1a46:	0905                	addi	s2,s2,1
    1a48:	0008                	addi	a0,sp,0
    1a4a:	0301                	addi	t1,t1,0
    1a4c:	097c                	addi	a5,sp,156
    1a4e:	0004                	addi	s1,sp,0
    1a50:	0301                	addi	t1,t1,0
    1a52:	0906                	slli	s2,s2,0x1
    1a54:	000c                	addi	a1,sp,0
    1a56:	0301                	addi	t1,t1,0
    1a58:	097e                	slli	s2,s2,0x1f
    1a5a:	0004                	addi	s1,sp,0
    1a5c:	0301                	addi	t1,t1,0
    1a5e:	0901                	addi	s2,s2,0
    1a60:	0004                	addi	s1,sp,0
    1a62:	0301                	addi	t1,t1,0
    1a64:	0901                	addi	s2,s2,0
    1a66:	000c                	addi	a1,sp,0
    1a68:	0301                	addi	t1,t1,0
    1a6a:	097e                	slli	s2,s2,0x1f
    1a6c:	0004                	addi	s1,sp,0
    1a6e:	0301                	addi	t1,t1,0
    1a70:	0905                	addi	s2,s2,1
    1a72:	0004                	addi	s1,sp,0
    1a74:	0001                	nop
    1a76:	0402                	slli	s0,s0,0x0
    1a78:	0601                	addi	a2,a2,0
    1a7a:	04090003          	lb	zero,64(s2)
    1a7e:	0100                	addi	s0,sp,128
    1a80:	0306                	slli	t1,t1,0x1
    1a82:	0008097b          	0x8097b
    1a86:	0301                	addi	t1,t1,0
    1a88:	0906                	slli	s2,s2,0x1
    1a8a:	0004                	addi	s1,sp,0
    1a8c:	0301                	addi	t1,t1,0
    1a8e:	097a                	slli	s2,s2,0x1e
    1a90:	0004                	addi	s1,sp,0
    1a92:	0301                	addi	t1,t1,0
    1a94:	097d                	addi	s2,s2,31
    1a96:	0004                	addi	s1,sp,0
    1a98:	0301                	addi	t1,t1,0
    1a9a:	00080903          	lb	s2,0(a6)
    1a9e:	0301                	addi	t1,t1,0
    1aa0:	097c                	addi	a5,sp,156
    1aa2:	0004                	addi	s1,sp,0
    1aa4:	0301                	addi	t1,t1,0
    1aa6:	0901                	addi	s2,s2,0
    1aa8:	0004                	addi	s1,sp,0
    1aaa:	0301                	addi	t1,t1,0
    1aac:	00040903          	lb	s2,0(s0)
    1ab0:	0901                	addi	s2,s2,0
    1ab2:	000c                	addi	a1,sp,0
    1ab4:	0100                	addi	s0,sp,128
    1ab6:	a301                	j	1fb6 <__seq_start+0x1fb6>
    1ab8:	0002                	0x2
    1aba:	0200                	addi	s0,sp,256
    1abc:	c700                	sw	s0,8(a4)
    1abe:	0001                	nop
    1ac0:	0100                	addi	s0,sp,128
    1ac2:	fb01                	bnez	a4,19d2 <__seq_start+0x19d2>
    1ac4:	0d0e                	slli	s10,s10,0x3
    1ac6:	0100                	addi	s0,sp,128
    1ac8:	0101                	addi	sp,sp,0
    1aca:	0001                	nop
    1acc:	0000                	unimp
    1ace:	0001                	nop
    1ad0:	0100                	addi	s0,sp,128
    1ad2:	7273752f          	0x7273752f
    1ad6:	7263732f          	0x7263732f
    1ada:	7461                	lui	s0,0xffff8
    1adc:	2f326863          	bltu	tp,s3,1dcc <__seq_start+0x1dcc>
    1ae0:	616c                	flw	fa1,68(a0)
    1ae2:	6172                	flw	ft2,28(sp)
    1ae4:	6e69                	lui	t3,0x1a
    1ae6:	2f38                	fld	fa4,88(a4)
    1ae8:	6979                	lui	s2,0x1e
    1aea:	61687a63          	bleu	s6,a6,20fe <__seq_start+0x20fe>
    1aee:	676e                	flw	fa4,216(sp)
    1af0:	7265742f          	0x7265742f
    1af4:	7061                	0x7061
    1af6:	5f6c6f6f          	jal	t5,c80ec <__heap_start+0xa57ec>
    1afa:	7264                	flw	fs1,100(a2)
    1afc:	6d61                	lui	s10,0x18
    1afe:	735f 6275 6f6d      	0x6f6d6275735f
    1b04:	7564                	flw	fs1,108(a0)
    1b06:	656c                	flw	fa1,76(a0)
    1b08:	725f 6265 7361      	0x73616265725f
    1b0e:	5f65                	li	t5,-7
    1b10:	3530                	fld	fa2,104(a0)
    1b12:	3230                	fld	fa2,96(a2)
    1b14:	325f 3230 2f34      	0x2f343230325f
    1b1a:	656d                	lui	a0,0x1b
    1b1c:	706d                	0x706d
    1b1e:	2f6c6f6f          	jal	t5,c7e14 <__heap_start+0xa5514>
    1b22:	74666f73          	csrrsi	t5,0x746,12
    1b26:	65726177          	0x65726177
    1b2a:	6e75722f          	0x6e75722f
    1b2e:	6974                	flw	fa3,84(a0)
    1b30:	656d                	lui	a0,0x1b
    1b32:	2f00                	fld	fs0,24(a4)
    1b34:	7375                	lui	t1,0xffffd
    1b36:	2f72                	fld	ft10,280(sp)
    1b38:	61726373          	csrrsi	t1,0x617,4
    1b3c:	6374                	flw	fa3,68(a4)
    1b3e:	3268                	fld	fa0,224(a2)
    1b40:	72616c2f          	0x72616c2f
    1b44:	6961                	lui	s2,0x18
    1b46:	386e                	fld	fa6,248(sp)
    1b48:	6369792f          	0x6369792f
    1b4c:	687a                	flw	fa6,156(sp)
    1b4e:	6e61                	lui	t3,0x18
    1b50:	65742f67          	0x65742f67
    1b54:	6172                	flw	ft2,28(sp)
    1b56:	6f70                	flw	fa2,92(a4)
    1b58:	645f6c6f          	jal	s8,f899c <__heap_start+0xd609c>
    1b5c:	6172                	flw	ft2,28(sp)
    1b5e:	5f6d                	li	t5,-5
    1b60:	6d627573          	csrrci	a0,0x6d6,4
    1b64:	6c75646f          	jal	s0,58a2a <__heap_start+0x3612a>
    1b68:	5f65                	li	t5,-7
    1b6a:	6572                	flw	fa0,28(sp)
    1b6c:	6162                	flw	ft2,24(sp)
    1b6e:	305f6573          	csrrsi	a0,mtvec,30
    1b72:	3035                	jal	139e <__seq_start+0x139e>
    1b74:	5f32                	lw	t5,44(sp)
    1b76:	3032                	fld	ft0,296(sp)
    1b78:	3432                	fld	fs0,296(sp)
    1b7a:	6d656d2f          	0x6d656d2f
    1b7e:	6f70                	flw	fa2,92(a4)
    1b80:	692f6c6f          	jal	s8,f8212 <__heap_start+0xd5912>
    1b84:	736e                	flw	ft6,248(sp)
    1b86:	6174                	flw	fa3,68(a0)
    1b88:	6c6c                	flw	fa1,92(s0)
    1b8a:	7369722f          	0x7369722f
    1b8e:	672d7663          	bleu	s2,s10,21fa <__seq_start+0x21fa>
    1b92:	722f6363          	bltu	t5,sp,22b8 <__seq_start+0x22b8>
    1b96:	7369                	lui	t1,0xffffa
    1b98:	32337663          	bleu	gp,t1,1ec4 <__seq_start+0x1ec4>
    1b9c:	752d                	lui	a0,0xfffeb
    1b9e:	6b6e                	flw	fs6,216(sp)
    1ba0:	6f6e                	flw	ft10,216(sp)
    1ba2:	652d6e77          	0x652d6e77
    1ba6:	666c                	flw	fa1,76(a2)
    1ba8:	7379732f          	0x7379732f
    1bac:	692d                	lui	s2,0xb
    1bae:	636e                	flw	ft6,216(sp)
    1bb0:	756c                	flw	fa1,108(a0)
    1bb2:	6564                	flw	fs1,76(a0)
    1bb4:	63616d2f          	0x63616d2f
    1bb8:	6968                	flw	fa0,84(a0)
    1bba:	656e                	flw	fa0,216(sp)
    1bbc:	2f00                	fld	fs0,24(a4)
    1bbe:	7375                	lui	t1,0xffffd
    1bc0:	2f72                	fld	ft10,280(sp)
    1bc2:	61726373          	csrrsi	t1,0x617,4
    1bc6:	6374                	flw	fa3,68(a4)
    1bc8:	3268                	fld	fa0,224(a2)
    1bca:	72616c2f          	0x72616c2f
    1bce:	6961                	lui	s2,0x18
    1bd0:	386e                	fld	fa6,248(sp)
    1bd2:	6369792f          	0x6369792f
    1bd6:	687a                	flw	fa6,156(sp)
    1bd8:	6e61                	lui	t3,0x18
    1bda:	65742f67          	0x65742f67
    1bde:	6172                	flw	ft2,28(sp)
    1be0:	6f70                	flw	fa2,92(a4)
    1be2:	645f6c6f          	jal	s8,f8a26 <__heap_start+0xd6126>
    1be6:	6172                	flw	ft2,28(sp)
    1be8:	5f6d                	li	t5,-5
    1bea:	6d627573          	csrrci	a0,0x6d6,4
    1bee:	6c75646f          	jal	s0,58ab4 <__heap_start+0x361b4>
    1bf2:	5f65                	li	t5,-7
    1bf4:	6572                	flw	fa0,28(sp)
    1bf6:	6162                	flw	ft2,24(sp)
    1bf8:	305f6573          	csrrsi	a0,mtvec,30
    1bfc:	3035                	jal	1428 <__seq_start+0x1428>
    1bfe:	5f32                	lw	t5,44(sp)
    1c00:	3032                	fld	ft0,296(sp)
    1c02:	3432                	fld	fs0,296(sp)
    1c04:	6d656d2f          	0x6d656d2f
    1c08:	6f70                	flw	fa2,92(a4)
    1c0a:	692f6c6f          	jal	s8,f829c <__heap_start+0xd599c>
    1c0e:	736e                	flw	ft6,248(sp)
    1c10:	6174                	flw	fa3,68(a0)
    1c12:	6c6c                	flw	fa1,92(s0)
    1c14:	7369722f          	0x7369722f
    1c18:	672d7663          	bleu	s2,s10,2284 <__seq_start+0x2284>
    1c1c:	722f6363          	bltu	t5,sp,2342 <__seq_start+0x2342>
    1c20:	7369                	lui	t1,0xffffa
    1c22:	32337663          	bleu	gp,t1,1f4e <__seq_start+0x1f4e>
    1c26:	752d                	lui	a0,0xfffeb
    1c28:	6b6e                	flw	fs6,216(sp)
    1c2a:	6f6e                	flw	ft10,216(sp)
    1c2c:	652d6e77          	0x652d6e77
    1c30:	666c                	flw	fa1,76(a2)
    1c32:	7379732f          	0x7379732f
    1c36:	692d                	lui	s2,0xb
    1c38:	636e                	flw	ft6,216(sp)
    1c3a:	756c                	flw	fa1,108(a0)
    1c3c:	6564                	flw	fs1,76(a0)
    1c3e:	7379732f          	0x7379732f
    1c42:	0000                	unimp
    1c44:	636e7973          	csrrci	s2,0x636,28
    1c48:	7268                	flw	fa0,100(a2)
    1c4a:	7a696e6f          	jal	t3,983f0 <__heap_start+0x75af0>
    1c4e:	7461                	lui	s0,0xffff8
    1c50:	6f69                	lui	t5,0x1a
    1c52:	2e6e                	fld	ft8,216(sp)
    1c54:	00010063          	beqz	sp,1c54 <__seq_start+0x1c54>
    1c58:	7200                	flw	fs0,32(a2)
    1c5a:	6e75                	lui	t3,0x1d
    1c5c:	6974                	flw	fa3,84(a0)
    1c5e:	656d                	lui	a0,0x1b
    1c60:	682e                	flw	fa6,200(sp)
    1c62:	0100                	addi	s0,sp,128
    1c64:	0000                	unimp
    1c66:	645f 6665 7561      	0x75616665645f
    1c6c:	746c                	flw	fa1,108(s0)
    1c6e:	745f 7079 7365      	0x73657079745f
    1c74:	682e                	flw	fa6,200(sp)
    1c76:	0200                	addi	s0,sp,256
    1c78:	0000                	unimp
    1c7a:	735f 6474 6e69      	0x6e696474735f
    1c80:	2e74                	fld	fa3,216(a2)
    1c82:	0068                	addi	a0,sp,12
    1c84:	00000003          	lb	zero,0(zero) # 0 <__seq_start>
    1c88:	0500                	addi	s0,sp,640
    1c8a:	f402                	fsw	ft0,40(sp)
    1c8c:	0016                	0x16
    1c8e:	0380                	addi	s0,sp,448
    1c90:	0112                	slli	sp,sp,0x4
    1c92:	00090103          	lb	sp,0(s2) # b000 <__seq_start+0xb000>
    1c96:	0100                	addi	s0,sp,128
    1c98:	0204                	addi	s1,sp,256
    1c9a:	0900ea03          	0x900ea03
    1c9e:	0004                	addi	s1,sp,0
    1ca0:	0401                	addi	s0,s0,0
    1ca2:	0301                	addi	t1,t1,0
    1ca4:	7fa8                	flw	fa0,120(a5)
    1ca6:	0409                	addi	s0,s0,2
    1ca8:	0100                	addi	s0,sp,128
    1caa:	0204                	addi	s1,sp,256
    1cac:	0900d803          	lhu	a6,144(ra)
    1cb0:	0018                	addi	a4,sp,0
    1cb2:	0401                	addi	s0,s0,0
    1cb4:	0301                	addi	t1,t1,0
    1cb6:	7fa4                	flw	fs1,120(a5)
    1cb8:	0409                	addi	s0,s0,2
    1cba:	0100                	addi	s0,sp,128
    1cbc:	04097403          	0x4097403
    1cc0:	0100                	addi	s0,sp,128
    1cc2:	0204                	addi	s1,sp,256
    1cc4:	0900ec03          	0x900ec03
    1cc8:	0008                	addi	a0,sp,0
    1cca:	0301                	addi	t1,t1,0
    1ccc:	097c                	addi	a5,sp,156
    1cce:	000c                	addi	a1,sp,0
    1cd0:	0401                	addi	s0,s0,0
    1cd2:	0301                	addi	t1,t1,0
    1cd4:	7fa8                	flw	fa0,120(a5)
    1cd6:	0409                	addi	s0,s0,2
    1cd8:	0100                	addi	s0,sp,128
    1cda:	18090103          	lb	sp,384(s2)
    1cde:	0100                	addi	s0,sp,128
    1ce0:	0204                	addi	s1,sp,256
    1ce2:	0900db03          	lhu	s6,144(ra)
    1ce6:	0004                	addi	s1,sp,0
    1ce8:	0401                	addi	s0,s0,0
    1cea:	0301                	addi	t1,t1,0
    1cec:	7fa6                	flw	ft11,104(sp)
    1cee:	0409                	addi	s0,s0,2
    1cf0:	0100                	addi	s0,sp,128
    1cf2:	0204                	addi	s1,sp,256
    1cf4:	0900da03          	lhu	s4,144(ra)
    1cf8:	0004                	addi	s1,sp,0
    1cfa:	0301                	addi	t1,t1,0
    1cfc:	097c                	addi	a5,sp,156
    1cfe:	0008                	addi	a0,sp,0
    1d00:	0401                	addi	s0,s0,0
    1d02:	0301                	addi	t1,t1,0
    1d04:	7fa4                	flw	fs1,120(a5)
    1d06:	0409                	addi	s0,s0,2
    1d08:	0100                	addi	s0,sp,128
    1d0a:	04090203          	lb	tp,64(s2)
    1d0e:	0100                	addi	s0,sp,128
    1d10:	00090203          	lb	tp,0(s2)
    1d14:	0100                	addi	s0,sp,128
    1d16:	0204                	addi	s1,sp,256
    1d18:	0900d803          	lhu	a6,144(ra)
    1d1c:	0018                	addi	a4,sp,0
    1d1e:	0401                	addi	s0,s0,0
    1d20:	0301                	addi	t1,t1,0
    1d22:	7fb0                	flw	fa2,120(a5)
    1d24:	0409                	addi	s0,s0,2
    1d26:	0100                	addi	s0,sp,128
    1d28:	04097903          	0x4097903
    1d2c:	0100                	addi	s0,sp,128
    1d2e:	0204                	addi	s1,sp,256
    1d30:	0900db03          	lhu	s6,144(ra)
    1d34:	0004                	addi	s1,sp,0
    1d36:	0401                	addi	s0,s0,0
    1d38:	0301                	addi	t1,t1,0
    1d3a:	7fa6                	flw	ft11,104(sp)
    1d3c:	0409                	addi	s0,s0,2
    1d3e:	0100                	addi	s0,sp,128
    1d40:	0204                	addi	s1,sp,256
    1d42:	0900da03          	lhu	s4,144(ra)
    1d46:	0004                	addi	s1,sp,0
    1d48:	0301                	addi	t1,t1,0
    1d4a:	097c                	addi	a5,sp,156
    1d4c:	0008                	addi	a0,sp,0
    1d4e:	0401                	addi	s0,s0,0
    1d50:	0301                	addi	t1,t1,0
    1d52:	7fb0                	flw	fa2,120(a5)
    1d54:	0409                	addi	s0,s0,2
    1d56:	0100                	addi	s0,sp,128
    1d58:	0409                	addi	s0,s0,2
    1d5a:	0000                	unimp
    1d5c:	0101                	addi	sp,sp,0

Disassembly of section .debug_str:

00000000 <.debug_str>:
   0:	645f 6f73 685f      	0x685f6f73645f
   6:	6e61                	lui	t3,0x18
   8:	6c64                	flw	fs1,92(s0)
   a:	0065                	c.addi	zero,25
   c:	656d                	lui	a0,0x1b
   e:	706d                	0x706d
  10:	5f6c6f6f          	jal	t5,c6606 <__heap_start+0xa3d06>
  14:	6469                	lui	s0,0x1a
  16:	745f 7700 6b61      	0x6b617700745f
  1c:	5f65                	li	t5,-7
  1e:	7075                	0x7075
  20:	745f 6c69 5f65      	0x5f656c69745f
  26:	725f3467          	0x725f3467
  2a:	6765                	lui	a4,0x19
  2c:	6d00                	flw	fs0,24(a0)
  2e:	6d65                	lui	s10,0x19
  30:	6f70                	flw	fa2,92(a4)
  32:	675f6c6f          	jal	s8,f6ea6 <__heap_start+0xd45a6>
  36:	7465                	lui	s0,0xffff9
  38:	635f 726f 5f65      	0x5f65726f635f
  3e:	6469                	lui	s0,0x1a
  40:	5f00                	lw	s0,56(a4)
  42:	6172                	flw	ft2,28(sp)
  44:	646e                	flw	fs0,216(sp)
  46:	3834                	fld	fa3,112(s0)
  48:	5f00                	lw	s0,56(a4)
  4a:	6d65                	lui	s10,0x19
  4c:	7265                	lui	tp,0xffff9
  4e:	636e6567          	0x636e6567
  52:	0079                	c.addi	zero,30
  54:	6f737667          	0x6f737667
  58:	65745f63          	ble	s7,s0,6b6 <__seq_start+0x6b6>
  5c:	625f7473          	csrrci	s0,0x625,30
  60:	7261                	lui	tp,0xffff8
  62:	6972                	flw	fs2,28(sp)
  64:	7265                	lui	tp,0xffff9
  66:	69616d2f          	0x69616d2f
  6a:	2e6e                	fld	ft8,216(sp)
  6c:	316c0063          	beq	s8,s6,36c <__seq_start+0x36c>
  70:	615f 6c6c 636f      	0x636f6c6c615f
  76:	625f 7361 0065      	0x657361625f
  7c:	645f 7461 0061      	0x617461645f
  82:	775f 7263 6f74      	0x6f747263775f
  88:	626d                	lui	tp,0x1b
  8a:	735f 6174 6574      	0x65746174735f
  90:	5f00                	lw	s0,56(a4)
  92:	72736377          	0x72736377
  96:	6f74                	flw	fa3,92(a4)
  98:	626d                	lui	tp,0x1b
  9a:	74735f73          	csrrwi	t5,0x747,6
  9e:	7461                	lui	s0,0xffff8
  a0:	0065                	c.addi	zero,25
  a2:	6f6c                	flw	fa1,92(a4)
  a4:	676e                	flw	fa4,216(sp)
  a6:	6c20                	flw	fs0,88(s0)
  a8:	20676e6f          	jal	t3,762ae <__heap_start+0x539ae>
  ac:	6e75                	lui	t3,0x1d
  ae:	6e676973          	csrrsi	s2,0x6e6,14
  b2:	6465                	lui	s0,0x19
  b4:	6920                	flw	fs0,80(a0)
  b6:	746e                	flw	fs0,248(sp)
  b8:	5f00                	lw	s0,56(a4)
  ba:	626c                	flw	fa1,68(a2)
  bc:	7366                	flw	ft6,120(sp)
  be:	7a69                	lui	s4,0xffffa
  c0:	0065                	c.addi	zero,25
  c2:	5f5f 6f6c 6163      	0x61636f6c5f5f
  c8:	656c                	flw	fa1,76(a0)
  ca:	745f 7700 6b61      	0x6b617700745f
  d0:	5f65                	li	t5,-7
  d2:	7075                	0x7075
  d4:	745f 6c69 5f65      	0x5f656c69745f
  da:	725f3167          	0x725f3167
  de:	6765                	lui	a4,0x19
  e0:	5f00                	lw	s0,56(a4)
  e2:	626d                	lui	tp,0x1b
  e4:	7472                	flw	fs0,60(sp)
  e6:	5f63776f          	jal	a4,376dc <__heap_start+0x14ddc>
  ea:	74617473          	csrrci	s0,0x746,2
  ee:	0065                	c.addi	zero,25
  f0:	775f 7463 6d6f      	0x6d6f7463775f
  f6:	5f62                	lw	t5,56(sp)
  f8:	74617473          	csrrci	s0,0x746,2
  fc:	0065                	c.addi	zero,25
  fe:	5f5f 6d74 735f      	0x735f6d745f5f
 104:	6365                	lui	t1,0x19
 106:	6c00                	flw	fs0,24(s0)
 108:	20676e6f          	jal	t3,7630e <__heap_start+0x53a0e>
 10c:	6f6c                	flw	fa1,92(a4)
 10e:	676e                	flw	fa4,216(sp)
 110:	6920                	flw	fs0,80(a0)
 112:	746e                	flw	fs0,248(sp)
 114:	5f00                	lw	s0,56(a4)
 116:	6275                	lui	tp,0x1d
 118:	6675                	lui	a2,0x1d
 11a:	5f00                	lw	s0,56(a4)
 11c:	745f 5f6d 6f68      	0x6f685f6d745f
 122:	7275                	lui	tp,0xffffd
 124:	5f00                	lw	s0,56(a4)
 126:	735f 0066 6f5f      	0x6f5f0066735f
 12c:	5f6e                	lw	t5,248(sp)
 12e:	7865                	lui	a6,0xffff9
 130:	7469                	lui	s0,0xffffa
 132:	615f 6772 0073      	0x736772615f
 138:	635f 6f6f 696b      	0x696b6f6f635f
 13e:	0065                	c.addi	zero,25
 140:	5f5f 6773 756c      	0x756c67735f5f
 146:	0065                	c.addi	zero,25
 148:	665f 616c 7367      	0x7367616c665f
 14e:	5f00                	lw	s0,56(a4)
 150:	7369                	lui	t1,0xffffa
 152:	635f 6178 5f00      	0x5f006178635f
 158:	69647473          	csrrci	s0,0x696,8
 15c:	006e                	0x6e
 15e:	625f 6b6c 6973      	0x69736b6c625f
 164:	657a                	flw	fa0,156(sp)
 166:	5f00                	lw	s0,56(a4)
 168:	62747663          	bleu	t2,s0,794 <__seq_start+0x794>
 16c:	6675                	lui	a2,0x1d
 16e:	5f00                	lw	s0,56(a4)
 170:	7366666f          	jal	a2,668a6 <__heap_start+0x43fa6>
 174:	7465                	lui	s0,0xffff9
 176:	5f00                	lw	s0,56(a4)
 178:	626d                	lui	tp,0x1b
 17a:	6f747273          	csrrci	tp,0x6f7,8
 17e:	5f736377          	0x5f736377
 182:	74617473          	csrrci	s0,0x746,2
 186:	0065                	c.addi	zero,25
 188:	6d5f 7262 656c      	0x656c72626d5f
 18e:	5f6e                	lw	t5,248(sp)
 190:	74617473          	csrrci	s0,0x746,2
 194:	0065                	c.addi	zero,25
 196:	656b6177          	0x656b6177
 19a:	755f 5f70 6974      	0x69745f70755f
 1a0:	656c                	flw	fa1,76(a0)
 1a2:	675f 5f36 6572      	0x65725f36675f
 1a8:	665f0067          	jr	1637(t5) # 1a665 <__seq_start+0x1a665>
 1ac:	616e                	flw	ft2,216(sp)
 1ae:	6772                	flw	fa4,28(sp)
 1b0:	665f0073          	0x665f0073
 1b4:	736e                	flw	ft6,248(sp)
 1b6:	5f00                	lw	s0,56(a4)
 1b8:	755f 6e69 3374      	0x33746e69755f
 1be:	5f32                	lw	t5,44(sp)
 1c0:	0074                	addi	a3,sp,12
 1c2:	735f 6769 006e      	0x6e6769735f
 1c8:	665f 6f6c 6b63      	0x6b636f6c665f
 1ce:	745f 5f00 7473      	0x74735f00745f
 1d4:	6564                	flw	fs1,76(a0)
 1d6:	7272                	flw	ft4,60(sp)
 1d8:	5f00                	lw	s0,56(a4)
 1da:	6942                	flw	fs2,16(sp)
 1dc:	746e6967          	0x746e6967
 1e0:	5f00                	lw	s0,56(a4)
 1e2:	6d6d6167          	0x6d6d6167
 1e6:	5f61                	li	t5,-8
 1e8:	6e676973          	csrrsi	s2,0x6e6,14
 1ec:	006d6167          	0x6d6167
 1f0:	725f 6165 0064      	0x646165725f
 1f6:	725f 7365 6c75      	0x6c757365725f
 1fc:	5f74                	lw	a3,124(a4)
 1fe:	5f5f006b          	0x5f5f006b
 202:	6d74                	flw	fa3,92(a0)
 204:	5f00                	lw	s0,56(a4)
 206:	775f 6863 0062      	0x626863775f
 20c:	735f 6474 756f      	0x756f6474735f
 212:	0074                	addi	a3,sp,12
 214:	635f 7476 656c      	0x656c7476635f
 21a:	006e                	0x6e
 21c:	656b6177          	0x656b6177
 220:	755f 5f70 6974      	0x69745f70755f
 226:	656c                	flw	fa1,76(a0)
 228:	675f 5f37 6572      	0x65725f37675f
 22e:	665f0067          	jr	1637(t5)
 232:	6c69                	lui	s8,0x1a
 234:	0065                	c.addi	zero,25
 236:	656b6177          	0x656b6177
 23a:	755f 5f70 6974      	0x69745f70755f
 240:	656c                	flw	fa1,76(a0)
 242:	675f 5f33 6572      	0x65725f33675f
 248:	6e5f0067          	jr	1765(t5)
 24c:	6f69                	lui	t5,0x1a
 24e:	7362                	flw	ft6,56(sp)
 250:	6d00                	flw	fs0,24(a0)
 252:	6d65                	lui	s10,0x19
 254:	6f70                	flw	fa2,92(a4)
 256:	675f6c6f          	jal	s8,f70ca <__heap_start+0xd47ca>
 25a:	7465                	lui	s0,0xffff9
 25c:	635f 726f 5f65      	0x5f65726f635f
 262:	6e756f63          	bltu	a0,t2,960 <__seq_start+0x960>
 266:	0074                	addi	a3,sp,12
 268:	726f6873          	csrrsi	a6,0x726,30
 26c:	2074                	fld	fa3,192(s0)
 26e:	6e75                	lui	t3,0x1d
 270:	6e676973          	csrrsi	s2,0x6e6,14
 274:	6465                	lui	s0,0x19
 276:	6920                	flw	fs0,80(a0)
 278:	746e                	flw	fs0,248(sp)
 27a:	5f00                	lw	s0,56(a4)
 27c:	7461                	lui	s0,0xffff8
 27e:	7865                	lui	a6,0xffff9
 280:	7469                	lui	s0,0xffffa
 282:	0030                	addi	a2,sp,8
 284:	735f 6769 616e      	0x616e6769735f
 28a:	5f6c                	lw	a1,124(a4)
 28c:	7562                	flw	fa0,56(sp)
 28e:	0066                	0x66
 290:	615f 6373 6974      	0x69746373615f
 296:	656d                	lui	a0,0x1b
 298:	625f 6675 5f00      	0x5f006675625f
 29e:	6572                	flw	fa0,28(sp)
 2a0:	746c7573          	csrrci	a0,0x746,24
 2a4:	5f00                	lw	s0,56(a4)
 2a6:	775f 6863 7700      	0x77006863775f
 2ac:	6e69                	lui	t3,0x1a
 2ae:	5f74                	lw	a3,124(a4)
 2b0:	0074                	addi	a3,sp,12
 2b2:	6c5f 636f 006b      	0x6b636f6c5f
 2b8:	665f 616c 7367      	0x7367616c665f
 2be:	0032                	0x32
 2c0:	656b6177          	0x656b6177
 2c4:	755f 5f70 6572      	0x65725f70755f
 2ca:	775f0067          	jr	1909(t5) # 1a775 <__seq_start+0x1a775>
 2ce:	6972                	flw	fs2,28(sp)
 2d0:	6574                	flw	fa3,76(a0)
 2d2:	5f00                	lw	s0,56(a4)
 2d4:	745f 5f6d 6579      	0x65795f6d745f
 2da:	7261                	lui	tp,0xffff8
 2dc:	7700                	flw	fs0,40(a4)
 2de:	6b61                	lui	s6,0x18
 2e0:	5f65                	li	t5,-7
 2e2:	7075                	0x7075
 2e4:	745f 6c69 5f65      	0x5f656c69745f
 2ea:	725f3067          	0x725f3067
 2ee:	6765                	lui	a4,0x19
 2f0:	5f00                	lw	s0,56(a4)
 2f2:	6d6e                	flw	fs10,216(sp)
 2f4:	6c61                	lui	s8,0x18
 2f6:	6f6c                	flw	fa1,92(a4)
 2f8:	74610063          	beq	sp,t1,a38 <__seq_start+0xa38>
 2fc:	63696d6f          	jal	s10,96932 <__heap_start+0x74032>
 300:	625f 7261 6972      	0x69727261625f
 306:	7265                	lui	tp,0xffff9
 308:	5f00                	lw	s0,56(a4)
 30a:	656e                	flw	fa0,216(sp)
 30c:	7478                	flw	fa4,108(s0)
 30e:	0066                	0x66
 310:	7273752f          	0x7273752f
 314:	7263732f          	0x7263732f
 318:	7461                	lui	s0,0xffff8
 31a:	2f326863          	bltu	tp,s3,60a <__seq_start+0x60a>
 31e:	616c                	flw	fa1,68(a0)
 320:	6172                	flw	ft2,28(sp)
 322:	6e69                	lui	t3,0x1a
 324:	2f38                	fld	fa4,88(a4)
 326:	6979                	lui	s2,0x1e
 328:	61687a63          	bleu	s6,a6,93c <__seq_start+0x93c>
 32c:	676e                	flw	fa4,216(sp)
 32e:	7265742f          	0x7265742f
 332:	7061                	0x7061
 334:	5f6c6f6f          	jal	t5,c692a <__heap_start+0xa402a>
 338:	7264                	flw	fs1,100(a2)
 33a:	6d61                	lui	s10,0x18
 33c:	735f 6275 6f6d      	0x6f6d6275735f
 342:	7564                	flw	fs1,108(a0)
 344:	656c                	flw	fa1,76(a0)
 346:	725f 6265 7361      	0x73616265725f
 34c:	5f65                	li	t5,-7
 34e:	3530                	fld	fa2,104(a0)
 350:	3230                	fld	fa2,96(a2)
 352:	325f 3230 2f34      	0x2f343230325f
 358:	656d                	lui	a0,0x1b
 35a:	706d                	0x706d
 35c:	2f6c6f6f          	jal	t5,c6652 <__heap_start+0xa3d52>
 360:	74666f73          	csrrsi	t5,0x746,12
 364:	65726177          	0x65726177
 368:	7070612f          	0x7070612f
 36c:	61622f73          	csrrs	t5,0x616,tp
 370:	6572                	flw	fa0,28(sp)
 372:	656d                	lui	a0,0x1b
 374:	6174                	flw	fa3,68(a0)
 376:	006c                	addi	a1,sp,12
 378:	5f5f 6d74 6d5f      	0x6d5f6d745f5f
 37e:	5f006e6f          	jal	t3,696e <__seq_start+0x696e>
 382:	7461                	lui	s0,0xffff8
 384:	7865                	lui	a6,0xffff9
 386:	7469                	lui	s0,0xffffa
 388:	5f00                	lw	s0,56(a4)
 38a:	735f 6964 6964      	0x69646964735f
 390:	696e                	flw	fs2,216(sp)
 392:	0074                	addi	a3,sp,12
 394:	6f5f 6666 745f      	0x745f66666f5f
 39a:	6d00                	flw	fs0,24(a0)
 39c:	6d65                	lui	s10,0x19
 39e:	6f70                	flw	fa2,92(a4)
 3a0:	625f6c6f          	jal	s8,f71c4 <__heap_start+0xd48c4>
 3a4:	7261                	lui	tp,0xffff8
 3a6:	6972                	flw	fs2,28(sp)
 3a8:	7265                	lui	tp,0xffff9
 3aa:	695f 696e 0074      	0x74696e695f
 3b0:	665f 6572 6c65      	0x6c656572665f
 3b6:	7369                	lui	t1,0xffffa
 3b8:	0074                	addi	a3,sp,12
 3ba:	7265                	lui	tp,0xffff9
 3bc:	6f72                	flw	ft10,28(sp)
 3be:	0072                	0x72
 3c0:	4c5f 434f 5f4b      	0x5f4b434f4c5f
 3c6:	4552                	lw	a0,20(sp)
 3c8:	53525543          	0x53525543
 3cc:	5649                	li	a2,-14
 3ce:	5f45                	li	t5,-15
 3d0:	0054                	addi	a3,sp,4
 3d2:	656b6177          	0x656b6177
 3d6:	755f 5f70 6974      	0x69745f70755f
 3dc:	656c                	flw	fa1,76(a0)
 3de:	675f 5f35 6572      	0x65725f35675f
 3e4:	6e750067          	jr	1767(a0) # 1b6e7 <__seq_start+0x1b6e7>
 3e8:	6e676973          	csrrsi	s2,0x6e6,14
 3ec:	6465                	lui	s0,0x19
 3ee:	6320                	flw	fs0,64(a4)
 3f0:	6168                	flw	fa0,68(a0)
 3f2:	0072                	0x72
 3f4:	6e5f 7765 5f00      	0x5f0077656e5f
 3fa:	5f68                	lw	a0,124(a4)
 3fc:	7265                	lui	tp,0xffff9
 3fe:	6e72                	flw	ft8,28(sp)
 400:	6873006f          	j	31286 <__heap_start+0xe986>
 404:	2074726f          	jal	tp,47e0a <__heap_start+0x2550a>
 408:	6e69                	lui	t3,0x1a
 40a:	0074                	addi	a3,sp,12
 40c:	5f5f 6d74 795f      	0x795f6d745f5f
 412:	6164                	flw	fs1,68(a0)
 414:	0079                	c.addi	zero,30
 416:	5f5f 6273 6675      	0x667562735f5f
 41c:	5f00                	lw	s0,56(a4)
 41e:	6f69                	lui	t5,0x1a
 420:	7362                	flw	ft6,56(sp)
 422:	5f00                	lw	s0,56(a4)
 424:	465f 4c49 0045      	0x454c49465f
 42a:	6d5f 7362 6174      	0x617473626d5f
 430:	6574                	flw	fa3,76(a0)
 432:	745f 5f00 735f      	0x735f5f00745f
 438:	4946                	lw	s2,80(sp)
 43a:	454c                	lw	a1,12(a0)
 43c:	5f00                	lw	s0,56(a4)
 43e:	626d                	lui	tp,0x1b
 440:	74617473          	csrrci	s0,0x746,2
 444:	0065                	c.addi	zero,25
 446:	725f 6e61 5f64      	0x5f646e61725f
 44c:	656e                	flw	fa0,216(sp)
 44e:	7478                	flw	fa4,108(s0)
 450:	5f00                	lw	s0,56(a4)
 452:	626d                	lui	tp,0x1b
 454:	656c                	flw	fa1,76(a0)
 456:	5f6e                	lw	t5,248(sp)
 458:	74617473          	csrrci	s0,0x746,2
 45c:	0065                	c.addi	zero,25
 45e:	695f 636e 5f00      	0x5f00636e695f
 464:	6e69                	lui	t3,0x1a
 466:	0064                	addi	s1,sp,12
 468:	6c5f 636f 6c61      	0x6c61636f6c5f
 46e:	0065                	c.addi	zero,25
 470:	5f5f 6c63 6165      	0x61656c635f5f
 476:	756e                	flw	fa0,248(sp)
 478:	0070                	addi	a2,sp,12
 47a:	755f 736e 6570      	0x6570736e755f
 480:	69666963          	bltu	a2,s6,b12 <__seq_start+0xb12>
 484:	6465                	lui	s0,0x19
 486:	6c5f 636f 6c61      	0x6c61636f6c5f
 48c:	5f65                	li	t5,-7
 48e:	6e69                	lui	t3,0x1a
 490:	6f66                	flw	ft10,88(sp)
 492:	5f00                	lw	s0,56(a4)
 494:	616d                	addi	sp,sp,240
 496:	7778                	flw	fa4,108(a4)
 498:	7364                	flw	fs1,100(a4)
 49a:	5f00                	lw	s0,56(a4)
 49c:	6572                	flw	fa0,28(sp)
 49e:	6e65                	lui	t3,0x19
 4a0:	0074                	addi	a3,sp,12
 4a2:	735f 6565 0064      	0x646565735f
 4a8:	5f5f 6f63 6e75      	0x6e756f635f5f
 4ae:	0074                	addi	a3,sp,12
 4b0:	735f 6565 006b      	0x6b6565735f
 4b6:	656b6177          	0x656b6177
 4ba:	755f 5f70 6974      	0x69745f70755f
 4c0:	656c                	flw	fa1,76(a0)
 4c2:	675f 5f32 6572      	0x65725f32675f
 4c8:	665f0067          	jr	1637(t5) # 1a665 <__seq_start+0x1a665>
 4cc:	6f70                	flw	fa2,92(a4)
 4ce:	00745f73          	csrrwi	t5,0x7,8
 4d2:	5f5f 6d74 6d5f      	0x6d5f6d745f5f
 4d8:	6e69                	lui	t3,0x1a
 4da:	7700                	flw	fs0,40(a4)
 4dc:	6b61                	lui	s6,0x18
 4de:	5f65                	li	t5,-7
 4e0:	7075                	0x7075
 4e2:	675f 6f72 7075      	0x70756f72675f
 4e8:	725f 6765 4700      	0x47006765725f
 4ee:	554e                	lw	a0,240(sp)
 4f0:	4320                	lw	s0,64(a4)
 4f2:	3939                	jal	110 <__seq_start+0x110>
 4f4:	3720                	fld	fs0,104(a4)
 4f6:	312e                	fld	ft2,232(sp)
 4f8:	312e                	fld	ft2,232(sp)
 4fa:	3220                	fld	fs0,96(a2)
 4fc:	3130                	fld	fa2,96(a0)
 4fe:	30353037          	lui	zero,0x30353
 502:	2039                	jal	510 <__seq_start+0x510>
 504:	6d2d                	lui	s10,0xb
 506:	646f6d63          	bltu	t5,t1,b60 <__seq_start+0xb60>
 50a:	6c65                	lui	s8,0x19
 50c:	6d3d                	lui	s10,0xf
 50e:	6465                	lui	s0,0x19
 510:	6e61                	lui	t3,0x18
 512:	2079                	jal	5a0 <__seq_start+0x5a0>
 514:	6d2d                	lui	s10,0xb
 516:	7574                	flw	fa3,108(a0)
 518:	656e                	flw	fa0,216(sp)
 51a:	6d3d                	lui	s10,0xf
 51c:	6d65                	lui	s10,0x19
 51e:	6f70                	flw	fa2,92(a4)
 520:	2d206c6f          	jal	s8,67f2 <__seq_start+0x67f2>
 524:	616d                	addi	sp,sp,240
 526:	6372                	flw	ft6,28(sp)
 528:	3d68                	fld	fa0,248(a0)
 52a:	7672                	flw	fa2,60(sp)
 52c:	6d693233          	0x6d693233
 530:	5861                	li	a6,-8
 532:	7570                	flw	fa2,108(a0)
 534:	706c                	flw	fa1,100(s0)
 536:	6d69                	lui	s10,0x1a
 538:	6d2d2067          	0x6d2d2067
 53c:	6261                	lui	tp,0x18
 53e:	3d69                	jal	3d8 <__seq_start+0x3d8>
 540:	6c69                	lui	s8,0x1a
 542:	3370                	fld	fa2,224(a4)
 544:	2032                	fld	ft0,264(sp)
 546:	672d                	lui	a4,0xb
 548:	2d20                	fld	fs0,88(a0)
 54a:	2d20334f          	0x2d20334f
 54e:	3d647473          	csrrci	s0,0x3d6,8
 552:	39756e67          	0x39756e67
 556:	2039                	jal	564 <__seq_start+0x564>
 558:	662d                	lui	a2,0xb
 55a:	6f6e                	flw	ft10,216(sp)
 55c:	742d                	lui	s0,0xfffeb
 55e:	6572                	flw	fa0,28(sp)
 560:	2d65                	jal	c18 <__seq_start+0xc18>
 562:	6f6c                	flw	fa1,92(a4)
 564:	642d706f          	j	d7ba6 <__heap_start+0xb52a6>
 568:	7369                	lui	t1,0xffffa
 56a:	7274                	flw	fa3,100(a2)
 56c:	6269                	lui	tp,0x1a
 56e:	7475                	lui	s0,0xffffd
 570:	2d65                	jal	c28 <__seq_start+0xc28>
 572:	6170                	flw	fa2,68(a0)
 574:	7474                	flw	fa3,108(s0)
 576:	7265                	lui	tp,0xffff9
 578:	736e                	flw	ft6,248(sp)
 57a:	2d20                	fld	fs0,88(a0)
 57c:	6e66                	flw	ft8,88(sp)
 57e:	75622d6f          	jal	s10,22cd4 <__heap_start+0x3d4>
 582:	6c69                	lui	s8,0x1a
 584:	6974                	flw	fa3,84(a0)
 586:	2d6e                	fld	fs10,216(sp)
 588:	656d                	lui	a0,0x1b
 58a:	636d                	lui	t1,0x1b
 58c:	7970                	flw	fa2,116(a0)
 58e:	2d20                	fld	fs0,88(a0)
 590:	6e66                	flw	ft8,88(sp)
 592:	75622d6f          	jal	s10,22ce8 <__heap_start+0x3e8>
 596:	6c69                	lui	s8,0x1a
 598:	6974                	flw	fa3,84(a0)
 59a:	2d6e                	fld	fs10,216(sp)
 59c:	656d                	lui	a0,0x1b
 59e:	736d                	lui	t1,0xffffb
 5a0:	7465                	lui	s0,0xffff9
 5a2:	2d20                	fld	fs0,88(a0)
 5a4:	6666                	flw	fa2,88(sp)
 5a6:	7361                	lui	t1,0xffff8
 5a8:	2d74                	fld	fa3,216(a0)
 5aa:	616d                	addi	sp,sp,240
 5ac:	6874                	flw	fa3,84(s0)
 5ae:	2d20                	fld	fs0,88(a0)
 5b0:	6e66                	flw	ft8,88(sp)
 5b2:	6f632d6f          	jal	s10,32ca8 <__heap_start+0x103a8>
 5b6:	6d6d                	lui	s10,0x1b
 5b8:	2d206e6f          	jal	t3,688a <__seq_start+0x688a>
 5bc:	6e66                	flw	ft8,88(sp)
 5be:	75622d6f          	jal	s10,22d14 <__heap_start+0x414>
 5c2:	6c69                	lui	s8,0x1a
 5c4:	6974                	flw	fa3,84(a0)
 5c6:	2d6e                	fld	fs10,216(sp)
 5c8:	7270                	flw	fa2,100(a2)
 5ca:	6e69                	lui	t3,0x1a
 5cc:	6674                	flw	fa3,76(a2)
 5ce:	5f00                	lw	s0,56(a4)
 5d0:	695f 746e 3233      	0x3233746e695f
 5d6:	745f 5f00 756d      	0x756d5f00745f
 5dc:	746c                	flw	fa1,108(s0)
 5de:	5f00                	lw	s0,56(a4)
 5e0:	74727473          	csrrci	s0,0x747,4
 5e4:	6c5f6b6f          	jal	s6,f74a8 <__heap_start+0xd4ba8>
 5e8:	7361                	lui	t1,0xffff8
 5ea:	0074                	addi	a3,sp,12
 5ec:	5f5f 6176 756c      	0x756c61765f5f
 5f2:	0065                	c.addi	zero,25
 5f4:	665f 746e 7079      	0x7079746e665f
 5fa:	7365                	lui	t1,0xffff9
 5fc:	5f00                	lw	s0,56(a4)
 5fe:	6461                	lui	s0,0x18
 600:	0064                	addi	s1,sp,12
 602:	5f5f 4c55 6e6f      	0x6e6f4c555f5f
 608:	675f0067          	jr	1653(t5)
 60c:	7465                	lui	s0,0xffff9
 60e:	6164                	flw	fs1,68(a0)
 610:	6574                	flw	fa3,76(a0)
 612:	655f 7272 5f00      	0x5f007272655f
 618:	626f6c67          	0x626f6c67
 61c:	6c61                	lui	s8,0x18
 61e:	695f 706d 7275      	0x7275706d695f
 624:	5f65                	li	t5,-7
 626:	7470                	flw	fa2,108(s0)
 628:	0072                	0x72
 62a:	656d                	lui	a0,0x1b
 62c:	706d                	0x706d
 62e:	5f6c6f6f          	jal	t5,c6c24 <__heap_start+0xa4324>
 632:	6162                	flw	ft2,24(sp)
 634:	7272                	flw	ft4,60(sp)
 636:	6569                	lui	a0,0x1a
 638:	0072                	0x72
 63a:	755f 756e 6573      	0x6573756e755f
 640:	5f64                	lw	s1,124(a4)
 642:	6172                	flw	ft2,28(sp)
 644:	646e                	flw	fs0,216(sp)
 646:	5f00                	lw	s0,56(a4)
 648:	00736477          	0x736477
 64c:	5f5f 6d74 775f      	0x775f6d745f5f
 652:	6164                	flw	fs1,68(a0)
 654:	0079                	c.addi	zero,30
 656:	675f 756c 0065      	0x65756c675f
 65c:	735f 6973 657a      	0x657a6973735f
 662:	745f 5f00 366c      	0x366c5f00745f
 668:	6134                	flw	fa3,64(a0)
 66a:	625f 6675 5f00      	0x5f006675625f
 670:	5f676973          	csrrsi	s2,0x5f6,14
 674:	7566                	flw	fa0,120(sp)
 676:	636e                	flw	ft6,216(sp)
 678:	5f00                	lw	s0,56(a4)
 67a:	626e                	flw	ft4,216(sp)
 67c:	6675                	lui	a2,0x1d
 67e:	5f00                	lw	s0,56(a4)
 680:	6e75                	lui	t3,0x1d
 682:	7375                	lui	t1,0xffffd
 684:	6465                	lui	s0,0x19
 686:	6e00                	flw	fs0,24(a2)
 688:	6d75                	lui	s10,0x1d
 68a:	635f 726f 7365      	0x7365726f635f
 690:	5f00                	lw	s0,56(a4)
 692:	745f 5f6d 7369      	0x73695f6d745f
 698:	7364                	flw	fs1,100(a4)
 69a:	0074                	addi	a3,sp,12
 69c:	6c5f 636f 6c61      	0x6c61636f6c5f
 6a2:	6974                	flw	fa3,84(a0)
 6a4:	656d                	lui	a0,0x1b
 6a6:	625f 6675 5f00      	0x5f006675625f
 6ac:	736f6c63          	bltu	t5,s6,de4 <__seq_start+0xde4>
 6b0:	0065                	c.addi	zero,25
 6b2:	725f 3834 5f00      	0x5f003834725f
 6b8:	626d                	lui	tp,0x1b
 6ba:	6f74                	flw	fa3,92(a4)
 6bc:	735f6377          	0x735f6377
 6c0:	6174                	flw	fa3,68(a0)
 6c2:	6574                	flw	fa3,76(a0)
 6c4:	5f00                	lw	s0,56(a4)
 6c6:	3570                	fld	fa2,232(a0)
 6c8:	616d0073          	0x616d0073
 6cc:	6e69                	lui	t3,0x1a
 6ce:	5f00                	lw	s0,56(a4)
 6d0:	745f 5f6d 646d      	0x646d5f6d745f
 6d6:	7961                	lui	s2,0xffff8
 6d8:	6100                	flw	fs0,0(a0)
 6da:	6c6c                	flw	fa1,92(s0)
 6dc:	625f636f          	jal	t1,f7500 <__heap_start+0xd4c00>
 6e0:	6f6c                	flw	fa1,92(a4)
 6e2:	735f6b63          	bltu	t5,s5,e18 <__seq_start+0xe18>
 6e6:	6100                	flw	fs0,0(a0)
 6e8:	6c6c                	flw	fa1,92(s0)
 6ea:	625f636f          	jal	t1,f750e <__heap_start+0xd4c0e>
 6ee:	6f6c                	flw	fa1,92(a4)
 6f0:	745f6b63          	bltu	t5,t0,e46 <__seq_start+0xe46>
 6f4:	6200                	flw	fs0,0(a2)
 6f6:	6f6c                	flw	fa1,92(a4)
 6f8:	735f6b63          	bltu	t5,s5,e2e <__seq_start+0xe2e>
 6fc:	7a69                	lui	s4,0xffffa
 6fe:	0065                	c.addi	zero,25
 700:	6c61                	lui	s8,0x18
 702:	6769                	lui	a4,0x1a
 704:	656e                	flw	fa0,216(sp)
 706:	5f64                	lw	s1,124(a4)
 708:	6162                	flw	ft2,24(sp)
 70a:	63006573          	csrrsi	a0,0x630,0
 70e:	6e61                	lui	t3,0x18
 710:	7261                	lui	tp,0xffff8
 712:	5f79                	li	t5,-2
 714:	6564                	flw	fs1,76(a0)
 716:	65646f63          	bltu	s0,s6,d74 <__seq_start+0xd74>
 71a:	6300                	flw	fs0,0(a4)
 71c:	6e61                	lui	t3,0x18
 71e:	7261                	lui	tp,0xffff8
 720:	5f79                	li	t5,-2
 722:	6e61                	lui	t3,0x18
 724:	5f64                	lw	s1,124(a4)
 726:	657a6973          	csrrsi	s2,0x657,20
 72a:	745f 7400 6c69      	0x6c697400745f
 730:	5f65                	li	t5,-7
 732:	6469                	lui	s0,0x1a
 734:	6700                	flw	fs0,8(a4)
 736:	7465                	lui	s0,0xffff9
 738:	615f 6c6c 636f      	0x636f6c6c615f
 73e:	745f 6c69 0065      	0x656c69745f
 744:	616e6163          	bltu	t3,s6,d46 <__seq_start+0xd46>
 748:	7972                	flw	fs2,60(sp)
 74a:	6300                	flw	fs0,0(a4)
 74c:	6e61                	lui	t3,0x18
 74e:	7261                	lui	tp,0xffff8
 750:	5f79                	li	t5,-2
 752:	6e61                	lui	t3,0x18
 754:	5f64                	lw	s1,124(a4)
 756:	657a6973          	csrrsi	s2,0x657,20
 75a:	5f00                	lw	s0,56(a4)
 75c:	755f 6e69 3874      	0x38746e69755f
 762:	745f 6400 7461      	0x74616400745f
 768:	5f61                	li	t5,-8
 76a:	657a6973          	csrrsi	s2,0x657,20
 76e:	7300                	flw	fs0,32(a4)
 770:	6d69                	lui	s10,0x1a
 772:	6c70                	flw	fa2,92(s0)
 774:	5f65                	li	t5,-7
 776:	7266                	flw	ft4,120(sp)
 778:	6565                	lui	a0,0x19
 77a:	6400                	flw	fs0,8(s0)
 77c:	69616d6f          	jal	s10,16e12 <__seq_start+0x16e12>
 780:	5f6e                	lw	t5,248(sp)
 782:	7266                	flw	ft4,120(sp)
 784:	6565                	lui	a0,0x19
 786:	6100                	flw	fs0,0(a0)
 788:	6c6c                	flw	fa1,92(s0)
 78a:	645f636f          	jal	t1,f75ce <__heap_start+0xd4cce>
 78e:	6d75                	lui	s10,0x1d
 790:	0070                	addi	a2,sp,12
 792:	6c61                	lui	s8,0x18
 794:	6f6c                	flw	fa1,92(a4)
 796:	6e695f63          	ble	t1,s2,e94 <__seq_start+0xe94>
 79a:	7469                	lui	s0,0xffffa
 79c:	6e00                	flw	fs0,24(a2)
 79e:	7765                	lui	a4,0xffff9
 7a0:	625f 6f6c 6b63      	0x6b636f6c625f
 7a6:	2f00                	fld	fs0,24(a4)
 7a8:	7375                	lui	t1,0xffffd
 7aa:	2f72                	fld	ft10,280(sp)
 7ac:	61726373          	csrrsi	t1,0x617,4
 7b0:	6374                	flw	fa3,68(a4)
 7b2:	3268                	fld	fa0,224(a2)
 7b4:	72616c2f          	0x72616c2f
 7b8:	6961                	lui	s2,0x18
 7ba:	386e                	fld	fa6,248(sp)
 7bc:	6369792f          	0x6369792f
 7c0:	687a                	flw	fa6,156(sp)
 7c2:	6e61                	lui	t3,0x18
 7c4:	65742f67          	0x65742f67
 7c8:	6172                	flw	ft2,28(sp)
 7ca:	6f70                	flw	fa2,92(a4)
 7cc:	645f6c6f          	jal	s8,f7610 <__heap_start+0xd4d10>
 7d0:	6172                	flw	ft2,28(sp)
 7d2:	5f6d                	li	t5,-5
 7d4:	6d627573          	csrrci	a0,0x6d6,4
 7d8:	6c75646f          	jal	s0,5769e <__heap_start+0x34d9e>
 7dc:	5f65                	li	t5,-7
 7de:	6572                	flw	fa0,28(sp)
 7e0:	6162                	flw	ft2,24(sp)
 7e2:	305f6573          	csrrsi	a0,mtvec,30
 7e6:	3035                	jal	12 <__seq_start+0x12>
 7e8:	5f32                	lw	t5,44(sp)
 7ea:	3032                	fld	ft0,296(sp)
 7ec:	3432                	fld	fs0,296(sp)
 7ee:	6d656d2f          	0x6d656d2f
 7f2:	6f70                	flw	fa2,92(a4)
 7f4:	732f6c6f          	jal	s8,f6f26 <__heap_start+0xd4626>
 7f8:	7774666f          	jal	a2,4776e <__heap_start+0x24e6e>
 7fc:	7261                	lui	tp,0xffff8
 7fe:	2f65                	jal	fb6 <__seq_start+0xfb6>
 800:	7572                	flw	fa0,60(sp)
 802:	746e                	flw	fs0,248(sp)
 804:	6d69                	lui	s10,0x1a
 806:	2f65                	jal	fbe <__seq_start+0xfbe>
 808:	6c61                	lui	s8,0x18
 80a:	6f6c                	flw	fa1,92(a4)
 80c:	00632e63          	p.beqimm	t1,6,828 <__seq_start+0x828>
 810:	72727563          	bleu	t2,tp,f3a <__seq_start+0xf3a>
 814:	6100                	flw	fs0,0(a0)
 816:	6c6c                	flw	fa1,92(s0)
 818:	7461636f          	jal	t1,16f5e <__seq_start+0x16f5e>
 81c:	5f65                	li	t5,-7
 81e:	656d                	lui	a0,0x1b
 820:	6f6d                	lui	t5,0x1b
 822:	7972                	flw	fs2,60(sp)
 824:	6300                	flw	fs0,0(a4)
 826:	6e61                	lui	t3,0x18
 828:	7261                	lui	tp,0xffff8
 82a:	5f79                	li	t5,-2
 82c:	6e65                	lui	t3,0x19
 82e:	65646f63          	bltu	s0,s6,e8c <__seq_start+0xe8c>
 832:	6600                	flw	fs0,8(a2)
 834:	7269                	lui	tp,0xffffa
 836:	625f7473          	csrrci	s0,0x625,30
 83a:	6f6c                	flw	fa1,92(a4)
 83c:	73006b63          	bltu	zero,a6,f72 <__seq_start+0xf72>
 840:	6d69                	lui	s10,0x1a
 842:	6c70                	flw	fa2,92(s0)
 844:	5f65                	li	t5,-7
 846:	616d                	addi	sp,sp,240
 848:	6c6c                	flw	fa1,92(s0)
 84a:	6700636f          	jal	t1,6eba <__seq_start+0x6eba>
 84e:	7465                	lui	s0,0xffff9
 850:	615f 6c6c 636f      	0x636f6c6c615f
 856:	6c5f 0031 6c62      	0x6c6200316c5f
 85c:	5f6b636f          	jal	t1,b6e52 <__heap_start+0x94552>
 860:	7470                	flw	fa2,108(s0)
 862:	0072                	0x72
 864:	6c61                	lui	s8,0x18
 866:	6f6c                	flw	fa1,92(a4)
 868:	00745f63          	ble	t2,s0,886 <__seq_start+0x886>
 86c:	7270                	flw	fa2,100(a2)
 86e:	7665                	lui	a2,0xffff9
 870:	6400                	flw	fs0,8(s0)
 872:	69616d6f          	jal	s10,16f08 <__seq_start+0x16f08>
 876:	5f6e                	lw	t5,248(sp)
 878:	616d                	addi	sp,sp,240
 87a:	6c6c                	flw	fa1,92(s0)
 87c:	6400636f          	jal	t1,6ebc <__seq_start+0x6ebc>
 880:	7461                	lui	s0,0xffff8
 882:	5f61                	li	t5,-8
 884:	7470                	flw	fa2,108(s0)
 886:	0072                	0x72
 888:	7266                	flw	ft4,120(sp)
 88a:	6565                	lui	a0,0x19
 88c:	6d5f 6d65 726f      	0x726f6d656d5f
 892:	0079                	c.addi	zero,30
 894:	5f74756f          	jal	a0,4868a <__heap_start+0x25d8a>
 898:	6366                	flw	ft6,88(sp)
 89a:	5f74                	lw	a3,124(a4)
 89c:	70617277          	0x70617277
 8a0:	5f00                	lw	s0,56(a4)
 8a2:	5f74756f          	jal	a0,48698 <__heap_start+0x25d98>
 8a6:	7562                	flw	fa0,56(sp)
 8a8:	6666                	flw	fa2,88(sp)
 8aa:	7265                	lui	tp,0xffff9
 8ac:	5f00                	lw	s0,56(a4)
 8ae:	5f74756f          	jal	a0,486a4 <__heap_start+0x25da4>
 8b2:	72616863          	bltu	sp,t1,fe2 <__seq_start+0xfe2>
 8b6:	6d00                	flw	fs0,24(a0)
 8b8:	7861                	lui	a6,0xffff8
 8ba:	657a6973          	csrrsi	s2,0x657,20
 8be:	5f00                	lw	s0,56(a4)
 8c0:	5f74756f          	jal	a0,486b6 <__heap_start+0x25db6>
 8c4:	6366                	flw	ft6,88(sp)
 8c6:	0074                	addi	a3,sp,12
 8c8:	72617473          	csrrci	s0,0x726,2
 8cc:	5f74                	lw	a3,124(a4)
 8ce:	6469                	lui	s0,0x1a
 8d0:	0078                	addi	a4,sp,12
 8d2:	74646977          	0x74646977
 8d6:	0068                	addi	a0,sp,12
 8d8:	6366                	flw	ft6,88(sp)
 8da:	7074                	flw	fa3,100(s0)
 8dc:	6972                	flw	fs2,28(sp)
 8de:	746e                	flw	fs0,248(sp)
 8e0:	0066                	0x66
 8e2:	656e                	flw	fa0,216(sp)
 8e4:	69746167          	0x69746167
 8e8:	6576                	flw	fa0,92(sp)
 8ea:	5f00                	lw	s0,56(a4)
 8ec:	746e                	flw	fs0,248(sp)
 8ee:	665f616f          	jal	sp,f7752 <__heap_start+0xd4e52>
 8f2:	616d726f          	jal	tp,d7f08 <__heap_start+0xb5608>
 8f6:	0074                	addi	a3,sp,12
 8f8:	765f 6e73 7270      	0x72706e73765f
 8fe:	6e69                	lui	t3,0x1a
 900:	6674                	flw	fa3,76(a2)
 902:	5f00                	lw	s0,56(a4)
 904:	5f74756f          	jal	a0,486fa <__heap_start+0x25dfa>
 908:	756e                	flw	fa0,248(sp)
 90a:	6c6c                	flw	fa1,92(s0)
 90c:	6f00                	flw	fs0,24(a4)
 90e:	7475                	lui	s0,0xffffd
 910:	665f 7463 745f      	0x745f7463665f
 916:	7079                	0x7079
 918:	0065                	c.addi	zero,25
 91a:	6e5f 6f74 5f61      	0x5f616f746e5f
 920:	6f6c                	flw	fa1,92(a4)
 922:	676e                	flw	fa4,216(sp)
 924:	7600                	flw	fs0,40(a2)
 926:	72706e73          	csrrsi	t3,0x727,0
 92a:	6e69                	lui	t3,0x1a
 92c:	6674                	flw	fa3,76(a2)
 92e:	005f 752f 7273      	0x7273752f005f
 934:	7263732f          	0x7263732f
 938:	7461                	lui	s0,0xffff8
 93a:	2f326863          	bltu	tp,s3,c2a <__seq_start+0xc2a>
 93e:	616c                	flw	fa1,68(a0)
 940:	6172                	flw	ft2,28(sp)
 942:	6e69                	lui	t3,0x1a
 944:	2f38                	fld	fa4,88(a4)
 946:	6979                	lui	s2,0x1e
 948:	61687a63          	bleu	s6,a6,f5c <__seq_start+0xf5c>
 94c:	676e                	flw	fa4,216(sp)
 94e:	7265742f          	0x7265742f
 952:	7061                	0x7061
 954:	5f6c6f6f          	jal	t5,c6f4a <__heap_start+0xa464a>
 958:	7264                	flw	fs1,100(a2)
 95a:	6d61                	lui	s10,0x18
 95c:	735f 6275 6f6d      	0x6f6d6275735f
 962:	7564                	flw	fs1,108(a0)
 964:	656c                	flw	fa1,76(a0)
 966:	725f 6265 7361      	0x73616265725f
 96c:	5f65                	li	t5,-7
 96e:	3530                	fld	fa2,104(a0)
 970:	3230                	fld	fa2,96(a2)
 972:	325f 3230 2f34      	0x2f343230325f
 978:	656d                	lui	a0,0x1b
 97a:	706d                	0x706d
 97c:	2f6c6f6f          	jal	t5,c6c72 <__heap_start+0xa4372>
 980:	74666f73          	csrrsi	t5,0x746,12
 984:	65726177          	0x65726177
 988:	6e75722f          	0x6e75722f
 98c:	6974                	flw	fa3,84(a0)
 98e:	656d                	lui	a0,0x1b
 990:	6972702f          	0x6972702f
 994:	746e                	flw	fs0,248(sp)
 996:	2e66                	fld	ft8,88(sp)
 998:	616d0063          	beq	s10,s6,f98 <__seq_start+0xf98>
 99c:	6c78                	flw	fa4,92(s0)
 99e:	6e65                	lui	t3,0x19
 9a0:	5f00                	lw	s0,56(a4)
 9a2:	7461                	lui	s0,0xffff8
 9a4:	5f00696f          	jal	s2,6f94 <__seq_start+0x6f94>
 9a8:	6e727473          	csrrci	s0,0x6e7,4
 9ac:	656c                	flw	fa1,76(a0)
 9ae:	5f6e                	lw	t5,248(sp)
 9b0:	425f0073          	0x425f0073
 9b4:	006c6f6f          	jal	t5,c69ba <__heap_start+0xa40ba>
 9b8:	69727073          	csrci	0x697,4
 9bc:	746e                	flw	fs0,248(sp)
 9be:	5f66                	lw	t5,120(sp)
 9c0:	5f00                	lw	s0,56(a4)
 9c2:	7369                	lui	t1,0xffffa
 9c4:	645f 6769 7469      	0x74696769645f
 9ca:	5f00                	lw	s0,56(a4)
 9cc:	625f 6975 746c      	0x746c6975625f
 9d2:	6e69                	lui	t3,0x1a
 9d4:	765f 5f61 696c      	0x696c5f61765f
 9da:	5f007473          	csrrci	s0,0x5f0,0
 9de:	755f 6e69 7074      	0x70746e69755f
 9e4:	7274                	flw	fa3,100(a2)
 9e6:	745f 6300 6168      	0x61686300745f
 9ec:	6172                	flw	ft2,28(sp)
 9ee:	72657463          	bleu	t1,a0,1116 <__seq_start+0x1116>
 9f2:	5f00                	lw	s0,56(a4)
 9f4:	7570                	flw	fa2,108(a0)
 9f6:	6374                	flw	fa3,68(a4)
 9f8:	6168                	flw	fa0,68(a0)
 9fa:	0072                	0x72
 9fc:	5f74756f          	jal	a0,487f2 <__heap_start+0x25ef2>
 a00:	6366                	flw	ft6,88(sp)
 a02:	5f74                	lw	a3,124(a4)
 a04:	70617277          	0x70617277
 a08:	745f 7079 0065      	0x657079745f
 a0e:	7270                	flw	fa2,100(a2)
 a10:	6365                	lui	t1,0x19
 a12:	5f00                	lw	s0,56(a4)
 a14:	675f 756e 5f63      	0x5f63756e675f
 a1a:	6176                	flw	ft2,92(sp)
 a1c:	6c5f 7369 0074      	0x7473696c5f
 a22:	7270                	flw	fa2,100(a2)
 a24:	6365                	lui	t1,0x19
 a26:	7369                	lui	t1,0xffffa
 a28:	6f69                	lui	t5,0x1a
 a2a:	006e                	0x6e
 a2c:	6166                	flw	ft2,88(sp)
 a2e:	755f656b          	0x755f656b
 a32:	7261                	lui	tp,0xffff8
 a34:	0074                	addi	a3,sp,12
 a36:	7273752f          	0x7273752f
 a3a:	7263732f          	0x7263732f
 a3e:	7461                	lui	s0,0xffff8
 a40:	2f326863          	bltu	tp,s3,d30 <__seq_start+0xd30>
 a44:	616c                	flw	fa1,68(a0)
 a46:	6172                	flw	ft2,28(sp)
 a48:	6e69                	lui	t3,0x1a
 a4a:	2f38                	fld	fa4,88(a4)
 a4c:	6979                	lui	s2,0x1e
 a4e:	61687a63          	bleu	s6,a6,1062 <__seq_start+0x1062>
 a52:	676e                	flw	fa4,216(sp)
 a54:	7265742f          	0x7265742f
 a58:	7061                	0x7061
 a5a:	5f6c6f6f          	jal	t5,c7050 <__heap_start+0xa4750>
 a5e:	7264                	flw	fs1,100(a2)
 a60:	6d61                	lui	s10,0x18
 a62:	735f 6275 6f6d      	0x6f6d6275735f
 a68:	7564                	flw	fs1,108(a0)
 a6a:	656c                	flw	fa1,76(a0)
 a6c:	725f 6265 7361      	0x73616265725f
 a72:	5f65                	li	t5,-7
 a74:	3530                	fld	fa2,104(a0)
 a76:	3230                	fld	fa2,96(a2)
 a78:	325f 3230 2f34      	0x2f343230325f
 a7e:	656d                	lui	a0,0x1b
 a80:	706d                	0x706d
 a82:	2f6c6f6f          	jal	t5,c6d78 <__heap_start+0xa4478>
 a86:	74666f73          	csrrsi	t5,0x746,12
 a8a:	65726177          	0x65726177
 a8e:	6e75722f          	0x6e75722f
 a92:	6974                	flw	fa3,84(a0)
 a94:	656d                	lui	a0,0x1b
 a96:	7265732f          	0x7265732f
 a9a:	6169                	addi	sp,sp,208
 a9c:	2e6c                	fld	fa1,216(a2)
 a9e:	74730063          	beq	t1,t2,11de <__seq_start+0x11de>
 aa2:	6372                	flw	ft6,28(sp)
 aa4:	706d                	0x706d
 aa6:	6200                	flw	fs0,0(a2)
 aa8:	7479                	lui	s0,0xffffe
 aaa:	0065                	c.addi	zero,25
 aac:	6c727473          	csrrci	s0,0x6c7,4
 ab0:	6e65                	lui	t3,0x19
 ab2:	6d00                	flw	fs0,24(a0)
 ab4:	6d65                	lui	s10,0x19
 ab6:	00797063          	bleu	t2,s2,ab6 <__seq_start+0xab6>
 aba:	63727473          	csrrci	s0,0x637,4
 abe:	7970                	flw	fa2,116(a0)
 ac0:	7700                	flw	fs0,40(a4)
 ac2:	0064726f          	jal	tp,47ac8 <__heap_start+0x251c8>
 ac6:	6564                	flw	fs1,76(a0)
 ac8:	2f007473          	csrrci	s0,0x2f0,0
 acc:	7375                	lui	t1,0xffffd
 ace:	2f72                	fld	ft10,280(sp)
 ad0:	61726373          	csrrsi	t1,0x617,4
 ad4:	6374                	flw	fa3,68(a4)
 ad6:	3268                	fld	fa0,224(a2)
 ad8:	72616c2f          	0x72616c2f
 adc:	6961                	lui	s2,0x18
 ade:	386e                	fld	fa6,248(sp)
 ae0:	6369792f          	0x6369792f
 ae4:	687a                	flw	fa6,156(sp)
 ae6:	6e61                	lui	t3,0x18
 ae8:	65742f67          	0x65742f67
 aec:	6172                	flw	ft2,28(sp)
 aee:	6f70                	flw	fa2,92(a4)
 af0:	645f6c6f          	jal	s8,f7934 <__heap_start+0xd5034>
 af4:	6172                	flw	ft2,28(sp)
 af6:	5f6d                	li	t5,-5
 af8:	6d627573          	csrrci	a0,0x6d6,4
 afc:	6c75646f          	jal	s0,579c2 <__heap_start+0x350c2>
 b00:	5f65                	li	t5,-7
 b02:	6572                	flw	fa0,28(sp)
 b04:	6162                	flw	ft2,24(sp)
 b06:	305f6573          	csrrsi	a0,mtvec,30
 b0a:	3035                	jal	336 <__seq_start+0x336>
 b0c:	5f32                	lw	t5,44(sp)
 b0e:	3032                	fld	ft0,296(sp)
 b10:	3432                	fld	fs0,296(sp)
 b12:	6d656d2f          	0x6d656d2f
 b16:	6f70                	flw	fa2,92(a4)
 b18:	732f6c6f          	jal	s8,f724a <__heap_start+0xd494a>
 b1c:	7774666f          	jal	a2,47a92 <__heap_start+0x25192>
 b20:	7261                	lui	tp,0xffff8
 b22:	2f65                	jal	12da <__seq_start+0x12da>
 b24:	7572                	flw	fa0,60(sp)
 b26:	746e                	flw	fs0,248(sp)
 b28:	6d69                	lui	s10,0x1a
 b2a:	2f65                	jal	12e2 <__seq_start+0x12e2>
 b2c:	69727473          	csrrci	s0,0x697,4
 b30:	676e                	flw	fa4,216(sp)
 b32:	632e                	flw	ft6,200(sp)
 b34:	6100                	flw	fs0,0(a0)
 b36:	6f74                	flw	fa3,92(a4)
 b38:	006c                	addi	a1,sp,12
 b3a:	635f 7974 6570      	0x65707974635f
 b40:	005f 656d 636d      	0x636d656d005f
 b46:	706d                	0x706d
 b48:	6d00                	flw	fs0,24(a0)
 b4a:	6d65                	lui	s10,0x19
 b4c:	00746573          	csrrsi	a0,0x7,8
 b50:	7273752f          	0x7273752f
 b54:	7263732f          	0x7263732f
 b58:	7461                	lui	s0,0xffff8
 b5a:	2f326863          	bltu	tp,s3,e4a <__seq_start+0xe4a>
 b5e:	616c                	flw	fa1,68(a0)
 b60:	6172                	flw	ft2,28(sp)
 b62:	6e69                	lui	t3,0x1a
 b64:	2f38                	fld	fa4,88(a4)
 b66:	6979                	lui	s2,0x1e
 b68:	61687a63          	bleu	s6,a6,117c <__seq_start+0x117c>
 b6c:	676e                	flw	fa4,216(sp)
 b6e:	7265742f          	0x7265742f
 b72:	7061                	0x7061
 b74:	5f6c6f6f          	jal	t5,c716a <__heap_start+0xa486a>
 b78:	7264                	flw	fs1,100(a2)
 b7a:	6d61                	lui	s10,0x18
 b7c:	735f 6275 6f6d      	0x6f6d6275735f
 b82:	7564                	flw	fs1,108(a0)
 b84:	656c                	flw	fa1,76(a0)
 b86:	725f 6265 7361      	0x73616265725f
 b8c:	5f65                	li	t5,-7
 b8e:	3530                	fld	fa2,104(a0)
 b90:	3230                	fld	fa2,96(a2)
 b92:	325f 3230 2f34      	0x2f343230325f
 b98:	656d                	lui	a0,0x1b
 b9a:	706d                	0x706d
 b9c:	2f6c6f6f          	jal	t5,c6e92 <__heap_start+0xa4592>
 ba0:	74666f73          	csrrsi	t5,0x746,12
 ba4:	65726177          	0x65726177
 ba8:	6e75722f          	0x6e75722f
 bac:	6974                	flw	fa3,84(a0)
 bae:	656d                	lui	a0,0x1b
 bb0:	6e79732f          	0x6e79732f
 bb4:	6f726863          	bltu	tp,s7,12a4 <__seq_start+0x12a4>
 bb8:	696e                	flw	fs2,216(sp)
 bba:	617a                	flw	ft2,156(sp)
 bbc:	6974                	flw	fa3,84(a0)
 bbe:	632e6e6f          	jal	t3,e71f0 <__heap_start+0xc48f0>
 bc2:	7000                	flw	fs0,32(s0)
 bc4:	7261                	lui	tp,0xffff8
 bc6:	6974                	flw	fa3,84(a0)
 bc8:	6c61                	lui	s8,0x18
 bca:	625f 7261 6972      	0x69727261625f
 bd0:	7265                	lui	tp,0xffff9
 bd2:	6c00                	flw	fs0,24(s0)
 bd4:	625f676f          	jal	a4,f79f8 <__heap_start+0xd50f8>
 bd8:	7261                	lui	tp,0xffff8
 bda:	6972                	flw	fs2,28(sp)
 bdc:	7265                	lui	tp,0xffff9
 bde:	7700                	flw	fs0,40(a4)
 be0:	6b61                	lui	s6,0x18
 be2:	5f65                	li	t5,-7
 be4:	7075                	0x7075
 be6:	7700                	flw	fs0,40(a4)
 be8:	6b61                	lui	s6,0x18
 bea:	5f65                	li	t5,-7
 bec:	7075                	0x7075
 bee:	615f 6c6c 6d00      	0x6d006c6c615f
 bf4:	6d65                	lui	s10,0x19
 bf6:	6f70                	flw	fa2,92(a4)
 bf8:	775f6c6f          	jal	s8,f7b6c <__heap_start+0xd526c>
 bfc:	6966                	flw	fs2,88(sp)
	...

Disassembly of section .debug_loc:

00000000 <.debug_loc>:
       0:	03f4                	addi	a3,sp,460
       2:	0000                	unimp
       4:	0400                	addi	s0,sp,512
       6:	0000                	unimp
       8:	0001                	nop
       a:	005a                	0x5a
       c:	0004                	addi	s1,sp,0
       e:	0800                	addi	s0,sp,16
      10:	0004                	addi	s1,sp,0
      12:	0400                	addi	s0,sp,512
      14:	f300                	fsw	fs0,32(a4)
      16:	5a01                	li	s4,-32
      18:	009f 0000 0000      	0x9f
      1e:	0000                	unimp
      20:	6800                	flw	fs0,16(s0)
      22:	7c000003          	lb	zero,1984(zero) # 7c0 <__seq_start+0x7c0>
      26:	01000003          	lb	zero,16(zero) # 10 <__seq_start+0x10>
      2a:	5a00                	lw	s0,48(a2)
      2c:	037c                	addi	a5,sp,396
      2e:	0000                	unimp
      30:	03e8                	addi	a0,sp,460
      32:	0000                	unimp
      34:	0004                	addi	s1,sp,0
      36:	9f5a01f3          	0x9f5a01f3
	...
      42:	0374                	addi	a3,sp,396
      44:	0000                	unimp
      46:	0398                	addi	a4,sp,448
      48:	0000                	unimp
      4a:	0001                	nop
      4c:	9858                	0x9858
      4e:	a0000003          	lb	zero,-1536(zero) # fffffa00 <pulp__FC+0xfffffa01>
      52:	01000003          	lb	zero,16(zero) # 10 <__seq_start+0x10>
      56:	5f00                	lw	s0,56(a4)
      58:	03a0                	addi	s0,sp,456
      5a:	0000                	unimp
      5c:	03b4                	addi	a3,sp,456
      5e:	0000                	unimp
      60:	0001                	nop
      62:	b458                	fsd	fa4,168(s0)
      64:	d3000003          	lb	zero,-720(zero) # fffffd30 <pulp__FC+0xfffffd31>
      68:	01000003          	lb	zero,16(zero) # 10 <__seq_start+0x10>
      6c:	5f00                	lw	s0,56(a4)
      6e:	03d4                	addi	a3,sp,452
      70:	0000                	unimp
      72:	03dc                	addi	a5,sp,452
      74:	0000                	unimp
      76:	0001                	nop
      78:	0058                	addi	a4,sp,4
      7a:	0000                	unimp
      7c:	0000                	unimp
      7e:	0000                	unimp
      80:	ac00                	fsd	fs0,24(s0)
      82:	0002                	0x2
      84:	c800                	sw	s0,16(s0)
      86:	0002                	0x2
      88:	0100                	addi	s0,sp,128
      8a:	5a00                	lw	s0,48(a2)
      8c:	02c8                	addi	a0,sp,324
      8e:	0000                	unimp
      90:	000002cb          	0x2cb
      94:	047b0003          	lb	zero,71(s6) # 18047 <__seq_start+0x18047>
      98:	cb9f 0002 cc00      	0xcc000002cb9f
      9e:	0002                	0x2
      a0:	0400                	addi	s0,sp,512
      a2:	f300                	fsw	fs0,32(a4)
      a4:	5a01                	li	s4,-32
      a6:	cc9f 0002 1400      	0x14000002cc9f
      ac:	01000003          	lb	zero,16(zero) # 10 <__seq_start+0x10>
      b0:	5a00                	lw	s0,48(a2)
      b2:	0314                	addi	a3,sp,384
      b4:	0000                	unimp
      b6:	0330                	addi	a2,sp,392
      b8:	0000                	unimp
      ba:	047b0003          	lb	zero,71(s6)
      be:	309f 0003 6800      	0x68000003309f
      c4:	01000003          	lb	zero,16(zero) # 10 <__seq_start+0x10>
      c8:	5a00                	lw	s0,48(a2)
	...
      d2:	02ac                	addi	a1,sp,328
      d4:	0000                	unimp
      d6:	02c8                	addi	a0,sp,324
      d8:	0000                	unimp
      da:	0001                	nop
      dc:	c85a                	sw	s6,16(sp)
      de:	0002                	0x2
      e0:	cb00                	sw	s0,16(a4)
      e2:	0002                	0x2
      e4:	0300                	addi	s0,sp,384
      e6:	7b00                	flw	fs0,48(a4)
      e8:	9f04                	0x9f04
      ea:	000002cb          	0x2cb
      ee:	02cc                	addi	a1,sp,324
      f0:	0000                	unimp
      f2:	0004                	addi	s1,sp,0
      f4:	9f5a01f3          	0x9f5a01f3
      f8:	02cc                	addi	a1,sp,324
      fa:	0000                	unimp
      fc:	0314                	addi	a3,sp,384
      fe:	0000                	unimp
     100:	0001                	nop
     102:	145a                	slli	s0,s0,0x36
     104:	30000003          	lb	zero,768(zero) # 300 <__seq_start+0x300>
     108:	03000003          	lb	zero,48(zero) # 30 <__seq_start+0x30>
     10c:	7b00                	flw	fs0,48(a4)
     10e:	9f04                	0x9f04
     110:	0330                	addi	a2,sp,392
     112:	0000                	unimp
     114:	0338                	addi	a4,sp,392
     116:	0000                	unimp
     118:	0001                	nop
     11a:	3c5a                	fld	fs8,432(sp)
     11c:	68000003          	lb	zero,1664(zero) # 680 <__seq_start+0x680>
     120:	01000003          	lb	zero,16(zero) # 10 <__seq_start+0x10>
     124:	5a00                	lw	s0,48(a2)
	...
     12e:	02ac                	addi	a1,sp,328
     130:	0000                	unimp
     132:	0338                	addi	a4,sp,392
     134:	0000                	unimp
     136:	0006                	0x6
     138:	00200003          	lb	zero,2(zero) # 2 <__seq_start+0x2>
     13c:	9f80                	0x9f80
     13e:	033c                	addi	a5,sp,392
     140:	0000                	unimp
     142:	0368                	addi	a0,sp,396
     144:	0000                	unimp
     146:	0006                	0x6
     148:	00200003          	lb	zero,2(zero) # 2 <__seq_start+0x2>
     14c:	9f80                	0x9f80
	...
     156:	02cc                	addi	a1,sp,324
     158:	0000                	unimp
     15a:	02f8                	addi	a4,sp,332
     15c:	0000                	unimp
     15e:	0005                	c.addi	zero,1
     160:	007d                	c.addi	zero,31
     162:	2538                	fld	fa4,72(a0)
     164:	f89f 0002 0400      	0x4000002f89f
     16a:	06000003          	lb	zero,96(zero) # 60 <__seq_start+0x60>
     16e:	7b00                	flw	fs0,48(a4)
     170:	0600                	addi	s0,sp,768
     172:	2538                	fld	fa4,72(a0)
     174:	3c9f 0003 4c00      	0x4c0000033c9f
     17a:	06000003          	lb	zero,96(zero) # 60 <__seq_start+0x60>
     17e:	7b00                	flw	fs0,48(a4)
     180:	0600                	addi	s0,sp,768
     182:	2538                	fld	fa4,72(a0)
     184:	549f 0003 6800      	0x68000003549f
     18a:	05000003          	lb	zero,80(zero) # 50 <__seq_start+0x50>
     18e:	7d00                	flw	fs0,56(a0)
     190:	3800                	fld	fs0,48(s0)
     192:	9f25                	0x9f25
	...
     19c:	02d8                	addi	a4,sp,324
     19e:	0000                	unimp
     1a0:	02e4                	addi	s1,sp,332
     1a2:	0000                	unimp
     1a4:	0001                	nop
     1a6:	e45e                	fsw	fs7,8(sp)
     1a8:	0002                	0x2
     1aa:	ec00                	fsw	fs0,24(s0)
     1ac:	0002                	0x2
     1ae:	0100                	addi	s0,sp,128
     1b0:	5f00                	lw	s0,56(a4)
     1b2:	02ec                	addi	a1,sp,332
     1b4:	0000                	unimp
     1b6:	02f0                	addi	a2,sp,332
     1b8:	0000                	unimp
     1ba:	0001                	nop
     1bc:	f05e                	fsw	fs7,32(sp)
     1be:	0002                	0x2
     1c0:	f400                	fsw	fs0,40(s0)
     1c2:	0002                	0x2
     1c4:	0100                	addi	s0,sp,128
     1c6:	5f00                	lw	s0,56(a4)
     1c8:	0354                	addi	a3,sp,388
     1ca:	0000                	unimp
     1cc:	0364                	addi	s1,sp,396
     1ce:	0000                	unimp
     1d0:	0001                	nop
     1d2:	645e                	flw	fs0,212(sp)
     1d4:	68000003          	lb	zero,1664(zero) # 680 <__seq_start+0x680>
     1d8:	05000003          	lb	zero,80(zero) # 50 <__seq_start+0x50>
     1dc:	0300                	addi	s0,sp,384
     1de:	2000                	fld	fs0,0(s0)
     1e0:	8000                	0x8000
	...
     1ea:	02d8                	addi	a4,sp,324
     1ec:	0000                	unimp
     1ee:	02e4                	addi	s1,sp,332
     1f0:	0000                	unimp
     1f2:	0002                	0x2
     1f4:	9f30                	0x9f30
     1f6:	02e4                	addi	s1,sp,332
     1f8:	0000                	unimp
     1fa:	02f4                	addi	a3,sp,332
     1fc:	0000                	unimp
     1fe:	0001                	nop
     200:	545e                	lw	s0,244(sp)
     202:	68000003          	lb	zero,1664(zero) # 680 <__seq_start+0x680>
     206:	02000003          	lb	zero,32(zero) # 20 <__seq_start+0x20>
     20a:	3000                	fld	fs0,32(s0)
     20c:	009f 0000 0000      	0x9f
     212:	0000                	unimp
     214:	0800                	addi	s0,sp,16
     216:	0001                	nop
     218:	3800                	fld	fs0,48(s0)
     21a:	0001                	nop
     21c:	0100                	addi	s0,sp,128
     21e:	5a00                	lw	s0,48(a2)
     220:	0138                	addi	a4,sp,136
     222:	0000                	unimp
     224:	01e4                	addi	s1,sp,204
     226:	0000                	unimp
     228:	0004                	addi	s1,sp,0
     22a:	9f5a01f3          	0x9f5a01f3
     22e:	01e4                	addi	s1,sp,204
     230:	0000                	unimp
     232:	01ec                	addi	a1,sp,204
     234:	0000                	unimp
     236:	0001                	nop
     238:	ec5a                	fsw	fs6,24(sp)
     23a:	0001                	nop
     23c:	f800                	fsw	fs0,48(s0)
     23e:	0001                	nop
     240:	0400                	addi	s0,sp,512
     242:	f300                	fsw	fs0,32(a4)
     244:	5a01                	li	s4,-32
     246:	009f 0000 0000      	0x9f
     24c:	0000                	unimp
     24e:	0800                	addi	s0,sp,16
     250:	0001                	nop
     252:	3800                	fld	fs0,48(s0)
     254:	0001                	nop
     256:	0100                	addi	s0,sp,128
     258:	5a00                	lw	s0,48(a2)
     25a:	0138                	addi	a4,sp,136
     25c:	0000                	unimp
     25e:	01e4                	addi	s1,sp,204
     260:	0000                	unimp
     262:	0004                	addi	s1,sp,0
     264:	9f5a01f3          	0x9f5a01f3
     268:	01e4                	addi	s1,sp,204
     26a:	0000                	unimp
     26c:	01ec                	addi	a1,sp,204
     26e:	0000                	unimp
     270:	0001                	nop
     272:	ec5a                	fsw	fs6,24(sp)
     274:	0001                	nop
     276:	f800                	fsw	fs0,48(s0)
     278:	0001                	nop
     27a:	0400                	addi	s0,sp,512
     27c:	f300                	fsw	fs0,32(a4)
     27e:	5a01                	li	s4,-32
     280:	009f 0000 0000      	0x9f
     286:	0000                	unimp
     288:	2000                	fld	fs0,0(s0)
     28a:	0001                	nop
     28c:	5800                	lw	s0,48(s0)
     28e:	0001                	nop
     290:	0100                	addi	s0,sp,128
     292:	5b00                	lw	s0,48(a4)
     294:	0174                	addi	a3,sp,140
     296:	0000                	unimp
     298:	018c                	addi	a1,sp,192
     29a:	0000                	unimp
     29c:	0001                	nop
     29e:	0001a85b          	0x1a85b
     2a2:	e400                	fsw	fs0,8(s0)
     2a4:	0001                	nop
     2a6:	0100                	addi	s0,sp,128
     2a8:	5b00                	lw	s0,48(a4)
	...
     2b2:	0120                	addi	s0,sp,136
     2b4:	0000                	unimp
     2b6:	0158                	addi	a4,sp,132
     2b8:	0000                	unimp
     2ba:	0006                	0x6
     2bc:	00200003          	lb	zero,2(zero) # 2 <__seq_start+0x2>
     2c0:	9f80                	0x9f80
     2c2:	0174                	addi	a3,sp,140
     2c4:	0000                	unimp
     2c6:	018c                	addi	a1,sp,192
     2c8:	0000                	unimp
     2ca:	0006                	0x6
     2cc:	00200003          	lb	zero,2(zero) # 2 <__seq_start+0x2>
     2d0:	9f80                	0x9f80
     2d2:	01a8                	addi	a0,sp,200
     2d4:	0000                	unimp
     2d6:	01e4                	addi	s1,sp,204
     2d8:	0000                	unimp
     2da:	0006                	0x6
     2dc:	00200003          	lb	zero,2(zero) # 2 <__seq_start+0x2>
     2e0:	9f80                	0x9f80
	...
     2ea:	012c                	addi	a1,sp,136
     2ec:	0000                	unimp
     2ee:	013c                	addi	a5,sp,136
     2f0:	0000                	unimp
     2f2:	0001                	nop
     2f4:	b05d                	j	fffffb9a <pulp__FC+0xfffffb9b>
     2f6:	0001                	nop
     2f8:	e400                	fsw	fs0,8(s0)
     2fa:	0001                	nop
     2fc:	0100                	addi	s0,sp,128
     2fe:	5d00                	lw	s0,56(a0)
	...
     308:	012c                	addi	a1,sp,136
     30a:	0000                	unimp
     30c:	013c                	addi	a5,sp,136
     30e:	0000                	unimp
     310:	0002                	0x2
     312:	9f30                	0x9f30
     314:	01b0                	addi	a2,sp,200
     316:	0000                	unimp
     318:	01e4                	addi	s1,sp,204
     31a:	0000                	unimp
     31c:	0002                	0x2
     31e:	9f30                	0x9f30
	...
     328:	017c                	addi	a5,sp,140
     32a:	0000                	unimp
     32c:	018c                	addi	a1,sp,192
     32e:	0000                	unimp
     330:	0001                	nop
     332:	b85c                	fsd	fa5,176(s0)
     334:	0001                	nop
     336:	d400                	sw	s0,40(s0)
     338:	0001                	nop
     33a:	0100                	addi	s0,sp,128
     33c:	5e00                	lw	s0,56(a2)
	...
     34a:	000c                	addi	a1,sp,0
     34c:	0000                	unimp
     34e:	0001                	nop
     350:	00000c5b          	0xc5b
     354:	2400                	fld	fs0,8(s0)
     356:	0000                	unimp
     358:	0400                	addi	s0,sp,512
     35a:	f300                	fsw	fs0,32(a4)
     35c:	5b01                	li	s6,-32
     35e:	009f 0000 0000      	0x9f
     364:	0000                	unimp
     366:	1000                	addi	s0,sp,32
     368:	0000                	unimp
     36a:	1400                	addi	s0,sp,544
     36c:	0000                	unimp
     36e:	0600                	addi	s0,sp,768
     370:	7b00                	flw	fs0,48(a4)
     372:	0900                	addi	s0,sp,144
     374:	1af8                	addi	a4,sp,380
     376:	149f 0000 2400      	0x24000000149f
     37c:	0000                	unimp
     37e:	0100                	addi	s0,sp,128
     380:	5b00                	lw	s0,48(a4)
	...
     38a:	0024                	addi	s1,sp,8
     38c:	0000                	unimp
     38e:	0074                	addi	a3,sp,12
     390:	0000                	unimp
     392:	0001                	nop
     394:	745a                	flw	fs0,180(sp)
     396:	0000                	unimp
     398:	8800                	0x8800
     39a:	0000                	unimp
     39c:	0400                	addi	s0,sp,512
     39e:	f300                	fsw	fs0,32(a4)
     3a0:	5a01                	li	s4,-32
     3a2:	889f 0000 9000      	0x90000000889f
     3a8:	0000                	unimp
     3aa:	0100                	addi	s0,sp,128
     3ac:	5a00                	lw	s0,48(a2)
     3ae:	0090                	addi	a2,sp,64
     3b0:	0000                	unimp
     3b2:	00c0                	addi	s0,sp,68
     3b4:	0000                	unimp
     3b6:	0004                	addi	s1,sp,0
     3b8:	9f5a01f3          	0x9f5a01f3
     3bc:	00c0                	addi	s0,sp,68
     3be:	0000                	unimp
     3c0:	00fc                	addi	a5,sp,76
     3c2:	0000                	unimp
     3c4:	0001                	nop
     3c6:	fc5a                	fsw	fs6,56(sp)
     3c8:	0000                	unimp
     3ca:	0800                	addi	s0,sp,16
     3cc:	0001                	nop
     3ce:	0400                	addi	s0,sp,512
     3d0:	f300                	fsw	fs0,32(a4)
     3d2:	5a01                	li	s4,-32
     3d4:	009f 0000 0000      	0x9f
     3da:	0000                	unimp
     3dc:	2400                	fld	fs0,8(s0)
     3de:	0000                	unimp
     3e0:	2c00                	fld	fs0,24(s0)
     3e2:	0000                	unimp
     3e4:	0100                	addi	s0,sp,128
     3e6:	5b00                	lw	s0,48(a4)
     3e8:	002c                	addi	a1,sp,8
     3ea:	0000                	unimp
     3ec:	0034                	addi	a3,sp,8
     3ee:	0000                	unimp
     3f0:	757b0003          	lb	zero,1879(s6)
     3f4:	349f 0000 0800      	0x8000000349f
     3fa:	0001                	nop
     3fc:	0400                	addi	s0,sp,512
     3fe:	f300                	fsw	fs0,32(a4)
     400:	5b01                	li	s6,-32
     402:	009f 0000 0000      	0x9f
     408:	0000                	unimp
     40a:	2400                	fld	fs0,8(s0)
     40c:	0000                	unimp
     40e:	2c00                	fld	fs0,24(s0)
     410:	0000                	unimp
     412:	0300                	addi	s0,sp,384
     414:	7b00                	flw	fs0,48(a4)
     416:	9f04                	0x9f04
     418:	002c                	addi	a1,sp,8
     41a:	0000                	unimp
     41c:	0034                	addi	a3,sp,8
     41e:	0000                	unimp
     420:	797b0003          	lb	zero,1943(s6)
     424:	349f 0000 0800      	0x8000000349f
     42a:	0001                	nop
     42c:	0600                	addi	s0,sp,768
     42e:	f300                	fsw	fs0,32(a4)
     430:	5b01                	li	s6,-32
     432:	009f0423          	sb	s1,8(t5) # 1a008 <__seq_start+0x1a008>
     436:	0000                	unimp
     438:	0000                	unimp
     43a:	0000                	unimp
     43c:	3400                	fld	fs0,40(s0)
     43e:	0000                	unimp
     440:	7700                	flw	fs0,40(a4)
     442:	0000                	unimp
     444:	0100                	addi	s0,sp,128
     446:	5b00                	lw	s0,48(a4)
     448:	00000077          	0x77
     44c:	0088                	addi	a0,sp,64
     44e:	0000                	unimp
     450:	0009                	c.addi	zero,2
     452:	235b01f3          	0x235b01f3
     456:	1af8090b          	p.lb	s2,431(a6!) # ffff81af <pulp__FC+0xffff81b0>
     45a:	889f 0000 a400      	0xa4000000889f
     460:	0000                	unimp
     462:	0100                	addi	s0,sp,128
     464:	5b00                	lw	s0,48(a4)
     466:	00a4                	addi	s1,sp,72
     468:	0000                	unimp
     46a:	00c0                	addi	s0,sp,68
     46c:	0000                	unimp
     46e:	0009                	c.addi	zero,2
     470:	235b01f3          	0x235b01f3
     474:	1af8090b          	p.lb	s2,431(a6!)
     478:	c09f 0000 ff00      	0xff000000c09f
     47e:	0000                	unimp
     480:	0100                	addi	s0,sp,128
     482:	5b00                	lw	s0,48(a4)
     484:	00ff                	0xff
     486:	0000                	unimp
     488:	0108                	addi	a0,sp,128
     48a:	0000                	unimp
     48c:	0009                	c.addi	zero,2
     48e:	235b01f3          	0x235b01f3
     492:	1af8090b          	p.lb	s2,431(a6!)
     496:	009f 0000 0000      	0x9f
     49c:	0000                	unimp
     49e:	3c00                	fld	fs0,56(s0)
     4a0:	0000                	unimp
     4a2:	6c00                	flw	fs0,24(s0)
     4a4:	0000                	unimp
     4a6:	0100                	addi	s0,sp,128
     4a8:	5b00                	lw	s0,48(a4)
     4aa:	0088                	addi	a0,sp,64
     4ac:	0000                	unimp
     4ae:	00a0                	addi	s0,sp,72
     4b0:	0000                	unimp
     4b2:	0001                	nop
     4b4:	0000c05b          	0xc05b
     4b8:	f400                	fsw	fs0,40(s0)
     4ba:	0000                	unimp
     4bc:	0100                	addi	s0,sp,128
     4be:	5b00                	lw	s0,48(a4)
	...
     4c8:	003c                	addi	a5,sp,8
     4ca:	0000                	unimp
     4cc:	006c                	addi	a1,sp,12
     4ce:	0000                	unimp
     4d0:	0001                	nop
     4d2:	885a                	mv	a6,s6
     4d4:	0000                	unimp
     4d6:	9000                	0x9000
     4d8:	0000                	unimp
     4da:	0100                	addi	s0,sp,128
     4dc:	5a00                	lw	s0,48(a2)
     4de:	0090                	addi	a2,sp,64
     4e0:	0000                	unimp
     4e2:	00a0                	addi	s0,sp,72
     4e4:	0000                	unimp
     4e6:	0004                	addi	s1,sp,0
     4e8:	9f5a01f3          	0x9f5a01f3
     4ec:	00c0                	addi	s0,sp,68
     4ee:	0000                	unimp
     4f0:	00f4                	addi	a3,sp,76
     4f2:	0000                	unimp
     4f4:	0001                	nop
     4f6:	005a                	0x5a
     4f8:	0000                	unimp
     4fa:	0000                	unimp
     4fc:	0000                	unimp
     4fe:	4000                	lw	s0,0(s0)
     500:	0000                	unimp
     502:	5000                	lw	s0,32(s0)
     504:	0000                	unimp
     506:	0100                	addi	s0,sp,128
     508:	5c00                	lw	s0,56(s0)
     50a:	00c8                	addi	a0,sp,68
     50c:	0000                	unimp
     50e:	00f4                	addi	a3,sp,76
     510:	0000                	unimp
     512:	0001                	nop
     514:	005c                	addi	a5,sp,4
     516:	0000                	unimp
     518:	0000                	unimp
     51a:	0000                	unimp
     51c:	4000                	lw	s0,0(s0)
     51e:	0000                	unimp
     520:	5000                	lw	s0,32(s0)
     522:	0000                	unimp
     524:	0200                	addi	s0,sp,256
     526:	3000                	fld	fs0,32(s0)
     528:	c89f 0000 f400      	0xf4000000c89f
     52e:	0000                	unimp
     530:	0200                	addi	s0,sp,256
     532:	3000                	fld	fs0,32(s0)
     534:	009f 0000 0000      	0x9f
     53a:	0000                	unimp
     53c:	9000                	0x9000
     53e:	0000                	unimp
     540:	a000                	fsd	fs0,0(s0)
     542:	0000                	unimp
     544:	0100                	addi	s0,sp,128
     546:	5a00                	lw	s0,48(a2)
     548:	00d0                	addi	a2,sp,68
     54a:	0000                	unimp
     54c:	00e8                	addi	a0,sp,76
     54e:	0000                	unimp
     550:	0001                	nop
     552:	005d                	c.addi	zero,23
     554:	0000                	unimp
     556:	0000                	unimp
     558:	0000                	unimp
     55a:	f800                	fsw	fs0,48(s0)
     55c:	0001                	nop
     55e:	1800                	addi	s0,sp,48
     560:	0002                	0x2
     562:	0100                	addi	s0,sp,128
     564:	5a00                	lw	s0,48(a2)
     566:	0218                	addi	a4,sp,256
     568:	0000                	unimp
     56a:	021c                	addi	a5,sp,256
     56c:	0000                	unimp
     56e:	0004                	addi	s1,sp,0
     570:	9f5a01f3          	0x9f5a01f3
     574:	021c                	addi	a5,sp,256
     576:	0000                	unimp
     578:	025c                	addi	a5,sp,260
     57a:	0000                	unimp
     57c:	0001                	nop
     57e:	5c5a                	lw	s8,180(sp)
     580:	0002                	0x2
     582:	7800                	flw	fs0,48(s0)
     584:	0002                	0x2
     586:	0400                	addi	s0,sp,512
     588:	f300                	fsw	fs0,32(a4)
     58a:	5a01                	li	s4,-32
     58c:	789f 0002 ac00      	0xac000002789f
     592:	0002                	0x2
     594:	0100                	addi	s0,sp,128
     596:	5a00                	lw	s0,48(a2)
	...
     5a0:	01f8                	addi	a4,sp,204
     5a2:	0000                	unimp
     5a4:	0210                	addi	a2,sp,256
     5a6:	0000                	unimp
     5a8:	0001                	nop
     5aa:	0002105b          	0x2105b
     5ae:	1b00                	addi	s0,sp,432
     5b0:	0002                	0x2
     5b2:	0300                	addi	s0,sp,384
     5b4:	7d00                	flw	fs0,56(a0)
     5b6:	9f04                	0x9f04
     5b8:	0000021b          	0x21b
     5bc:	021c                	addi	a5,sp,256
     5be:	0000                	unimp
     5c0:	0004                	addi	s1,sp,0
     5c2:	9f5b01f3          	0x9f5b01f3
     5c6:	021c                	addi	a5,sp,256
     5c8:	0000                	unimp
     5ca:	0258                	addi	a4,sp,260
     5cc:	0000                	unimp
     5ce:	0001                	nop
     5d0:	0002585b          	0x2585b
     5d4:	7800                	flw	fs0,48(s0)
     5d6:	0002                	0x2
     5d8:	0300                	addi	s0,sp,384
     5da:	7d00                	flw	fs0,56(a0)
     5dc:	9f04                	0x9f04
     5de:	0278                	addi	a4,sp,268
     5e0:	0000                	unimp
     5e2:	02ac                	addi	a1,sp,328
     5e4:	0000                	unimp
     5e6:	0001                	nop
     5e8:	0000005b          	0x5b
     5ec:	0000                	unimp
     5ee:	0000                	unimp
     5f0:	0000                	unimp
     5f2:	0002                	0x2
     5f4:	1b00                	addi	s0,sp,432
     5f6:	0002                	0x2
     5f8:	0100                	addi	s0,sp,128
     5fa:	5d00                	lw	s0,56(a0)
     5fc:	0000021b          	0x21b
     600:	021c                	addi	a5,sp,256
     602:	0000                	unimp
     604:	0006                	0x6
     606:	345b01f3          	0x345b01f3
     60a:	9f1c                	0x9f1c
     60c:	021c                	addi	a5,sp,256
     60e:	0000                	unimp
     610:	02ac                	addi	a1,sp,328
     612:	0000                	unimp
     614:	0001                	nop
     616:	005d                	c.addi	zero,23
	...
     620:	0002                	0x2
     622:	1b00                	addi	s0,sp,432
     624:	0002                	0x2
     626:	0c00                	addi	s0,sp,528
     628:	7c00                	flw	fs0,56(s0)
     62a:	3800                	fld	fs0,48(s0)
     62c:	9f25                	0x9f25
     62e:	935c0493          	addi	s1,s8,-1739 # 17935 <__seq_start+0x17935>
     632:	9301                	srli	a4,a4,0x20
     634:	00021c03          	lh	s8,0(tp) # ffff9000 <pulp__FC+0xffff9001>
     638:	4000                	lw	s0,0(s0)
     63a:	0002                	0x2
     63c:	0c00                	addi	s0,sp,528
     63e:	7c00                	flw	fs0,56(s0)
     640:	3800                	fld	fs0,48(s0)
     642:	9f25                	0x9f25
     644:	935c0493          	addi	s1,s8,-1739
     648:	9301                	srli	a4,a4,0x20
     64a:	00024003          	lbu	zero,0(tp) # 0 <__seq_start>
     64e:	4c00                	lw	s0,24(s0)
     650:	0002                	0x2
     652:	0e00                	addi	s0,sp,784
     654:	7d00                	flw	fs0,56(a0)
     656:	0600                	addi	s0,sp,768
     658:	2538                	fld	fa4,72(a0)
     65a:	939f 7d04 9300      	0x93007d04939f
     660:	9301                	srli	a4,a4,0x20
     662:	00028003          	lb	zero,0(t0) # 4090f3a <__heap_end+0x3f90f3a>
     666:	9000                	0x9000
     668:	0002                	0x2
     66a:	0e00                	addi	s0,sp,784
     66c:	7d00                	flw	fs0,56(a0)
     66e:	0600                	addi	s0,sp,768
     670:	2538                	fld	fa4,72(a0)
     672:	939f 7d04 9300      	0x93007d04939f
     678:	9301                	srli	a4,a4,0x20
     67a:	00029803          	lh	a6,0(t0)
     67e:	ac00                	fsd	fs0,24(s0)
     680:	0002                	0x2
     682:	0c00                	addi	s0,sp,528
     684:	7c00                	flw	fs0,56(s0)
     686:	3800                	fld	fs0,48(s0)
     688:	9f25                	0x9f25
     68a:	935c0493          	addi	s1,s8,-1739
     68e:	9301                	srli	a4,a4,0x20
     690:	00000003          	lb	zero,0(zero) # 0 <__seq_start>
     694:	0000                	unimp
     696:	0000                	unimp
     698:	1c00                	addi	s0,sp,560
     69a:	0002                	0x2
     69c:	4000                	lw	s0,0(s0)
     69e:	0002                	0x2
     6a0:	0500                	addi	s0,sp,640
     6a2:	7c00                	flw	fs0,56(s0)
     6a4:	3800                	fld	fs0,48(s0)
     6a6:	9f25                	0x9f25
     6a8:	0240                	addi	s0,sp,260
     6aa:	0000                	unimp
     6ac:	024c                	addi	a1,sp,260
     6ae:	0000                	unimp
     6b0:	0006                	0x6
     6b2:	007d                	c.addi	zero,31
     6b4:	3806                	fld	fa6,96(sp)
     6b6:	9f25                	0x9f25
     6b8:	0280                	addi	s0,sp,320
     6ba:	0000                	unimp
     6bc:	0290                	addi	a2,sp,320
     6be:	0000                	unimp
     6c0:	0006                	0x6
     6c2:	007d                	c.addi	zero,31
     6c4:	3806                	fld	fa6,96(sp)
     6c6:	9f25                	0x9f25
     6c8:	0298                	addi	a4,sp,320
     6ca:	0000                	unimp
     6cc:	02ac                	addi	a1,sp,328
     6ce:	0000                	unimp
     6d0:	0005                	c.addi	zero,1
     6d2:	007c                	addi	a5,sp,12
     6d4:	2538                	fld	fa4,72(a0)
     6d6:	009f 0000 0000      	0x9f
     6dc:	0000                	unimp
     6de:	1c00                	addi	s0,sp,560
     6e0:	0002                	0x2
     6e2:	5c00                	lw	s0,56(s0)
     6e4:	0002                	0x2
     6e6:	0100                	addi	s0,sp,128
     6e8:	5a00                	lw	s0,48(a2)
     6ea:	025c                	addi	a5,sp,260
     6ec:	0000                	unimp
     6ee:	0278                	addi	a4,sp,268
     6f0:	0000                	unimp
     6f2:	0004                	addi	s1,sp,0
     6f4:	9f5a01f3          	0x9f5a01f3
     6f8:	0278                	addi	a4,sp,268
     6fa:	0000                	unimp
     6fc:	02ac                	addi	a1,sp,328
     6fe:	0000                	unimp
     700:	0001                	nop
     702:	005a                	0x5a
     704:	0000                	unimp
     706:	0000                	unimp
     708:	0000                	unimp
     70a:	2000                	fld	fs0,0(s0)
     70c:	0002                	0x2
     70e:	2c00                	fld	fs0,24(s0)
     710:	0002                	0x2
     712:	0100                	addi	s0,sp,128
     714:	5e00                	lw	s0,56(a2)
     716:	022c                	addi	a1,sp,264
     718:	0000                	unimp
     71a:	0234                	addi	a3,sp,264
     71c:	0000                	unimp
     71e:	0001                	nop
     720:	345f 0002 3800      	0x38000002345f
     726:	0002                	0x2
     728:	0100                	addi	s0,sp,128
     72a:	5e00                	lw	s0,56(a2)
     72c:	0238                	addi	a4,sp,264
     72e:	0000                	unimp
     730:	023c                	addi	a5,sp,264
     732:	0000                	unimp
     734:	0001                	nop
     736:	985f 0002 a800      	0xa8000002985f
     73c:	0002                	0x2
     73e:	0100                	addi	s0,sp,128
     740:	5e00                	lw	s0,56(a2)
     742:	02a8                	addi	a0,sp,328
     744:	0000                	unimp
     746:	02ac                	addi	a1,sp,328
     748:	0000                	unimp
     74a:	0002                	0x2
     74c:	007a                	0x7a
	...
     756:	0220                	addi	s0,sp,264
     758:	0000                	unimp
     75a:	022c                	addi	a1,sp,264
     75c:	0000                	unimp
     75e:	0002                	0x2
     760:	9f30                	0x9f30
     762:	022c                	addi	a1,sp,264
     764:	0000                	unimp
     766:	023c                	addi	a5,sp,264
     768:	0000                	unimp
     76a:	0001                	nop
     76c:	985e                	add	a6,a6,s7
     76e:	0002                	0x2
     770:	ac00                	fsd	fs0,24(s0)
     772:	0002                	0x2
     774:	0200                	addi	s0,sp,256
     776:	3000                	fld	fs0,32(s0)
     778:	009f 0000 0000      	0x9f
     77e:	0000                	unimp
     780:	2400                	fld	fs0,8(s0)
     782:	000d                	c.addi	zero,3
     784:	5400                	lw	s0,40(s0)
     786:	000d                	c.addi	zero,3
     788:	0100                	addi	s0,sp,128
     78a:	5a00                	lw	s0,48(a2)
     78c:	0d54                	addi	a3,sp,660
     78e:	0000                	unimp
     790:	00000d6b          	0xd6b
     794:	0002                	0x2
     796:	0d6b007b          	0xd6b007b
     79a:	0000                	unimp
     79c:	0d78                	addi	a4,sp,668
     79e:	0000                	unimp
     7a0:	0004                	addi	s1,sp,0
     7a2:	9f5a01f3          	0x9f5a01f3
	...
     7ae:	0d24                	addi	s1,sp,664
     7b0:	0000                	unimp
     7b2:	0d44                	addi	s1,sp,660
     7b4:	0000                	unimp
     7b6:	0001                	nop
     7b8:	000d445b          	0xd445b
     7bc:	6b00                	flw	fs0,16(a4)
     7be:	000d                	c.addi	zero,3
     7c0:	0200                	addi	s0,sp,256
     7c2:	9100                	0x9100
     7c4:	6b4c                	flw	fa1,20(a4)
     7c6:	000d                	c.addi	zero,3
     7c8:	7800                	flw	fs0,48(s0)
     7ca:	000d                	c.addi	zero,3
     7cc:	0400                	addi	s0,sp,512
     7ce:	f300                	fsw	fs0,32(a4)
     7d0:	5b01                	li	s6,-32
     7d2:	009f 0000 0000      	0x9f
     7d8:	0000                	unimp
     7da:	2400                	fld	fs0,8(s0)
     7dc:	000d                	c.addi	zero,3
     7de:	4c00                	lw	s0,24(s0)
     7e0:	000d                	c.addi	zero,3
     7e2:	0100                	addi	s0,sp,128
     7e4:	5c00                	lw	s0,56(s0)
     7e6:	0d4c                	addi	a1,sp,660
     7e8:	0000                	unimp
     7ea:	00000d6b          	0xd6b
     7ee:	0001                	nop
     7f0:	6b5d                	lui	s6,0x17
     7f2:	000d                	c.addi	zero,3
     7f4:	7800                	flw	fs0,48(s0)
     7f6:	000d                	c.addi	zero,3
     7f8:	0400                	addi	s0,sp,512
     7fa:	f300                	fsw	fs0,32(a4)
     7fc:	5c01                	li	s8,-32
     7fe:	009f 0000 0000      	0x9f
     804:	0000                	unimp
     806:	0800                	addi	s0,sp,16
     808:	000d                	c.addi	zero,3
     80a:	2000                	fld	fs0,0(s0)
     80c:	000d                	c.addi	zero,3
     80e:	0100                	addi	s0,sp,128
     810:	5a00                	lw	s0,48(a2)
     812:	0d20                	addi	s0,sp,664
     814:	0000                	unimp
     816:	00000d23          	sb	zero,26(zero) # 1a <__seq_start+0x1a>
     81a:	0001                	nop
     81c:	000d235b          	0xd235b
     820:	2400                	fld	fs0,8(s0)
     822:	000d                	c.addi	zero,3
     824:	0400                	addi	s0,sp,512
     826:	f300                	fsw	fs0,32(a4)
     828:	5a01                	li	s4,-32
     82a:	009f 0000 0000      	0x9f
     830:	0000                	unimp
     832:	0800                	addi	s0,sp,16
     834:	000d                	c.addi	zero,3
     836:	1800                	addi	s0,sp,48
     838:	000d                	c.addi	zero,3
     83a:	0100                	addi	s0,sp,128
     83c:	5b00                	lw	s0,48(a4)
     83e:	0d18                	addi	a4,sp,656
     840:	0000                	unimp
     842:	00000d23          	sb	zero,26(zero) # 1a <__seq_start+0x1a>
     846:	0001                	nop
     848:	235c                	fld	fa5,128(a4)
     84a:	000d                	c.addi	zero,3
     84c:	2400                	fld	fs0,8(s0)
     84e:	000d                	c.addi	zero,3
     850:	0400                	addi	s0,sp,512
     852:	f300                	fsw	fs0,32(a4)
     854:	5b01                	li	s6,-32
     856:	009f 0000 0000      	0x9f
     85c:	0000                	unimp
     85e:	0800                	addi	s0,sp,16
     860:	000d                	c.addi	zero,3
     862:	1400                	addi	s0,sp,544
     864:	000d                	c.addi	zero,3
     866:	0100                	addi	s0,sp,128
     868:	5c00                	lw	s0,56(s0)
     86a:	0d14                	addi	a3,sp,656
     86c:	0000                	unimp
     86e:	00000d23          	sb	zero,26(zero) # 1a <__seq_start+0x1a>
     872:	0001                	nop
     874:	235d                	jal	e1a <__seq_start+0xe1a>
     876:	000d                	c.addi	zero,3
     878:	2400                	fld	fs0,8(s0)
     87a:	000d                	c.addi	zero,3
     87c:	0400                	addi	s0,sp,512
     87e:	f300                	fsw	fs0,32(a4)
     880:	5c01                	li	s8,-32
     882:	009f 0000 0000      	0x9f
     888:	0000                	unimp
     88a:	0800                	addi	s0,sp,16
     88c:	000d                	c.addi	zero,3
     88e:	1000                	addi	s0,sp,32
     890:	000d                	c.addi	zero,3
     892:	0100                	addi	s0,sp,128
     894:	5d00                	lw	s0,56(a0)
     896:	0d10                	addi	a2,sp,656
     898:	0000                	unimp
     89a:	00000d23          	sb	zero,26(zero) # 1a <__seq_start+0x1a>
     89e:	0001                	nop
     8a0:	235e                	fld	ft6,464(sp)
     8a2:	000d                	c.addi	zero,3
     8a4:	2400                	fld	fs0,8(s0)
     8a6:	000d                	c.addi	zero,3
     8a8:	0400                	addi	s0,sp,512
     8aa:	f300                	fsw	fs0,32(a4)
     8ac:	5d01                	li	s10,-32
     8ae:	009f 0000 0000      	0x9f
     8b4:	0000                	unimp
     8b6:	bc00                	fsd	fs0,56(s0)
     8b8:	000c                	addi	a1,sp,0
     8ba:	e400                	fsw	fs0,8(s0)
     8bc:	000c                	addi	a1,sp,0
     8be:	0100                	addi	s0,sp,128
     8c0:	5a00                	lw	s0,48(a2)
     8c2:	0ce4                	addi	s1,sp,604
     8c4:	0000                	unimp
     8c6:	00000cfb          	0xcfb
     8ca:	0001                	nop
     8cc:	000cfb5b          	0xcfb5b
     8d0:	0800                	addi	s0,sp,16
     8d2:	000d                	c.addi	zero,3
     8d4:	0400                	addi	s0,sp,512
     8d6:	f300                	fsw	fs0,32(a4)
     8d8:	5a01                	li	s4,-32
     8da:	009f 0000 0000      	0x9f
     8e0:	0000                	unimp
     8e2:	bc00                	fsd	fs0,56(s0)
     8e4:	000c                	addi	a1,sp,0
     8e6:	dc00                	sw	s0,56(s0)
     8e8:	000c                	addi	a1,sp,0
     8ea:	0100                	addi	s0,sp,128
     8ec:	5b00                	lw	s0,48(a4)
     8ee:	0cdc                	addi	a5,sp,596
     8f0:	0000                	unimp
     8f2:	00000cfb          	0xcfb
     8f6:	0001                	nop
     8f8:	fb5c                	fsw	fa5,52(a4)
     8fa:	000c                	addi	a1,sp,0
     8fc:	0800                	addi	s0,sp,16
     8fe:	000d                	c.addi	zero,3
     900:	0400                	addi	s0,sp,512
     902:	f300                	fsw	fs0,32(a4)
     904:	5b01                	li	s6,-32
     906:	009f 0000 0000      	0x9f
     90c:	0000                	unimp
     90e:	bc00                	fsd	fs0,56(s0)
     910:	000c                	addi	a1,sp,0
     912:	d800                	sw	s0,48(s0)
     914:	000c                	addi	a1,sp,0
     916:	0100                	addi	s0,sp,128
     918:	5c00                	lw	s0,56(s0)
     91a:	0cd8                	addi	a4,sp,596
     91c:	0000                	unimp
     91e:	00000cfb          	0xcfb
     922:	0001                	nop
     924:	fb5d                	bnez	a4,8da <__seq_start+0x8da>
     926:	000c                	addi	a1,sp,0
     928:	0800                	addi	s0,sp,16
     92a:	000d                	c.addi	zero,3
     92c:	0400                	addi	s0,sp,512
     92e:	f300                	fsw	fs0,32(a4)
     930:	5c01                	li	s8,-32
     932:	009f 0000 0000      	0x9f
     938:	0000                	unimp
     93a:	6c00                	flw	fs0,24(s0)
     93c:	000c                	addi	a1,sp,0
     93e:	9800                	0x9800
     940:	000c                	addi	a1,sp,0
     942:	0100                	addi	s0,sp,128
     944:	5a00                	lw	s0,48(a2)
     946:	0c98                	addi	a4,sp,592
     948:	0000                	unimp
     94a:	00000caf          	0xcaf
     94e:	0001                	nop
     950:	000caf5b          	0xcaf5b
     954:	bc00                	fsd	fs0,56(s0)
     956:	000c                	addi	a1,sp,0
     958:	0400                	addi	s0,sp,512
     95a:	f300                	fsw	fs0,32(a4)
     95c:	5a01                	li	s4,-32
     95e:	009f 0000 0000      	0x9f
     964:	0000                	unimp
     966:	6c00                	flw	fs0,24(s0)
     968:	000c                	addi	a1,sp,0
     96a:	8c00                	0x8c00
     96c:	000c                	addi	a1,sp,0
     96e:	0100                	addi	s0,sp,128
     970:	5b00                	lw	s0,48(a4)
     972:	0c8c                	addi	a1,sp,592
     974:	0000                	unimp
     976:	00000caf          	0xcaf
     97a:	0001                	nop
     97c:	af5d                	j	1132 <__seq_start+0x1132>
     97e:	000c                	addi	a1,sp,0
     980:	bc00                	fsd	fs0,56(s0)
     982:	000c                	addi	a1,sp,0
     984:	0400                	addi	s0,sp,512
     986:	f300                	fsw	fs0,32(a4)
     988:	5b01                	li	s6,-32
     98a:	009f 0000 0000      	0x9f
     990:	0000                	unimp
     992:	1800                	addi	s0,sp,48
     994:	000c                	addi	a1,sp,0
     996:	4800                	lw	s0,16(s0)
     998:	000c                	addi	a1,sp,0
     99a:	0100                	addi	s0,sp,128
     99c:	5a00                	lw	s0,48(a2)
     99e:	0c48                	addi	a0,sp,532
     9a0:	0000                	unimp
     9a2:	0c5f 0000 0001      	0x100000c5f
     9a8:	5f5d                	li	t5,-9
     9aa:	000c                	addi	a1,sp,0
     9ac:	6c00                	flw	fs0,24(s0)
     9ae:	000c                	addi	a1,sp,0
     9b0:	0400                	addi	s0,sp,512
     9b2:	f300                	fsw	fs0,32(a4)
     9b4:	5a01                	li	s4,-32
     9b6:	009f 0000 0000      	0x9f
     9bc:	0000                	unimp
     9be:	8400                	0x8400
     9c0:	0004                	addi	s1,sp,0
     9c2:	e800                	fsw	fs0,16(s0)
     9c4:	0004                	addi	s1,sp,0
     9c6:	0100                	addi	s0,sp,128
     9c8:	5a00                	lw	s0,48(a2)
     9ca:	0668                	addi	a0,sp,780
     9cc:	0000                	unimp
     9ce:	0674                	addi	a3,sp,780
     9d0:	0000                	unimp
     9d2:	0001                	nop
     9d4:	005a                	0x5a
     9d6:	0000                	unimp
     9d8:	0000                	unimp
     9da:	0000                	unimp
     9dc:	8400                	0x8400
     9de:	0004                	addi	s1,sp,0
     9e0:	e800                	fsw	fs0,16(s0)
     9e2:	0004                	addi	s1,sp,0
     9e4:	0100                	addi	s0,sp,128
     9e6:	5b00                	lw	s0,48(a4)
     9e8:	04e8                	addi	a0,sp,588
     9ea:	0000                	unimp
     9ec:	053c                	addi	a5,sp,648
     9ee:	0000                	unimp
     9f0:	0001                	nop
     9f2:	3c59                	jal	488 <__seq_start+0x488>
     9f4:	0005                	c.addi	zero,1
     9f6:	6c00                	flw	fs0,24(s0)
     9f8:	0005                	c.addi	zero,1
     9fa:	0400                	addi	s0,sp,512
     9fc:	f300                	fsw	fs0,32(a4)
     9fe:	5b01                	li	s6,-32
     a00:	6c9f 0005 0c00      	0xc0000056c9f
     a06:	000c                	addi	a1,sp,0
     a08:	0100                	addi	s0,sp,128
     a0a:	5900                	lw	s0,48(a0)
	...
     a14:	0484                	addi	s1,sp,576
     a16:	0000                	unimp
     a18:	04e8                	addi	a0,sp,588
     a1a:	0000                	unimp
     a1c:	0001                	nop
     a1e:	e85c                	fsw	fa5,20(s0)
     a20:	0004                	addi	s1,sp,0
     a22:	3400                	fld	fs0,40(s0)
     a24:	0005                	c.addi	zero,1
     a26:	0100                	addi	s0,sp,128
     a28:	5800                	lw	s0,48(s0)
     a2a:	0534                	addi	a3,sp,648
     a2c:	0000                	unimp
     a2e:	056c                	addi	a1,sp,652
     a30:	0000                	unimp
     a32:	0004                	addi	s1,sp,0
     a34:	9f5c01f3          	0x9f5c01f3
     a38:	056c                	addi	a1,sp,652
     a3a:	0000                	unimp
     a3c:	0c0c                	addi	a1,sp,528
     a3e:	0000                	unimp
     a40:	0001                	nop
     a42:	0058                	addi	a4,sp,4
     a44:	0000                	unimp
     a46:	0000                	unimp
     a48:	0000                	unimp
     a4a:	8400                	0x8400
     a4c:	0004                	addi	s1,sp,0
     a4e:	e800                	fsw	fs0,16(s0)
     a50:	0004                	addi	s1,sp,0
     a52:	0100                	addi	s0,sp,128
     a54:	5d00                	lw	s0,56(a0)
     a56:	04e8                	addi	a0,sp,588
     a58:	0000                	unimp
     a5a:	04f0                	addi	a2,sp,588
     a5c:	0000                	unimp
     a5e:	0001                	nop
     a60:	f068                	fsw	fa0,100(s0)
     a62:	0004                	addi	s1,sp,0
     a64:	f400                	fsw	fs0,40(s0)
     a66:	0004                	addi	s1,sp,0
     a68:	0300                	addi	s0,sp,384
     a6a:	8800                	0x8800
     a6c:	9f01                	0x9f01
     a6e:	04f4                	addi	a3,sp,588
     a70:	0000                	unimp
     a72:	04f8                	addi	a4,sp,588
     a74:	0000                	unimp
     a76:	0001                	nop
     a78:	1068                	addi	a0,sp,44
     a7a:	0005                	c.addi	zero,1
     a7c:	5800                	lw	s0,48(s0)
     a7e:	0005                	c.addi	zero,1
     a80:	0100                	addi	s0,sp,128
     a82:	6800                	flw	fs0,16(s0)
     a84:	056c                	addi	a1,sp,652
     a86:	0000                	unimp
     a88:	05a4                	addi	s1,sp,712
     a8a:	0000                	unimp
     a8c:	0001                	nop
     a8e:	a468                	fsd	fa0,200(s0)
     a90:	0005                	c.addi	zero,1
     a92:	a800                	fsd	fs0,16(s0)
     a94:	0005                	c.addi	zero,1
     a96:	0300                	addi	s0,sp,384
     a98:	7e00                	flw	fs0,56(a2)
     a9a:	9f01                	0x9f01
     a9c:	05a8                	addi	a0,sp,712
     a9e:	0000                	unimp
     aa0:	05ac                	addi	a1,sp,712
     aa2:	0000                	unimp
     aa4:	0001                	nop
     aa6:	ac5e                	fsd	fs7,24(sp)
     aa8:	0005                	c.addi	zero,1
     aaa:	e800                	fsw	fs0,16(s0)
     aac:	0005                	c.addi	zero,1
     aae:	0100                	addi	s0,sp,128
     ab0:	6800                	flw	fs0,16(s0)
     ab2:	060c                	addi	a1,sp,768
     ab4:	0000                	unimp
     ab6:	0610                	addi	a2,sp,768
     ab8:	0000                	unimp
     aba:	027c0003          	lb	zero,39(s8)
     abe:	389f 0006 3c00      	0x3c000006389f
     ac4:	0006                	0x6
     ac6:	0100                	addi	s0,sp,128
     ac8:	6800                	flw	fs0,16(s0)
     aca:	063c                	addi	a5,sp,776
     acc:	0000                	unimp
     ace:	0644                	addi	s1,sp,772
     ad0:	0000                	unimp
     ad2:	017e0003          	lb	zero,23(t3) # 1a017 <__seq_start+0x1a017>
     ad6:	449f 0006 4800      	0x48000006449f
     adc:	0006                	0x6
     ade:	0100                	addi	s0,sp,128
     ae0:	6800                	flw	fs0,16(s0)
     ae2:	0648                	addi	a0,sp,772
     ae4:	0000                	unimp
     ae6:	0650                	addi	a2,sp,772
     ae8:	0000                	unimp
     aea:	017e0003          	lb	zero,23(t3)
     aee:	509f 0006 5400      	0x54000006509f
     af4:	0006                	0x6
     af6:	0100                	addi	s0,sp,128
     af8:	6800                	flw	fs0,16(s0)
     afa:	0654                	addi	a3,sp,772
     afc:	0000                	unimp
     afe:	065c                	addi	a5,sp,772
     b00:	0000                	unimp
     b02:	017e0003          	lb	zero,23(t3)
     b06:	5c9f 0006 6000      	0x600000065c9f
     b0c:	0006                	0x6
     b0e:	0100                	addi	s0,sp,128
     b10:	6800                	flw	fs0,16(s0)
     b12:	0660                	addi	s0,sp,780
     b14:	0000                	unimp
     b16:	0668                	addi	a0,sp,780
     b18:	0000                	unimp
     b1a:	017e0003          	lb	zero,23(t3)
     b1e:	689f 0006 7400      	0x74000006689f
     b24:	0006                	0x6
     b26:	0100                	addi	s0,sp,128
     b28:	5d00                	lw	s0,56(a0)
     b2a:	0684                	addi	s1,sp,832
     b2c:	0000                	unimp
     b2e:	0688                	addi	a0,sp,832
     b30:	0000                	unimp
     b32:	05880003          	lb	zero,88(a6)
     b36:	889f 0006 8c00      	0x8c000006889f
     b3c:	0006                	0x6
     b3e:	0300                	addi	s0,sp,384
     b40:	8800                	0x8800
     b42:	9f02                	jalr	t5
     b44:	084c                	addi	a1,sp,20
     b46:	0000                	unimp
     b48:	0850                	addi	a2,sp,20
     b4a:	0000                	unimp
     b4c:	0001                	nop
     b4e:	5068                	lw	a0,100(s0)
     b50:	0008                	addi	a0,sp,0
     b52:	6c00                	flw	fs0,24(s0)
     b54:	0008                	addi	a0,sp,0
     b56:	0300                	addi	s0,sp,384
     b58:	7e00                	flw	fs0,56(a2)
     b5a:	9f7f                	0x9f7f
     b5c:	086c                	addi	a1,sp,28
     b5e:	0000                	unimp
     b60:	0874                	addi	a3,sp,28
     b62:	0000                	unimp
     b64:	0001                	nop
     b66:	745e                	flw	fs0,244(sp)
     b68:	0008                	addi	a0,sp,0
     b6a:	9800                	0x9800
     b6c:	0008                	addi	a0,sp,0
     b6e:	0100                	addi	s0,sp,128
     b70:	6800                	flw	fs0,16(s0)
     b72:	0898                	addi	a4,sp,80
     b74:	0000                	unimp
     b76:	08ac                	addi	a1,sp,88
     b78:	0000                	unimp
     b7a:	01880003          	lb	zero,24(a6)
     b7e:	ac9f 0008 b800      	0xb8000008ac9f
     b84:	0008                	addi	a0,sp,0
     b86:	0300                	addi	s0,sp,384
     b88:	7c00                	flw	fs0,56(s0)
     b8a:	9f01                	0x9f01
     b8c:	08b8                	addi	a4,sp,88
     b8e:	0000                	unimp
     b90:	08bc                	addi	a5,sp,88
     b92:	0000                	unimp
     b94:	01880003          	lb	zero,24(a6)
     b98:	d09f 0008 d400      	0xd4000008d09f
     b9e:	0008                	addi	a0,sp,0
     ba0:	0300                	addi	s0,sp,384
     ba2:	7c00                	flw	fs0,56(s0)
     ba4:	9f02                	jalr	t5
     ba6:	08d4                	addi	a3,sp,84
     ba8:	0000                	unimp
     baa:	08d8                	addi	a4,sp,84
     bac:	0000                	unimp
     bae:	01880003          	lb	zero,24(a6)
     bb2:	d89f 0008 e800      	0xe8000008d89f
     bb8:	0008                	addi	a0,sp,0
     bba:	0100                	addi	s0,sp,128
     bbc:	6800                	flw	fs0,16(s0)
     bbe:	08e8                	addi	a0,sp,92
     bc0:	0000                	unimp
     bc2:	08f0                	addi	a2,sp,92
     bc4:	0000                	unimp
     bc6:	01880003          	lb	zero,24(a6)
     bca:	f09f 0008 f800      	0xf8000008f09f
     bd0:	0008                	addi	a0,sp,0
     bd2:	0300                	addi	s0,sp,384
     bd4:	7e00                	flw	fs0,56(a2)
     bd6:	9f01                	0x9f01
     bd8:	0900                	addi	s0,sp,144
     bda:	0000                	unimp
     bdc:	0904                	addi	s1,sp,144
     bde:	0000                	unimp
     be0:	027c0003          	lb	zero,39(s8)
     be4:	049f 0009 0800      	0x8000009049f
     bea:	0009                	c.addi	zero,2
     bec:	0300                	addi	s0,sp,384
     bee:	8800                	0x8800
     bf0:	9f01                	0x9f01
     bf2:	0908                	addi	a0,sp,144
     bf4:	0000                	unimp
     bf6:	0910                	addi	a2,sp,144
     bf8:	0000                	unimp
     bfa:	0001                	nop
     bfc:	105c                	addi	a5,sp,36
     bfe:	0009                	c.addi	zero,2
     c00:	1800                	addi	s0,sp,48
     c02:	0009                	c.addi	zero,2
     c04:	0300                	addi	s0,sp,384
     c06:	8800                	0x8800
     c08:	9f01                	0x9f01
     c0a:	0918                	addi	a4,sp,144
     c0c:	0000                	unimp
     c0e:	0934                	addi	a3,sp,152
     c10:	0000                	unimp
     c12:	7f7e0003          	lb	zero,2039(t3)
     c16:	349f 0009 3c00      	0x3c000009349f
     c1c:	0009                	c.addi	zero,2
     c1e:	0100                	addi	s0,sp,128
     c20:	5e00                	lw	s0,56(a2)
     c22:	093c                	addi	a5,sp,152
     c24:	0000                	unimp
     c26:	0950                	addi	a2,sp,148
     c28:	0000                	unimp
     c2a:	0001                	nop
     c2c:	0468                	addi	a0,sp,524
     c2e:	000a                	0xa
     c30:	1000                	addi	s0,sp,32
     c32:	000a                	0xa
     c34:	0100                	addi	s0,sp,128
     c36:	6800                	flw	fs0,16(s0)
     c38:	0a10                	addi	a2,sp,272
     c3a:	0000                	unimp
     c3c:	0a24                	addi	s1,sp,280
     c3e:	0000                	unimp
     c40:	01880003          	lb	zero,24(a6)
     c44:	249f 000a 2800      	0x2800000a249f
     c4a:	000a                	0xa
     c4c:	0300                	addi	s0,sp,384
     c4e:	8800                	0x8800
     c50:	9f7f                	0x9f7f
     c52:	0a34                	addi	a3,sp,280
     c54:	0000                	unimp
     c56:	0a38                	addi	a4,sp,280
     c58:	0000                	unimp
     c5a:	05880003          	lb	zero,88(a6)
     c5e:	389f 000a 3c00      	0x3c00000a389f
     c64:	000a                	0xa
     c66:	0300                	addi	s0,sp,384
     c68:	8800                	0x8800
     c6a:	9f02                	jalr	t5
	...
     c74:	0484                	addi	s1,sp,576
     c76:	0000                	unimp
     c78:	04e8                	addi	a0,sp,588
     c7a:	0000                	unimp
     c7c:	0001                	nop
     c7e:	e85e                	fsw	fs7,16(sp)
     c80:	0004                	addi	s1,sp,0
     c82:	6400                	flw	fs0,8(s0)
     c84:	0005                	c.addi	zero,1
     c86:	0100                	addi	s0,sp,128
     c88:	6b00                	flw	fs0,16(a4)
     c8a:	056c                	addi	a1,sp,652
     c8c:	0000                	unimp
     c8e:	0668                	addi	a0,sp,780
     c90:	0000                	unimp
     c92:	0001                	nop
     c94:	0006686b          	0x6686b
     c98:	7400                	flw	fs0,40(s0)
     c9a:	0006                	0x6
     c9c:	0100                	addi	s0,sp,128
     c9e:	5e00                	lw	s0,56(a2)
     ca0:	0674                	addi	a3,sp,780
     ca2:	0000                	unimp
     ca4:	0694                	addi	a3,sp,832
     ca6:	0000                	unimp
     ca8:	0001                	nop
     caa:	0006946b          	0x6946b
     cae:	9800                	0x9800
     cb0:	0006                	0x6
     cb2:	0300                	addi	s0,sp,384
     cb4:	8b00                	0x8b00
     cb6:	9f7c                	0x9f7c
     cb8:	0698                	addi	a4,sp,832
     cba:	0000                	unimp
     cbc:	06b0                	addi	a2,sp,840
     cbe:	0000                	unimp
     cc0:	0001                	nop
     cc2:	0006b06b          	0x6b06b
     cc6:	2400                	fld	fs0,8(s0)
     cc8:	03000007          	0x3000007
     ccc:	9100                	0x9100
     cce:	7fbc                	flw	fa5,120(a5)
     cd0:	0724                	addi	s1,sp,904
     cd2:	0000                	unimp
     cd4:	0778                	addi	a4,sp,908
     cd6:	0000                	unimp
     cd8:	0001                	nop
     cda:	0007786b          	0x7786b
     cde:	8b00                	0x8b00
     ce0:	01000007          	0x1000007
     ce4:	5e00                	lw	s0,56(a2)
     ce6:	0000078b          	p.lb	a5,0(zero!) # 0 <__seq_start>
     cea:	07c4                	addi	s1,sp,964
     cec:	0000                	unimp
     cee:	b8910003          	lb	zero,-1143(sp)
     cf2:	c47f                	0xc47f
     cf4:	18000007          	0x18000007
     cf8:	0008                	addi	a0,sp,0
     cfa:	0100                	addi	s0,sp,128
     cfc:	6b00                	flw	fs0,16(a4)
     cfe:	0818                	addi	a4,sp,16
     d00:	0000                	unimp
     d02:	0830                	addi	a2,sp,24
     d04:	0000                	unimp
     d06:	0001                	nop
     d08:	00083063          	p.bneimm	a6,0,d08 <__seq_start+0xd08>
     d0c:	5c00                	lw	s0,56(s0)
     d0e:	0009                	c.addi	zero,2
     d10:	0100                	addi	s0,sp,128
     d12:	6b00                	flw	fs0,16(a4)
     d14:	095c                	addi	a5,sp,148
     d16:	0000                	unimp
     d18:	0990                	addi	a2,sp,208
     d1a:	0000                	unimp
     d1c:	bc910003          	lb	zero,-1079(sp)
     d20:	907f                	0x907f
     d22:	0009                	c.addi	zero,2
     d24:	d400                	sw	s0,40(s0)
     d26:	0009                	c.addi	zero,2
     d28:	0100                	addi	s0,sp,128
     d2a:	6b00                	flw	fs0,16(a4)
     d2c:	09d4                	addi	a3,sp,212
     d2e:	0000                	unimp
     d30:	09d8                	addi	a4,sp,212
     d32:	0000                	unimp
     d34:	0001                	nop
     d36:	000a0463          	beqz	s4,d3e <__seq_start+0xd3e>
     d3a:	1000                	addi	s0,sp,32
     d3c:	000a                	0xa
     d3e:	0100                	addi	s0,sp,128
     d40:	6b00                	flw	fs0,16(a4)
     d42:	0a10                	addi	a2,sp,272
     d44:	0000                	unimp
     d46:	0a20                	addi	s0,sp,280
     d48:	0000                	unimp
     d4a:	048b0003          	lb	zero,72(s6) # 17048 <__seq_start+0x17048>
     d4e:	209f 000a 5000      	0x5000000a209f
     d54:	000a                	0xa
     d56:	0100                	addi	s0,sp,128
     d58:	6b00                	flw	fs0,16(a4)
     d5a:	0a50                	addi	a2,sp,276
     d5c:	0000                	unimp
     d5e:	0a9c                	addi	a5,sp,336
     d60:	0000                	unimp
     d62:	bc910003          	lb	zero,-1079(sp)
     d66:	9c7f                	0x9c7f
     d68:	000a                	0xa
     d6a:	d800                	sw	s0,48(s0)
     d6c:	000a                	0xa
     d6e:	0100                	addi	s0,sp,128
     d70:	6b00                	flw	fs0,16(a4)
     d72:	0ad8                	addi	a4,sp,340
     d74:	0000                	unimp
     d76:	0aec                	addi	a1,sp,348
     d78:	0000                	unimp
     d7a:	048b0003          	lb	zero,72(s6)
     d7e:	ec9f 000a f400      	0xf400000aec9f
     d84:	000a                	0xa
     d86:	0300                	addi	s0,sp,384
     d88:	9100                	0x9100
     d8a:	7fb8                	flw	fa4,120(a5)
     d8c:	0af4                	addi	a3,sp,348
     d8e:	0000                	unimp
     d90:	0b28                	addi	a0,sp,408
     d92:	0000                	unimp
     d94:	0001                	nop
     d96:	000b286b          	0xb286b
     d9a:	6000                	flw	fs0,0(s0)
     d9c:	0300000b          	p.lb	zero,48(zero!) # 30 <__seq_start+0x30>
     da0:	9100                	0x9100
     da2:	7fbc                	flw	fa5,120(a5)
     da4:	0b60                	addi	s0,sp,412
     da6:	0000                	unimp
     da8:	0b68                	addi	a0,sp,412
     daa:	0000                	unimp
     dac:	048b0003          	lb	zero,72(s6)
     db0:	689f 000b 7800      	0x7800000b689f
     db6:	0100000b          	p.lb	zero,16(zero!) # 10 <__seq_start+0x10>
     dba:	6b00                	flw	fs0,16(a4)
     dbc:	0b78                	addi	a4,sp,412
     dbe:	0000                	unimp
     dc0:	0ba0                	addi	s0,sp,472
     dc2:	0000                	unimp
     dc4:	048b0003          	lb	zero,72(s6)
     dc8:	a09f 000b b400      	0xb400000ba09f
     dce:	0100000b          	p.lb	zero,16(zero!) # 10 <__seq_start+0x10>
     dd2:	6300                	flw	fs0,0(a4)
     dd4:	0bb4                	addi	a3,sp,472
     dd6:	0000                	unimp
     dd8:	0bc4                	addi	s1,sp,468
     dda:	0000                	unimp
     ddc:	0001                	nop
     dde:	000bc46b          	0xbc46b
     de2:	d800                	sw	s0,48(s0)
     de4:	0300000b          	p.lb	zero,48(zero!) # 30 <__seq_start+0x30>
     de8:	8b00                	0x8b00
     dea:	9f04                	0x9f04
     dec:	0bd8                	addi	a4,sp,468
     dee:	0000                	unimp
     df0:	0bdc                	addi	a5,sp,468
     df2:	0000                	unimp
     df4:	0001                	nop
     df6:	000bdc6b          	0xbdc6b
     dfa:	e000                	fsw	fs0,0(s0)
     dfc:	0300000b          	p.lb	zero,48(zero!) # 30 <__seq_start+0x30>
     e00:	9100                	0x9100
     e02:	7fbc                	flw	fa5,120(a5)
     e04:	0be0                	addi	s0,sp,476
     e06:	0000                	unimp
     e08:	0bec                	addi	a1,sp,476
     e0a:	0000                	unimp
     e0c:	0001                	nop
     e0e:	000bec6b          	0xbec6b
     e12:	f800                	fsw	fs0,48(s0)
     e14:	0300000b          	p.lb	zero,48(zero!) # 30 <__seq_start+0x30>
     e18:	9100                	0x9100
     e1a:	7fbc                	flw	fa5,120(a5)
     e1c:	0bf8                	addi	a4,sp,476
     e1e:	0000                	unimp
     e20:	0c00                	addi	s0,sp,528
     e22:	0000                	unimp
     e24:	048b0003          	lb	zero,72(s6)
     e28:	009f 000c 0c00      	0xc00000c009f
     e2e:	000c                	addi	a1,sp,0
     e30:	0100                	addi	s0,sp,128
     e32:	6b00                	flw	fs0,16(a4)
	...
     e3c:	0580                	addi	s0,sp,704
     e3e:	0000                	unimp
     e40:	0608                	addi	a0,sp,768
     e42:	0000                	unimp
     e44:	0001                	nop
     e46:	0c5d                	addi	s8,s8,23
     e48:	0006                	0x6
     e4a:	6800                	flw	fs0,16(s0)
     e4c:	0006                	0x6
     e4e:	0100                	addi	s0,sp,128
     e50:	5d00                	lw	s0,56(a0)
     e52:	0674                	addi	a3,sp,780
     e54:	0000                	unimp
     e56:	0684                	addi	s1,sp,832
     e58:	0000                	unimp
     e5a:	007d0007          	0x7d0007
     e5e:	000a                	0xa
     e60:	2101                	jal	1260 <__seq_start+0x1260>
     e62:	849f 0006 ec00      	0xec000006849f
     e68:	0006                	0x6
     e6a:	0100                	addi	s0,sp,128
     e6c:	5d00                	lw	s0,56(a0)
     e6e:	0724                	addi	s1,sp,904
     e70:	0000                	unimp
     e72:	072c                	addi	a1,sp,904
     e74:	0000                	unimp
     e76:	0006                	0x6
     e78:	007d                	c.addi	zero,31
     e7a:	2108                	fld	fa0,0(a0)
     e7c:	9f21                	0x9f21
     e7e:	072c                	addi	a1,sp,904
     e80:	0000                	unimp
     e82:	0748                	addi	a0,sp,900
     e84:	0000                	unimp
     e86:	0001                	nop
     e88:	485d                	li	a6,23
     e8a:	53000007          	0x53000007
     e8e:	03000007          	0x3000007
     e92:	9100                	0x9100
     e94:	7fa4                	flw	fs1,120(a5)
     e96:	0760                	addi	s0,sp,908
     e98:	0000                	unimp
     e9a:	076c                	addi	a1,sp,908
     e9c:	0000                	unimp
     e9e:	0001                	nop
     ea0:	c45d                	beqz	s0,f4e <__seq_start+0xf4e>
     ea2:	ec000007          	0xec000007
     ea6:	01000007          	0x1000007
     eaa:	5d00                	lw	s0,56(a0)
     eac:	07ec                	addi	a1,sp,972
     eae:	0000                	unimp
     eb0:	0828                	addi	a0,sp,24
     eb2:	0000                	unimp
     eb4:	0001                	nop
     eb6:	285f 0008 3000      	0x30000008285f
     ebc:	0008                	addi	a0,sp,0
     ebe:	0300                	addi	s0,sp,384
     ec0:	9100                	0x9100
     ec2:	7fa4                	flw	fs1,120(a5)
     ec4:	0830                	addi	a2,sp,24
     ec6:	0000                	unimp
     ec8:	0838                	addi	a4,sp,24
     eca:	0000                	unimp
     ecc:	0001                	nop
     ece:	4c5d                	li	s8,23
     ed0:	0008                	addi	a0,sp,0
     ed2:	c400                	sw	s0,8(s0)
     ed4:	0008                	addi	a0,sp,0
     ed6:	0100                	addi	s0,sp,128
     ed8:	5d00                	lw	s0,56(a0)
     eda:	08c4                	addi	s1,sp,84
     edc:	0000                	unimp
     ede:	08d0                	addi	a2,sp,84
     ee0:	0000                	unimp
     ee2:	0006                	0x6
     ee4:	007d                	c.addi	zero,31
     ee6:	8008                	0x8008
     ee8:	9f21                	0x9f21
     eea:	08d0                	addi	a2,sp,84
     eec:	0000                	unimp
     eee:	095c                	addi	a5,sp,148
     ef0:	0000                	unimp
     ef2:	0001                	nop
     ef4:	905d                	srli	s0,s0,0x37
     ef6:	0009                	c.addi	zero,2
     ef8:	9c00                	0x9c00
     efa:	0009                	c.addi	zero,2
     efc:	0600                	addi	s0,sp,768
     efe:	7d00                	flw	fs0,56(a0)
     f00:	0800                	addi	s0,sp,16
     f02:	2120                	fld	fs0,64(a0)
     f04:	9c9f 0009 e400      	0xe40000099c9f
     f0a:	0009                	c.addi	zero,2
     f0c:	0100                	addi	s0,sp,128
     f0e:	5f00                	lw	s0,56(a4)
     f10:	09e4                	addi	s1,sp,220
     f12:	0000                	unimp
     f14:	000009f7          	0x9f7
     f18:	a4910003          	lb	zero,-1463(sp)
     f1c:	047f                	0x47f
     f1e:	000a                	0xa
     f20:	2c00                	fld	fs0,24(s0)
     f22:	000a                	0xa
     f24:	0100                	addi	s0,sp,128
     f26:	5d00                	lw	s0,56(a0)
     f28:	0a2c                	addi	a1,sp,280
     f2a:	0000                	unimp
     f2c:	0a34                	addi	a3,sp,280
     f2e:	0000                	unimp
     f30:	0006                	0x6
     f32:	007d                	c.addi	zero,31
     f34:	8008                	0x8008
     f36:	9f21                	0x9f21
     f38:	0a34                	addi	a3,sp,280
     f3a:	0000                	unimp
     f3c:	0a48                	addi	a0,sp,276
     f3e:	0000                	unimp
     f40:	0001                	nop
     f42:	485d                	li	a6,23
     f44:	000a                	0xa
     f46:	5000                	lw	s0,32(s0)
     f48:	000a                	0xa
     f4a:	0100                	addi	s0,sp,128
     f4c:	5f00                	lw	s0,56(a4)
     f4e:	0a50                	addi	a2,sp,276
     f50:	0000                	unimp
     f52:	0a64                	addi	s1,sp,284
     f54:	0000                	unimp
     f56:	0001                	nop
     f58:	f45d                	bnez	s0,f06 <__seq_start+0xf06>
     f5a:	000a                	0xa
     f5c:	0800                	addi	s0,sp,16
     f5e:	0100000b          	p.lb	zero,16(zero!) # 10 <__seq_start+0x10>
     f62:	5f00                	lw	s0,56(a4)
     f64:	0b08                	addi	a0,sp,400
     f66:	0000                	unimp
     f68:	0b28                	addi	a0,sp,408
     f6a:	0000                	unimp
     f6c:	0001                	nop
     f6e:	605d                	0x605d
     f70:	6800000b          	p.lb	zero,1664(zero!) # 680 <__seq_start+0x680>
     f74:	0100000b          	p.lb	zero,16(zero!) # 10 <__seq_start+0x10>
     f78:	5f00                	lw	s0,56(a4)
     f7a:	0b68                	addi	a0,sp,412
     f7c:	0000                	unimp
     f7e:	0b70                	addi	a2,sp,412
     f80:	0000                	unimp
     f82:	0001                	nop
     f84:	705d                	0x705d
     f86:	a400000b          	p.lb	zero,-1472(zero!) # fffffa40 <pulp__FC+0xfffffa41>
     f8a:	0100000b          	p.lb	zero,16(zero!) # 10 <__seq_start+0x10>
     f8e:	5f00                	lw	s0,56(a4)
     f90:	0ba4                	addi	s1,sp,472
     f92:	0000                	unimp
     f94:	00000bab          	p.sb	zero,23(zero!) # 17 <__seq_start+0x17>
     f98:	a4910003          	lb	zero,-1463(sp)
     f9c:	b47f                	0xb47f
     f9e:	bc00000b          	p.lb	zero,-1088(zero!) # fffffbc0 <pulp__FC+0xfffffbc1>
     fa2:	0100000b          	p.lb	zero,16(zero!) # 10 <__seq_start+0x10>
     fa6:	5d00                	lw	s0,56(a0)
     fa8:	0bbc                	addi	a5,sp,472
     faa:	0000                	unimp
     fac:	0bd8                	addi	a4,sp,468
     fae:	0000                	unimp
     fb0:	0001                	nop
     fb2:	d85f 000b e000      	0xe000000bd85f
     fb8:	0100000b          	p.lb	zero,16(zero!) # 10 <__seq_start+0x10>
     fbc:	5d00                	lw	s0,56(a0)
     fbe:	0bec                	addi	a1,sp,476
     fc0:	0000                	unimp
     fc2:	0bf8                	addi	a4,sp,476
     fc4:	0000                	unimp
     fc6:	0001                	nop
     fc8:	f85d                	bnez	s0,f7e <__seq_start+0xf7e>
     fca:	0c00000b          	p.lb	zero,192(zero!) # c0 <__seq_start+0xc0>
     fce:	000c                	addi	a1,sp,0
     fd0:	0100                	addi	s0,sp,128
     fd2:	5f00                	lw	s0,56(a4)
	...
     fdc:	05c0                	addi	s0,sp,708
     fde:	0000                	unimp
     fe0:	05dc                	addi	a5,sp,708
     fe2:	0000                	unimp
     fe4:	0002                	0x2
     fe6:	9f30                	0x9f30
     fe8:	0724                	addi	s1,sp,904
     fea:	0000                	unimp
     fec:	0760                	addi	s0,sp,908
     fee:	0000                	unimp
     ff0:	0002                	0x2
     ff2:	9f38                	0x9f38
     ff4:	084c                	addi	a1,sp,20
     ff6:	0000                	unimp
     ff8:	0888                	addi	a0,sp,80
     ffa:	0000                	unimp
     ffc:	0002                	0x2
     ffe:	9f30                	0x9f30
    1000:	0888                	addi	a0,sp,80
    1002:	0000                	unimp
    1004:	088c                	addi	a1,sp,80
    1006:	0000                	unimp
    1008:	0001                	nop
    100a:	0008d867          	0x8d867
    100e:	e800                	fsw	fs0,16(s0)
    1010:	0008                	addi	a0,sp,0
    1012:	0200                	addi	s0,sp,256
    1014:	3000                	fld	fs0,32(s0)
    1016:	e89f 0008 f800      	0xf8000008e89f
    101c:	0008                	addi	a0,sp,0
    101e:	0100                	addi	s0,sp,128
    1020:	6700                	flw	fs0,8(a4)
    1022:	0a04                	addi	s1,sp,272
    1024:	0000                	unimp
    1026:	0a0c                	addi	a1,sp,272
    1028:	0000                	unimp
    102a:	0002                	0x2
    102c:	9f30                	0x9f30
    102e:	0a0c                	addi	a1,sp,272
    1030:	0000                	unimp
    1032:	0a10                	addi	a2,sp,272
    1034:	0000                	unimp
    1036:	0001                	nop
    1038:	00000067          	jr	zero
    103c:	0000                	unimp
    103e:	0000                	unimp
    1040:	dc00                	sw	s0,56(s0)
    1042:	0005                	c.addi	zero,1
    1044:	e800                	fsw	fs0,16(s0)
    1046:	0005                	c.addi	zero,1
    1048:	0200                	addi	s0,sp,256
    104a:	3000                	fld	fs0,32(s0)
    104c:	889f 0008 bc00      	0xbc000008889f
    1052:	0008                	addi	a0,sp,0
    1054:	0200                	addi	s0,sp,256
    1056:	3000                	fld	fs0,32(s0)
    1058:	109f 0009 5000      	0x50000009109f
    105e:	0009                	c.addi	zero,2
    1060:	0200                	addi	s0,sp,256
    1062:	3000                	fld	fs0,32(s0)
    1064:	109f 000a 2800      	0x2800000a109f
    106a:	000a                	0xa
    106c:	0200                	addi	s0,sp,256
    106e:	3000                	fld	fs0,32(s0)
    1070:	289f 000a 2c00      	0x2c00000a289f
    1076:	000a                	0xa
    1078:	0100                	addi	s0,sp,128
    107a:	6100                	flw	fs0,0(a0)
	...
    1084:	05a4                	addi	s1,sp,712
    1086:	0000                	unimp
    1088:	05c0                	addi	s0,sp,708
    108a:	0000                	unimp
    108c:	0002                	0x2
    108e:	9f31                	0x9f31
    1090:	05c0                	addi	s0,sp,708
    1092:	0000                	unimp
    1094:	0638                	addi	a4,sp,776
    1096:	0000                	unimp
    1098:	0002                	0x2
    109a:	9f30                	0x9f30
    109c:	063c                	addi	a5,sp,776
    109e:	0000                	unimp
    10a0:	0644                	addi	s1,sp,772
    10a2:	0000                	unimp
    10a4:	0002                	0x2
    10a6:	9f31                	0x9f31
    10a8:	0648                	addi	a0,sp,772
    10aa:	0000                	unimp
    10ac:	0650                	addi	a2,sp,772
    10ae:	0000                	unimp
    10b0:	0002                	0x2
    10b2:	9f31                	0x9f31
    10b4:	0654                	addi	a3,sp,772
    10b6:	0000                	unimp
    10b8:	065c                	addi	a5,sp,772
    10ba:	0000                	unimp
    10bc:	0002                	0x2
    10be:	9f31                	0x9f31
    10c0:	0660                	addi	s0,sp,780
    10c2:	0000                	unimp
    10c4:	0668                	addi	a0,sp,780
    10c6:	0000                	unimp
    10c8:	0002                	0x2
    10ca:	9f31                	0x9f31
    10cc:	0674                	addi	a3,sp,780
    10ce:	0000                	unimp
    10d0:	0c0c                	addi	a1,sp,528
    10d2:	0000                	unimp
    10d4:	0002                	0x2
    10d6:	9f30                	0x9f30
	...
    10e0:	04c4                	addi	s1,sp,580
    10e2:	0000                	unimp
    10e4:	04e8                	addi	a0,sp,588
    10e6:	0000                	unimp
    10e8:	0002                	0x2
    10ea:	9f30                	0x9f30
    10ec:	0510                	addi	a2,sp,640
    10ee:	0000                	unimp
    10f0:	0514                	addi	a3,sp,640
    10f2:	0000                	unimp
    10f4:	0001                	nop
    10f6:	6869                	lui	a6,0x1a
    10f8:	0006                	0x6
    10fa:	7400                	flw	fs0,40(s0)
    10fc:	0006                	0x6
    10fe:	0200                	addi	s0,sp,256
    1100:	3000                	fld	fs0,32(s0)
    1102:	fc9f 0006 1800      	0x18000006fc9f
    1108:	03000007          	0x3000007
    110c:	8900                	0x8900
    110e:	9f01                	0x9f01
    1110:	0758                	addi	a4,sp,900
    1112:	0000                	unimp
    1114:	0760                	addi	s0,sp,908
    1116:	0000                	unimp
    1118:	0001                	nop
    111a:	985a                	add	a6,a6,s6
    111c:	9c000007          	0x9c000007
    1120:	01000007          	0x1000007
    1124:	6a00                	flw	fs0,16(a2)
    1126:	079c                	addi	a5,sp,960
    1128:	0000                	unimp
    112a:	000007b3          	add	a5,zero,zero
    112e:	0001                	nop
    1130:	b35e                	fsd	fs7,416(sp)
    1132:	b8000007          	0xb8000007
    1136:	01000007          	0x1000007
    113a:	6a00                	flw	fs0,16(a2)
    113c:	0844                	addi	s1,sp,20
    113e:	0000                	unimp
    1140:	084c                	addi	a1,sp,20
    1142:	0000                	unimp
    1144:	0001                	nop
    1146:	6c69                	lui	s8,0x1a
    1148:	0009                	c.addi	zero,2
    114a:	9000                	0x9000
    114c:	0009                	c.addi	zero,2
    114e:	0300                	addi	s0,sp,384
    1150:	8900                	0x8900
    1152:	9f01                	0x9f01
    1154:	09f8                	addi	a4,sp,220
    1156:	0000                	unimp
    1158:	0a04                	addi	s1,sp,272
    115a:	0000                	unimp
    115c:	0001                	nop
    115e:	645a                	flw	fs0,148(sp)
    1160:	000a                	0xa
    1162:	9400                	0x9400
    1164:	000a                	0xa
    1166:	0300                	addi	s0,sp,384
    1168:	8900                	0x8900
    116a:	9f01                	0x9f01
    116c:	0ab0                	addi	a2,sp,344
    116e:	0000                	unimp
    1170:	0ab8                	addi	a4,sp,344
    1172:	0000                	unimp
    1174:	0001                	nop
    1176:	000acc63          	bltz	s5,118e <__seq_start+0x118e>
    117a:	d800                	sw	s0,48(s0)
    117c:	000a                	0xa
    117e:	0100                	addi	s0,sp,128
    1180:	6300                	flw	fs0,0(a4)
    1182:	0ad8                	addi	a4,sp,340
    1184:	0000                	unimp
    1186:	0aec                	addi	a1,sp,348
    1188:	0000                	unimp
    118a:	01870003          	lb	zero,24(a4) # ffff9018 <pulp__FC+0xffff9019>
    118e:	3c9f 000b 6000      	0x6000000b3c9f
    1194:	0300000b          	p.lb	zero,48(zero!) # 30 <__seq_start+0x30>
    1198:	8900                	0x8900
    119a:	9f01                	0x9f01
    119c:	0bac                	addi	a1,sp,472
    119e:	0000                	unimp
    11a0:	0bb4                	addi	a3,sp,472
    11a2:	0000                	unimp
    11a4:	0001                	nop
    11a6:	e45a                	fsw	fs6,8(sp)
    11a8:	ec00000b          	p.lb	zero,-320(zero!) # fffffec0 <pulp__FC+0xfffffec1>
    11ac:	0100000b          	p.lb	zero,16(zero!) # 10 <__seq_start+0x10>
    11b0:	6300                	flw	fs0,0(a4)
	...
    11ba:	07e4                	addi	s1,sp,972
    11bc:	0000                	unimp
    11be:	0800                	addi	s0,sp,16
    11c0:	0000                	unimp
    11c2:	0002                	0x2
    11c4:	9f3a                	add	t5,t5,a4
    11c6:	0990                	addi	a2,sp,208
    11c8:	0000                	unimp
    11ca:	09a4                	addi	s1,sp,216
    11cc:	0000                	unimp
    11ce:	0002                	0x2
    11d0:	9f40                	0x9f40
    11d2:	0af4                	addi	a3,sp,348
    11d4:	0000                	unimp
    11d6:	0b00                	addi	s0,sp,400
    11d8:	0000                	unimp
    11da:	0002                	0x2
    11dc:	9f40                	0x9f40
    11de:	0b00                	addi	s0,sp,400
    11e0:	0000                	unimp
    11e2:	0b08                	addi	a0,sp,400
    11e4:	0000                	unimp
    11e6:	0002                	0x2
    11e8:	9f3a                	add	t5,t5,a4
    11ea:	0bb8                	addi	a4,sp,472
    11ec:	0000                	unimp
    11ee:	0bbc                	addi	a5,sp,472
    11f0:	0000                	unimp
    11f2:	0002                	0x2
    11f4:	9f32                	add	t5,t5,a2
    11f6:	0c00                	addi	s0,sp,528
    11f8:	0000                	unimp
    11fa:	0c0c                	addi	a1,sp,528
    11fc:	0000                	unimp
    11fe:	0002                	0x2
    1200:	9f3a                	add	t5,t5,a4
	...
    120a:	081c                	addi	a5,sp,16
    120c:	0000                	unimp
    120e:	082c                	addi	a1,sp,24
    1210:	0000                	unimp
    1212:	0001                	nop
    1214:	005e                	0x5e
    1216:	0000                	unimp
    1218:	0000                	unimp
    121a:	0000                	unimp
    121c:	6000                	flw	fs0,0(s0)
    121e:	8c000007          	0x8c000007
    1222:	02000007          	0x2000007
    1226:	3100                	fld	fs0,32(a0)
    1228:	8c9f 0007 9800      	0x980000078c9f
    122e:	02000007          	0x2000007
    1232:	3200                	fld	fs0,32(a2)
    1234:	9c9f 000a d000      	0xd000000a9c9f
    123a:	000a                	0xa
    123c:	0200                	addi	s0,sp,256
    123e:	3200                	fld	fs0,32(a2)
    1240:	d49f 000a d800      	0xd800000ad49f
    1246:	000a                	0xa
    1248:	0800                	addi	s0,sp,16
    124a:	8300                	0x8300
    124c:	8900                	0x8900
    124e:	1c00                	addi	s0,sp,560
    1250:	1c32                	slli	s8,s8,0x2c
    1252:	d89f 000a f400      	0xf400000ad89f
    1258:	000a                	0xa
    125a:	0200                	addi	s0,sp,256
    125c:	3200                	fld	fs0,32(a2)
    125e:	e09f 000b ec00      	0xec00000be09f
    1264:	0200000b          	p.lb	zero,32(zero!) # 20 <__seq_start+0x20>
    1268:	3200                	fld	fs0,32(a2)
    126a:	009f 0000 0000      	0x9f
    1270:	0000                	unimp
    1272:	e800                	fsw	fs0,16(s0)
    1274:	0006                	0x6
    1276:	ec00                	fsw	fs0,24(s0)
    1278:	0006                	0x6
    127a:	0600                	addi	s0,sp,768
    127c:	9100                	0x9100
    127e:	7fbc                	flw	fa5,120(a5)
    1280:	3406                	fld	fs0,96(sp)
    1282:	f01c                	fsw	fa5,32(s0)
    1284:	f800000b          	p.lb	zero,-128(zero!) # ffffff80 <pulp__FC+0xffffff81>
    1288:	0600000b          	p.lb	zero,96(zero!) # 60 <__seq_start+0x60>
    128c:	9100                	0x9100
    128e:	7fbc                	flw	fa5,120(a5)
    1290:	3406                	fld	fs0,96(sp)
    1292:	001c                	addi	a5,sp,0
    1294:	0000                	unimp
    1296:	0000                	unimp
    1298:	0000                	unimp
    129a:	5400                	lw	s0,40(s0)
    129c:	000a                	0xa
    129e:	5c00                	lw	s0,56(s0)
    12a0:	000a                	0xa
    12a2:	0100                	addi	s0,sp,128
    12a4:	5f00                	lw	s0,56(a4)
    12a6:	0a5c                	addi	a5,sp,276
    12a8:	0000                	unimp
    12aa:	0a60                	addi	s0,sp,284
    12ac:	0000                	unimp
    12ae:	018b0003          	lb	zero,24(s6)
    12b2:	ec9f 000b f000      	0xf000000bec9f
    12b8:	0100000b          	p.lb	zero,16(zero!) # 10 <__seq_start+0x10>
    12bc:	5f00                	lw	s0,56(a4)
    12be:	0bf0                	addi	a2,sp,476
    12c0:	0000                	unimp
    12c2:	0bf4                	addi	a3,sp,476
    12c4:	0000                	unimp
    12c6:	0001                	nop
    12c8:	000bf46b          	0xbf46b
    12cc:	f800                	fsw	fs0,48(s0)
    12ce:	0100000b          	p.lb	zero,16(zero!) # 10 <__seq_start+0x10>
    12d2:	5f00                	lw	s0,56(a4)
	...
    12dc:	06a0                	addi	s0,sp,840
    12de:	0000                	unimp
    12e0:	06a8                	addi	a0,sp,840
    12e2:	0000                	unimp
    12e4:	ff090003          	lb	zero,-16(s2) # 1dff0 <__seq_start+0x1dff0>
    12e8:	589f 0009 5c00      	0x5c000009589f
    12ee:	0009                	c.addi	zero,2
    12f0:	0100                	addi	s0,sp,128
    12f2:	5f00                	lw	s0,56(a4)
	...
    12fc:	06a0                	addi	s0,sp,840
    12fe:	0000                	unimp
    1300:	06b0                	addi	a2,sp,840
    1302:	0000                	unimp
    1304:	0002                	0x2
    1306:	06b07c8b          	0x6b07c8b
    130a:	0000                	unimp
    130c:	06b8                	addi	a4,sp,840
    130e:	0000                	unimp
    1310:	0006                	0x6
    1312:	bc91                	j	d66 <__seq_start+0xd66>
    1314:	067f                	0x67f
    1316:	1c34                	addi	a3,sp,568
    1318:	06b8                	addi	a4,sp,840
    131a:	0000                	unimp
    131c:	06d0                	addi	a2,sp,836
    131e:	0000                	unimp
    1320:	0001                	nop
    1322:	0009506b          	0x9506b
    1326:	5c00                	lw	s0,56(s0)
    1328:	0009                	c.addi	zero,2
    132a:	0200                	addi	s0,sp,256
    132c:	8b00                	0x8b00
    132e:	d87c                	sw	a5,116(s0)
    1330:	dc00000b          	p.lb	zero,-576(zero!) # fffffdc0 <pulp__FC+0xfffffdc1>
    1334:	0200000b          	p.lb	zero,32(zero!) # 20 <__seq_start+0x20>
    1338:	8b00                	0x8b00
    133a:	dc7c                	sw	a5,124(s0)
    133c:	e000000b          	p.lb	zero,-512(zero!) # fffffe00 <pulp__FC+0xfffffe01>
    1340:	0600000b          	p.lb	zero,96(zero!) # 60 <__seq_start+0x60>
    1344:	9100                	0x9100
    1346:	7fbc                	flw	fa5,120(a5)
    1348:	3406                	fld	fs0,96(sp)
    134a:	001c                	addi	a5,sp,0
    134c:	0000                	unimp
    134e:	0000                	unimp
    1350:	0000                	unimp
    1352:	6c00                	flw	fs0,24(s0)
    1354:	0008                	addi	a0,sp,0
    1356:	7000                	flw	fs0,32(s0)
    1358:	0008                	addi	a0,sp,0
    135a:	0300                	addi	s0,sp,384
    135c:	8300                	0x8300
    135e:	9f50                	0x9f50
    1360:	0870                	addi	a2,sp,28
    1362:	0000                	unimp
    1364:	088c                	addi	a1,sp,80
    1366:	0000                	unimp
    1368:	0001                	nop
    136a:	00000067          	jr	zero
    136e:	0000                	unimp
    1370:	0000                	unimp
    1372:	3400                	fld	fs0,40(s0)
    1374:	0009                	c.addi	zero,2
    1376:	3800                	fld	fs0,48(s0)
    1378:	0009                	c.addi	zero,2
    137a:	0300                	addi	s0,sp,384
    137c:	8100                	0x8100
    137e:	9f50                	0x9f50
    1380:	0938                	addi	a4,sp,152
    1382:	0000                	unimp
    1384:	0950                	addi	a2,sp,148
    1386:	0000                	unimp
    1388:	0001                	nop
    138a:	0061                	c.addi	zero,24
    138c:	0000                	unimp
    138e:	0000                	unimp
    1390:	0000                	unimp
    1392:	2400                	fld	fs0,8(s0)
    1394:	0000                	unimp
    1396:	8800                	0x8800
    1398:	0000                	unimp
    139a:	0100                	addi	s0,sp,128
    139c:	5a00                	lw	s0,48(a2)
    139e:	0088                	addi	a0,sp,64
    13a0:	0000                	unimp
    13a2:	01f4                	addi	a3,sp,204
    13a4:	0000                	unimp
    13a6:	0001                	nop
    13a8:	f459                	bnez	s0,1336 <__seq_start+0x1336>
    13aa:	0001                	nop
    13ac:	1800                	addi	s0,sp,48
    13ae:	0002                	0x2
    13b0:	0400                	addi	s0,sp,512
    13b2:	f300                	fsw	fs0,32(a4)
    13b4:	5a01                	li	s4,-32
    13b6:	189f 0002 8400      	0x84000002189f
    13bc:	0004                	addi	s1,sp,0
    13be:	0100                	addi	s0,sp,128
    13c0:	5900                	lw	s0,48(a0)
	...
    13ca:	0024                	addi	s1,sp,8
    13cc:	0000                	unimp
    13ce:	00a4                	addi	s1,sp,72
    13d0:	0000                	unimp
    13d2:	0001                	nop
    13d4:	0000a45b          	0xa45b
    13d8:	f800                	fsw	fs0,48(s0)
    13da:	0001                	nop
    13dc:	0100                	addi	s0,sp,128
    13de:	6200                	flw	fs0,0(a2)
    13e0:	01f8                	addi	a4,sp,204
    13e2:	0000                	unimp
    13e4:	0218                	addi	a4,sp,256
    13e6:	0000                	unimp
    13e8:	0004                	addi	s1,sp,0
    13ea:	9f5b01f3          	0x9f5b01f3
    13ee:	0218                	addi	a4,sp,256
    13f0:	0000                	unimp
    13f2:	0244                	addi	s1,sp,260
    13f4:	0000                	unimp
    13f6:	0001                	nop
    13f8:	0002445b          	0x2445b
    13fc:	9000                	0x9000
    13fe:	01000003          	lb	zero,16(zero) # 10 <__seq_start+0x10>
    1402:	6200                	flw	fs0,0(a2)
    1404:	0390                	addi	a2,sp,448
    1406:	0000                	unimp
    1408:	0398                	addi	a4,sp,448
    140a:	0000                	unimp
    140c:	0001                	nop
    140e:	0003985b          	0x3985b
    1412:	8400                	0x8400
    1414:	0004                	addi	s1,sp,0
    1416:	0100                	addi	s0,sp,128
    1418:	6200                	flw	fs0,0(a2)
	...
    1422:	0024                	addi	s1,sp,8
    1424:	0000                	unimp
    1426:	008c                	addi	a1,sp,64
    1428:	0000                	unimp
    142a:	0001                	nop
    142c:	8c5c                	0x8c5c
    142e:	0000                	unimp
    1430:	0400                	addi	s0,sp,512
    1432:	0002                	0x2
    1434:	0100                	addi	s0,sp,128
    1436:	6500                	flw	fs0,8(a0)
    1438:	0204                	addi	s1,sp,256
    143a:	0000                	unimp
    143c:	0218                	addi	a4,sp,256
    143e:	0000                	unimp
    1440:	0004                	addi	s1,sp,0
    1442:	9f5c01f3          	0x9f5c01f3
    1446:	0218                	addi	a4,sp,256
    1448:	0000                	unimp
    144a:	0244                	addi	s1,sp,260
    144c:	0000                	unimp
    144e:	0001                	nop
    1450:	445c                	lw	a5,12(s0)
    1452:	0002                	0x2
    1454:	9000                	0x9000
    1456:	01000003          	lb	zero,16(zero) # 10 <__seq_start+0x10>
    145a:	6500                	flw	fs0,8(a0)
    145c:	0390                	addi	a2,sp,448
    145e:	0000                	unimp
    1460:	0398                	addi	a4,sp,448
    1462:	0000                	unimp
    1464:	0001                	nop
    1466:	985c                	0x985c
    1468:	84000003          	lb	zero,-1984(zero) # fffff840 <pulp__FC+0xfffff841>
    146c:	0004                	addi	s1,sp,0
    146e:	0100                	addi	s0,sp,128
    1470:	6500                	flw	fs0,8(a0)
	...
    147a:	0024                	addi	s1,sp,8
    147c:	0000                	unimp
    147e:	007c                	addi	a5,sp,12
    1480:	0000                	unimp
    1482:	0001                	nop
    1484:	7c5d                	lui	s8,0xffff7
    1486:	0000                	unimp
    1488:	fc00                	fsw	fs0,56(s0)
    148a:	0001                	nop
    148c:	0100                	addi	s0,sp,128
    148e:	6300                	flw	fs0,0(a4)
    1490:	01fc                	addi	a5,sp,204
    1492:	0000                	unimp
    1494:	0218                	addi	a4,sp,256
    1496:	0000                	unimp
    1498:	0004                	addi	s1,sp,0
    149a:	9f5d01f3          	0x9f5d01f3
    149e:	0218                	addi	a4,sp,256
    14a0:	0000                	unimp
    14a2:	0220                	addi	s0,sp,264
    14a4:	0000                	unimp
    14a6:	0001                	nop
    14a8:	205d                	jal	154e <__seq_start+0x154e>
    14aa:	0002                	0x2
    14ac:	3000                	fld	fs0,32(s0)
    14ae:	0002                	0x2
    14b0:	0100                	addi	s0,sp,128
    14b2:	6300                	flw	fs0,0(a4)
    14b4:	0230                	addi	a2,sp,264
    14b6:	0000                	unimp
    14b8:	0244                	addi	s1,sp,260
    14ba:	0000                	unimp
    14bc:	0001                	nop
    14be:	445d                	li	s0,23
    14c0:	0002                	0x2
    14c2:	9000                	0x9000
    14c4:	01000003          	lb	zero,16(zero) # 10 <__seq_start+0x10>
    14c8:	6300                	flw	fs0,0(a4)
    14ca:	0390                	addi	a2,sp,448
    14cc:	0000                	unimp
    14ce:	0398                	addi	a4,sp,448
    14d0:	0000                	unimp
    14d2:	0001                	nop
    14d4:	985d                	andi	s0,s0,-9
    14d6:	84000003          	lb	zero,-1984(zero) # fffff840 <pulp__FC+0xfffff841>
    14da:	0004                	addi	s1,sp,0
    14dc:	0100                	addi	s0,sp,128
    14de:	6300                	flw	fs0,0(a4)
	...
    14e8:	0024                	addi	s1,sp,8
    14ea:	0000                	unimp
    14ec:	00a8                	addi	a0,sp,72
    14ee:	0000                	unimp
    14f0:	0001                	nop
    14f2:	b05e                	fsd	fs7,32(sp)
    14f4:	0000                	unimp
    14f6:	d400                	sw	s0,40(s0)
    14f8:	0000                	unimp
    14fa:	0100                	addi	s0,sp,128
    14fc:	5e00                	lw	s0,56(a2)
    14fe:	00dc                	addi	a5,sp,68
    1500:	0000                	unimp
    1502:	0100                	addi	s0,sp,128
    1504:	0000                	unimp
    1506:	0001                	nop
    1508:	185e                	slli	a6,a6,0x37
    150a:	0002                	0x2
    150c:	4400                	lw	s0,8(s0)
    150e:	0002                	0x2
    1510:	0100                	addi	s0,sp,128
    1512:	5e00                	lw	s0,56(a2)
    1514:	026c                	addi	a1,sp,268
    1516:	0000                	unimp
    1518:	0274                	addi	a3,sp,268
    151a:	0000                	unimp
    151c:	0001                	nop
    151e:	445e                	lw	s0,212(sp)
    1520:	4c000003          	lb	zero,1216(zero) # 4c0 <__seq_start+0x4c0>
    1524:	01000003          	lb	zero,16(zero) # 10 <__seq_start+0x10>
    1528:	5e00                	lw	s0,56(a2)
    152a:	037c                	addi	a5,sp,396
    152c:	0000                	unimp
    152e:	0384                	addi	s1,sp,448
    1530:	0000                	unimp
    1532:	0001                	nop
    1534:	905e                	0x905e
    1536:	98000003          	lb	zero,-1664(zero) # fffff980 <pulp__FC+0xfffff981>
    153a:	01000003          	lb	zero,16(zero) # 10 <__seq_start+0x10>
    153e:	5e00                	lw	s0,56(a2)
	...
    1548:	0024                	addi	s1,sp,8
    154a:	0000                	unimp
    154c:	016c                	addi	a1,sp,140
    154e:	0000                	unimp
    1550:	0001                	nop
    1552:	6c5f 0001 1800      	0x180000016c5f
    1558:	0002                	0x2
    155a:	0400                	addi	s0,sp,512
    155c:	f300                	fsw	fs0,32(a4)
    155e:	5f01                	li	t5,-32
    1560:	189f 0002 4800      	0x48000002189f
    1566:	0002                	0x2
    1568:	0100                	addi	s0,sp,128
    156a:	5f00                	lw	s0,56(a4)
    156c:	0248                	addi	a0,sp,260
    156e:	0000                	unimp
    1570:	026c                	addi	a1,sp,268
    1572:	0000                	unimp
    1574:	0004                	addi	s1,sp,0
    1576:	9f5f01f3          	0x9f5f01f3
    157a:	026c                	addi	a1,sp,268
    157c:	0000                	unimp
    157e:	02f8                	addi	a4,sp,332
    1580:	0000                	unimp
    1582:	0001                	nop
    1584:	f85f 0002 4400      	0x44000002f85f
    158a:	04000003          	lb	zero,64(zero) # 40 <__seq_start+0x40>
    158e:	f300                	fsw	fs0,32(a4)
    1590:	5f01                	li	t5,-32
    1592:	449f 0003 4c00      	0x4c000003449f
    1598:	01000003          	lb	zero,16(zero) # 10 <__seq_start+0x10>
    159c:	5f00                	lw	s0,56(a4)
    159e:	034c                	addi	a1,sp,388
    15a0:	0000                	unimp
    15a2:	0364                	addi	s1,sp,396
    15a4:	0000                	unimp
    15a6:	0004                	addi	s1,sp,0
    15a8:	9f5f01f3          	0x9f5f01f3
    15ac:	0364                	addi	s1,sp,396
    15ae:	0000                	unimp
    15b0:	0484                	addi	s1,sp,576
    15b2:	0000                	unimp
    15b4:	0001                	nop
    15b6:	005f 0000 0000      	0x5f
    15bc:	0000                	unimp
    15be:	2400                	fld	fs0,8(s0)
    15c0:	0000                	unimp
    15c2:	8400                	0x8400
    15c4:	0001                	nop
    15c6:	0100                	addi	s0,sp,128
    15c8:	6000                	flw	fs0,0(s0)
    15ca:	0184                	addi	s1,sp,192
    15cc:	0000                	unimp
    15ce:	0218                	addi	a4,sp,256
    15d0:	0000                	unimp
    15d2:	0004                	addi	s1,sp,0
    15d4:	9f6001f3          	0x9f6001f3
    15d8:	0218                	addi	a4,sp,256
    15da:	0000                	unimp
    15dc:	0310                	addi	a2,sp,384
    15de:	0000                	unimp
    15e0:	0001                	nop
    15e2:	1060                	addi	s0,sp,44
    15e4:	38000003          	lb	zero,896(zero) # 380 <__seq_start+0x380>
    15e8:	04000003          	lb	zero,64(zero) # 40 <__seq_start+0x40>
    15ec:	f300                	fsw	fs0,32(a4)
    15ee:	6001                	0x6001
    15f0:	389f 0003 8400      	0x84000003389f
    15f6:	0004                	addi	s1,sp,0
    15f8:	0100                	addi	s0,sp,128
    15fa:	6000                	flw	fs0,0(s0)
	...
    1604:	0024                	addi	s1,sp,8
    1606:	0000                	unimp
    1608:	0184                	addi	s1,sp,192
    160a:	0000                	unimp
    160c:	0001                	nop
    160e:	8461                	srai	s0,s0,0x18
    1610:	0001                	nop
    1612:	1800                	addi	s0,sp,48
    1614:	0002                	0x2
    1616:	0400                	addi	s0,sp,512
    1618:	f300                	fsw	fs0,32(a4)
    161a:	6101                	addi	sp,sp,0
    161c:	189f 0002 1000      	0x10000002189f
    1622:	01000003          	lb	zero,16(zero) # 10 <__seq_start+0x10>
    1626:	6100                	flw	fs0,0(a0)
    1628:	0310                	addi	a2,sp,384
    162a:	0000                	unimp
    162c:	0338                	addi	a4,sp,392
    162e:	0000                	unimp
    1630:	0004                	addi	s1,sp,0
    1632:	9f6101f3          	0x9f6101f3
    1636:	0338                	addi	a4,sp,392
    1638:	0000                	unimp
    163a:	0484                	addi	s1,sp,576
    163c:	0000                	unimp
    163e:	0001                	nop
    1640:	0061                	c.addi	zero,24
    1642:	0000                	unimp
    1644:	0000                	unimp
    1646:	0000                	unimp
    1648:	2400                	fld	fs0,8(s0)
    164a:	0000                	unimp
    164c:	ec00                	fsw	fs0,24(s0)
    164e:	0000                	unimp
    1650:	0200                	addi	s0,sp,256
    1652:	9100                	0x9100
    1654:	ec00                	fsw	fs0,24(s0)
    1656:	0000                	unimp
    1658:	0400                	addi	s0,sp,512
    165a:	0001                	nop
    165c:	0100                	addi	s0,sp,128
    165e:	6400                	flw	fs0,8(s0)
    1660:	0104                	addi	s1,sp,128
    1662:	0000                	unimp
    1664:	013c                	addi	a5,sp,136
    1666:	0000                	unimp
    1668:	0002                	0x2
    166a:	0091                	addi	ra,ra,4
    166c:	0218                	addi	a4,sp,256
    166e:	0000                	unimp
    1670:	0244                	addi	s1,sp,260
    1672:	0000                	unimp
    1674:	0001                	nop
    1676:	6c64                	flw	fs1,92(s0)
    1678:	0002                	0x2
    167a:	7800                	flw	fs0,48(s0)
    167c:	0002                	0x2
    167e:	0100                	addi	s0,sp,128
    1680:	6400                	flw	fs0,8(s0)
    1682:	0278                	addi	a4,sp,268
    1684:	0000                	unimp
    1686:	02f8                	addi	a4,sp,332
    1688:	0000                	unimp
    168a:	0002                	0x2
    168c:	0091                	addi	ra,ra,4
    168e:	0344                	addi	s1,sp,388
    1690:	0000                	unimp
    1692:	034c                	addi	a1,sp,388
    1694:	0000                	unimp
    1696:	0001                	nop
    1698:	6464                	flw	fs1,76(s0)
    169a:	7c000003          	lb	zero,1984(zero) # 7c0 <__seq_start+0x7c0>
    169e:	02000003          	lb	zero,32(zero) # 20 <__seq_start+0x20>
    16a2:	9100                	0x9100
    16a4:	7c00                	flw	fs0,56(s0)
    16a6:	98000003          	lb	zero,-1664(zero) # fffff980 <pulp__FC+0xfffff981>
    16aa:	01000003          	lb	zero,16(zero) # 10 <__seq_start+0x10>
    16ae:	6400                	flw	fs0,8(s0)
    16b0:	0398                	addi	a4,sp,448
    16b2:	0000                	unimp
    16b4:	03a8                	addi	a0,sp,456
    16b6:	0000                	unimp
    16b8:	0002                	0x2
    16ba:	0091                	addi	ra,ra,4
    16bc:	03a8                	addi	a0,sp,456
    16be:	0000                	unimp
    16c0:	03ac                	addi	a1,sp,456
    16c2:	0000                	unimp
    16c4:	0001                	nop
    16c6:	ac64                	fsd	fs1,216(s0)
    16c8:	fc000003          	lb	zero,-64(zero) # ffffffc0 <pulp__FC+0xffffffc1>
    16cc:	02000003          	lb	zero,32(zero) # 20 <__seq_start+0x20>
    16d0:	9100                	0x9100
    16d2:	0400                	addi	s0,sp,512
    16d4:	0004                	addi	s1,sp,0
    16d6:	1c00                	addi	s0,sp,560
    16d8:	0004                	addi	s1,sp,0
    16da:	0200                	addi	s0,sp,256
    16dc:	9100                	0x9100
    16de:	2400                	fld	fs0,8(s0)
    16e0:	0004                	addi	s1,sp,0
    16e2:	4400                	lw	s0,8(s0)
    16e4:	0004                	addi	s1,sp,0
    16e6:	0200                	addi	s0,sp,256
    16e8:	9100                	0x9100
    16ea:	4c00                	lw	s0,24(s0)
    16ec:	0004                	addi	s1,sp,0
    16ee:	8400                	0x8400
    16f0:	0004                	addi	s1,sp,0
    16f2:	0200                	addi	s0,sp,256
    16f4:	9100                	0x9100
	...
    16fe:	2400                	fld	fs0,8(s0)
    1700:	0000                	unimp
    1702:	7400                	flw	fs0,40(s0)
    1704:	0000                	unimp
    1706:	0200                	addi	s0,sp,256
    1708:	9100                	0x9100
    170a:	7404                	flw	fs1,40(s0)
    170c:	0000                	unimp
    170e:	7c00                	flw	fs0,56(s0)
    1710:	0001                	nop
    1712:	0100                	addi	s0,sp,128
    1714:	6e00                	flw	fs0,24(a2)
    1716:	0218                	addi	a4,sp,256
    1718:	0000                	unimp
    171a:	0228                	addi	a0,sp,264
    171c:	0000                	unimp
    171e:	0001                	nop
    1720:	2858                	fld	fa4,144(s0)
    1722:	0002                	0x2
    1724:	fc00                	fsw	fs0,56(s0)
    1726:	0002                	0x2
    1728:	0100                	addi	s0,sp,128
    172a:	6e00                	flw	fs0,24(a2)
    172c:	0344                	addi	s1,sp,388
    172e:	0000                	unimp
    1730:	0484                	addi	s1,sp,576
    1732:	0000                	unimp
    1734:	0001                	nop
    1736:	006e                	0x6e
    1738:	0000                	unimp
    173a:	0000                	unimp
    173c:	0000                	unimp
    173e:	2400                	fld	fs0,8(s0)
    1740:	0000                	unimp
    1742:	a400                	fsd	fs0,8(s0)
    1744:	0000                	unimp
    1746:	0200                	addi	s0,sp,256
    1748:	3000                	fld	fs0,32(s0)
    174a:	a49f 0000 b000      	0xb0000000a49f
    1750:	0000                	unimp
    1752:	0800                	addi	s0,sp,16
    1754:	7c00                	flw	fs0,56(s0)
    1756:	9100                	0x9100
    1758:	1c00                	addi	s0,sp,560
    175a:	b09f5023          	0xb09f5023
    175e:	0000                	unimp
    1760:	bc00                	fsd	fs0,56(s0)
    1762:	0000                	unimp
    1764:	0100                	addi	s0,sp,128
    1766:	5800                	lw	s0,48(s0)
    1768:	00bc                	addi	a5,sp,72
    176a:	0000                	unimp
    176c:	00dc                	addi	a5,sp,68
    176e:	0000                	unimp
    1770:	0008                	addi	a0,sp,0
    1772:	007c                	addi	a5,sp,12
    1774:	0091                	addi	ra,ra,4
    1776:	231c                	fld	fa5,0(a4)
    1778:	9f50                	0x9f50
    177a:	00dc                	addi	a5,sp,68
    177c:	0000                	unimp
    177e:	00ec                	addi	a1,sp,76
    1780:	0000                	unimp
    1782:	0001                	nop
    1784:	1858                	addi	a4,sp,52
    1786:	0002                	0x2
    1788:	4400                	lw	s0,8(s0)
    178a:	0002                	0x2
    178c:	0200                	addi	s0,sp,256
    178e:	3000                	fld	fs0,32(s0)
    1790:	449f 0003 4800      	0x48000003449f
    1796:	01000003          	lb	zero,16(zero) # 10 <__seq_start+0x10>
    179a:	5800                	lw	s0,48(s0)
    179c:	0390                	addi	a2,sp,448
    179e:	0000                	unimp
    17a0:	0398                	addi	a4,sp,448
    17a2:	0000                	unimp
    17a4:	0002                	0x2
    17a6:	9f30                	0x9f30
	...
    17b0:	00a4                	addi	s1,sp,72
    17b2:	0000                	unimp
    17b4:	00bc                	addi	a5,sp,72
    17b6:	0000                	unimp
    17b8:	0001                	nop
    17ba:	0000c45b          	0xc45b
    17be:	ec00                	fsw	fs0,24(s0)
    17c0:	0000                	unimp
    17c2:	0100                	addi	s0,sp,128
    17c4:	5b00                	lw	s0,48(a4)
    17c6:	0344                	addi	s1,sp,388
    17c8:	0000                	unimp
    17ca:	034c                	addi	a1,sp,388
    17cc:	0000                	unimp
    17ce:	0001                	nop
    17d0:	0000005b          	0x5b
    17d4:	0000                	unimp
    17d6:	0000                	unimp
    17d8:	e400                	fsw	fs0,8(s0)
    17da:	0000                	unimp
    17dc:	7c00                	flw	fs0,56(s0)
    17de:	0001                	nop
    17e0:	0100                	addi	s0,sp,128
    17e2:	6e00                	flw	fs0,24(a2)
    17e4:	0230                	addi	a2,sp,264
    17e6:	0000                	unimp
    17e8:	02fc                	addi	a5,sp,332
    17ea:	0000                	unimp
    17ec:	0001                	nop
    17ee:	4c6e                	lw	s8,216(sp)
    17f0:	84000003          	lb	zero,-1984(zero) # fffff840 <pulp__FC+0xfffff841>
    17f4:	0004                	addi	s1,sp,0
    17f6:	0100                	addi	s0,sp,128
    17f8:	6e00                	flw	fs0,24(a2)
	...
    1802:	00e4                	addi	s1,sp,76
    1804:	0000                	unimp
    1806:	00ec                	addi	a1,sp,76
    1808:	0000                	unimp
    180a:	0002                	0x2
    180c:	0091                	addi	ra,ra,4
    180e:	00ec                	addi	a1,sp,76
    1810:	0000                	unimp
    1812:	0200                	addi	s0,sp,256
    1814:	0000                	unimp
    1816:	0001                	nop
    1818:	3064                	fld	fs1,224(s0)
    181a:	0002                	0x2
    181c:	6c00                	flw	fs0,24(s0)
    181e:	0002                	0x2
    1820:	0100                	addi	s0,sp,128
    1822:	6400                	flw	fs0,8(s0)
    1824:	026c                	addi	a1,sp,268
    1826:	0000                	unimp
    1828:	0278                	addi	a4,sp,268
    182a:	0000                	unimp
    182c:	0002                	0x2
    182e:	9f30                	0x9f30
    1830:	02e0                	addi	s0,sp,332
    1832:	0000                	unimp
    1834:	0344                	addi	s1,sp,388
    1836:	0000                	unimp
    1838:	0001                	nop
    183a:	4c64                	lw	s1,92(s0)
    183c:	84000003          	lb	zero,-1984(zero) # fffff840 <pulp__FC+0xfffff841>
    1840:	0004                	addi	s1,sp,0
    1842:	0100                	addi	s0,sp,128
    1844:	6400                	flw	fs0,8(s0)
	...
    184e:	00e4                	addi	s1,sp,76
    1850:	0000                	unimp
    1852:	0184                	addi	s1,sp,192
    1854:	0000                	unimp
    1856:	0001                	nop
    1858:	8461                	srai	s0,s0,0x18
    185a:	0001                	nop
    185c:	1800                	addi	s0,sp,48
    185e:	0002                	0x2
    1860:	0400                	addi	s0,sp,512
    1862:	f300                	fsw	fs0,32(a4)
    1864:	6101                	addi	sp,sp,0
    1866:	309f 0002 1000      	0x10000002309f
    186c:	01000003          	lb	zero,16(zero) # 10 <__seq_start+0x10>
    1870:	6100                	flw	fs0,0(a0)
    1872:	0310                	addi	a2,sp,384
    1874:	0000                	unimp
    1876:	0338                	addi	a4,sp,392
    1878:	0000                	unimp
    187a:	0004                	addi	s1,sp,0
    187c:	9f6101f3          	0x9f6101f3
    1880:	0338                	addi	a4,sp,392
    1882:	0000                	unimp
    1884:	0344                	addi	s1,sp,388
    1886:	0000                	unimp
    1888:	0001                	nop
    188a:	4c61                	li	s8,24
    188c:	84000003          	lb	zero,-1984(zero) # fffff840 <pulp__FC+0xfffff841>
    1890:	0004                	addi	s1,sp,0
    1892:	0100                	addi	s0,sp,128
    1894:	6100                	flw	fs0,0(a0)
	...
    189e:	00e4                	addi	s1,sp,76
    18a0:	0000                	unimp
    18a2:	0184                	addi	s1,sp,192
    18a4:	0000                	unimp
    18a6:	0001                	nop
    18a8:	8460                	0x8460
    18aa:	0001                	nop
    18ac:	1800                	addi	s0,sp,48
    18ae:	0002                	0x2
    18b0:	0400                	addi	s0,sp,512
    18b2:	f300                	fsw	fs0,32(a4)
    18b4:	6001                	0x6001
    18b6:	309f 0002 1000      	0x10000002309f
    18bc:	01000003          	lb	zero,16(zero) # 10 <__seq_start+0x10>
    18c0:	6000                	flw	fs0,0(s0)
    18c2:	0310                	addi	a2,sp,384
    18c4:	0000                	unimp
    18c6:	0338                	addi	a4,sp,392
    18c8:	0000                	unimp
    18ca:	0004                	addi	s1,sp,0
    18cc:	9f6001f3          	0x9f6001f3
    18d0:	0338                	addi	a4,sp,392
    18d2:	0000                	unimp
    18d4:	0344                	addi	s1,sp,388
    18d6:	0000                	unimp
    18d8:	0001                	nop
    18da:	4c60                	lw	s0,92(s0)
    18dc:	84000003          	lb	zero,-1984(zero) # fffff840 <pulp__FC+0xfffff841>
    18e0:	0004                	addi	s1,sp,0
    18e2:	0100                	addi	s0,sp,128
    18e4:	6000                	flw	fs0,0(s0)
	...
    18ee:	00e4                	addi	s1,sp,76
    18f0:	0000                	unimp
    18f2:	00ec                	addi	a1,sp,76
    18f4:	0000                	unimp
    18f6:	0001                	nop
    18f8:	305f 0002 4400      	0x44000002305f
    18fe:	0002                	0x2
    1900:	0100                	addi	s0,sp,128
    1902:	5f00                	lw	s0,56(a4)
    1904:	0390                	addi	a2,sp,448
    1906:	0000                	unimp
    1908:	0398                	addi	a4,sp,448
    190a:	0000                	unimp
    190c:	0001                	nop
    190e:	005f 0000 0000      	0x5f
    1914:	0000                	unimp
    1916:	e400                	fsw	fs0,8(s0)
    1918:	0000                	unimp
    191a:	ec00                	fsw	fs0,24(s0)
    191c:	0000                	unimp
    191e:	0100                	addi	s0,sp,128
    1920:	5800                	lw	s0,48(s0)
    1922:	0104                	addi	s1,sp,128
    1924:	0000                	unimp
    1926:	0110                	addi	a2,sp,128
    1928:	0000                	unimp
    192a:	0001                	nop
    192c:	1058                	addi	a4,sp,36
    192e:	0001                	nop
    1930:	1400                	addi	s0,sp,544
    1932:	0001                	nop
    1934:	0300                	addi	s0,sp,384
    1936:	0800                	addi	s0,sp,16
    1938:	9f20                	0x9f20
    193a:	0114                	addi	a3,sp,128
    193c:	0000                	unimp
    193e:	0144                	addi	s1,sp,132
    1940:	0000                	unimp
    1942:	0001                	nop
    1944:	5858                	lw	a4,52(s0)
    1946:	0001                	nop
    1948:	6000                	flw	fs0,0(s0)
    194a:	0001                	nop
    194c:	0100                	addi	s0,sp,128
    194e:	5800                	lw	s0,48(s0)
    1950:	0164                	addi	s1,sp,140
    1952:	0000                	unimp
    1954:	0178                	addi	a4,sp,140
    1956:	0000                	unimp
    1958:	01780003          	lb	zero,23(a6) # 1a017 <__seq_start+0x1a017>
    195c:	789f 0001 9400      	0x94000001789f
    1962:	0001                	nop
    1964:	0100                	addi	s0,sp,128
    1966:	5800                	lw	s0,48(s0)
    1968:	0230                	addi	a2,sp,264
    196a:	0000                	unimp
    196c:	0244                	addi	s1,sp,260
    196e:	0000                	unimp
    1970:	0002                	0x2
    1972:	9f30                	0x9f30
    1974:	0254                	addi	a3,sp,260
    1976:	0000                	unimp
    1978:	0268                	addi	a0,sp,268
    197a:	0000                	unimp
    197c:	01780003          	lb	zero,23(a6)
    1980:	689f 0002 d000      	0xd0000002689f
    1986:	0002                	0x2
    1988:	0100                	addi	s0,sp,128
    198a:	5800                	lw	s0,48(s0)
    198c:	02d0                	addi	a2,sp,324
    198e:	0000                	unimp
    1990:	02d4                	addi	a3,sp,324
    1992:	0000                	unimp
    1994:	0008                	addi	a0,sp,0
    1996:	007e                	0x7e
    1998:	0091                	addi	ra,ra,4
    199a:	231c                	fld	fa5,0(a4)
    199c:	9f50                	0x9f50
    199e:	02d4                	addi	a3,sp,324
    19a0:	0000                	unimp
    19a2:	02dc                	addi	a5,sp,324
    19a4:	0000                	unimp
    19a6:	0001                	nop
    19a8:	e058                	fsw	fa4,4(s0)
    19aa:	0002                	0x2
    19ac:	3400                	fld	fs0,40(s0)
    19ae:	01000003          	lb	zero,16(zero) # 10 <__seq_start+0x10>
    19b2:	5800                	lw	s0,48(s0)
    19b4:	0338                	addi	a4,sp,392
    19b6:	0000                	unimp
    19b8:	0344                	addi	s1,sp,388
    19ba:	0000                	unimp
    19bc:	0001                	nop
    19be:	4c58                	lw	a4,28(s0)
    19c0:	60000003          	lb	zero,1536(zero) # 600 <__seq_start+0x600>
    19c4:	03000003          	lb	zero,48(zero) # 30 <__seq_start+0x30>
    19c8:	7800                	flw	fs0,48(s0)
    19ca:	9f01                	0x9f01
    19cc:	0360                	addi	s0,sp,396
    19ce:	0000                	unimp
    19d0:	0364                	addi	s1,sp,396
    19d2:	0000                	unimp
    19d4:	0001                	nop
    19d6:	6458                	flw	fa4,12(s0)
    19d8:	7c000003          	lb	zero,1984(zero) # 7c0 <__seq_start+0x7c0>
    19dc:	02000003          	lb	zero,32(zero) # 20 <__seq_start+0x20>
    19e0:	3000                	fld	fs0,32(s0)
    19e2:	7c9f 0003 9000      	0x900000037c9f
    19e8:	01000003          	lb	zero,16(zero) # 10 <__seq_start+0x10>
    19ec:	5800                	lw	s0,48(s0)
    19ee:	0390                	addi	a2,sp,448
    19f0:	0000                	unimp
    19f2:	0398                	addi	a4,sp,448
    19f4:	0000                	unimp
    19f6:	0002                	0x2
    19f8:	9f30                	0x9f30
    19fa:	03a0                	addi	s0,sp,456
    19fc:	0000                	unimp
    19fe:	03a8                	addi	a0,sp,456
    1a00:	0000                	unimp
    1a02:	0002                	0x2
    1a04:	9f31                	0x9f31
    1a06:	03b0                	addi	a2,sp,456
    1a08:	0000                	unimp
    1a0a:	03b4                	addi	a3,sp,456
    1a0c:	0000                	unimp
    1a0e:	0001                	nop
    1a10:	b458                	fsd	fa4,168(s0)
    1a12:	b8000003          	lb	zero,-1152(zero) # fffffb80 <pulp__FC+0xfffffb81>
    1a16:	01000003          	lb	zero,16(zero) # 10 <__seq_start+0x10>
    1a1a:	5e00                	lw	s0,56(a2)
    1a1c:	03b8                	addi	a4,sp,456
    1a1e:	0000                	unimp
    1a20:	03c8                	addi	a0,sp,452
    1a22:	0000                	unimp
    1a24:	0002                	0x2
    1a26:	9f30                	0x9f30
    1a28:	03d0                	addi	a2,sp,452
    1a2a:	0000                	unimp
    1a2c:	03d8                	addi	a4,sp,452
    1a2e:	0000                	unimp
    1a30:	0002                	0x2
    1a32:	9f31                	0x9f31
    1a34:	03d8                	addi	a4,sp,452
    1a36:	0000                	unimp
    1a38:	03dc                	addi	a5,sp,452
    1a3a:	0000                	unimp
    1a3c:	0001                	nop
    1a3e:	dc5e                	sw	s7,56(sp)
    1a40:	ec000003          	lb	zero,-320(zero) # fffffec0 <pulp__FC+0xfffffec1>
    1a44:	01000003          	lb	zero,16(zero) # 10 <__seq_start+0x10>
    1a48:	5800                	lw	s0,48(s0)
    1a4a:	0404                	addi	s1,sp,512
    1a4c:	0000                	unimp
    1a4e:	040c                	addi	a1,sp,512
    1a50:	0000                	unimp
    1a52:	0001                	nop
    1a54:	2458                	fld	fa4,136(s0)
    1a56:	0004                	addi	s1,sp,0
    1a58:	3400                	fld	fs0,40(s0)
    1a5a:	0004                	addi	s1,sp,0
    1a5c:	0100                	addi	s0,sp,128
    1a5e:	5e00                	lw	s0,56(a2)
    1a60:	044c                	addi	a1,sp,516
    1a62:	0000                	unimp
    1a64:	0454                	addi	a3,sp,516
    1a66:	0000                	unimp
    1a68:	0002                	0x2
    1a6a:	9f30                	0x9f30
    1a6c:	045c                	addi	a5,sp,516
    1a6e:	0000                	unimp
    1a70:	0464                	addi	s1,sp,524
    1a72:	0000                	unimp
    1a74:	0002                	0x2
    1a76:	9f31                	0x9f31
    1a78:	046c                	addi	a1,sp,524
    1a7a:	0000                	unimp
    1a7c:	0474                	addi	a3,sp,524
    1a7e:	0000                	unimp
    1a80:	0002                	0x2
    1a82:	9f31                	0x9f31
    1a84:	0474                	addi	a3,sp,524
    1a86:	0000                	unimp
    1a88:	0484                	addi	s1,sp,576
    1a8a:	0000                	unimp
    1a8c:	0002                	0x2
    1a8e:	9f30                	0x9f30
	...
    1a98:	00e4                	addi	s1,sp,76
    1a9a:	0000                	unimp
    1a9c:	0214                	addi	a3,sp,256
    1a9e:	0000                	unimp
    1aa0:	0001                	nop
    1aa2:	1452                	slli	s0,s0,0x34
    1aa4:	0002                	0x2
    1aa6:	1800                	addi	s0,sp,48
    1aa8:	0002                	0x2
    1aaa:	0400                	addi	s0,sp,512
    1aac:	7200                	flw	fs0,32(a2)
    1aae:	7fb0                	flw	fa2,120(a5)
    1ab0:	309f 0002 4400      	0x44000002309f
    1ab6:	01000003          	lb	zero,16(zero) # 10 <__seq_start+0x10>
    1aba:	5200                	lw	s0,32(a2)
    1abc:	034c                	addi	a1,sp,388
    1abe:	0000                	unimp
    1ac0:	0484                	addi	s1,sp,576
    1ac2:	0000                	unimp
    1ac4:	0001                	nop
    1ac6:	0052                	0x52
    1ac8:	0000                	unimp
    1aca:	0000                	unimp
    1acc:	0000                	unimp
    1ace:	e400                	fsw	fs0,8(s0)
    1ad0:	0000                	unimp
    1ad2:	fc00                	fsw	fs0,56(s0)
    1ad4:	0001                	nop
    1ad6:	0100                	addi	s0,sp,128
    1ad8:	6300                	flw	fs0,0(a4)
    1ada:	01fc                	addi	a5,sp,204
    1adc:	0000                	unimp
    1ade:	0218                	addi	a4,sp,256
    1ae0:	0000                	unimp
    1ae2:	0004                	addi	s1,sp,0
    1ae4:	9f5d01f3          	0x9f5d01f3
    1ae8:	0230                	addi	a2,sp,264
    1aea:	0000                	unimp
    1aec:	0244                	addi	s1,sp,260
    1aee:	0000                	unimp
    1af0:	0001                	nop
    1af2:	445d                	li	s0,23
    1af4:	0002                	0x2
    1af6:	4400                	lw	s0,8(s0)
    1af8:	01000003          	lb	zero,16(zero) # 10 <__seq_start+0x10>
    1afc:	6300                	flw	fs0,0(a4)
    1afe:	034c                	addi	a1,sp,388
    1b00:	0000                	unimp
    1b02:	0390                	addi	a2,sp,448
    1b04:	0000                	unimp
    1b06:	0001                	nop
    1b08:	00039063          	bnez	t2,1b08 <__seq_start+0x1b08>
    1b0c:	9800                	0x9800
    1b0e:	01000003          	lb	zero,16(zero) # 10 <__seq_start+0x10>
    1b12:	5d00                	lw	s0,56(a0)
    1b14:	0398                	addi	a4,sp,448
    1b16:	0000                	unimp
    1b18:	0484                	addi	s1,sp,576
    1b1a:	0000                	unimp
    1b1c:	0001                	nop
    1b1e:	00000063          	beqz	zero,1b1e <__seq_start+0x1b1e>
    1b22:	0000                	unimp
    1b24:	0000                	unimp
    1b26:	e400                	fsw	fs0,8(s0)
    1b28:	0000                	unimp
    1b2a:	8400                	0x8400
    1b2c:	0001                	nop
    1b2e:	0100                	addi	s0,sp,128
    1b30:	6500                	flw	fs0,8(a0)
    1b32:	0184                	addi	s1,sp,192
    1b34:	0000                	unimp
    1b36:	0194                	addi	a3,sp,192
    1b38:	0000                	unimp
    1b3a:	0001                	nop
    1b3c:	9c66                	add	s8,s8,s9
    1b3e:	0001                	nop
    1b40:	af00                	fsd	fs0,24(a4)
    1b42:	0001                	nop
    1b44:	0100                	addi	s0,sp,128
    1b46:	5f00                	lw	s0,56(a4)
    1b48:	000001af          	0x1af
    1b4c:	01b4                	addi	a3,sp,200
    1b4e:	0000                	unimp
    1b50:	0001                	nop
    1b52:	b866                	fsd	fs9,48(sp)
    1b54:	0001                	nop
    1b56:	c400                	sw	s0,8(s0)
    1b58:	0001                	nop
    1b5a:	0100                	addi	s0,sp,128
    1b5c:	5800                	lw	s0,48(s0)
    1b5e:	01c4                	addi	s1,sp,196
    1b60:	0000                	unimp
    1b62:	000001db          	0x1db
    1b66:	0001                	nop
    1b68:	db5f 0001 e400      	0xe4000001db5f
    1b6e:	0001                	nop
    1b70:	0100                	addi	s0,sp,128
    1b72:	5800                	lw	s0,48(s0)
    1b74:	0230                	addi	a2,sp,264
    1b76:	0000                	unimp
    1b78:	0244                	addi	s1,sp,260
    1b7a:	0000                	unimp
    1b7c:	0001                	nop
    1b7e:	445c                	lw	a5,12(s0)
    1b80:	0002                	0x2
    1b82:	1000                	addi	s0,sp,32
    1b84:	01000003          	lb	zero,16(zero) # 10 <__seq_start+0x10>
    1b88:	6500                	flw	fs0,8(a0)
    1b8a:	0310                	addi	a2,sp,384
    1b8c:	0000                	unimp
    1b8e:	0320                	addi	s0,sp,392
    1b90:	0000                	unimp
    1b92:	0001                	nop
    1b94:	205c                	fld	fa5,128(s0)
    1b96:	38000003          	lb	zero,896(zero) # 380 <__seq_start+0x380>
    1b9a:	01000003          	lb	zero,16(zero) # 10 <__seq_start+0x10>
    1b9e:	6600                	flw	fs0,8(a2)
    1ba0:	0338                	addi	a4,sp,392
    1ba2:	0000                	unimp
    1ba4:	033c                	addi	a5,sp,392
    1ba6:	0000                	unimp
    1ba8:	0001                	nop
    1baa:	3c65                	jal	1662 <__seq_start+0x1662>
    1bac:	40000003          	lb	zero,1024(zero) # 400 <__seq_start+0x400>
    1bb0:	01000003          	lb	zero,16(zero) # 10 <__seq_start+0x10>
    1bb4:	6600                	flw	fs0,8(a2)
    1bb6:	0340                	addi	s0,sp,388
    1bb8:	0000                	unimp
    1bba:	0344                	addi	s1,sp,388
    1bbc:	0000                	unimp
    1bbe:	0001                	nop
    1bc0:	4c65                	li	s8,25
    1bc2:	90000003          	lb	zero,-1792(zero) # fffff900 <pulp__FC+0xfffff901>
    1bc6:	01000003          	lb	zero,16(zero) # 10 <__seq_start+0x10>
    1bca:	6500                	flw	fs0,8(a0)
    1bcc:	0390                	addi	a2,sp,448
    1bce:	0000                	unimp
    1bd0:	0398                	addi	a4,sp,448
    1bd2:	0000                	unimp
    1bd4:	0001                	nop
    1bd6:	985c                	0x985c
    1bd8:	84000003          	lb	zero,-1984(zero) # fffff840 <pulp__FC+0xfffff841>
    1bdc:	0004                	addi	s1,sp,0
    1bde:	0100                	addi	s0,sp,128
    1be0:	6500                	flw	fs0,8(a0)
	...
    1bea:	00e4                	addi	s1,sp,76
    1bec:	0000                	unimp
    1bee:	01f8                	addi	a4,sp,204
    1bf0:	0000                	unimp
    1bf2:	0001                	nop
    1bf4:	f862                	fsw	fs8,48(sp)
    1bf6:	0001                	nop
    1bf8:	1800                	addi	s0,sp,48
    1bfa:	0002                	0x2
    1bfc:	0400                	addi	s0,sp,512
    1bfe:	f300                	fsw	fs0,32(a4)
    1c00:	5b01                	li	s6,-32
    1c02:	309f 0002 4400      	0x44000002309f
    1c08:	0002                	0x2
    1c0a:	0100                	addi	s0,sp,128
    1c0c:	5b00                	lw	s0,48(a4)
    1c0e:	0244                	addi	s1,sp,260
    1c10:	0000                	unimp
    1c12:	0344                	addi	s1,sp,388
    1c14:	0000                	unimp
    1c16:	0001                	nop
    1c18:	4c62                	lw	s8,24(sp)
    1c1a:	90000003          	lb	zero,-1792(zero) # fffff900 <pulp__FC+0xfffff901>
    1c1e:	01000003          	lb	zero,16(zero) # 10 <__seq_start+0x10>
    1c22:	6200                	flw	fs0,0(a2)
    1c24:	0390                	addi	a2,sp,448
    1c26:	0000                	unimp
    1c28:	0398                	addi	a4,sp,448
    1c2a:	0000                	unimp
    1c2c:	0001                	nop
    1c2e:	0003985b          	0x3985b
    1c32:	8400                	0x8400
    1c34:	0004                	addi	s1,sp,0
    1c36:	0100                	addi	s0,sp,128
    1c38:	6200                	flw	fs0,0(a2)
	...
    1c42:	00e4                	addi	s1,sp,76
    1c44:	0000                	unimp
    1c46:	01f4                	addi	a3,sp,204
    1c48:	0000                	unimp
    1c4a:	0001                	nop
    1c4c:	f459                	bnez	s0,1bda <__seq_start+0x1bda>
    1c4e:	0001                	nop
    1c50:	1800                	addi	s0,sp,48
    1c52:	0002                	0x2
    1c54:	0400                	addi	s0,sp,512
    1c56:	f300                	fsw	fs0,32(a4)
    1c58:	5a01                	li	s4,-32
    1c5a:	309f 0002 4400      	0x44000002309f
    1c60:	01000003          	lb	zero,16(zero) # 10 <__seq_start+0x10>
    1c64:	5900                	lw	s0,48(a0)
    1c66:	034c                	addi	a1,sp,388
    1c68:	0000                	unimp
    1c6a:	0484                	addi	s1,sp,576
    1c6c:	0000                	unimp
    1c6e:	0001                	nop
    1c70:	0059                	c.addi	zero,22
    1c72:	0000                	unimp
    1c74:	0000                	unimp
    1c76:	0000                	unimp
    1c78:	e400                	fsw	fs0,8(s0)
    1c7a:	0000                	unimp
    1c7c:	0400                	addi	s0,sp,512
    1c7e:	0002                	0x2
    1c80:	0100                	addi	s0,sp,128
    1c82:	6500                	flw	fs0,8(a0)
    1c84:	0204                	addi	s1,sp,256
    1c86:	0000                	unimp
    1c88:	0218                	addi	a4,sp,256
    1c8a:	0000                	unimp
    1c8c:	0004                	addi	s1,sp,0
    1c8e:	9f5c01f3          	0x9f5c01f3
    1c92:	0230                	addi	a2,sp,264
    1c94:	0000                	unimp
    1c96:	0244                	addi	s1,sp,260
    1c98:	0000                	unimp
    1c9a:	0001                	nop
    1c9c:	445c                	lw	a5,12(s0)
    1c9e:	0002                	0x2
    1ca0:	4400                	lw	s0,8(s0)
    1ca2:	01000003          	lb	zero,16(zero) # 10 <__seq_start+0x10>
    1ca6:	6500                	flw	fs0,8(a0)
    1ca8:	034c                	addi	a1,sp,388
    1caa:	0000                	unimp
    1cac:	0390                	addi	a2,sp,448
    1cae:	0000                	unimp
    1cb0:	0001                	nop
    1cb2:	9065                	srli	s0,s0,0x39
    1cb4:	98000003          	lb	zero,-1664(zero) # fffff980 <pulp__FC+0xfffff981>
    1cb8:	01000003          	lb	zero,16(zero) # 10 <__seq_start+0x10>
    1cbc:	5c00                	lw	s0,56(s0)
    1cbe:	0398                	addi	a4,sp,448
    1cc0:	0000                	unimp
    1cc2:	0484                	addi	s1,sp,576
    1cc4:	0000                	unimp
    1cc6:	0001                	nop
    1cc8:	0065                	c.addi	zero,25
    1cca:	0000                	unimp
    1ccc:	0000                	unimp
    1cce:	0000                	unimp
    1cd0:	8400                	0x8400
    1cd2:	0001                	nop
    1cd4:	b400                	fsd	fs0,40(s0)
    1cd6:	0001                	nop
    1cd8:	0200                	addi	s0,sp,256
    1cda:	3000                	fld	fs0,32(s0)
    1cdc:	2c9f 0003 3800      	0x380000032c9f
    1ce2:	02000003          	lb	zero,32(zero) # 20 <__seq_start+0x20>
    1ce6:	3000                	fld	fs0,32(s0)
    1ce8:	3c9f 0003 4400      	0x440000033c9f
    1cee:	02000003          	lb	zero,32(zero) # 20 <__seq_start+0x20>
    1cf2:	3000                	fld	fs0,32(s0)
    1cf4:	009f 0000 0000      	0x9f
    1cfa:	0000                	unimp
    1cfc:	0000                	unimp
    1cfe:	10000003          	lb	zero,256(zero) # 100 <__seq_start+0x100>
    1d02:	01000003          	lb	zero,16(zero) # 10 <__seq_start+0x10>
    1d06:	5800                	lw	s0,48(s0)
	...
    1d10:	0010                	addi	a2,sp,0
    1d12:	0000                	unimp
    1d14:	001f 0000 0001      	0x10000001f
    1d1a:	1f5a                	slli	t5,t5,0x36
    1d1c:	0000                	unimp
    1d1e:	2000                	fld	fs0,0(s0)
    1d20:	0000                	unimp
    1d22:	0400                	addi	s0,sp,512
    1d24:	f300                	fsw	fs0,32(a4)
    1d26:	5a01                	li	s4,-32
    1d28:	209f 0000 2400      	0x24000000209f
    1d2e:	0000                	unimp
    1d30:	0100                	addi	s0,sp,128
    1d32:	5a00                	lw	s0,48(a2)
	...
    1d3c:	0010                	addi	a2,sp,0
    1d3e:	0000                	unimp
    1d40:	001c                	addi	a5,sp,0
    1d42:	0000                	unimp
    1d44:	0001                	nop
    1d46:	00001c5b          	0x1c5b
    1d4a:	2000                	fld	fs0,0(s0)
    1d4c:	0000                	unimp
    1d4e:	0400                	addi	s0,sp,512
    1d50:	f300                	fsw	fs0,32(a4)
    1d52:	5b01                	li	s6,-32
    1d54:	209f 0000 2400      	0x24000000209f
    1d5a:	0000                	unimp
    1d5c:	0100                	addi	s0,sp,128
    1d5e:	5b00                	lw	s0,48(a4)
	...
    1d68:	0010                	addi	a2,sp,0
    1d6a:	0000                	unimp
    1d6c:	001f 0000 0001      	0x10000001f
    1d72:	1f5c                	addi	a5,sp,948
    1d74:	0000                	unimp
    1d76:	2000                	fld	fs0,0(s0)
    1d78:	0000                	unimp
    1d7a:	0400                	addi	s0,sp,512
    1d7c:	f300                	fsw	fs0,32(a4)
    1d7e:	5c01                	li	s8,-32
    1d80:	209f 0000 2400      	0x24000000209f
    1d86:	0000                	unimp
    1d88:	0100                	addi	s0,sp,128
    1d8a:	5c00                	lw	s0,56(s0)
	...
    1d94:	0010                	addi	a2,sp,0
    1d96:	0000                	unimp
    1d98:	001f 0000 0001      	0x10000001f
    1d9e:	1f5d                	addi	t5,t5,-9
    1da0:	0000                	unimp
    1da2:	2000                	fld	fs0,0(s0)
    1da4:	0000                	unimp
    1da6:	0400                	addi	s0,sp,512
    1da8:	f300                	fsw	fs0,32(a4)
    1daa:	5d01                	li	s10,-32
    1dac:	209f 0000 2400      	0x24000000209f
    1db2:	0000                	unimp
    1db4:	0100                	addi	s0,sp,128
    1db6:	5d00                	lw	s0,56(a0)
	...
    1dc0:	0c0c                	addi	a1,sp,528
    1dc2:	0000                	unimp
    1dc4:	00000c17          	auipc	s8,0x0
    1dc8:	0001                	nop
    1dca:	175a                	slli	a4,a4,0x36
    1dcc:	000c                	addi	a1,sp,0
    1dce:	1800                	addi	s0,sp,48
    1dd0:	000c                	addi	a1,sp,0
    1dd2:	0400                	addi	s0,sp,512
    1dd4:	f300                	fsw	fs0,32(a4)
    1dd6:	5a01                	li	s4,-32
    1dd8:	009f 0000 0000      	0x9f
    1dde:	0000                	unimp
    1de0:	0c00                	addi	s0,sp,528
    1de2:	000c                	addi	a1,sp,0
    1de4:	1700                	addi	s0,sp,928
    1de6:	000c                	addi	a1,sp,0
    1de8:	0100                	addi	s0,sp,128
    1dea:	5b00                	lw	s0,48(a4)
    1dec:	00000c17          	auipc	s8,0x0
    1df0:	0c18                	addi	a4,sp,528
    1df2:	0000                	unimp
    1df4:	0004                	addi	s1,sp,0
    1df6:	9f5b01f3          	0x9f5b01f3
	...
    1e02:	0c0c                	addi	a1,sp,528
    1e04:	0000                	unimp
    1e06:	00000c17          	auipc	s8,0x0
    1e0a:	0001                	nop
    1e0c:	175c                	addi	a5,sp,932
    1e0e:	000c                	addi	a1,sp,0
    1e10:	1800                	addi	s0,sp,48
    1e12:	000c                	addi	a1,sp,0
    1e14:	0400                	addi	s0,sp,512
    1e16:	f300                	fsw	fs0,32(a4)
    1e18:	5c01                	li	s8,-32
    1e1a:	009f 0000 0000      	0x9f
    1e20:	0000                	unimp
    1e22:	0c00                	addi	s0,sp,528
    1e24:	000c                	addi	a1,sp,0
    1e26:	1700                	addi	s0,sp,928
    1e28:	000c                	addi	a1,sp,0
    1e2a:	0100                	addi	s0,sp,128
    1e2c:	5d00                	lw	s0,56(a0)
    1e2e:	00000c17          	auipc	s8,0x0
    1e32:	0c18                	addi	a4,sp,528
    1e34:	0000                	unimp
    1e36:	0004                	addi	s1,sp,0
    1e38:	9f5d01f3          	0x9f5d01f3
	...
    1e44:	0370                	addi	a2,sp,396
    1e46:	0000                	unimp
    1e48:	0384                	addi	s1,sp,448
    1e4a:	0000                	unimp
    1e4c:	0001                	nop
    1e4e:	845a                	mv	s0,s6
    1e50:	88000003          	lb	zero,-1920(zero) # fffff880 <pulp__FC+0xfffff881>
    1e54:	03000003          	lb	zero,48(zero) # 30 <__seq_start+0x30>
    1e58:	7f00                	flw	fs0,56(a4)
    1e5a:	9f7f                	0x9f7f
    1e5c:	0388                	addi	a0,sp,448
    1e5e:	0000                	unimp
    1e60:	038c                	addi	a1,sp,448
    1e62:	0000                	unimp
    1e64:	0001                	nop
    1e66:	8c5f 0003 b000      	0xb00000038c5f
    1e6c:	01000003          	lb	zero,16(zero) # 10 <__seq_start+0x10>
    1e70:	5a00                	lw	s0,48(a2)
    1e72:	03b0                	addi	a2,sp,456
    1e74:	0000                	unimp
    1e76:	03b8                	addi	a4,sp,456
    1e78:	0000                	unimp
    1e7a:	7f7d0003          	lb	zero,2039(s10) # 197f7 <__seq_start+0x197f7>
    1e7e:	b89f 0003 c400      	0xc4000003b89f
    1e84:	03000003          	lb	zero,48(zero) # 30 <__seq_start+0x30>
    1e88:	7d00                	flw	fs0,56(a0)
    1e8a:	9f7e                	add	t5,t5,t6
    1e8c:	03d8                	addi	a4,sp,452
    1e8e:	0000                	unimp
    1e90:	03dc                	addi	a5,sp,452
    1e92:	0000                	unimp
    1e94:	0001                	nop
    1e96:	e05a                	fsw	fs6,0(sp)
    1e98:	e8000003          	lb	zero,-384(zero) # fffffe80 <pulp__FC+0xfffffe81>
    1e9c:	01000003          	lb	zero,16(zero) # 10 <__seq_start+0x10>
    1ea0:	5a00                	lw	s0,48(a2)
    1ea2:	03e8                	addi	a0,sp,460
    1ea4:	0000                	unimp
    1ea6:	03ec                	addi	a1,sp,460
    1ea8:	0000                	unimp
    1eaa:	7f7a0003          	lb	zero,2039(s4) # ffffa7f7 <pulp__FC+0xffffa7f8>
    1eae:	ec9f 0003 f800      	0xf8000003ec9f
    1eb4:	03000003          	lb	zero,48(zero) # 30 <__seq_start+0x30>
    1eb8:	7a00                	flw	fs0,48(a2)
    1eba:	9f01                	0x9f01
    1ebc:	03f8                	addi	a4,sp,460
    1ebe:	0000                	unimp
    1ec0:	0400                	addi	s0,sp,512
    1ec2:	0000                	unimp
    1ec4:	0001                	nop
    1ec6:	005a                	0x5a
    1ec8:	0000                	unimp
    1eca:	0000                	unimp
    1ecc:	0000                	unimp
    1ece:	7000                	flw	fs0,32(s0)
    1ed0:	b0000003          	lb	zero,-1280(zero) # fffffb00 <pulp__FC+0xfffffb01>
    1ed4:	02000003          	lb	zero,32(zero) # 20 <__seq_start+0x20>
    1ed8:	3000                	fld	fs0,32(s0)
    1eda:	b09f 0003 c000      	0xc0000003b09f
    1ee0:	01000003          	lb	zero,16(zero) # 10 <__seq_start+0x10>
    1ee4:	5a00                	lw	s0,48(a2)
    1ee6:	03c4                	addi	s1,sp,452
    1ee8:	0000                	unimp
    1eea:	03d0                	addi	a2,sp,452
    1eec:	0000                	unimp
    1eee:	0001                	nop
    1ef0:	d85a                	sw	s6,48(sp)
    1ef2:	dc000003          	lb	zero,-576(zero) # fffffdc0 <pulp__FC+0xfffffdc1>
    1ef6:	02000003          	lb	zero,32(zero) # 20 <__seq_start+0x20>
    1efa:	3000                	fld	fs0,32(s0)
    1efc:	e09f 0003 0400      	0x4000003e09f
    1f02:	0004                	addi	s1,sp,0
    1f04:	0200                	addi	s0,sp,256
    1f06:	3000                	fld	fs0,32(s0)
    1f08:	009f 0000 0000      	0x9f
    1f0e:	0000                	unimp
    1f10:	7000                	flw	fs0,32(s0)
    1f12:	a8000003          	lb	zero,-1408(zero) # fffffa80 <pulp__FC+0xfffffa81>
    1f16:	02000003          	lb	zero,32(zero) # 20 <__seq_start+0x20>
    1f1a:	3000                	fld	fs0,32(s0)
    1f1c:	d89f 0003 dc00      	0xdc000003d89f
    1f22:	02000003          	lb	zero,32(zero) # 20 <__seq_start+0x20>
    1f26:	3000                	fld	fs0,32(s0)
    1f28:	e09f 0003 ec00      	0xec000003e09f
    1f2e:	02000003          	lb	zero,32(zero) # 20 <__seq_start+0x20>
    1f32:	3000                	fld	fs0,32(s0)
    1f34:	ec9f 0003 0400      	0x4000003ec9f
    1f3a:	0004                	addi	s1,sp,0
    1f3c:	0200                	addi	s0,sp,256
    1f3e:	3100                	fld	fs0,32(a0)
    1f40:	009f 0000 0000      	0x9f
    1f46:	0000                	unimp
    1f48:	5c00                	lw	s0,56(s0)
    1f4a:	60000003          	lb	zero,1536(zero) # 600 <__seq_start+0x600>
    1f4e:	01000003          	lb	zero,16(zero) # 10 <__seq_start+0x10>
    1f52:	5b00                	lw	s0,48(a4)
    1f54:	0360                	addi	s0,sp,396
    1f56:	0000                	unimp
    1f58:	0364                	addi	s1,sp,396
    1f5a:	0000                	unimp
    1f5c:	0001                	nop
    1f5e:	0003645b          	0x3645b
    1f62:	7000                	flw	fs0,32(s0)
    1f64:	03000003          	lb	zero,48(zero) # 30 <__seq_start+0x30>
    1f68:	7b00                	flw	fs0,48(a4)
    1f6a:	9f7f                	0x9f7f
	...
    1f74:	035c                	addi	a5,sp,388
    1f76:	0000                	unimp
    1f78:	0360                	addi	s0,sp,396
    1f7a:	0000                	unimp
    1f7c:	0001                	nop
    1f7e:	005a                	0x5a
    1f80:	0000                	unimp
    1f82:	0000                	unimp
    1f84:	0000                	unimp
    1f86:	dc00                	sw	s0,56(s0)
    1f88:	0002                	0x2
    1f8a:	1000                	addi	s0,sp,32
    1f8c:	01000003          	lb	zero,16(zero) # 10 <__seq_start+0x10>
    1f90:	5a00                	lw	s0,48(a2)
    1f92:	0310                	addi	a2,sp,384
    1f94:	0000                	unimp
    1f96:	0334                	addi	a3,sp,392
    1f98:	0000                	unimp
    1f9a:	0001                	nop
    1f9c:	3456                	fld	fs0,368(sp)
    1f9e:	38000003          	lb	zero,896(zero) # 380 <__seq_start+0x380>
    1fa2:	04000003          	lb	zero,64(zero) # 40 <__seq_start+0x40>
    1fa6:	f300                	fsw	fs0,32(a4)
    1fa8:	5a01                	li	s4,-32
    1faa:	3c9f 0003 4400      	0x440000033c9f
    1fb0:	03000003          	lb	zero,48(zero) # 30 <__seq_start+0x30>
    1fb4:	7a00                	flw	fs0,48(a2)
    1fb6:	9f01                	0x9f01
    1fb8:	0344                	addi	s1,sp,388
    1fba:	0000                	unimp
    1fbc:	0350                	addi	a2,sp,388
    1fbe:	0000                	unimp
    1fc0:	0001                	nop
    1fc2:	545a                	lw	s0,180(sp)
    1fc4:	58000003          	lb	zero,1408(zero) # 580 <__seq_start+0x580>
    1fc8:	03000003          	lb	zero,48(zero) # 30 <__seq_start+0x30>
    1fcc:	7a00                	flw	fs0,48(a2)
    1fce:	9f01                	0x9f01
	...
    1fd8:	02dc                	addi	a5,sp,324
    1fda:	0000                	unimp
    1fdc:	0310                	addi	a2,sp,384
    1fde:	0000                	unimp
    1fe0:	0001                	nop
    1fe2:	0003105b          	0x3105b
    1fe6:	3800                	fld	fs0,48(s0)
    1fe8:	04000003          	lb	zero,64(zero) # 40 <__seq_start+0x40>
    1fec:	f300                	fsw	fs0,32(a4)
    1fee:	5b01                	li	s6,-32
    1ff0:	3c9f 0003 4400      	0x440000033c9f
    1ff6:	01000003          	lb	zero,16(zero) # 10 <__seq_start+0x10>
    1ffa:	5b00                	lw	s0,48(a4)
    1ffc:	0344                	addi	s1,sp,388
    1ffe:	0000                	unimp
    2000:	0348                	addi	a0,sp,388
    2002:	0000                	unimp
    2004:	017b0003          	lb	zero,23(s6)
    2008:	489f 0003 5c00      	0x5c000003489f
    200e:	01000003          	lb	zero,16(zero) # 10 <__seq_start+0x10>
    2012:	5b00                	lw	s0,48(a4)
	...
    201c:	02dc                	addi	a5,sp,324
    201e:	0000                	unimp
    2020:	0338                	addi	a4,sp,392
    2022:	0000                	unimp
    2024:	0001                	nop
    2026:	005c                	addi	a5,sp,4
    2028:	0000                	unimp
    202a:	0000                	unimp
    202c:	0000                	unimp
    202e:	e800                	fsw	fs0,16(s0)
    2030:	0002                	0x2
    2032:	2400                	fld	fs0,8(s0)
    2034:	01000003          	lb	zero,16(zero) # 10 <__seq_start+0x10>
    2038:	5a00                	lw	s0,48(a2)
    203a:	0324                	addi	s1,sp,392
    203c:	0000                	unimp
    203e:	0328                	addi	a0,sp,392
    2040:	0000                	unimp
    2042:	7c7f0003          	lb	zero,1991(t5)
    2046:	289f 0003 3000      	0x30000003289f
    204c:	01000003          	lb	zero,16(zero) # 10 <__seq_start+0x10>
    2050:	5f00                	lw	s0,56(a4)
    2052:	0330                	addi	a2,sp,392
    2054:	0000                	unimp
    2056:	0338                	addi	a4,sp,392
    2058:	0000                	unimp
    205a:	0001                	nop
    205c:	005a                	0x5a
    205e:	0000                	unimp
    2060:	0000                	unimp
    2062:	0000                	unimp
    2064:	e800                	fsw	fs0,16(s0)
    2066:	0002                	0x2
    2068:	2400                	fld	fs0,8(s0)
    206a:	01000003          	lb	zero,16(zero) # 10 <__seq_start+0x10>
    206e:	5b00                	lw	s0,48(a4)
    2070:	0324                	addi	s1,sp,392
    2072:	0000                	unimp
    2074:	0328                	addi	a0,sp,392
    2076:	0000                	unimp
    2078:	7c7b0003          	lb	zero,1991(s6)
    207c:	289f 0003 2c00      	0x2c000003289f
    2082:	03000003          	lb	zero,48(zero) # 30 <__seq_start+0x30>
    2086:	7e00                	flw	fs0,56(a2)
    2088:	9f7c                	0x9f7c
    208a:	032c                	addi	a1,sp,392
    208c:	0000                	unimp
    208e:	0330                	addi	a2,sp,392
    2090:	0000                	unimp
    2092:	0001                	nop
    2094:	305e                	fld	ft0,496(sp)
    2096:	38000003          	lb	zero,896(zero) # 380 <__seq_start+0x380>
    209a:	01000003          	lb	zero,16(zero) # 10 <__seq_start+0x10>
    209e:	5b00                	lw	s0,48(a4)
	...
    20a8:	02f0                	addi	a2,sp,332
    20aa:	0000                	unimp
    20ac:	0338                	addi	a4,sp,392
    20ae:	0000                	unimp
    20b0:	0001                	nop
    20b2:	0061                	c.addi	zero,24
    20b4:	0000                	unimp
    20b6:	0000                	unimp
    20b8:	0000                	unimp
    20ba:	4400                	lw	s0,8(s0)
    20bc:	50000003          	lb	zero,1280(zero) # 500 <__seq_start+0x500>
    20c0:	02000003          	lb	zero,32(zero) # 20 <__seq_start+0x20>
    20c4:	7a00                	flw	fs0,48(a2)
    20c6:	507f                	0x507f
    20c8:	54000003          	lb	zero,1344(zero) # 540 <__seq_start+0x540>
    20cc:	01000003          	lb	zero,16(zero) # 10 <__seq_start+0x10>
    20d0:	5f00                	lw	s0,56(a4)
	...
    20da:	0348                	addi	a0,sp,388
    20dc:	0000                	unimp
    20de:	0354                	addi	a3,sp,388
    20e0:	0000                	unimp
    20e2:	0002                	0x2
    20e4:	00007f7b          	0x7f7b
    20e8:	0000                	unimp
    20ea:	0000                	unimp
    20ec:	0000                	unimp
    20ee:	02c0                	addi	s0,sp,324
    20f0:	0000                	unimp
    20f2:	02cc                	addi	a1,sp,324
    20f4:	0000                	unimp
    20f6:	0001                	nop
    20f8:	cc5f 0002 dc00      	0xdc000002cc5f
    20fe:	0002                	0x2
    2100:	0300                	addi	s0,sp,384
    2102:	f300                	fsw	fs0,32(a4)
    2104:	5a01                	li	s4,-32
	...
    210e:	028c                	addi	a1,sp,320
    2110:	0000                	unimp
    2112:	02b0                	addi	a2,sp,328
    2114:	0000                	unimp
    2116:	0001                	nop
    2118:	b05a                	fsd	fs6,32(sp)
    211a:	0002                	0x2
    211c:	b400                	fsd	fs0,40(s0)
    211e:	0002                	0x2
    2120:	0400                	addi	s0,sp,512
    2122:	f300                	fsw	fs0,32(a4)
    2124:	5a01                	li	s4,-32
    2126:	b49f 0002 b800      	0xb8000002b49f
    212c:	0002                	0x2
    212e:	0100                	addi	s0,sp,128
    2130:	5a00                	lw	s0,48(a2)
    2132:	02b8                	addi	a4,sp,328
    2134:	0000                	unimp
    2136:	02bc                	addi	a5,sp,328
    2138:	0000                	unimp
    213a:	0004                	addi	s1,sp,0
    213c:	9f5a01f3          	0x9f5a01f3
	...
    2148:	029c                	addi	a5,sp,320
    214a:	0000                	unimp
    214c:	02b4                	addi	a3,sp,328
    214e:	0000                	unimp
    2150:	0001                	nop
    2152:	005f 0000 0000      	0x5f
    2158:	0000                	unimp
    215a:	6c00                	flw	fs0,24(s0)
    215c:	0001                	nop
    215e:	a400                	fsd	fs0,8(s0)
    2160:	0001                	nop
    2162:	0100                	addi	s0,sp,128
    2164:	5b00                	lw	s0,48(a4)
    2166:	01a4                	addi	s1,sp,200
    2168:	0000                	unimp
    216a:	024c                	addi	a1,sp,260
    216c:	0000                	unimp
    216e:	0004                	addi	s1,sp,0
    2170:	9f5b01f3          	0x9f5b01f3
    2174:	024c                	addi	a1,sp,260
    2176:	0000                	unimp
    2178:	0250                	addi	a2,sp,260
    217a:	0000                	unimp
    217c:	0001                	nop
    217e:	0002505b          	0x2505b
    2182:	7400                	flw	fs0,40(s0)
    2184:	0002                	0x2
    2186:	0400                	addi	s0,sp,512
    2188:	f300                	fsw	fs0,32(a4)
    218a:	5b01                	li	s6,-32
    218c:	749f 0002 7800      	0x78000002749f
    2192:	0002                	0x2
    2194:	0100                	addi	s0,sp,128
    2196:	5b00                	lw	s0,48(a4)
    2198:	0278                	addi	a4,sp,268
    219a:	0000                	unimp
    219c:	028c                	addi	a1,sp,320
    219e:	0000                	unimp
    21a0:	0004                	addi	s1,sp,0
    21a2:	9f5b01f3          	0x9f5b01f3
	...
    21ae:	016c                	addi	a1,sp,140
    21b0:	0000                	unimp
    21b2:	01a0                	addi	s0,sp,200
    21b4:	0000                	unimp
    21b6:	0001                	nop
    21b8:	a05c                	fsd	fa5,128(s0)
    21ba:	0001                	nop
    21bc:	d400                	sw	s0,40(s0)
    21be:	0001                	nop
    21c0:	0300                	addi	s0,sp,384
    21c2:	7c00                	flw	fs0,56(s0)
    21c4:	9f01                	0x9f01
    21c6:	01d4                	addi	a3,sp,196
    21c8:	0000                	unimp
    21ca:	024c                	addi	a1,sp,260
    21cc:	0000                	unimp
    21ce:	0004                	addi	s1,sp,0
    21d0:	9f5c01f3          	0x9f5c01f3
    21d4:	024c                	addi	a1,sp,260
    21d6:	0000                	unimp
    21d8:	0278                	addi	a4,sp,268
    21da:	0000                	unimp
    21dc:	0001                	nop
    21de:	785c                	flw	fa5,52(s0)
    21e0:	0002                	0x2
    21e2:	8000                	0x8000
    21e4:	0002                	0x2
    21e6:	0300                	addi	s0,sp,384
    21e8:	7c00                	flw	fs0,56(s0)
    21ea:	9f01                	0x9f01
    21ec:	0280                	addi	s0,sp,320
    21ee:	0000                	unimp
    21f0:	028c                	addi	a1,sp,320
    21f2:	0000                	unimp
    21f4:	0004                	addi	s1,sp,0
    21f6:	9f5c01f3          	0x9f5c01f3
	...
    2202:	0250                	addi	a2,sp,260
    2204:	0000                	unimp
    2206:	0258                	addi	a4,sp,260
    2208:	0000                	unimp
    220a:	0001                	nop
    220c:	0002585b          	0x2585b
    2210:	6000                	flw	fs0,0(s0)
    2212:	0002                	0x2
    2214:	0100                	addi	s0,sp,128
    2216:	5f00                	lw	s0,56(a4)
    2218:	0260                	addi	s0,sp,268
    221a:	0000                	unimp
    221c:	0274                	addi	a3,sp,268
    221e:	0000                	unimp
    2220:	0001                	nop
    2222:	0000005b          	0x5b
    2226:	0000                	unimp
    2228:	0000                	unimp
    222a:	6000                	flw	fs0,0(s0)
    222c:	0002                	0x2
    222e:	6800                	flw	fs0,16(s0)
    2230:	0002                	0x2
    2232:	0100                	addi	s0,sp,128
    2234:	5a00                	lw	s0,48(a2)
    2236:	0268                	addi	a0,sp,268
    2238:	0000                	unimp
    223a:	0274                	addi	a3,sp,268
    223c:	0000                	unimp
    223e:	0001                	nop
    2240:	005f 0000 0000      	0x5f
    2246:	0000                	unimp
    2248:	7c00                	flw	fs0,56(s0)
    224a:	0001                	nop
    224c:	b000                	fsd	fs0,32(s0)
    224e:	0001                	nop
    2250:	0100                	addi	s0,sp,128
    2252:	5a00                	lw	s0,48(a2)
    2254:	01b0                	addi	a2,sp,200
    2256:	0000                	unimp
    2258:	01b8                	addi	a4,sp,200
    225a:	0000                	unimp
    225c:	0001                	nop
    225e:	b860                	fsd	fs0,240(s0)
    2260:	0001                	nop
    2262:	c400                	sw	s0,8(s0)
    2264:	0001                	nop
    2266:	0300                	addi	s0,sp,384
    2268:	7a00                	flw	fs0,48(a2)
    226a:	9f02                	jalr	t5
    226c:	01c4                	addi	s1,sp,196
    226e:	0000                	unimp
    2270:	01c8                	addi	a0,sp,196
    2272:	0000                	unimp
    2274:	0001                	nop
    2276:	c860                	sw	s0,84(s0)
    2278:	0001                	nop
    227a:	cc00                	sw	s0,24(s0)
    227c:	0001                	nop
    227e:	0300                	addi	s0,sp,384
    2280:	7a00                	flw	fs0,48(a2)
    2282:	01cc9f03          	lh	t5,28(s9)
    2286:	0000                	unimp
    2288:	01d0                	addi	a2,sp,196
    228a:	0000                	unimp
    228c:	0001                	nop
    228e:	0860                	addi	s0,sp,28
    2290:	0002                	0x2
    2292:	1000                	addi	s0,sp,32
    2294:	0002                	0x2
    2296:	0300                	addi	s0,sp,384
    2298:	7f00                	flw	fs0,56(a4)
    229a:	9f01                	0x9f01
    229c:	0210                	addi	a2,sp,256
    229e:	0000                	unimp
    22a0:	0214                	addi	a3,sp,256
    22a2:	0000                	unimp
    22a4:	0001                	nop
    22a6:	145e                	slli	s0,s0,0x37
    22a8:	0002                	0x2
    22aa:	1c00                	addi	s0,sp,560
    22ac:	0002                	0x2
    22ae:	0300                	addi	s0,sp,384
    22b0:	7f00                	flw	fs0,56(a4)
    22b2:	9f02                	jalr	t5
    22b4:	021c                	addi	a5,sp,256
    22b6:	0000                	unimp
    22b8:	0220                	addi	s0,sp,264
    22ba:	0000                	unimp
    22bc:	0001                	nop
    22be:	205e                	fld	ft0,464(sp)
    22c0:	0002                	0x2
    22c2:	2800                	fld	fs0,16(s0)
    22c4:	0002                	0x2
    22c6:	0300                	addi	s0,sp,384
    22c8:	7f00                	flw	fs0,56(a4)
    22ca:	02289f03          	lh	t5,34(a7)
    22ce:	0000                	unimp
    22d0:	022c                	addi	a1,sp,264
    22d2:	0000                	unimp
    22d4:	0001                	nop
    22d6:	2c5e                	fld	fs8,464(sp)
    22d8:	0002                	0x2
    22da:	3400                	fld	fs0,40(s0)
    22dc:	0002                	0x2
    22de:	0300                	addi	s0,sp,384
    22e0:	7f00                	flw	fs0,56(a4)
    22e2:	9f04                	0x9f04
    22e4:	0234                	addi	a3,sp,264
    22e6:	0000                	unimp
    22e8:	0238                	addi	a4,sp,264
    22ea:	0000                	unimp
    22ec:	0001                	nop
    22ee:	385e                	fld	fa6,496(sp)
    22f0:	0002                	0x2
    22f2:	4000                	lw	s0,0(s0)
    22f4:	0002                	0x2
    22f6:	0300                	addi	s0,sp,384
    22f8:	7f00                	flw	fs0,56(a4)
    22fa:	9f05                	0x9f05
    22fc:	0240                	addi	s0,sp,260
    22fe:	0000                	unimp
    2300:	0244                	addi	s1,sp,260
    2302:	0000                	unimp
    2304:	0001                	nop
    2306:	445e                	lw	s0,212(sp)
    2308:	0002                	0x2
    230a:	4800                	lw	s0,16(s0)
    230c:	0002                	0x2
    230e:	0300                	addi	s0,sp,384
    2310:	7e00                	flw	fs0,56(a2)
    2312:	9f01                	0x9f01
    2314:	0274                	addi	a3,sp,268
    2316:	0000                	unimp
    2318:	0280                	addi	s0,sp,320
    231a:	0000                	unimp
    231c:	0001                	nop
    231e:	845a                	mv	s0,s6
    2320:	0002                	0x2
    2322:	8c00                	0x8c00
    2324:	0002                	0x2
    2326:	0100                	addi	s0,sp,128
    2328:	5a00                	lw	s0,48(a2)
	...
    2336:	00b0                	addi	a2,sp,72
    2338:	0000                	unimp
    233a:	0001                	nop
    233c:	0000b05b          	0xb05b
    2340:	3400                	fld	fs0,40(s0)
    2342:	0001                	nop
    2344:	0400                	addi	s0,sp,512
    2346:	f300                	fsw	fs0,32(a4)
    2348:	5b01                	li	s6,-32
    234a:	349f 0001 3800      	0x38000001349f
    2350:	0001                	nop
    2352:	0100                	addi	s0,sp,128
    2354:	5b00                	lw	s0,48(a4)
    2356:	0138                	addi	a4,sp,136
    2358:	0000                	unimp
    235a:	0148                	addi	a0,sp,132
    235c:	0000                	unimp
    235e:	0004                	addi	s1,sp,0
    2360:	9f5b01f3          	0x9f5b01f3
    2364:	0148                	addi	a0,sp,132
    2366:	0000                	unimp
    2368:	014c                	addi	a1,sp,132
    236a:	0000                	unimp
    236c:	0001                	nop
    236e:	00014c5b          	0x14c5b
    2372:	5c00                	lw	s0,56(s0)
    2374:	0001                	nop
    2376:	0400                	addi	s0,sp,512
    2378:	f300                	fsw	fs0,32(a4)
    237a:	5b01                	li	s6,-32
    237c:	5c9f 0001 6c00      	0x6c0000015c9f
    2382:	0001                	nop
    2384:	0100                	addi	s0,sp,128
    2386:	5b00                	lw	s0,48(a4)
	...
    2394:	0068                	addi	a0,sp,12
    2396:	0000                	unimp
    2398:	0001                	nop
    239a:	685c                	flw	fa5,20(s0)
    239c:	0000                	unimp
    239e:	a400                	fsd	fs0,8(s0)
    23a0:	0000                	unimp
    23a2:	0300                	addi	s0,sp,384
    23a4:	8100                	0x8100
    23a6:	9f01                	0x9f01
    23a8:	00a4                	addi	s1,sp,72
    23aa:	0000                	unimp
    23ac:	0134                	addi	a3,sp,136
    23ae:	0000                	unimp
    23b0:	0004                	addi	s1,sp,0
    23b2:	9f5c01f3          	0x9f5c01f3
    23b6:	0134                	addi	a3,sp,136
    23b8:	0000                	unimp
    23ba:	014c                	addi	a1,sp,132
    23bc:	0000                	unimp
    23be:	0001                	nop
    23c0:	4c5c                	lw	a5,28(s0)
    23c2:	0001                	nop
    23c4:	5800                	lw	s0,48(s0)
    23c6:	0001                	nop
    23c8:	0300                	addi	s0,sp,384
    23ca:	8100                	0x8100
    23cc:	9f01                	0x9f01
    23ce:	0158                	addi	a4,sp,132
    23d0:	0000                	unimp
    23d2:	015c                	addi	a5,sp,132
    23d4:	0000                	unimp
    23d6:	0004                	addi	s1,sp,0
    23d8:	9f5c01f3          	0x9f5c01f3
    23dc:	015c                	addi	a5,sp,132
    23de:	0000                	unimp
    23e0:	016c                	addi	a1,sp,140
    23e2:	0000                	unimp
    23e4:	0001                	nop
    23e6:	005c                	addi	a5,sp,4
    23e8:	0000                	unimp
    23ea:	0000                	unimp
    23ec:	0000                	unimp
    23ee:	3400                	fld	fs0,40(s0)
    23f0:	0001                	nop
    23f2:	3c00                	fld	fs0,56(s0)
    23f4:	0001                	nop
    23f6:	0100                	addi	s0,sp,128
    23f8:	5b00                	lw	s0,48(a4)
    23fa:	013c                	addi	a5,sp,136
    23fc:	0000                	unimp
    23fe:	0140                	addi	s0,sp,132
    2400:	0000                	unimp
    2402:	7c7b0003          	lb	zero,1991(s6)
    2406:	409f 0001 4800      	0x48000001409f
    240c:	0001                	nop
    240e:	0100                	addi	s0,sp,128
    2410:	5b00                	lw	s0,48(a4)
	...
    241a:	0134                	addi	a3,sp,136
    241c:	0000                	unimp
    241e:	0138                	addi	a4,sp,136
    2420:	0000                	unimp
    2422:	0001                	nop
    2424:	005a                	0x5a
    2426:	0000                	unimp
    2428:	0000                	unimp
    242a:	0000                	unimp
    242c:	1800                	addi	s0,sp,48
    242e:	0000                	unimp
    2430:	7000                	flw	fs0,32(s0)
    2432:	0000                	unimp
    2434:	0100                	addi	s0,sp,128
    2436:	5b00                	lw	s0,48(a4)
    2438:	0070                	addi	a2,sp,12
    243a:	0000                	unimp
    243c:	0078                	addi	a4,sp,12
    243e:	0000                	unimp
    2440:	0001                	nop
    2442:	7856                	flw	fa6,116(sp)
    2444:	0000                	unimp
    2446:	8400                	0x8400
    2448:	0000                	unimp
    244a:	0300                	addi	s0,sp,384
    244c:	7b00                	flw	fs0,48(a4)
    244e:	9f02                	jalr	t5
    2450:	0084                	addi	s1,sp,64
    2452:	0000                	unimp
    2454:	0090                	addi	a2,sp,64
    2456:	0000                	unimp
    2458:	0001                	nop
    245a:	9056                	0x9056
    245c:	0000                	unimp
    245e:	9800                	0x9800
    2460:	0000                	unimp
    2462:	0300                	addi	s0,sp,384
    2464:	7b00                	flw	fs0,48(a4)
    2466:	00989f03          	lh	t5,9(a7)
    246a:	0000                	unimp
    246c:	00a0                	addi	s0,sp,72
    246e:	0000                	unimp
    2470:	0001                	nop
    2472:	d856                	sw	s5,48(sp)
    2474:	0000                	unimp
    2476:	e800                	fsw	fs0,16(s0)
    2478:	0000                	unimp
    247a:	0300                	addi	s0,sp,384
    247c:	7e00                	flw	fs0,56(a2)
    247e:	9f01                	0x9f01
    2480:	00e8                	addi	a0,sp,76
    2482:	0000                	unimp
    2484:	00f8                	addi	a4,sp,76
    2486:	0000                	unimp
    2488:	027e0003          	lb	zero,39(t3)
    248c:	f89f 0000 0800      	0x8000000f89f
    2492:	0001                	nop
    2494:	0300                	addi	s0,sp,384
    2496:	7e00                	flw	fs0,56(a2)
    2498:	01089f03          	lh	t5,16(a7)
    249c:	0000                	unimp
    249e:	0118                	addi	a4,sp,128
    24a0:	0000                	unimp
    24a2:	047e0003          	lb	zero,71(t3)
    24a6:	189f 0001 2800      	0x28000001189f
    24ac:	0001                	nop
    24ae:	0300                	addi	s0,sp,384
    24b0:	7e00                	flw	fs0,56(a2)
    24b2:	9f05                	0x9f05
    24b4:	0128                	addi	a0,sp,136
    24b6:	0000                	unimp
    24b8:	012c                	addi	a1,sp,136
    24ba:	0000                	unimp
    24bc:	067e0003          	lb	zero,103(t3)
    24c0:	2c9f 0001 3400      	0x340000012c9f
    24c6:	0001                	nop
    24c8:	0b00                	addi	s0,sp,400
    24ca:	8100                	0x8100
    24cc:	0900                	addi	s0,sp,144
    24ce:	1afc                	addi	a5,sp,380
    24d0:	0076                	0x76
    24d2:	2322                	fld	ft6,8(sp)
    24d4:	9f06                	add	t5,t5,ra
    24d6:	0148                	addi	a0,sp,132
    24d8:	0000                	unimp
    24da:	0150                	addi	a2,sp,132
    24dc:	0000                	unimp
    24de:	0001                	nop
    24e0:	0001505b          	0x1505b
    24e4:	5400                	lw	s0,40(s0)
    24e6:	0001                	nop
    24e8:	0300                	addi	s0,sp,384
    24ea:	7b00                	flw	fs0,48(a4)
    24ec:	9f7f                	0x9f7f
    24ee:	0154                	addi	a3,sp,132
    24f0:	0000                	unimp
    24f2:	0158                	addi	a4,sp,132
    24f4:	0000                	unimp
    24f6:	0001                	nop
    24f8:	00015c5b          	0x15c5b
    24fc:	6c00                	flw	fs0,24(s0)
    24fe:	0001                	nop
    2500:	0100                	addi	s0,sp,128
    2502:	5b00                	lw	s0,48(a4)
	...
    250c:	0018                	addi	a4,sp,0
    250e:	0000                	unimp
    2510:	0070                	addi	a2,sp,12
    2512:	0000                	unimp
    2514:	0001                	nop
    2516:	705a                	flw	ft0,180(sp)
    2518:	0000                	unimp
    251a:	8400                	0x8400
    251c:	0000                	unimp
    251e:	0100                	addi	s0,sp,128
    2520:	6000                	flw	fs0,0(s0)
    2522:	0084                	addi	s1,sp,64
    2524:	0000                	unimp
    2526:	0088                	addi	a0,sp,64
    2528:	0000                	unimp
    252a:	027a0003          	lb	zero,39(s4)
    252e:	889f 0000 9800      	0x98000000889f
    2534:	0000                	unimp
    2536:	0100                	addi	s0,sp,128
    2538:	6000                	flw	fs0,0(s0)
    253a:	0098                	addi	a4,sp,64
    253c:	0000                	unimp
    253e:	009c                	addi	a5,sp,64
    2540:	0000                	unimp
    2542:	037a0003          	lb	zero,55(s4)
    2546:	9c9f 0000 a000      	0xa00000009c9f
    254c:	0000                	unimp
    254e:	0100                	addi	s0,sp,128
    2550:	6000                	flw	fs0,0(s0)
    2552:	00d8                	addi	a4,sp,68
    2554:	0000                	unimp
    2556:	00e4                	addi	s1,sp,76
    2558:	0000                	unimp
    255a:	017f0003          	lb	zero,23(t5)
    255e:	e49f 0000 e800      	0xe8000000e49f
    2564:	0000                	unimp
    2566:	0100                	addi	s0,sp,128
    2568:	5c00                	lw	s0,56(s0)
    256a:	00e8                	addi	a0,sp,76
    256c:	0000                	unimp
    256e:	00f0                	addi	a2,sp,76
    2570:	0000                	unimp
    2572:	027f0003          	lb	zero,39(t5)
    2576:	f09f 0000 f800      	0xf8000000f09f
    257c:	0000                	unimp
    257e:	0100                	addi	s0,sp,128
    2580:	5c00                	lw	s0,56(s0)
    2582:	00f8                	addi	a4,sp,76
    2584:	0000                	unimp
    2586:	0100                	addi	s0,sp,128
    2588:	0000                	unimp
    258a:	037f0003          	lb	zero,55(t5)
    258e:	009f 0001 0800      	0x8000001009f
    2594:	0001                	nop
    2596:	0100                	addi	s0,sp,128
    2598:	5c00                	lw	s0,56(s0)
    259a:	0108                	addi	a0,sp,128
    259c:	0000                	unimp
    259e:	0110                	addi	a2,sp,128
    25a0:	0000                	unimp
    25a2:	047f0003          	lb	zero,71(t5)
    25a6:	109f 0001 1800      	0x18000001109f
    25ac:	0001                	nop
    25ae:	0100                	addi	s0,sp,128
    25b0:	5c00                	lw	s0,56(s0)
    25b2:	0118                	addi	a4,sp,128
    25b4:	0000                	unimp
    25b6:	0120                	addi	s0,sp,136
    25b8:	0000                	unimp
    25ba:	057f0003          	lb	zero,87(t5)
    25be:	209f 0001 2800      	0x28000001209f
    25c4:	0001                	nop
    25c6:	0100                	addi	s0,sp,128
    25c8:	5c00                	lw	s0,56(s0)
    25ca:	0128                	addi	a0,sp,136
    25cc:	0000                	unimp
    25ce:	0134                	addi	a3,sp,136
    25d0:	0000                	unimp
    25d2:	017c0003          	lb	zero,23(s8) # 1e45 <__seq_start+0x1e45>
    25d6:	489f 0001 4c00      	0x4c000001489f
    25dc:	0001                	nop
    25de:	0100                	addi	s0,sp,128
    25e0:	5a00                	lw	s0,48(a2)
    25e2:	015c                	addi	a5,sp,132
    25e4:	0000                	unimp
    25e6:	016c                	addi	a1,sp,140
    25e8:	0000                	unimp
    25ea:	0001                	nop
    25ec:	005a                	0x5a
    25ee:	0000                	unimp
    25f0:	0000                	unimp
    25f2:	0000                	unimp
    25f4:	0800                	addi	s0,sp,16
    25f6:	0000                	unimp
    25f8:	2400                	fld	fs0,8(s0)
    25fa:	0000                	unimp
    25fc:	0400                	addi	s0,sp,512
    25fe:	0a00                	addi	s0,sp,272
    2600:	0100                	addi	s0,sp,128
    2602:	409f 0000 7000      	0x70000000409f
    2608:	0000                	unimp
    260a:	0400                	addi	s0,sp,512
    260c:	0a00                	addi	s0,sp,272
    260e:	0100                	addi	s0,sp,128
    2610:	009f 0000 0000      	0x9f
    2616:	0000                	unimp
    2618:	6400                	flw	fs0,8(s0)
    261a:	0000                	unimp
    261c:	6c00                	flw	fs0,24(s0)
    261e:	0000                	unimp
    2620:	0300                	addi	s0,sp,384
    2622:	0900                	addi	s0,sp,144
    2624:	9fff                	0x9fff
	...
    262e:	0030                	addi	a2,sp,8
    2630:	0000                	unimp
    2632:	003c                	addi	a5,sp,8
    2634:	0000                	unimp
    2636:	ff090003          	lb	zero,-16(s2)
    263a:	009f 0000 0000      	0x9f
    2640:	0000                	unimp
    2642:	7400                	flw	fs0,40(s0)
    2644:	0000                	unimp
    2646:	8800                	0x8800
    2648:	0000                	unimp
    264a:	0100                	addi	s0,sp,128
    264c:	5a00                	lw	s0,48(a2)
    264e:	0088                	addi	a0,sp,64
    2650:	0000                	unimp
    2652:	00b0                	addi	a2,sp,72
    2654:	0000                	unimp
    2656:	017a0003          	lb	zero,23(s4)
    265a:	009f 0000 0000      	0x9f
    2660:	0000                	unimp
    2662:	a000                	fsd	fs0,0(s0)
    2664:	0000                	unimp
    2666:	a800                	fsd	fs0,16(s0)
    2668:	0000                	unimp
    266a:	0300                	addi	s0,sp,384
    266c:	0900                	addi	s0,sp,144
    266e:	9fff                	0x9fff
	...
