
/usr/scratch2/larain8/yiczhang/terapool_dram_submodule_rebase_0502_2024/mempool/software/bin/apps/baremetal/gvsoc_test_barrier:	file format elf32-littleriscv

Disassembly of section .l1_seq:

00000000 <__l1_start>:
...

Disassembly of section .l1:

00020000 <result>:
...

00020400 <barrier>:
...

00020800 <log_barrier>:
...

00021800 <partial_barrier>:
...

00022800 <alloc_tile>:
...

Disassembly of section .text:

80000000 <_start>:
80000000: 97 31 00 00  	auipc	gp, 3
80000004: 93 81 01 80  	addi	gp, gp, -2048
80000008: 6f 00 40 00  	j	0x8000000c <_reset_vector>

8000000c <_reset_vector>:
8000000c: 93 00 00 00  	li	ra, 0
80000010: 13 02 00 00  	li	tp, 0
80000014: 93 02 00 00  	li	t0, 0
80000018: 13 03 00 00  	li	t1, 0
8000001c: 93 03 00 00  	li	t2, 0
80000020: 13 04 00 00  	li	s0, 0
80000024: 93 04 00 00  	li	s1, 0
80000028: 13 05 00 00  	li	a0, 0
8000002c: 93 05 00 00  	li	a1, 0
80000030: 13 06 00 00  	li	a2, 0
80000034: 93 06 00 00  	li	a3, 0
80000038: 13 07 00 00  	li	a4, 0
8000003c: 93 07 00 00  	li	a5, 0
80000040: 13 08 00 00  	li	a6, 0
80000044: 93 08 00 00  	li	a7, 0
80000048: 13 09 00 00  	li	s2, 0
8000004c: 93 09 00 00  	li	s3, 0
80000050: 13 0a 00 00  	li	s4, 0
80000054: 13 05 00 00  	li	a0, 0
80000058: 93 0a 00 00  	li	s5, 0
8000005c: 13 0b 00 00  	li	s6, 0
80000060: 93 0b 00 00  	li	s7, 0
80000064: 13 0c 00 00  	li	s8, 0
80000068: 93 0c 00 00  	li	s9, 0
8000006c: 13 0d 00 00  	li	s10, 0
80000070: 93 0d 00 00  	li	s11, 0
80000074: 13 0e 00 00  	li	t3, 0
80000078: 93 0e 00 00  	li	t4, 0
8000007c: 13 0f 00 00  	li	t5, 0
80000080: 93 0f 00 00  	li	t6, 0
80000084: 17 01 00 80  	auipc	sp, 524288
80000088: 13 01 c1 f7  	addi	sp, sp, -132
8000008c: 73 25 40 f1  	csrr	a0, mhartid
80000090: 93 52 25 00  	srli	t0, a0, 2
80000094: 93 92 b2 00  	slli	t0, t0, 11
80000098: 13 03 40 00  	li	t1, 4
8000009c: 13 03 f3 ff  	addi	t1, t1, -1
800000a0: 33 73 65 00  	and	t1, a0, t1
800000a4: 13 03 13 00  	addi	t1, t1, 1
800000a8: 13 13 93 00  	slli	t1, t1, 9
800000ac: 13 03 c3 ff  	addi	t1, t1, -4
800000b0: b3 82 62 00  	add	t0, t0, t1
800000b4: 33 01 51 00  	add	sp, sp, t0
800000b8: 93 02 00 00  	li	t0, 0
800000bc: 93 92 62 00  	slli	t0, t0, 6
800000c0: 33 01 51 00  	add	sp, sp, t0
800000c4: 93 02 41 e0  	addi	t0, sp, -508
800000c8: 73 90 12 7d  	csrw	stacklimit, t0
800000cc: 63 1c 05 00  	bnez	a0, 0x800000e4 <_jump_main>
800000d0: 97 02 00 c0  	auipc	t0, 786432
800000d4: 93 82 42 f5  	addi	t0, t0, -172
800000d8: 17 23 00 00  	auipc	t1, 2
800000dc: 13 03 83 f2  	addi	t1, t1, -216
800000e0: 23 a0 62 00  	sw	t1, 0(t0)

800000e4 <_jump_main>:
800000e4: ef 00 c0 02  	jal	0x80000110 <main>

800000e8 <_eoc>:
800000e8: 97 02 00 c0  	auipc	t0, 786432
800000ec: 93 82 82 f1  	addi	t0, t0, -232
800000f0: 13 13 15 00  	slli	t1, a0, 1
800000f4: 13 03 13 00  	addi	t1, t1, 1
800000f8: 23 a0 62 00  	sw	t1, 0(t0)
800000fc: 97 00 00 20  	auipc	ra, 131072
80000100: 93 80 40 f0  	addi	ra, ra, -252
80000104: 67 80 00 00  	ret

80000108 <simple_calculation>:
80000108: 33 85 a5 02  	mul	a0, a1, a0
8000010c: 67 80 00 00  	ret

80000110 <main>:
80000110: 13 01 01 ff  	addi	sp, sp, -16
80000114: 23 26 11 00  	sw	ra, 12(sp)
80000118: 23 24 81 00  	sw	s0, 8(sp)
8000011c: 23 22 91 00  	sw	s1, 4(sp)
80000120: 73 24 40 f1  	csrr	s0, mhartid
80000124: 13 05 04 00  	mv	a0, s0
80000128: 97 10 00 00  	auipc	ra, 1
8000012c: e7 80 80 34  	jalr	840(ra)
80000130: 13 15 24 00  	slli	a0, s0, 2
80000134: b7 05 02 00  	lui	a1, 32
80000138: 93 84 05 00  	mv	s1, a1
8000013c: b3 05 95 00  	add	a1, a0, s1
80000140: 23 a0 a5 00  	sw	a0, 0(a1)
80000144: 13 05 00 10  	li	a0, 256
80000148: 97 10 00 00  	auipc	ra, 1
8000014c: e7 80 00 38  	jalr	896(ra)
80000150: 13 05 f0 0f  	li	a0, 255
80000154: 33 05 85 40  	sub	a0, a0, s0
80000158: 13 15 25 00  	slli	a0, a0, 2
8000015c: b3 05 95 00  	add	a1, a0, s1
80000160: 83 a5 05 00  	lw	a1, 0(a1)
80000164: 33 c5 a5 00  	xor	a0, a1, a0
80000168: 33 34 a0 00  	snez	s0, a0
8000016c: 13 05 00 10  	li	a0, 256
80000170: 97 10 00 00  	auipc	ra, 1
80000174: e7 80 80 35  	jalr	856(ra)
80000178: 13 05 04 00  	mv	a0, s0
8000017c: 83 20 c1 00  	lw	ra, 12(sp)
80000180: 03 24 81 00  	lw	s0, 8(sp)
80000184: 83 24 41 00  	lw	s1, 4(sp)
80000188: 13 01 01 01  	addi	sp, sp, 16
8000018c: 67 80 00 00  	ret

80000190 <alloc_init>:
80000190: 93 86 75 00  	addi	a3, a1, 7
80000194: 93 f6 86 ff  	andi	a3, a3, -8
80000198: b3 85 c5 00  	add	a1, a1, a2
8000019c: b3 85 d5 40  	sub	a1, a1, a3
800001a0: 93 f5 85 ff  	andi	a1, a1, -8
800001a4: 23 a0 b6 00  	sw	a1, 0(a3)
800001a8: 93 e5 46 00  	ori	a1, a3, 4
800001ac: 23 a0 05 00  	sw	zero, 0(a1)
800001b0: 23 20 d5 00  	sw	a3, 0(a0)
800001b4: 67 80 00 00  	ret

800001b8 <domain_malloc>:
800001b8: 13 01 01 ff  	addi	sp, sp, -16
800001bc: 23 26 11 00  	sw	ra, 12(sp)
800001c0: 93 85 b5 00  	addi	a1, a1, 11
800001c4: 93 f5 85 ff  	andi	a1, a1, -8
800001c8: 13 d6 85 01  	srli	a2, a1, 24
800001cc: 63 02 06 02  	beqz	a2, 0x800001f0 <domain_malloc+0x38>
800001d0: 37 15 00 80  	lui	a0, 524289
800001d4: 13 05 05 50  	addi	a0, a0, 1280
800001d8: 97 00 00 00  	auipc	ra, 0
800001dc: e7 80 00 3d  	jalr	976(ra)
800001e0: 13 05 00 00  	li	a0, 0
800001e4: 83 20 c1 00  	lw	ra, 12(sp)
800001e8: 13 01 01 01  	addi	sp, sp, 16
800001ec: 67 80 00 00  	ret
800001f0: 03 26 05 00  	lw	a2, 0(a0)
800001f4: 63 08 06 02  	beqz	a2, 0x80000224 <domain_malloc+0x6c>
800001f8: 83 26 06 00  	lw	a3, 0(a2)
800001fc: 63 f4 b6 04  	bgeu	a3, a1, 0x80000244 <domain_malloc+0x8c>
80000200: 13 05 06 00  	mv	a0, a2
80000204: 03 26 46 00  	lw	a2, 4(a2)
80000208: 63 0e 06 00  	beqz	a2, 0x80000224 <domain_malloc+0x6c>
8000020c: 83 26 06 00  	lw	a3, 0(a2)
80000210: e3 e8 b6 fe  	bltu	a3, a1, 0x80000200 <domain_malloc+0x48>
80000214: 63 9e b6 04  	bne	a3, a1, 0x80000270 <domain_malloc+0xb8>
80000218: 83 26 46 00  	lw	a3, 4(a2)
8000021c: 23 22 d5 00  	sw	a3, 4(a0)
80000220: 6f 00 80 06  	j	0x80000288 <domain_malloc+0xd0>
80000224: 37 15 00 80  	lui	a0, 524289
80000228: 13 05 b5 53  	addi	a0, a0, 1339
8000022c: 97 00 00 00  	auipc	ra, 0
80000230: e7 80 c0 37  	jalr	892(ra)
80000234: 13 05 00 00  	li	a0, 0
80000238: 83 20 c1 00  	lw	ra, 12(sp)
8000023c: 13 01 01 01  	addi	sp, sp, 16
80000240: 67 80 00 00  	ret
80000244: 63 98 b6 00  	bne	a3, a1, 0x80000254 <domain_malloc+0x9c>
80000248: 83 26 46 00  	lw	a3, 4(a2)
8000024c: 23 20 d5 00  	sw	a3, 0(a0)
80000250: 6f 00 80 03  	j	0x80000288 <domain_malloc+0xd0>
80000254: 33 07 b6 00  	add	a4, a2, a1
80000258: b3 86 b6 40  	sub	a3, a3, a1
8000025c: 23 20 d7 00  	sw	a3, 0(a4)
80000260: 83 26 46 00  	lw	a3, 4(a2)
80000264: 23 22 d7 00  	sw	a3, 4(a4)
80000268: 23 20 e5 00  	sw	a4, 0(a0)
8000026c: 6f 00 c0 01  	j	0x80000288 <domain_malloc+0xd0>
80000270: 33 07 b6 00  	add	a4, a2, a1
80000274: b3 86 b6 40  	sub	a3, a3, a1
80000278: 23 20 d7 00  	sw	a3, 0(a4)
8000027c: 83 26 46 00  	lw	a3, 4(a2)
80000280: 23 22 d7 00  	sw	a3, 4(a4)
80000284: 23 22 e5 00  	sw	a4, 4(a0)
80000288: 13 95 85 00  	slli	a0, a1, 8
8000028c: 93 75 f6 0f  	andi	a1, a2, 255
80000290: 33 e5 a5 00  	or	a0, a1, a0
80000294: 23 20 a6 00  	sw	a0, 0(a2)
80000298: 13 05 46 00  	addi	a0, a2, 4
8000029c: 83 20 c1 00  	lw	ra, 12(sp)
800002a0: 13 01 01 01  	addi	sp, sp, 16
800002a4: 67 80 00 00  	ret

800002a8 <simple_malloc>:
800002a8: 13 01 01 ff  	addi	sp, sp, -16
800002ac: 23 26 11 00  	sw	ra, 12(sp)
800002b0: 13 05 b5 00  	addi	a0, a0, 11
800002b4: 93 75 85 ff  	andi	a1, a0, -8
800002b8: 13 d5 85 01  	srli	a0, a1, 24
800002bc: 63 02 05 02  	beqz	a0, 0x800002e0 <simple_malloc+0x38>
800002c0: 37 15 00 80  	lui	a0, 524289
800002c4: 13 05 05 50  	addi	a0, a0, 1280
800002c8: 97 00 00 00  	auipc	ra, 0
800002cc: e7 80 00 2e  	jalr	736(ra)
800002d0: 13 05 00 00  	li	a0, 0
800002d4: 83 20 c1 00  	lw	ra, 12(sp)
800002d8: 13 01 01 01  	addi	sp, sp, 16
800002dc: 67 80 00 00  	ret
800002e0: 37 25 00 80  	lui	a0, 524290
800002e4: 03 25 05 00  	lw	a0, 0(a0)
800002e8: 63 08 05 02  	beqz	a0, 0x80000318 <simple_malloc+0x70>
800002ec: 03 26 05 00  	lw	a2, 0(a0)
800002f0: 63 74 b6 04  	bgeu	a2, a1, 0x80000338 <simple_malloc+0x90>
800002f4: 13 06 05 00  	mv	a2, a0
800002f8: 03 25 45 00  	lw	a0, 4(a0)
800002fc: 63 0e 05 00  	beqz	a0, 0x80000318 <simple_malloc+0x70>
80000300: 83 26 05 00  	lw	a3, 0(a0)
80000304: e3 e8 b6 fe  	bltu	a3, a1, 0x800002f4 <simple_malloc+0x4c>
80000308: 63 92 b6 06  	bne	a3, a1, 0x8000036c <simple_malloc+0xc4>
8000030c: 83 26 45 00  	lw	a3, 4(a0)
80000310: 23 22 d6 00  	sw	a3, 4(a2)
80000314: 6f 00 00 07  	j	0x80000384 <simple_malloc+0xdc>
80000318: 37 15 00 80  	lui	a0, 524289
8000031c: 13 05 b5 53  	addi	a0, a0, 1339
80000320: 97 00 00 00  	auipc	ra, 0
80000324: e7 80 80 28  	jalr	648(ra)
80000328: 13 05 00 00  	li	a0, 0
8000032c: 83 20 c1 00  	lw	ra, 12(sp)
80000330: 13 01 01 01  	addi	sp, sp, 16
80000334: 67 80 00 00  	ret
80000338: 63 1a b6 00  	bne	a2, a1, 0x8000034c <simple_malloc+0xa4>
8000033c: 03 26 45 00  	lw	a2, 4(a0)
80000340: b7 26 00 80  	lui	a3, 524290
80000344: 23 a0 c6 00  	sw	a2, 0(a3)
80000348: 6f 00 c0 03  	j	0x80000384 <simple_malloc+0xdc>
8000034c: b3 06 b5 00  	add	a3, a0, a1
80000350: 33 06 b6 40  	sub	a2, a2, a1
80000354: 23 a0 c6 00  	sw	a2, 0(a3)
80000358: 03 26 45 00  	lw	a2, 4(a0)
8000035c: 37 27 00 80  	lui	a4, 524290
80000360: 23 a2 c6 00  	sw	a2, 4(a3)
80000364: 23 20 d7 00  	sw	a3, 0(a4)
80000368: 6f 00 c0 01  	j	0x80000384 <simple_malloc+0xdc>
8000036c: 33 07 b5 00  	add	a4, a0, a1
80000370: b3 86 b6 40  	sub	a3, a3, a1
80000374: 23 20 d7 00  	sw	a3, 0(a4)
80000378: 83 26 45 00  	lw	a3, 4(a0)
8000037c: 23 22 d7 00  	sw	a3, 4(a4)
80000380: 23 22 e6 00  	sw	a4, 4(a2)
80000384: 93 95 85 00  	slli	a1, a1, 8
80000388: 13 76 f5 0f  	andi	a2, a0, 255
8000038c: b3 65 b6 00  	or	a1, a2, a1
80000390: 23 20 b5 00  	sw	a1, 0(a0)
80000394: 13 05 45 00  	addi	a0, a0, 4
80000398: 83 20 c1 00  	lw	ra, 12(sp)
8000039c: 13 01 01 01  	addi	sp, sp, 16
800003a0: 67 80 00 00  	ret

800003a4 <domain_free>:
800003a4: 13 86 05 00  	mv	a2, a1
800003a8: 93 85 c5 ff  	addi	a1, a1, -4
800003ac: 03 27 c6 ff  	lw	a4, -4(a2)
800003b0: 93 f6 f5 0f  	andi	a3, a1, 255
800003b4: 93 77 f7 0f  	andi	a5, a4, 255
800003b8: 63 9a f6 04  	bne	a3, a5, 0x8000040c <domain_free+0x68>
800003bc: 93 06 00 00  	li	a3, 0
800003c0: 13 57 87 00  	srli	a4, a4, 8
800003c4: 13 08 05 00  	mv	a6, a0
800003c8: 93 87 06 00  	mv	a5, a3
800003cc: 83 26 08 00  	lw	a3, 0(a6)
800003d0: 33 38 d0 00  	snez	a6, a3
800003d4: b3 b8 b6 00  	sltu	a7, a3, a1
800003d8: b3 78 18 01  	and	a7, a6, a7
800003dc: 13 88 46 00  	addi	a6, a3, 4
800003e0: e3 94 08 fe  	bnez	a7, 0x800003c8 <domain_free+0x24>
800003e4: 33 88 e5 00  	add	a6, a1, a4
800003e8: 63 0a d8 02  	beq	a6, a3, 0x8000041c <domain_free+0x78>
800003ec: 23 a0 e5 00  	sw	a4, 0(a1)
800003f0: 23 20 d6 00  	sw	a3, 0(a2)
800003f4: 63 80 07 04  	beqz	a5, 0x80000434 <domain_free+0x90>
800003f8: 03 a5 07 00  	lw	a0, 0(a5)
800003fc: 33 86 a7 00  	add	a2, a5, a0
80000400: 63 0e b6 02  	beq	a2, a1, 0x8000043c <domain_free+0x98>
80000404: 23 a2 b7 00  	sw	a1, 4(a5)
80000408: 67 80 00 00  	ret
8000040c: 37 15 00 80  	lui	a0, 524289
80000410: 13 05 f5 56  	addi	a0, a0, 1391
80000414: 17 03 00 00  	auipc	t1, 0
80000418: 67 00 43 19  	jr	404(t1)
8000041c: 03 a8 06 00  	lw	a6, 0(a3)
80000420: 33 07 e8 00  	add	a4, a6, a4
80000424: 23 a0 e5 00  	sw	a4, 0(a1)
80000428: 83 a6 46 00  	lw	a3, 4(a3)
8000042c: 23 20 d6 00  	sw	a3, 0(a2)
80000430: e3 94 07 fc  	bnez	a5, 0x800003f8 <domain_free+0x54>
80000434: 23 20 b5 00  	sw	a1, 0(a0)
80000438: 67 80 00 00  	ret
8000043c: 33 05 e5 00  	add	a0, a0, a4
80000440: 23 a0 a7 00  	sw	a0, 0(a5)
80000444: 23 a2 d7 00  	sw	a3, 4(a5)
80000448: 67 80 00 00  	ret

8000044c <simple_free>:
8000044c: 93 05 c5 ff  	addi	a1, a0, -4
80000450: 83 26 c5 ff  	lw	a3, -4(a0)
80000454: 13 f6 f5 0f  	andi	a2, a1, 255
80000458: 13 f7 f6 0f  	andi	a4, a3, 255
8000045c: 63 1c e6 04  	bne	a2, a4, 0x800004b4 <simple_free+0x68>
80000460: 13 06 00 00  	li	a2, 0
80000464: 93 d6 86 00  	srli	a3, a3, 8
80000468: 37 27 00 80  	lui	a4, 524290
8000046c: 93 07 07 00  	mv	a5, a4
80000470: 13 07 06 00  	mv	a4, a2
80000474: 03 a6 07 00  	lw	a2, 0(a5)
80000478: b3 37 c0 00  	snez	a5, a2
8000047c: 33 38 b6 00  	sltu	a6, a2, a1
80000480: 33 f8 07 01  	and	a6, a5, a6
80000484: 93 07 46 00  	addi	a5, a2, 4
80000488: e3 14 08 fe  	bnez	a6, 0x80000470 <simple_free+0x24>
8000048c: b3 87 d5 00  	add	a5, a1, a3
80000490: 63 8a c7 02  	beq	a5, a2, 0x800004c4 <simple_free+0x78>
80000494: 23 a0 d5 00  	sw	a3, 0(a1)
80000498: 23 20 c5 00  	sw	a2, 0(a0)
8000049c: 63 00 07 04  	beqz	a4, 0x800004dc <simple_free+0x90>
800004a0: 03 25 07 00  	lw	a0, 0(a4)
800004a4: b3 07 a7 00  	add	a5, a4, a0
800004a8: 63 80 b7 04  	beq	a5, a1, 0x800004e8 <simple_free+0x9c>
800004ac: 23 22 b7 00  	sw	a1, 4(a4)
800004b0: 67 80 00 00  	ret
800004b4: 37 15 00 80  	lui	a0, 524289
800004b8: 13 05 f5 56  	addi	a0, a0, 1391
800004bc: 17 03 00 00  	auipc	t1, 0
800004c0: 67 00 c3 0e  	jr	236(t1)
800004c4: 83 27 06 00  	lw	a5, 0(a2)
800004c8: b3 86 d7 00  	add	a3, a5, a3
800004cc: 23 a0 d5 00  	sw	a3, 0(a1)
800004d0: 03 26 46 00  	lw	a2, 4(a2)
800004d4: 23 20 c5 00  	sw	a2, 0(a0)
800004d8: e3 14 07 fc  	bnez	a4, 0x800004a0 <simple_free+0x54>
800004dc: 37 25 00 80  	lui	a0, 524290
800004e0: 23 20 b5 00  	sw	a1, 0(a0)
800004e4: 67 80 00 00  	ret
800004e8: 33 05 d5 00  	add	a0, a0, a3
800004ec: 23 20 a7 00  	sw	a0, 0(a4)
800004f0: 23 22 c7 00  	sw	a2, 4(a4)
800004f4: 67 80 00 00  	ret

800004f8 <alloc_dump>:
800004f8: 13 01 01 ff  	addi	sp, sp, -16
800004fc: 23 26 11 00  	sw	ra, 12(sp)
80000500: 23 24 81 00  	sw	s0, 8(sp)
80000504: 23 22 91 00  	sw	s1, 4(sp)
80000508: 23 20 21 01  	sw	s2, 0(sp)
8000050c: 03 29 05 00  	lw	s2, 0(a0)
80000510: 37 15 00 80  	lui	a0, 524289
80000514: 13 05 65 58  	addi	a0, a0, 1414
80000518: 97 00 00 00  	auipc	ra, 0
8000051c: e7 80 00 09  	jalr	144(ra)
80000520: 37 15 00 80  	lui	a0, 524289
80000524: 13 04 e5 59  	addi	s0, a0, 1438
80000528: 63 04 09 04  	beqz	s2, 0x80000570 <alloc_dump+0x78>
8000052c: 93 04 09 00  	mv	s1, s2
80000530: 03 26 09 00  	lw	a2, 0(s2)
80000534: 13 05 04 00  	mv	a0, s0
80000538: 93 05 09 00  	mv	a1, s2
8000053c: 97 00 00 00  	auipc	ra, 0
80000540: e7 80 c0 06  	jalr	108(ra)
80000544: 03 29 49 00  	lw	s2, 4(s2)
80000548: e3 10 99 fe  	bne	s2, s1, 0x80000528 <alloc_dump+0x30>
8000054c: 37 15 00 80  	lui	a0, 524289
80000550: 13 05 05 5c  	addi	a0, a0, 1472
80000554: 83 20 c1 00  	lw	ra, 12(sp)
80000558: 03 24 81 00  	lw	s0, 8(sp)
8000055c: 83 24 41 00  	lw	s1, 4(sp)
80000560: 03 29 01 00  	lw	s2, 0(sp)
80000564: 13 01 01 01  	addi	sp, sp, 16
80000568: 17 03 00 00  	auipc	t1, 0
8000056c: 67 00 03 04  	jr	64(t1)
80000570: 83 20 c1 00  	lw	ra, 12(sp)
80000574: 03 24 81 00  	lw	s0, 8(sp)
80000578: 83 24 41 00  	lw	s1, 4(sp)
8000057c: 03 29 01 00  	lw	s2, 0(sp)
80000580: 13 01 01 01  	addi	sp, sp, 16
80000584: 67 80 00 00  	ret

80000588 <get_alloc_l1>:
80000588: 37 25 00 80  	lui	a0, 524290
8000058c: 13 05 05 00  	mv	a0, a0
80000590: 67 80 00 00  	ret

80000594 <get_alloc_tile>:
80000594: b7 35 02 00  	lui	a1, 35
80000598: 93 85 05 80  	addi	a1, a1, -2048
8000059c: 13 15 25 00  	slli	a0, a0, 2
800005a0: 33 05 b5 00  	add	a0, a0, a1
800005a4: 67 80 00 00  	ret

800005a8 <printf_>:
800005a8: 13 01 01 fd  	addi	sp, sp, -48
800005ac: 23 26 11 00  	sw	ra, 12(sp)
800005b0: 93 02 05 00  	mv	t0, a0
800005b4: 23 26 11 03  	sw	a7, 44(sp)
800005b8: 23 24 01 03  	sw	a6, 40(sp)
800005bc: 23 22 f1 02  	sw	a5, 36(sp)
800005c0: 23 20 e1 02  	sw	a4, 32(sp)
800005c4: 23 2e d1 00  	sw	a3, 28(sp)
800005c8: 23 2c c1 00  	sw	a2, 24(sp)
800005cc: 23 2a b1 00  	sw	a1, 20(sp)
800005d0: 13 05 41 01  	addi	a0, sp, 20
800005d4: 23 24 a1 00  	sw	a0, 8(sp)
800005d8: 37 15 00 80  	lui	a0, 524289
800005dc: 13 05 05 d6  	addi	a0, a0, -672
800005e0: 93 05 71 00  	addi	a1, sp, 7
800005e4: 13 06 f0 ff  	li	a2, -1
800005e8: 13 07 41 01  	addi	a4, sp, 20
800005ec: 93 86 02 00  	mv	a3, t0
800005f0: 97 00 00 00  	auipc	ra, 0
800005f4: e7 80 40 01  	jalr	20(ra)
800005f8: 83 20 c1 00  	lw	ra, 12(sp)
800005fc: 13 01 01 03  	addi	sp, sp, 48
80000600: 67 80 00 00  	ret

80000604 <_vsnprintf>:
80000604: 13 01 01 fb  	addi	sp, sp, -80
80000608: 23 26 11 04  	sw	ra, 76(sp)
8000060c: 23 24 81 04  	sw	s0, 72(sp)
80000610: 23 22 91 04  	sw	s1, 68(sp)
80000614: 23 20 21 05  	sw	s2, 64(sp)
80000618: 23 2e 31 03  	sw	s3, 60(sp)
8000061c: 23 2c 41 03  	sw	s4, 56(sp)
80000620: 23 2a 51 03  	sw	s5, 52(sp)
80000624: 23 28 61 03  	sw	s6, 48(sp)
80000628: 23 26 71 03  	sw	s7, 44(sp)
8000062c: 23 24 81 03  	sw	s8, 40(sp)
80000630: 23 22 91 03  	sw	s9, 36(sp)
80000634: 23 20 a1 03  	sw	s10, 32(sp)
80000638: 23 2e b1 01  	sw	s11, 28(sp)
8000063c: 23 2c e1 00  	sw	a4, 24(sp)
80000640: 93 8a 06 00  	mv	s5, a3
80000644: 13 04 06 00  	mv	s0, a2
80000648: 93 84 05 00  	mv	s1, a1
8000064c: 63 86 05 00  	beqz	a1, 0x80000658 <_vsnprintf+0x54>
80000650: 13 09 05 00  	mv	s2, a0
80000654: 6f 00 c0 00  	j	0x80000660 <_vsnprintf+0x5c>
80000658: 37 15 00 80  	lui	a0, 524289
8000065c: 13 09 c5 eb  	addi	s2, a0, -324
80000660: 13 0a 00 00  	li	s4, 0
80000664: 93 0b 50 02  	li	s7, 37
80000668: 13 0c 00 01  	li	s8, 16
8000066c: 13 0b 90 00  	li	s6, 9
80000670: 13 0d a0 00  	li	s10, 10
80000674: 37 15 00 80  	lui	a0, 524289
80000678: 13 05 05 62  	addi	a0, a0, 1568
8000067c: 23 2a a1 00  	sw	a0, 20(sp)
80000680: 37 15 00 80  	lui	a0, 524289
80000684: 93 0c c5 5d  	addi	s9, a0, 1500
80000688: 93 8d 2a 00  	addi	s11, s5, 2
8000068c: 03 c5 0a 00  	lbu	a0, 0(s5)
80000690: 63 0a 05 66  	beqz	a0, 0x80000d04 <_vsnprintf+0x700>
80000694: 63 08 75 03  	beq	a0, s7, 0x800006c4 <_vsnprintf+0xc0>
80000698: 93 09 1a 00  	addi	s3, s4, 1
8000069c: 93 85 04 00  	mv	a1, s1
800006a0: 13 06 0a 00  	mv	a2, s4
800006a4: 93 06 04 00  	mv	a3, s0
800006a8: e7 00 09 00  	jalr	s2
800006ac: 93 8a 1a 00  	addi	s5, s5, 1
800006b0: 93 8d 1d 00  	addi	s11, s11, 1
800006b4: 13 8a 09 00  	mv	s4, s3
800006b8: 03 c5 0a 00  	lbu	a0, 0(s5)
800006bc: e3 1c 05 fc  	bnez	a0, 0x80000694 <_vsnprintf+0x90>
800006c0: 6f 00 40 64  	j	0x80000d04 <_vsnprintf+0x700>
800006c4: 13 0e 00 00  	li	t3, 0
800006c8: 6f 00 00 01  	j	0x800006d8 <_vsnprintf+0xd4>
800006cc: 93 05 00 01  	li	a1, 16
800006d0: 33 6e be 00  	or	t3, t3, a1
800006d4: 93 8d 1d 00  	addi	s11, s11, 1
800006d8: 03 c5 fd ff  	lbu	a0, -1(s11)
800006dc: 13 06 05 fe  	addi	a2, a0, -32
800006e0: 63 68 cc 02  	bltu	s8, a2, 0x80000710 <_vsnprintf+0x10c>
800006e4: 93 05 10 00  	li	a1, 1
800006e8: 13 16 26 00  	slli	a2, a2, 2
800006ec: 33 06 96 01  	add	a2, a2, s9
800006f0: 03 26 06 00  	lw	a2, 0(a2)
800006f4: 67 00 06 00  	jr	a2
800006f8: 93 05 80 00  	li	a1, 8
800006fc: 6f f0 5f fd  	j	0x800006d0 <_vsnprintf+0xcc>
80000700: 93 05 40 00  	li	a1, 4
80000704: 6f f0 df fc  	j	0x800006d0 <_vsnprintf+0xcc>
80000708: 93 05 20 00  	li	a1, 2
8000070c: 6f f0 5f fc  	j	0x800006d0 <_vsnprintf+0xcc>
80000710: 93 05 05 fd  	addi	a1, a0, -48
80000714: 13 f6 f5 0f  	andi	a2, a1, 255
80000718: 93 85 fd ff  	addi	a1, s11, -1
8000071c: 63 60 cb 08  	bltu	s6, a2, 0x8000079c <_vsnprintf+0x198>
80000720: 93 0a 00 00  	li	s5, 0
80000724: 33 86 aa 03  	mul	a2, s5, s10
80000728: 93 76 f5 0f  	andi	a3, a0, 255
8000072c: 03 c5 15 00  	lbu	a0, 1(a1)
80000730: 93 85 15 00  	addi	a1, a1, 1
80000734: 33 06 d6 00  	add	a2, a2, a3
80000738: 93 0a 06 fd  	addi	s5, a2, -48
8000073c: 13 06 05 fd  	addi	a2, a0, -48
80000740: 13 76 f6 0f  	andi	a2, a2, 255
80000744: e3 60 a6 ff  	bltu	a2, s10, 0x80000724 <_vsnprintf+0x120>
80000748: 93 8d 05 00  	mv	s11, a1
8000074c: 93 05 e0 02  	li	a1, 46
80000750: 63 14 b5 0c  	bne	a0, a1, 0x80000818 <_vsnprintf+0x214>
80000754: 13 6e 0e 40  	ori	t3, t3, 1024
80000758: 93 85 1d 00  	addi	a1, s11, 1
8000075c: 03 c5 1d 00  	lbu	a0, 1(s11)
80000760: 13 06 05 fd  	addi	a2, a0, -48
80000764: 13 07 90 00  	li	a4, 9
80000768: 13 76 f6 0f  	andi	a2, a2, 255
8000076c: 63 68 cb 06  	bltu	s6, a2, 0x800007dc <_vsnprintf+0x1d8>
80000770: 13 0b 00 00  	li	s6, 0
80000774: 33 06 ab 03  	mul	a2, s6, s10
80000778: 93 76 f5 0f  	andi	a3, a0, 255
8000077c: 03 c5 15 00  	lbu	a0, 1(a1)
80000780: 93 85 15 00  	addi	a1, a1, 1
80000784: 33 06 d6 00  	add	a2, a2, a3
80000788: 13 0b 06 fd  	addi	s6, a2, -48
8000078c: 13 06 05 fd  	addi	a2, a0, -48
80000790: 13 76 f6 0f  	andi	a2, a2, 255
80000794: e3 60 a6 ff  	bltu	a2, s10, 0x80000774 <_vsnprintf+0x170>
80000798: 6f 00 00 09  	j	0x80000828 <_vsnprintf+0x224>
8000079c: 13 06 a0 02  	li	a2, 42
800007a0: 63 14 c5 06  	bne	a0, a2, 0x80000808 <_vsnprintf+0x204>
800007a4: 03 25 81 01  	lw	a0, 24(sp)
800007a8: 03 25 05 00  	lw	a0, 0(a0)
800007ac: 63 54 05 00  	bgez	a0, 0x800007b4 <_vsnprintf+0x1b0>
800007b0: 13 6e 2e 00  	ori	t3, t3, 2
800007b4: 83 25 81 01  	lw	a1, 24(sp)
800007b8: 93 85 45 00  	addi	a1, a1, 4
800007bc: 23 2c b1 00  	sw	a1, 24(sp)
800007c0: 93 55 f5 41  	srai	a1, a0, 31
800007c4: 33 05 b5 00  	add	a0, a0, a1
800007c8: b3 4a b5 00  	xor	s5, a0, a1
800007cc: 03 c5 0d 00  	lbu	a0, 0(s11)
800007d0: 93 05 e0 02  	li	a1, 46
800007d4: e3 00 b5 f8  	beq	a0, a1, 0x80000754 <_vsnprintf+0x150>
800007d8: 6f 00 00 04  	j	0x80000818 <_vsnprintf+0x214>
800007dc: 13 06 a0 02  	li	a2, 42
800007e0: 63 12 c5 04  	bne	a0, a2, 0x80000824 <_vsnprintf+0x220>
800007e4: 03 25 81 01  	lw	a0, 24(sp)
800007e8: 03 2b 05 00  	lw	s6, 0(a0)
800007ec: 63 44 60 01  	bgtz	s6, 0x800007f4 <_vsnprintf+0x1f0>
800007f0: 13 0b 00 00  	li	s6, 0
800007f4: 13 05 45 00  	addi	a0, a0, 4
800007f8: 23 2c a1 00  	sw	a0, 24(sp)
800007fc: 03 c5 2d 00  	lbu	a0, 2(s11)
80000800: 93 8d 2d 00  	addi	s11, s11, 2
80000804: 6f 00 80 02  	j	0x8000082c <_vsnprintf+0x228>
80000808: 93 0a 00 00  	li	s5, 0
8000080c: 93 8d 05 00  	mv	s11, a1
80000810: 93 05 e0 02  	li	a1, 46
80000814: e3 00 b5 f4  	beq	a0, a1, 0x80000754 <_vsnprintf+0x150>
80000818: 13 07 90 00  	li	a4, 9
8000081c: 13 0b 00 00  	li	s6, 0
80000820: 6f 00 c0 00  	j	0x8000082c <_vsnprintf+0x228>
80000824: 13 0b 00 00  	li	s6, 0
80000828: 93 8d 05 00  	mv	s11, a1
8000082c: 93 05 85 f9  	addi	a1, a0, -104
80000830: 13 d6 15 00  	srli	a2, a1, 1
80000834: 93 95 f5 01  	slli	a1, a1, 31
80000838: b3 e5 c5 00  	or	a1, a1, a2
8000083c: 13 06 10 00  	li	a2, 1
80000840: 63 4c b6 00  	blt	a2, a1, 0x80000858 <_vsnprintf+0x254>
80000844: 63 8c 05 02  	beqz	a1, 0x8000087c <_vsnprintf+0x278>
80000848: 13 06 00 20  	li	a2, 512
8000084c: 93 06 10 00  	li	a3, 1
80000850: 63 86 d5 04  	beq	a1, a3, 0x8000089c <_vsnprintf+0x298>
80000854: 6f 00 40 05  	j	0x800008a8 <_vsnprintf+0x2a4>
80000858: 63 8e e5 02  	beq	a1, a4, 0x80000894 <_vsnprintf+0x290>
8000085c: 13 06 20 00  	li	a2, 2
80000860: 63 94 c5 04  	bne	a1, a2, 0x800008a8 <_vsnprintf+0x2a4>
80000864: 03 c5 1d 00  	lbu	a0, 1(s11)
80000868: 93 05 c0 06  	li	a1, 108
8000086c: 63 18 b5 08  	bne	a0, a1, 0x800008fc <_vsnprintf+0x2f8>
80000870: 93 05 20 00  	li	a1, 2
80000874: 13 06 00 30  	li	a2, 768
80000878: 6f 00 40 02  	j	0x8000089c <_vsnprintf+0x298>
8000087c: 03 c5 1d 00  	lbu	a0, 1(s11)
80000880: 93 05 80 06  	li	a1, 104
80000884: 63 12 b5 08  	bne	a0, a1, 0x80000908 <_vsnprintf+0x304>
80000888: 93 05 20 00  	li	a1, 2
8000088c: 13 06 00 0c  	li	a2, 192
80000890: 6f 00 c0 00  	j	0x8000089c <_vsnprintf+0x298>
80000894: 93 05 10 00  	li	a1, 1
80000898: 13 06 00 10  	li	a2, 256
8000089c: 33 6e ce 00  	or	t3, t3, a2
800008a0: b3 8d bd 00  	add	s11, s11, a1
800008a4: 03 c5 0d 00  	lbu	a0, 0(s11)
800008a8: 13 06 b5 fd  	addi	a2, a0, -37
800008ac: 93 05 30 05  	li	a1, 83
800008b0: 63 e8 c5 06  	bltu	a1, a2, 0x80000920 <_vsnprintf+0x31c>
800008b4: 93 05 80 00  	li	a1, 8
800008b8: 13 08 00 01  	li	a6, 16
800008bc: 13 16 26 00  	slli	a2, a2, 2
800008c0: 83 26 41 01  	lw	a3, 20(sp)
800008c4: 33 06 d6 00  	add	a2, a2, a3
800008c8: 03 26 06 00  	lw	a2, 0(a2)
800008cc: 67 00 06 00  	jr	a2
800008d0: 13 7e fe fe  	andi	t3, t3, -17
800008d4: 13 08 a0 00  	li	a6, 10
800008d8: 93 05 80 05  	li	a1, 88
800008dc: 63 14 b5 00  	bne	a0, a1, 0x800008e4 <_vsnprintf+0x2e0>
800008e0: 13 6e 0e 02  	ori	t3, t3, 32
800008e4: 93 05 40 06  	li	a1, 100
800008e8: 63 00 b5 06  	beq	a0, a1, 0x80000948 <_vsnprintf+0x344>
800008ec: 93 05 08 00  	mv	a1, a6
800008f0: 13 06 90 06  	li	a2, 105
800008f4: 63 0a c5 04  	beq	a0, a2, 0x80000948 <_vsnprintf+0x344>
800008f8: 6f 00 80 04  	j	0x80000940 <_vsnprintf+0x33c>
800008fc: 13 6e 0e 10  	ori	t3, t3, 256
80000900: 93 8d 1d 00  	addi	s11, s11, 1
80000904: 6f f0 5f fa  	j	0x800008a8 <_vsnprintf+0x2a4>
80000908: 13 6e 0e 08  	ori	t3, t3, 128
8000090c: 93 8d 1d 00  	addi	s11, s11, 1
80000910: 6f f0 9f f9  	j	0x800008a8 <_vsnprintf+0x2a4>
80000914: 93 09 1a 00  	addi	s3, s4, 1
80000918: 13 05 50 02  	li	a0, 37
8000091c: 6f 00 80 00  	j	0x80000924 <_vsnprintf+0x320>
80000920: 93 09 1a 00  	addi	s3, s4, 1
80000924: 93 85 04 00  	mv	a1, s1
80000928: 13 06 0a 00  	mv	a2, s4
8000092c: 93 06 04 00  	mv	a3, s0
80000930: e7 00 09 00  	jalr	s2
80000934: 13 8a 09 00  	mv	s4, s3
80000938: 6f 00 00 3c  	j	0x80000cf8 <_vsnprintf+0x6f4>
8000093c: 93 05 20 00  	li	a1, 2
80000940: 13 7e 3e ff  	andi	t3, t3, -13
80000944: 13 88 05 00  	mv	a6, a1
80000948: 93 75 0e 40  	andi	a1, t3, 1024
8000094c: 63 84 05 00  	beqz	a1, 0x80000954 <_vsnprintf+0x350>
80000950: 13 7e ee ff  	andi	t3, t3, -2
80000954: 93 05 90 06  	li	a1, 105
80000958: 63 06 b5 00  	beq	a0, a1, 0x80000964 <_vsnprintf+0x360>
8000095c: 93 05 40 06  	li	a1, 100
80000960: 63 1e b5 02  	bne	a0, a1, 0x8000099c <_vsnprintf+0x398>
80000964: 13 75 0e 20  	andi	a0, t3, 512
80000968: 63 18 05 38  	bnez	a0, 0x80000cf8 <_vsnprintf+0x6f4>
8000096c: 13 75 0e 10  	andi	a0, t3, 256
80000970: 63 12 05 06  	bnez	a0, 0x800009d4 <_vsnprintf+0x3d0>
80000974: 13 75 0e 04  	andi	a0, t3, 64
80000978: 63 1e 05 20  	bnez	a0, 0x80000b94 <_vsnprintf+0x590>
8000097c: 93 75 0e 08  	andi	a1, t3, 128
80000980: 03 25 81 01  	lw	a0, 24(sp)
80000984: 03 25 05 00  	lw	a0, 0(a0)
80000988: 63 86 05 00  	beqz	a1, 0x80000994 <_vsnprintf+0x390>
8000098c: 13 15 05 01  	slli	a0, a0, 16
80000990: 13 55 05 41  	srai	a0, a0, 16
80000994: 83 25 81 01  	lw	a1, 24(sp)
80000998: 6f 00 40 20  	j	0x80000b9c <_vsnprintf+0x598>
8000099c: 13 75 0e 20  	andi	a0, t3, 512
800009a0: 63 1c 05 34  	bnez	a0, 0x80000cf8 <_vsnprintf+0x6f4>
800009a4: 13 75 0e 10  	andi	a0, t3, 256
800009a8: 63 18 05 20  	bnez	a0, 0x80000bb8 <_vsnprintf+0x5b4>
800009ac: 13 75 0e 04  	andi	a0, t3, 64
800009b0: 63 1c 05 24  	bnez	a0, 0x80000c08 <_vsnprintf+0x604>
800009b4: 13 75 0e 08  	andi	a0, t3, 128
800009b8: 83 25 81 01  	lw	a1, 24(sp)
800009bc: 03 a7 05 00  	lw	a4, 0(a1)
800009c0: 63 06 05 00  	beqz	a0, 0x800009cc <_vsnprintf+0x3c8>
800009c4: 13 15 07 01  	slli	a0, a4, 16
800009c8: 13 57 05 01  	srli	a4, a0, 16
800009cc: 03 25 81 01  	lw	a0, 24(sp)
800009d0: 6f 00 00 24  	j	0x80000c10 <_vsnprintf+0x60c>
800009d4: 03 25 81 01  	lw	a0, 24(sp)
800009d8: 93 09 45 00  	addi	s3, a0, 4
800009dc: 03 25 05 00  	lw	a0, 0(a0)
800009e0: 93 55 f5 41  	srai	a1, a0, 31
800009e4: 33 06 b5 00  	add	a2, a0, a1
800009e8: 33 47 b6 00  	xor	a4, a2, a1
800009ec: 93 57 f5 01  	srli	a5, a0, 31
800009f0: 6f 00 80 1d  	j	0x80000bc8 <_vsnprintf+0x5c4>
800009f4: 93 75 2e 00  	andi	a1, t3, 2
800009f8: 93 09 10 00  	li	s3, 1
800009fc: 63 9c 05 12  	bnez	a1, 0x80000b34 <_vsnprintf+0x530>
80000a00: 93 09 20 00  	li	s3, 2
80000a04: 63 e8 3a 13  	bltu	s5, s3, 0x80000b34 <_vsnprintf+0x530>
80000a08: 23 28 b1 00  	sw	a1, 16(sp)
80000a0c: 93 0b 00 00  	li	s7, 0
80000a10: 93 89 1a 00  	addi	s3, s5, 1
80000a14: 13 8b fa ff  	addi	s6, s5, -1
80000a18: 33 06 7a 01  	add	a2, s4, s7
80000a1c: 13 05 00 02  	li	a0, 32
80000a20: 93 85 04 00  	mv	a1, s1
80000a24: 93 06 04 00  	mv	a3, s0
80000a28: e7 00 09 00  	jalr	s2
80000a2c: 93 8b 1b 00  	addi	s7, s7, 1
80000a30: e3 14 7b ff  	bne	s6, s7, 0x80000a18 <_vsnprintf+0x414>
80000a34: 33 0a 7a 01  	add	s4, s4, s7
80000a38: 03 25 81 01  	lw	a0, 24(sp)
80000a3c: 83 25 01 01  	lw	a1, 16(sp)
80000a40: 6f 00 80 0f  	j	0x80000b38 <_vsnprintf+0x534>
80000a44: 13 6e 1e 02  	ori	t3, t3, 33
80000a48: 03 25 81 01  	lw	a0, 24(sp)
80000a4c: 93 09 45 00  	addi	s3, a0, 4
80000a50: 03 27 05 00  	lw	a4, 0(a0)
80000a54: 93 07 00 00  	li	a5, 0
80000a58: 13 08 00 01  	li	a6, 16
80000a5c: 93 03 80 00  	li	t2, 8
80000a60: 13 05 09 00  	mv	a0, s2
80000a64: 93 85 04 00  	mv	a1, s1
80000a68: 13 06 0a 00  	mv	a2, s4
80000a6c: 93 06 04 00  	mv	a3, s0
80000a70: 93 08 0b 00  	mv	a7, s6
80000a74: 6f 00 c0 16  	j	0x80000be0 <_vsnprintf+0x5dc>
80000a78: 03 25 81 01  	lw	a0, 24(sp)
80000a7c: 03 28 05 00  	lw	a6, 0(a0)
80000a80: 03 45 08 00  	lbu	a0, 0(a6)
80000a84: 13 06 08 00  	mv	a2, a6
80000a88: 63 0c 05 02  	beqz	a0, 0x80000ac0 <_vsnprintf+0x4bc>
80000a8c: 93 05 f0 ff  	li	a1, -1
80000a90: 63 04 0b 00  	beqz	s6, 0x80000a98 <_vsnprintf+0x494>
80000a94: 93 05 0b 00  	mv	a1, s6
80000a98: 93 85 f5 ff  	addi	a1, a1, -1
80000a9c: 93 06 08 00  	mv	a3, a6
80000aa0: 13 86 16 00  	addi	a2, a3, 1
80000aa4: 03 c7 16 00  	lbu	a4, 1(a3)
80000aa8: 93 b7 15 00  	seqz	a5, a1
80000aac: 93 85 f5 ff  	addi	a1, a1, -1
80000ab0: 93 06 06 00  	mv	a3, a2
80000ab4: 13 37 17 00  	seqz	a4, a4
80000ab8: 33 67 f7 00  	or	a4, a4, a5
80000abc: e3 02 07 fe  	beqz	a4, 0x80000aa0 <_vsnprintf+0x49c>
80000ac0: b3 05 06 41  	sub	a1, a2, a6
80000ac4: 13 76 0e 40  	andi	a2, t3, 1024
80000ac8: 23 28 c1 00  	sw	a2, 16(sp)
80000acc: 13 36 16 00  	seqz	a2, a2
80000ad0: b3 b6 65 01  	sltu	a3, a1, s6
80000ad4: 33 66 d6 00  	or	a2, a2, a3
80000ad8: 63 14 06 00  	bnez	a2, 0x80000ae0 <_vsnprintf+0x4dc>
80000adc: 93 05 0b 00  	mv	a1, s6
80000ae0: 13 76 2e 00  	andi	a2, t3, 2
80000ae4: 23 26 c1 00  	sw	a2, 12(sp)
80000ae8: 63 16 06 10  	bnez	a2, 0x80000bf4 <_vsnprintf+0x5f0>
80000aec: 63 fc 55 15  	bgeu	a1, s5, 0x80000c44 <_vsnprintf+0x640>
80000af0: 23 22 01 01  	sw	a6, 4(sp)
80000af4: 93 09 00 00  	li	s3, 0
80000af8: 13 85 1a 00  	addi	a0, s5, 1
80000afc: 23 24 a1 00  	sw	a0, 8(sp)
80000b00: b3 8b ba 40  	sub	s7, s5, a1
80000b04: 33 06 3a 01  	add	a2, s4, s3
80000b08: 13 05 00 02  	li	a0, 32
80000b0c: 93 85 04 00  	mv	a1, s1
80000b10: 93 06 04 00  	mv	a3, s0
80000b14: e7 00 09 00  	jalr	s2
80000b18: 93 89 19 00  	addi	s3, s3, 1
80000b1c: e3 94 3b ff  	bne	s7, s3, 0x80000b04 <_vsnprintf+0x500>
80000b20: 03 28 41 00  	lw	a6, 4(sp)
80000b24: 03 45 08 00  	lbu	a0, 0(a6)
80000b28: 33 0a 3a 01  	add	s4, s4, s3
80000b2c: 63 12 05 12  	bnez	a0, 0x80000c50 <_vsnprintf+0x64c>
80000b30: 6f 00 00 16  	j	0x80000c90 <_vsnprintf+0x68c>
80000b34: 03 25 81 01  	lw	a0, 24(sp)
80000b38: 13 06 0a 00  	mv	a2, s4
80000b3c: b3 3b b0 00  	snez	s7, a1
80000b40: 13 0b 45 00  	addi	s6, a0, 4
80000b44: 03 45 05 00  	lbu	a0, 0(a0)
80000b48: 13 0a 1a 00  	addi	s4, s4, 1
80000b4c: 93 85 04 00  	mv	a1, s1
80000b50: 93 06 04 00  	mv	a3, s0
80000b54: e7 00 09 00  	jalr	s2
80000b58: 33 b5 59 01  	sltu	a0, s3, s5
80000b5c: 33 f5 ab 00  	and	a0, s7, a0
80000b60: 63 00 05 0a  	beqz	a0, 0x80000c00 <_vsnprintf+0x5fc>
80000b64: b3 89 3a 41  	sub	s3, s5, s3
80000b68: 93 0b 50 02  	li	s7, 37
80000b6c: 13 06 0a 00  	mv	a2, s4
80000b70: 13 0a 1a 00  	addi	s4, s4, 1
80000b74: 13 05 00 02  	li	a0, 32
80000b78: 93 85 04 00  	mv	a1, s1
80000b7c: 93 06 04 00  	mv	a3, s0
80000b80: e7 00 09 00  	jalr	s2
80000b84: 93 89 f9 ff  	addi	s3, s3, -1
80000b88: e3 92 09 fe  	bnez	s3, 0x80000b6c <_vsnprintf+0x568>
80000b8c: 23 2c 61 01  	sw	s6, 24(sp)
80000b90: 6f 00 80 16  	j	0x80000cf8 <_vsnprintf+0x6f4>
80000b94: 83 25 81 01  	lw	a1, 24(sp)
80000b98: 03 c5 05 00  	lbu	a0, 0(a1)
80000b9c: 93 85 45 00  	addi	a1, a1, 4
80000ba0: 23 2c b1 00  	sw	a1, 24(sp)
80000ba4: 93 55 f5 41  	srai	a1, a0, 31
80000ba8: 33 06 b5 00  	add	a2, a0, a1
80000bac: 33 47 b6 00  	xor	a4, a2, a1
80000bb0: 93 57 f5 01  	srli	a5, a0, 31
80000bb4: 6f 00 80 06  	j	0x80000c1c <_vsnprintf+0x618>
80000bb8: 03 25 81 01  	lw	a0, 24(sp)
80000bbc: 93 09 45 00  	addi	s3, a0, 4
80000bc0: 03 27 05 00  	lw	a4, 0(a0)
80000bc4: 93 07 00 00  	li	a5, 0
80000bc8: 13 05 09 00  	mv	a0, s2
80000bcc: 93 85 04 00  	mv	a1, s1
80000bd0: 13 06 0a 00  	mv	a2, s4
80000bd4: 93 06 04 00  	mv	a3, s0
80000bd8: 93 08 0b 00  	mv	a7, s6
80000bdc: 93 83 0a 00  	mv	t2, s5
80000be0: 97 00 00 00  	auipc	ra, 0
80000be4: e7 80 00 2e  	jalr	736(ra)
80000be8: 13 0a 05 00  	mv	s4, a0
80000bec: 23 2c 31 01  	sw	s3, 24(sp)
80000bf0: 6f 00 80 10  	j	0x80000cf8 <_vsnprintf+0x6f4>
80000bf4: 23 24 b1 00  	sw	a1, 8(sp)
80000bf8: 63 1c 05 04  	bnez	a0, 0x80000c50 <_vsnprintf+0x64c>
80000bfc: 6f 00 40 09  	j	0x80000c90 <_vsnprintf+0x68c>
80000c00: 23 2c 61 01  	sw	s6, 24(sp)
80000c04: 6f 00 00 0f  	j	0x80000cf4 <_vsnprintf+0x6f0>
80000c08: 03 25 81 01  	lw	a0, 24(sp)
80000c0c: 03 47 05 00  	lbu	a4, 0(a0)
80000c10: 13 05 45 00  	addi	a0, a0, 4
80000c14: 23 2c a1 00  	sw	a0, 24(sp)
80000c18: 93 07 00 00  	li	a5, 0
80000c1c: 13 05 09 00  	mv	a0, s2
80000c20: 93 85 04 00  	mv	a1, s1
80000c24: 13 06 0a 00  	mv	a2, s4
80000c28: 93 06 04 00  	mv	a3, s0
80000c2c: 93 08 0b 00  	mv	a7, s6
80000c30: 93 83 0a 00  	mv	t2, s5
80000c34: 97 00 00 00  	auipc	ra, 0
80000c38: e7 80 c0 28  	jalr	652(ra)
80000c3c: 13 0a 05 00  	mv	s4, a0
80000c40: 6f 00 80 0b  	j	0x80000cf8 <_vsnprintf+0x6f4>
80000c44: 93 85 15 00  	addi	a1, a1, 1
80000c48: 23 24 b1 00  	sw	a1, 8(sp)
80000c4c: 63 02 05 04  	beqz	a0, 0x80000c90 <_vsnprintf+0x68c>
80000c50: 93 0b 18 00  	addi	s7, a6, 1
80000c54: 6f 00 00 03  	j	0x80000c84 <_vsnprintf+0x680>
80000c58: 13 0b fb ff  	addi	s6, s6, -1
80000c5c: 93 09 1a 00  	addi	s3, s4, 1
80000c60: 13 75 f5 0f  	andi	a0, a0, 255
80000c64: 93 85 04 00  	mv	a1, s1
80000c68: 13 06 0a 00  	mv	a2, s4
80000c6c: 93 06 04 00  	mv	a3, s0
80000c70: e7 00 09 00  	jalr	s2
80000c74: 03 c5 0b 00  	lbu	a0, 0(s7)
80000c78: 93 8b 1b 00  	addi	s7, s7, 1
80000c7c: 13 8a 09 00  	mv	s4, s3
80000c80: 63 0a 05 00  	beqz	a0, 0x80000c94 <_vsnprintf+0x690>
80000c84: 83 25 01 01  	lw	a1, 16(sp)
80000c88: e3 8a 05 fc  	beqz	a1, 0x80000c5c <_vsnprintf+0x658>
80000c8c: e3 16 0b fc  	bnez	s6, 0x80000c58 <_vsnprintf+0x654>
80000c90: 93 09 0a 00  	mv	s3, s4
80000c94: 03 25 81 01  	lw	a0, 24(sp)
80000c98: 13 05 45 00  	addi	a0, a0, 4
80000c9c: 23 2c a1 00  	sw	a0, 24(sp)
80000ca0: 03 25 c1 00  	lw	a0, 12(sp)
80000ca4: 33 35 a0 00  	snez	a0, a0
80000ca8: 03 26 81 00  	lw	a2, 8(sp)
80000cac: b3 35 56 01  	sltu	a1, a2, s5
80000cb0: 33 75 b5 00  	and	a0, a0, a1
80000cb4: 63 0e 05 02  	beqz	a0, 0x80000cf0 <_vsnprintf+0x6ec>
80000cb8: 33 8a ca 40  	sub	s4, s5, a2
80000cbc: 93 0b 50 02  	li	s7, 37
80000cc0: 13 0b 90 00  	li	s6, 9
80000cc4: 13 86 09 00  	mv	a2, s3
80000cc8: 93 89 19 00  	addi	s3, s3, 1
80000ccc: 13 05 00 02  	li	a0, 32
80000cd0: 93 85 04 00  	mv	a1, s1
80000cd4: 93 06 04 00  	mv	a3, s0
80000cd8: e7 00 09 00  	jalr	s2
80000cdc: 13 0a fa ff  	addi	s4, s4, -1
80000ce0: e3 12 0a fe  	bnez	s4, 0x80000cc4 <_vsnprintf+0x6c0>
80000ce4: 13 8a 09 00  	mv	s4, s3
80000ce8: 93 8a 1d 00  	addi	s5, s11, 1
80000cec: 6f f0 df 99  	j	0x80000688 <_vsnprintf+0x84>
80000cf0: 13 8a 09 00  	mv	s4, s3
80000cf4: 93 0b 50 02  	li	s7, 37
80000cf8: 13 0b 90 00  	li	s6, 9
80000cfc: 93 8a 1d 00  	addi	s5, s11, 1
80000d00: 6f f0 9f 98  	j	0x80000688 <_vsnprintf+0x84>
80000d04: 13 06 0a 00  	mv	a2, s4
80000d08: 63 64 8a 00  	bltu	s4, s0, 0x80000d10 <_vsnprintf+0x70c>
80000d0c: 13 06 f4 ff  	addi	a2, s0, -1
80000d10: 13 05 00 00  	li	a0, 0
80000d14: 93 85 04 00  	mv	a1, s1
80000d18: 93 06 04 00  	mv	a3, s0
80000d1c: e7 00 09 00  	jalr	s2
80000d20: 13 05 0a 00  	mv	a0, s4
80000d24: 83 20 c1 04  	lw	ra, 76(sp)
80000d28: 03 24 81 04  	lw	s0, 72(sp)
80000d2c: 83 24 41 04  	lw	s1, 68(sp)
80000d30: 03 29 01 04  	lw	s2, 64(sp)
80000d34: 83 29 c1 03  	lw	s3, 60(sp)
80000d38: 03 2a 81 03  	lw	s4, 56(sp)
80000d3c: 83 2a 41 03  	lw	s5, 52(sp)
80000d40: 03 2b 01 03  	lw	s6, 48(sp)
80000d44: 83 2b c1 02  	lw	s7, 44(sp)
80000d48: 03 2c 81 02  	lw	s8, 40(sp)
80000d4c: 83 2c 41 02  	lw	s9, 36(sp)
80000d50: 03 2d 01 02  	lw	s10, 32(sp)
80000d54: 83 2d c1 01  	lw	s11, 28(sp)
80000d58: 13 01 01 05  	addi	sp, sp, 80
80000d5c: 67 80 00 00  	ret

80000d60 <_out_char>:
80000d60: 63 06 05 00  	beqz	a0, 0x80000d6c <_out_char+0xc>
80000d64: 17 03 00 00  	auipc	t1, 0
80000d68: 67 00 43 4e  	jr	1252(t1)
80000d6c: 67 80 00 00  	ret

80000d70 <sprintf_>:
80000d70: 13 01 01 fe  	addi	sp, sp, -32
80000d74: 23 22 11 00  	sw	ra, 4(sp)
80000d78: 93 82 05 00  	mv	t0, a1
80000d7c: 93 05 05 00  	mv	a1, a0
80000d80: 23 2e 11 01  	sw	a7, 28(sp)
80000d84: 23 2c 01 01  	sw	a6, 24(sp)
80000d88: 23 2a f1 00  	sw	a5, 20(sp)
80000d8c: 23 28 e1 00  	sw	a4, 16(sp)
80000d90: 23 26 d1 00  	sw	a3, 12(sp)
80000d94: 23 24 c1 00  	sw	a2, 8(sp)
80000d98: 13 05 81 00  	addi	a0, sp, 8
80000d9c: 23 20 a1 00  	sw	a0, 0(sp)
80000da0: 37 15 00 80  	lui	a0, 524289
80000da4: 13 05 85 dc  	addi	a0, a0, -568
80000da8: 13 06 f0 ff  	li	a2, -1
80000dac: 13 07 81 00  	addi	a4, sp, 8
80000db0: 93 86 02 00  	mv	a3, t0
80000db4: 97 00 00 00  	auipc	ra, 0
80000db8: e7 80 00 85  	jalr	-1968(ra)
80000dbc: 83 20 41 00  	lw	ra, 4(sp)
80000dc0: 13 01 01 02  	addi	sp, sp, 32
80000dc4: 67 80 00 00  	ret

80000dc8 <_out_buffer>:
80000dc8: 63 76 d6 00  	bgeu	a2, a3, 0x80000dd4 <_out_buffer+0xc>
80000dcc: b3 85 c5 00  	add	a1, a1, a2
80000dd0: 23 80 a5 00  	sb	a0, 0(a1)
80000dd4: 67 80 00 00  	ret

80000dd8 <snprintf_>:
80000dd8: 13 01 01 fe  	addi	sp, sp, -32
80000ddc: 23 22 11 00  	sw	ra, 4(sp)
80000de0: 93 02 06 00  	mv	t0, a2
80000de4: 13 86 05 00  	mv	a2, a1
80000de8: 93 05 05 00  	mv	a1, a0
80000dec: 23 2e 11 01  	sw	a7, 28(sp)
80000df0: 23 2c 01 01  	sw	a6, 24(sp)
80000df4: 23 2a f1 00  	sw	a5, 20(sp)
80000df8: 23 28 e1 00  	sw	a4, 16(sp)
80000dfc: 23 26 d1 00  	sw	a3, 12(sp)
80000e00: 13 05 c1 00  	addi	a0, sp, 12
80000e04: 23 20 a1 00  	sw	a0, 0(sp)
80000e08: 37 15 00 80  	lui	a0, 524289
80000e0c: 13 05 85 dc  	addi	a0, a0, -568
80000e10: 13 07 c1 00  	addi	a4, sp, 12
80000e14: 93 86 02 00  	mv	a3, t0
80000e18: 97 f0 ff ff  	auipc	ra, 1048575
80000e1c: e7 80 c0 7e  	jalr	2028(ra)
80000e20: 83 20 41 00  	lw	ra, 4(sp)
80000e24: 13 01 01 02  	addi	sp, sp, 32
80000e28: 67 80 00 00  	ret

80000e2c <vsnprintf_>:
80000e2c: 13 87 06 00  	mv	a4, a3
80000e30: 93 06 06 00  	mv	a3, a2
80000e34: 13 86 05 00  	mv	a2, a1
80000e38: 93 05 05 00  	mv	a1, a0
80000e3c: 37 15 00 80  	lui	a0, 524289
80000e40: 13 05 85 dc  	addi	a0, a0, -568
80000e44: 17 f3 ff ff  	auipc	t1, 1048575
80000e48: 67 00 03 7c  	jr	1984(t1)

80000e4c <fctprintf>:
80000e4c: 13 01 01 fd  	addi	sp, sp, -48
80000e50: 23 2a 11 00  	sw	ra, 20(sp)
80000e54: 93 02 06 00  	mv	t0, a2
80000e58: 23 26 11 03  	sw	a7, 44(sp)
80000e5c: 23 24 01 03  	sw	a6, 40(sp)
80000e60: 23 22 f1 02  	sw	a5, 36(sp)
80000e64: 23 20 e1 02  	sw	a4, 32(sp)
80000e68: 23 2e d1 00  	sw	a3, 28(sp)
80000e6c: 13 06 c1 01  	addi	a2, sp, 28
80000e70: 23 28 c1 00  	sw	a2, 16(sp)
80000e74: 23 24 a1 00  	sw	a0, 8(sp)
80000e78: 23 26 b1 00  	sw	a1, 12(sp)
80000e7c: 37 15 00 80  	lui	a0, 524289
80000e80: 13 05 85 ea  	addi	a0, a0, -344
80000e84: 93 05 81 00  	addi	a1, sp, 8
80000e88: 13 06 f0 ff  	li	a2, -1
80000e8c: 13 07 c1 01  	addi	a4, sp, 28
80000e90: 93 86 02 00  	mv	a3, t0
80000e94: 97 f0 ff ff  	auipc	ra, 1048575
80000e98: e7 80 00 77  	jalr	1904(ra)
80000e9c: 83 20 41 01  	lw	ra, 20(sp)
80000ea0: 13 01 01 03  	addi	sp, sp, 48
80000ea4: 67 80 00 00  	ret

80000ea8 <_out_fct>:
80000ea8: 63 08 05 00  	beqz	a0, 0x80000eb8 <_out_fct+0x10>
80000eac: 03 a3 05 00  	lw	t1, 0(a1)
80000eb0: 83 a5 45 00  	lw	a1, 4(a1)
80000eb4: 67 00 03 00  	jr	t1
80000eb8: 67 80 00 00  	ret

80000ebc <_out_null>:
80000ebc: 67 80 00 00  	ret

80000ec0 <_ntoa_long>:
80000ec0: 13 01 01 fb  	addi	sp, sp, -80
80000ec4: 23 26 11 04  	sw	ra, 76(sp)
80000ec8: 23 24 81 04  	sw	s0, 72(sp)
80000ecc: 23 22 91 04  	sw	s1, 68(sp)
80000ed0: 23 20 21 05  	sw	s2, 64(sp)
80000ed4: 23 2e 31 03  	sw	s3, 60(sp)
80000ed8: 23 2c 41 03  	sw	s4, 56(sp)
80000edc: 23 2a 51 03  	sw	s5, 52(sp)
80000ee0: 23 28 61 03  	sw	s6, 48(sp)
80000ee4: 23 26 71 03  	sw	s7, 44(sp)
80000ee8: 23 24 81 03  	sw	s8, 40(sp)
80000eec: 23 22 91 03  	sw	s9, 36(sp)
80000ef0: 13 84 03 00  	mv	s0, t2
80000ef4: 93 84 06 00  	mv	s1, a3
80000ef8: 13 0a 06 00  	mv	s4, a2
80000efc: 13 89 05 00  	mv	s2, a1
80000f00: 93 09 05 00  	mv	s3, a0
80000f04: 13 36 17 00  	seqz	a2, a4
80000f08: 63 14 07 00  	bnez	a4, 0x80000f10 <_ntoa_long+0x50>
80000f0c: 13 7e fe fe  	andi	t3, t3, -17
80000f10: 13 05 00 00  	li	a0, 0
80000f14: 93 75 0e 40  	andi	a1, t3, 1024
80000f18: 93 d6 a5 00  	srli	a3, a1, 10
80000f1c: 33 76 d6 00  	and	a2, a2, a3
80000f20: 63 16 06 06  	bnez	a2, 0x80000f8c <_ntoa_long+0xcc>
80000f24: 93 06 00 00  	li	a3, 0
80000f28: 13 75 0e 02  	andi	a0, t3, 32
80000f2c: 13 45 15 06  	xori	a0, a0, 97
80000f30: 13 06 65 0f  	addi	a2, a0, 246
80000f34: 93 02 a0 00  	li	t0, 10
80000f38: 13 03 41 00  	addi	t1, sp, 4
80000f3c: 6f 00 00 03  	j	0x80000f6c <_ntoa_long+0xac>
80000f40: b3 8e ae 00  	add	t4, t4, a0
80000f44: 13 85 16 00  	addi	a0, a3, 1
80000f48: 33 0f d3 00  	add	t5, t1, a3
80000f4c: 23 00 df 01  	sb	t4, 0(t5)
80000f50: 33 37 07 01  	sltu	a4, a4, a6
80000f54: 13 47 17 00  	xori	a4, a4, 1
80000f58: 93 b6 f6 01  	sltiu	a3, a3, 31
80000f5c: b3 7e d7 00  	and	t4, a4, a3
80000f60: 93 06 05 00  	mv	a3, a0
80000f64: 13 87 03 00  	mv	a4, t2
80000f68: 63 82 0e 02  	beqz	t4, 0x80000f8c <_ntoa_long+0xcc>
80000f6c: b3 53 07 03  	divu	t2, a4, a6
80000f70: 13 05 00 03  	li	a0, 48
80000f74: b3 8e 03 03  	mul	t4, t2, a6
80000f78: b3 0e d7 41  	sub	t4, a4, t4
80000f7c: 13 ff ee 0f  	andi	t5, t4, 254
80000f80: e3 60 5f fc  	bltu	t5, t0, 0x80000f40 <_ntoa_long+0x80>
80000f84: 13 05 06 00  	mv	a0, a2
80000f88: 6f f0 9f fb  	j	0x80000f40 <_ntoa_long+0x80>
80000f8c: 93 7b 2e 00  	andi	s7, t3, 2
80000f90: 63 9c 0b 0a  	bnez	s7, 0x80001048 <_ntoa_long+0x188>
80000f94: 13 76 1e 00  	andi	a2, t3, 1
80000f98: 63 0e 04 00  	beqz	s0, 0x80000fb4 <_ntoa_long+0xf4>
80000f9c: 63 0e 06 00  	beqz	a2, 0x80000fb8 <_ntoa_long+0xf8>
80000fa0: 93 76 ce 00  	andi	a3, t3, 12
80000fa4: b3 36 d0 00  	snez	a3, a3
80000fa8: b3 e6 f6 00  	or	a3, a3, a5
80000fac: 33 04 d4 40  	sub	s0, s0, a3
80000fb0: 6f 00 80 00  	j	0x80000fb8 <_ntoa_long+0xf8>
80000fb4: 13 04 00 00  	li	s0, 0
80000fb8: b3 36 15 01  	sltu	a3, a0, a7
80000fbc: 93 c6 16 00  	xori	a3, a3, 1
80000fc0: 13 07 f0 01  	li	a4, 31
80000fc4: 33 37 a7 00  	sltu	a4, a4, a0
80000fc8: b3 e6 e6 00  	or	a3, a3, a4
80000fcc: 63 9a 06 02  	bnez	a3, 0x80001000 <_ntoa_long+0x140>
80000fd0: 13 07 41 00  	addi	a4, sp, 4
80000fd4: 93 02 00 03  	li	t0, 48
80000fd8: 93 06 15 00  	addi	a3, a0, 1
80000fdc: 33 03 a7 00  	add	t1, a4, a0
80000fe0: 23 00 53 00  	sb	t0, 0(t1)
80000fe4: 33 b3 16 01  	sltu	t1, a3, a7
80000fe8: 13 35 f5 01  	sltiu	a0, a0, 31
80000fec: 33 73 65 00  	and	t1, a0, t1
80000ff0: 13 85 06 00  	mv	a0, a3
80000ff4: e3 12 03 fe  	bnez	t1, 0x80000fd8 <_ntoa_long+0x118>
80000ff8: 63 18 06 00  	bnez	a2, 0x80001008 <_ntoa_long+0x148>
80000ffc: 6f 00 80 04  	j	0x80001044 <_ntoa_long+0x184>
80001000: 93 06 05 00  	mv	a3, a0
80001004: 63 00 06 04  	beqz	a2, 0x80001044 <_ntoa_long+0x184>
80001008: 33 b5 86 00  	sltu	a0, a3, s0
8000100c: 13 45 15 00  	xori	a0, a0, 1
80001010: 13 06 f0 01  	li	a2, 31
80001014: 33 36 d6 00  	sltu	a2, a2, a3
80001018: 33 65 c5 00  	or	a0, a0, a2
8000101c: 63 14 05 02  	bnez	a0, 0x80001044 <_ntoa_long+0x184>
80001020: 13 05 41 00  	addi	a0, sp, 4
80001024: 13 06 00 03  	li	a2, 48
80001028: 33 07 d5 00  	add	a4, a0, a3
8000102c: 23 00 c7 00  	sb	a2, 0(a4)
80001030: 13 b7 f6 01  	sltiu	a4, a3, 31
80001034: 93 86 16 00  	addi	a3, a3, 1
80001038: b3 b2 86 00  	sltu	t0, a3, s0
8000103c: 33 77 57 00  	and	a4, a4, t0
80001040: e3 14 07 fe  	bnez	a4, 0x80001028 <_ntoa_long+0x168>
80001044: 13 85 06 00  	mv	a0, a3
80001048: 13 76 0e 01  	andi	a2, t3, 16
8000104c: 63 02 06 0c  	beqz	a2, 0x80001110 <_ntoa_long+0x250>
80001050: 93 b5 15 00  	seqz	a1, a1
80001054: 33 36 a0 00  	snez	a2, a0
80001058: b3 f5 c5 00  	and	a1, a1, a2
8000105c: 63 8e 05 02  	beqz	a1, 0x80001098 <_ntoa_long+0x1d8>
80001060: b3 45 15 01  	xor	a1, a0, a7
80001064: b3 35 b0 00  	snez	a1, a1
80001068: 33 46 85 00  	xor	a2, a0, s0
8000106c: 33 36 c0 00  	snez	a2, a2
80001070: b3 f5 c5 00  	and	a1, a1, a2
80001074: 63 92 05 02  	bnez	a1, 0x80001098 <_ntoa_long+0x1d8>
80001078: 93 05 f5 ff  	addi	a1, a0, -1
8000107c: 33 36 b0 00  	snez	a2, a1
80001080: 93 06 08 ff  	addi	a3, a6, -16
80001084: 93 b6 16 00  	seqz	a3, a3
80001088: 33 f6 c6 00  	and	a2, a3, a2
8000108c: 63 04 06 00  	beqz	a2, 0x80001094 <_ntoa_long+0x1d4>
80001090: 93 05 e5 ff  	addi	a1, a0, -2
80001094: 13 85 05 00  	mv	a0, a1
80001098: 93 05 00 01  	li	a1, 16
8000109c: 63 18 b8 02  	bne	a6, a1, 0x800010cc <_ntoa_long+0x20c>
800010a0: 13 76 0e 02  	andi	a2, t3, 32
800010a4: 93 35 16 00  	seqz	a1, a2
800010a8: 93 36 05 02  	sltiu	a3, a0, 32
800010ac: 33 f7 d5 00  	and	a4, a1, a3
800010b0: 93 05 80 07  	li	a1, 120
800010b4: 63 18 07 02  	bnez	a4, 0x800010e4 <_ntoa_long+0x224>
800010b8: b3 35 c0 00  	snez	a1, a2
800010bc: 33 f6 d5 00  	and	a2, a1, a3
800010c0: 93 05 80 05  	li	a1, 88
800010c4: 63 10 06 02  	bnez	a2, 0x800010e4 <_ntoa_long+0x224>
800010c8: 6f 00 c0 02  	j	0x800010f4 <_ntoa_long+0x234>
800010cc: 93 05 e8 ff  	addi	a1, a6, -2
800010d0: 93 b5 15 00  	seqz	a1, a1
800010d4: 13 36 05 02  	sltiu	a2, a0, 32
800010d8: 33 f6 c5 00  	and	a2, a1, a2
800010dc: 93 05 20 06  	li	a1, 98
800010e0: 63 0a 06 00  	beqz	a2, 0x800010f4 <_ntoa_long+0x234>
800010e4: 13 06 41 00  	addi	a2, sp, 4
800010e8: 33 06 a6 00  	add	a2, a2, a0
800010ec: 13 05 15 00  	addi	a0, a0, 1
800010f0: 23 00 b6 00  	sb	a1, 0(a2)
800010f4: 93 05 f0 01  	li	a1, 31
800010f8: 63 e2 a5 04  	bltu	a1, a0, 0x8000113c <_ntoa_long+0x27c>
800010fc: 93 05 41 00  	addi	a1, sp, 4
80001100: b3 85 a5 00  	add	a1, a1, a0
80001104: 13 05 15 00  	addi	a0, a0, 1
80001108: 13 06 00 03  	li	a2, 48
8000110c: 23 80 c5 00  	sb	a2, 0(a1)
80001110: 13 0c 00 02  	li	s8, 32
80001114: 93 05 f0 01  	li	a1, 31
80001118: 63 ee a5 02  	bltu	a1, a0, 0x80001154 <_ntoa_long+0x294>
8000111c: 93 05 d0 02  	li	a1, 45
80001120: 63 92 07 02  	bnez	a5, 0x80001144 <_ntoa_long+0x284>
80001124: 13 76 4e 00  	andi	a2, t3, 4
80001128: 93 05 b0 02  	li	a1, 43
8000112c: 63 1c 06 00  	bnez	a2, 0x80001144 <_ntoa_long+0x284>
80001130: 13 76 8e 00  	andi	a2, t3, 8
80001134: 93 05 00 02  	li	a1, 32
80001138: 63 16 06 00  	bnez	a2, 0x80001144 <_ntoa_long+0x284>
8000113c: 13 0c 05 00  	mv	s8, a0
80001140: 6f 00 40 01  	j	0x80001154 <_ntoa_long+0x294>
80001144: 13 0c 15 00  	addi	s8, a0, 1
80001148: 13 06 41 00  	addi	a2, sp, 4
8000114c: 33 05 a6 00  	add	a0, a2, a0
80001150: 23 00 b5 00  	sb	a1, 0(a0)
80001154: 13 75 3e 00  	andi	a0, t3, 3
80001158: 13 35 15 00  	seqz	a0, a0
8000115c: b3 35 8c 00  	sltu	a1, s8, s0
80001160: 33 75 b5 00  	and	a0, a0, a1
80001164: 13 0b 0a 00  	mv	s6, s4
80001168: 63 06 05 02  	beqz	a0, 0x80001194 <_ntoa_long+0x2d4>
8000116c: b3 0a 84 41  	sub	s5, s0, s8
80001170: 13 06 0a 00  	mv	a2, s4
80001174: 13 0b 16 00  	addi	s6, a2, 1
80001178: 13 05 00 02  	li	a0, 32
8000117c: 93 05 09 00  	mv	a1, s2
80001180: 93 86 04 00  	mv	a3, s1
80001184: e7 80 09 00  	jalr	s3
80001188: 93 8a fa ff  	addi	s5, s5, -1
8000118c: 13 06 0b 00  	mv	a2, s6
80001190: e3 92 0a fe  	bnez	s5, 0x80001174 <_ntoa_long+0x2b4>
80001194: 63 0a 0c 02  	beqz	s8, 0x800011c8 <_ntoa_long+0x308>
80001198: 93 0c 31 00  	addi	s9, sp, 3
8000119c: 33 85 8c 01  	add	a0, s9, s8
800011a0: 03 45 05 00  	lbu	a0, 0(a0)
800011a4: 93 0a 1b 00  	addi	s5, s6, 1
800011a8: 93 05 09 00  	mv	a1, s2
800011ac: 13 06 0b 00  	mv	a2, s6
800011b0: 93 86 04 00  	mv	a3, s1
800011b4: e7 80 09 00  	jalr	s3
800011b8: 13 0c fc ff  	addi	s8, s8, -1
800011bc: 13 8b 0a 00  	mv	s6, s5
800011c0: e3 1e 0c fc  	bnez	s8, 0x8000119c <_ntoa_long+0x2dc>
800011c4: 6f 00 80 00  	j	0x800011cc <_ntoa_long+0x30c>
800011c8: 93 0a 0b 00  	mv	s5, s6
800011cc: 33 35 70 01  	snez	a0, s7
800011d0: b3 85 4a 41  	sub	a1, s5, s4
800011d4: b3 b5 85 00  	sltu	a1, a1, s0
800011d8: 33 75 b5 00  	and	a0, a0, a1
800011dc: 63 08 05 02  	beqz	a0, 0x8000120c <_ntoa_long+0x34c>
800011e0: 33 0b 40 41  	neg	s6, s4
800011e4: 13 8a 1a 00  	addi	s4, s5, 1
800011e8: 13 05 00 02  	li	a0, 32
800011ec: 93 05 09 00  	mv	a1, s2
800011f0: 13 86 0a 00  	mv	a2, s5
800011f4: 93 86 04 00  	mv	a3, s1
800011f8: e7 80 09 00  	jalr	s3
800011fc: 33 05 4b 01  	add	a0, s6, s4
80001200: 93 0a 0a 00  	mv	s5, s4
80001204: e3 60 85 fe  	bltu	a0, s0, 0x800011e4 <_ntoa_long+0x324>
80001208: 6f 00 80 00  	j	0x80001210 <_ntoa_long+0x350>
8000120c: 13 8a 0a 00  	mv	s4, s5
80001210: 13 05 0a 00  	mv	a0, s4
80001214: 83 20 c1 04  	lw	ra, 76(sp)
80001218: 03 24 81 04  	lw	s0, 72(sp)
8000121c: 83 24 41 04  	lw	s1, 68(sp)
80001220: 03 29 01 04  	lw	s2, 64(sp)
80001224: 83 29 c1 03  	lw	s3, 60(sp)
80001228: 03 2a 81 03  	lw	s4, 56(sp)
8000122c: 83 2a 41 03  	lw	s5, 52(sp)
80001230: 03 2b 01 03  	lw	s6, 48(sp)
80001234: 83 2b c1 02  	lw	s7, 44(sp)
80001238: 03 2c 81 02  	lw	s8, 40(sp)
8000123c: 83 2c 41 02  	lw	s9, 36(sp)
80001240: 13 01 01 05  	addi	sp, sp, 80
80001244: 67 80 00 00  	ret

80001248 <_putchar>:
80001248: b7 05 00 c0  	lui	a1, 786432
8000124c: 23 80 a5 00  	sb	a0, 0(a1)
80001250: 67 80 00 00  	ret

80001254 <memcpy>:
80001254: b3 e6 a5 00  	or	a3, a1, a0
80001258: b3 e6 c6 00  	or	a3, a3, a2
8000125c: 13 f7 36 00  	andi	a4, a3, 3
80001260: b3 06 c5 00  	add	a3, a0, a2
80001264: 63 06 07 02  	beqz	a4, 0x80001290 <memcpy+0x3c>
80001268: 63 74 d5 04  	bgeu	a0, a3, 0x800012b0 <memcpy+0x5c>
8000126c: 93 06 05 00  	mv	a3, a0
80001270: 03 87 05 00  	lb	a4, 0(a1)
80001274: 93 85 15 00  	addi	a1, a1, 1
80001278: 13 06 f6 ff  	addi	a2, a2, -1
8000127c: 93 87 16 00  	addi	a5, a3, 1
80001280: 23 80 e6 00  	sb	a4, 0(a3)
80001284: 93 86 07 00  	mv	a3, a5
80001288: e3 14 06 fe  	bnez	a2, 0x80001270 <memcpy+0x1c>
8000128c: 6f 00 40 02  	j	0x800012b0 <memcpy+0x5c>
80001290: 63 70 d5 02  	bgeu	a0, a3, 0x800012b0 <memcpy+0x5c>
80001294: 13 06 05 00  	mv	a2, a0
80001298: 03 a7 05 00  	lw	a4, 0(a1)
8000129c: 93 85 45 00  	addi	a1, a1, 4
800012a0: 93 07 46 00  	addi	a5, a2, 4
800012a4: 23 20 e6 00  	sw	a4, 0(a2)
800012a8: 13 86 07 00  	mv	a2, a5
800012ac: e3 e6 d7 fe  	bltu	a5, a3, 0x80001298 <memcpy+0x44>
800012b0: 67 80 00 00  	ret

800012b4 <memset>:
800012b4: b3 66 c5 00  	or	a3, a0, a2
800012b8: 93 f6 36 00  	andi	a3, a3, 3
800012bc: 63 82 06 02  	beqz	a3, 0x800012e0 <memset+0x2c>
800012c0: b3 06 c5 00  	add	a3, a0, a2
800012c4: 63 74 d5 04  	bgeu	a0, a3, 0x8000130c <memset+0x58>
800012c8: 93 06 05 00  	mv	a3, a0
800012cc: 23 80 b6 00  	sb	a1, 0(a3)
800012d0: 93 86 16 00  	addi	a3, a3, 1
800012d4: 13 06 f6 ff  	addi	a2, a2, -1
800012d8: e3 1a 06 fe  	bnez	a2, 0x800012cc <memset+0x18>
800012dc: 6f 00 00 03  	j	0x8000130c <memset+0x58>
800012e0: 33 06 c5 00  	add	a2, a0, a2
800012e4: 63 74 c5 02  	bgeu	a0, a2, 0x8000130c <memset+0x58>
800012e8: 93 f5 f5 0f  	andi	a1, a1, 255
800012ec: b7 06 01 01  	lui	a3, 4112
800012f0: 93 86 16 10  	addi	a3, a3, 257
800012f4: b3 85 d5 02  	mul	a1, a1, a3
800012f8: 93 06 05 00  	mv	a3, a0
800012fc: 13 87 46 00  	addi	a4, a3, 4
80001300: 23 a0 b6 00  	sw	a1, 0(a3)
80001304: 93 06 07 00  	mv	a3, a4
80001308: e3 6a c7 fe  	bltu	a4, a2, 0x800012fc <memset+0x48>
8000130c: 67 80 00 00  	ret

80001310 <strlen>:
80001310: 93 05 00 00  	li	a1, 0
80001314: 33 06 b5 00  	add	a2, a0, a1
80001318: 03 46 06 00  	lbu	a2, 0(a2)
8000131c: 93 85 15 00  	addi	a1, a1, 1
80001320: e3 1a 06 fe  	bnez	a2, 0x80001314 <strlen+0x4>
80001324: 13 85 f5 ff  	addi	a0, a1, -1
80001328: 67 80 00 00  	ret

8000132c <strcmp>:
8000132c: 03 46 05 00  	lbu	a2, 0(a0)
80001330: 13 05 15 00  	addi	a0, a0, 1
80001334: 83 c6 05 00  	lbu	a3, 0(a1)
80001338: 93 85 15 00  	addi	a1, a1, 1
8000133c: 33 37 c0 00  	snez	a4, a2
80001340: b3 47 d6 00  	xor	a5, a2, a3
80001344: 93 b7 17 00  	seqz	a5, a5
80001348: 33 77 f7 00  	and	a4, a4, a5
8000134c: e3 10 07 fe  	bnez	a4, 0x8000132c <strcmp>
80001350: 33 05 d6 40  	sub	a0, a2, a3
80001354: 67 80 00 00  	ret

80001358 <memcmp>:
80001358: b3 e6 a5 00  	or	a3, a1, a0
8000135c: 93 f6 36 00  	andi	a3, a3, 3
80001360: 63 90 06 04  	bnez	a3, 0x800013a0 <memcmp+0x48>
80001364: 93 76 c6 ff  	andi	a3, a2, -4
80001368: 33 07 d5 00  	add	a4, a0, a3
8000136c: 63 72 e5 02  	bgeu	a0, a4, 0x80001390 <memcmp+0x38>
80001370: 93 06 05 00  	mv	a3, a0
80001374: 83 a7 06 00  	lw	a5, 0(a3)
80001378: 03 a8 05 00  	lw	a6, 0(a1)
8000137c: 63 9c 07 01  	bne	a5, a6, 0x80001394 <memcmp+0x3c>
80001380: 93 86 46 00  	addi	a3, a3, 4
80001384: 93 85 45 00  	addi	a1, a1, 4
80001388: e3 e6 e6 fe  	bltu	a3, a4, 0x80001374 <memcmp+0x1c>
8000138c: 6f 00 80 00  	j	0x80001394 <memcmp+0x3c>
80001390: 93 06 05 00  	mv	a3, a0
80001394: 33 05 c5 00  	add	a0, a0, a2
80001398: 33 06 d5 40  	sub	a2, a0, a3
8000139c: 13 85 06 00  	mv	a0, a3
800013a0: 63 02 06 02  	beqz	a2, 0x800013c4 <memcmp+0x6c>
800013a4: 13 06 f6 ff  	addi	a2, a2, -1
800013a8: 83 46 05 00  	lbu	a3, 0(a0)
800013ac: 13 05 15 00  	addi	a0, a0, 1
800013b0: 03 c7 05 00  	lbu	a4, 0(a1)
800013b4: 93 85 15 00  	addi	a1, a1, 1
800013b8: e3 84 e6 fe  	beq	a3, a4, 0x800013a0 <memcmp+0x48>
800013bc: 33 85 e6 40  	sub	a0, a3, a4
800013c0: 67 80 00 00  	ret
800013c4: 13 05 00 00  	li	a0, 0
800013c8: 67 80 00 00  	ret

800013cc <strcpy>:
800013cc: 13 06 00 00  	li	a2, 0
800013d0: b3 86 c5 00  	add	a3, a1, a2
800013d4: 33 07 c5 00  	add	a4, a0, a2
800013d8: 83 c6 06 00  	lbu	a3, 0(a3)
800013dc: 13 06 16 00  	addi	a2, a2, 1
800013e0: 23 00 d7 00  	sb	a3, 0(a4)
800013e4: e3 96 06 fe  	bnez	a3, 0x800013d0 <strcpy+0x4>
800013e8: 67 80 00 00  	ret

800013ec <atol>:
800013ec: 93 06 15 00  	addi	a3, a0, 1
800013f0: 13 05 00 02  	li	a0, 32
800013f4: 83 c5 f6 ff  	lbu	a1, -1(a3)
800013f8: 63 98 a5 00  	bne	a1, a0, 0x80001408 <atol+0x1c>
800013fc: 93 86 16 00  	addi	a3, a3, 1
80001400: 83 c5 f6 ff  	lbu	a1, -1(a3)
80001404: e3 8c a5 fe  	beq	a1, a0, 0x800013fc <atol+0x10>
80001408: 13 05 b0 02  	li	a0, 43
8000140c: 63 86 a5 00  	beq	a1, a0, 0x80001418 <atol+0x2c>
80001410: 13 05 d0 02  	li	a0, 45
80001414: 63 9e a5 00  	bne	a1, a0, 0x80001430 <atol+0x44>
80001418: 13 85 35 fd  	addi	a0, a1, -45
8000141c: 13 36 15 00  	seqz	a2, a0
80001420: 83 c5 06 00  	lbu	a1, 0(a3)
80001424: 13 05 00 00  	li	a0, 0
80001428: 63 9c 05 00  	bnez	a1, 0x80001440 <atol+0x54>
8000142c: 6f 00 80 03  	j	0x80001464 <atol+0x78>
80001430: 13 06 00 00  	li	a2, 0
80001434: 93 86 f6 ff  	addi	a3, a3, -1
80001438: 13 05 00 00  	li	a0, 0
8000143c: 63 84 05 02  	beqz	a1, 0x80001464 <atol+0x78>
80001440: 93 86 16 00  	addi	a3, a3, 1
80001444: 13 07 a0 00  	li	a4, 10
80001448: 33 05 e5 02  	mul	a0, a0, a4
8000144c: 93 f7 f5 0f  	andi	a5, a1, 255
80001450: 83 c5 06 00  	lbu	a1, 0(a3)
80001454: 33 05 f5 00  	add	a0, a0, a5
80001458: 13 05 05 fd  	addi	a0, a0, -48
8000145c: 93 86 16 00  	addi	a3, a3, 1
80001460: e3 94 05 fe  	bnez	a1, 0x80001448 <atol+0x5c>
80001464: 63 04 06 00  	beqz	a2, 0x8000146c <atol+0x80>
80001468: 33 05 a0 40  	neg	a0, a0
8000146c: 67 80 00 00  	ret

80001470 <mempool_barrier_init>:
80001470: 63 06 05 00  	beqz	a0, 0x8000147c <mempool_barrier_init+0xc>
80001474: 73 00 50 10  	wfi	
80001478: 6f 00 c0 01  	j	0x80001494 <mempool_barrier_init+0x24>
8000147c: 37 05 02 00  	lui	a0, 32
80001480: 23 20 05 40  	sw	zero, 1024(a0)
80001484: 37 05 00 40  	lui	a0, 262144
80001488: 93 05 f0 ff  	li	a1, -1
8000148c: 23 22 b5 00  	sw	a1, 4(a0)
80001490: 73 00 50 10  	wfi	
80001494: 37 05 02 00  	lui	a0, 32
80001498: 93 05 05 40  	addi	a1, a0, 1024
8000149c: 13 06 10 00  	li	a2, 1
800014a0: af a5 c5 00  	amoadd.w	a1, a2, (a1)
800014a4: 13 06 f0 0f  	li	a2, 255
800014a8: 63 9c c5 00  	bne	a1, a2, 0x800014c0 <mempool_barrier_init+0x50>
800014ac: 23 20 05 40  	sw	zero, 1024(a0)
800014b0: 0f 00 30 03  	fence	rw, rw
800014b4: 37 05 00 40  	lui	a0, 262144
800014b8: 93 05 f0 ff  	li	a1, -1
800014bc: 23 22 b5 00  	sw	a1, 4(a0)
800014c0: 73 00 50 10  	wfi	
800014c4: 67 80 00 00  	ret

800014c8 <mempool_barrier>:
800014c8: 93 05 f5 ff  	addi	a1, a0, -1
800014cc: 37 05 02 00  	lui	a0, 32
800014d0: 13 06 05 40  	addi	a2, a0, 1024
800014d4: 93 06 10 00  	li	a3, 1
800014d8: 2f 26 d6 00  	amoadd.w	a2, a3, (a2)
800014dc: 63 9c c5 00  	bne	a1, a2, 0x800014f4 <mempool_barrier+0x2c>
800014e0: 23 20 05 40  	sw	zero, 1024(a0)
800014e4: 0f 00 30 03  	fence	rw, rw
800014e8: 37 05 00 40  	lui	a0, 262144
800014ec: 93 05 f0 ff  	li	a1, -1
800014f0: 23 22 b5 00  	sw	a1, 4(a0)
800014f4: 73 00 50 10  	wfi	
800014f8: 67 80 00 00  	ret
800014fc: 00 00        	<unknown>
800014fe: 00 00        	<unknown>

Disassembly of section .rodata:

80001500 <.rodata>:
80001500: 4d 65        	<unknown>
80001502: 6d 6f        	<unknown>
80001504: 72 79        	<unknown>
80001506: 20 61        	<unknown>
80001508: 6c 6c        	<unknown>
8000150a: 6f 63 61 74  	jal	t1, 0x80017c50 <wake_up_tile_g7_reg+0x40017bf4>
8000150e: 6f 72 3a 20  	jal	tp, 0x800a8f10 <wake_up_tile_g7_reg+0x400a8eb4>
80001512: 52 65        	<unknown>
80001514: 71 75        	<unknown>
80001516: 65 73        	<unknown>
80001518: 74 65        	<unknown>
8000151a: 64 20        	<unknown>
8000151c: 6d 65        	<unknown>
8000151e: 6d 6f        	<unknown>
80001520: 72 79        	<unknown>
80001522: 20 65        	<unknown>
80001524: 78 63        	<unknown>
80001526: 65 65        	<unknown>
80001528: 64 73        	<unknown>
8000152a: 20 6d        	<unknown>
8000152c: 61 78        	<unknown>
8000152e: 20 62        	<unknown>
80001530: 6c 6f        	<unknown>
80001532: 63 6b 20 73  	bltu	zero, s2, 0x80001c68 <wake_up_tile_g7_reg+0x40001c0c>
80001536: 69 7a        	<unknown>
80001538: 65 0a        	<unknown>
8000153a: 00 4d        	<unknown>
8000153c: 65 6d        	<unknown>
8000153e: 6f 72 79 20  	jal	tp, 0x80098f44 <wake_up_tile_g7_reg+0x40098ee8>
80001542: 61 6c        	<unknown>
80001544: 6c 6f        	<unknown>
80001546: 63 61 74 6f  	bltu	s0, s7, 0x80001c28 <wake_up_tile_g7_reg+0x40001bcc>
8000154a: 72 3a        	<unknown>
8000154c: 20 4e        	<unknown>
8000154e: 6f 20 6c 61  	j	0x800c3b64 <wake_up_tile_g7_reg+0x400c3b08>
80001552: 72 67        	<unknown>
80001554: 65 20        	<unknown>
80001556: 65 6e        	<unknown>
80001558: 6f 75 67 68  	jal	a0, 0x80078bde <wake_up_tile_g7_reg+0x40078b82>
8000155c: 20 62        	<unknown>
8000155e: 6c 6f        	<unknown>
80001560: 63 6b 20 66  	bltu	zero, sp, 0x80001bd6 <wake_up_tile_g7_reg+0x40001b7a>
80001564: 6f 75 6e 64  	jal	a0, 0x800e8baa <wake_up_tile_g7_reg+0x400e8b4e>
80001568: 20 28        	<unknown>
8000156a: 25 64        	<unknown>
8000156c: 29 0a        	<unknown>
8000156e: 00 4d        	<unknown>
80001570: 65 6d        	<unknown>
80001572: 6f 72 79 20  	jal	tp, 0x80098f78 <wake_up_tile_g7_reg+0x40098f1c>
80001576: 4f 76 65 72  	<unknown>
8000157a: 66 6c        	<unknown>
8000157c: 6f 77 20 61  	jal	a4, 0x80008b8e <wake_up_tile_g7_reg+0x40008b32>
80001580: 74 20        	<unknown>
80001582: 25 70        	<unknown>
80001584: 0a 00        	<unknown>
80001586: 4d 65        	<unknown>
80001588: 6d 6f        	<unknown>
8000158a: 72 79        	<unknown>
8000158c: 20 41        	<unknown>
8000158e: 6c 6c        	<unknown>
80001590: 6f 63 61 74  	jal	t1, 0x80017cd6 <wake_up_tile_g7_reg+0x40017c7a>
80001594: 6f 72 20 53  	jal	tp, 0x80008ac6 <wake_up_tile_g7_reg+0x40008a6a>
80001598: 74 61        	<unknown>
8000159a: 74 65        	<unknown>
8000159c: 0a 00        	<unknown>
8000159e: 46 72        	<unknown>
800015a0: 65 65        	<unknown>
800015a2: 20 42        	<unknown>
800015a4: 6c 6f        	<unknown>
800015a6: 63 6b 20 61  	bltu	zero, s2, 0x80001bbc <wake_up_tile_g7_reg+0x40001b60>
800015aa: 74 20        	<unknown>
800015ac: 25 30        	<unknown>
800015ae: 38 58        	<unknown>
800015b0: 20 77        	<unknown>
800015b2: 69 74        	<unknown>
800015b4: 68 20        	<unknown>
800015b6: 73 69 7a 65  	csrrsi	s2, 1623, 20
800015ba: 20 25        	<unknown>
800015bc: 37 75 0a 00  	lui	a0, 167
800015c0: 42 6c        	<unknown>
800015c2: 6f 63 6b 20  	jal	t1, 0x800b77c8 <wake_up_tile_g7_reg+0x400b776c>
800015c6: 70 6f        	<unknown>
800015c8: 69 6e        	<unknown>
800015ca: 74 73        	<unknown>
800015cc: 20 74        	<unknown>
800015ce: 6f 20 69 74  	j	0x80093d14 <wake_up_tile_g7_reg+0x40093cb8>
800015d2: 73 65 6c 66  	csrrsi	a0, 1638, 24
800015d6: 21 20        	<unknown>
800015d8: 0a 00        	<unknown>
800015da: 00 00        	<unknown>
800015dc: f8 06        	<unknown>
800015de: 00 80        	<unknown>
800015e0: 10 07        	<unknown>
800015e2: 00 80        	<unknown>
800015e4: 10 07        	<unknown>
800015e6: 00 80        	<unknown>
800015e8: cc 06        	<unknown>
800015ea: 00 80        	<unknown>
800015ec: 10 07        	<unknown>
800015ee: 00 80        	<unknown>
800015f0: 10 07        	<unknown>
800015f2: 00 80        	<unknown>
800015f4: 10 07        	<unknown>
800015f6: 00 80        	<unknown>
800015f8: 10 07        	<unknown>
800015fa: 00 80        	<unknown>
800015fc: 10 07        	<unknown>
800015fe: 00 80        	<unknown>
80001600: 10 07        	<unknown>
80001602: 00 80        	<unknown>
80001604: 10 07        	<unknown>
80001606: 00 80        	<unknown>
80001608: 00 07        	<unknown>
8000160a: 00 80        	<unknown>
8000160c: 10 07        	<unknown>
8000160e: 00 80        	<unknown>
80001610: 08 07        	<unknown>
80001612: 00 80        	<unknown>
80001614: 10 07        	<unknown>
80001616: 00 80        	<unknown>
80001618: 10 07        	<unknown>
8000161a: 00 80        	<unknown>
8000161c: d0 06        	<unknown>
8000161e: 00 80        	<unknown>
80001620: 14 09        	<unknown>
80001622: 00 80        	<unknown>
80001624: 20 09        	<unknown>
80001626: 00 80        	<unknown>
80001628: 20 09        	<unknown>
8000162a: 00 80        	<unknown>
8000162c: 20 09        	<unknown>
8000162e: 00 80        	<unknown>
80001630: 20 09        	<unknown>
80001632: 00 80        	<unknown>
80001634: 20 09        	<unknown>
80001636: 00 80        	<unknown>
80001638: 20 09        	<unknown>
8000163a: 00 80        	<unknown>
8000163c: 20 09        	<unknown>
8000163e: 00 80        	<unknown>
80001640: 20 09        	<unknown>
80001642: 00 80        	<unknown>
80001644: 20 09        	<unknown>
80001646: 00 80        	<unknown>
80001648: 20 09        	<unknown>
8000164a: 00 80        	<unknown>
8000164c: 20 09        	<unknown>
8000164e: 00 80        	<unknown>
80001650: 20 09        	<unknown>
80001652: 00 80        	<unknown>
80001654: 20 09        	<unknown>
80001656: 00 80        	<unknown>
80001658: 20 09        	<unknown>
8000165a: 00 80        	<unknown>
8000165c: 20 09        	<unknown>
8000165e: 00 80        	<unknown>
80001660: 20 09        	<unknown>
80001662: 00 80        	<unknown>
80001664: 20 09        	<unknown>
80001666: 00 80        	<unknown>
80001668: 20 09        	<unknown>
8000166a: 00 80        	<unknown>
8000166c: 20 09        	<unknown>
8000166e: 00 80        	<unknown>
80001670: 20 09        	<unknown>
80001672: 00 80        	<unknown>
80001674: 20 09        	<unknown>
80001676: 00 80        	<unknown>
80001678: 20 09        	<unknown>
8000167a: 00 80        	<unknown>
8000167c: 20 09        	<unknown>
8000167e: 00 80        	<unknown>
80001680: 20 09        	<unknown>
80001682: 00 80        	<unknown>
80001684: 20 09        	<unknown>
80001686: 00 80        	<unknown>
80001688: 20 09        	<unknown>
8000168a: 00 80        	<unknown>
8000168c: 20 09        	<unknown>
8000168e: 00 80        	<unknown>
80001690: 20 09        	<unknown>
80001692: 00 80        	<unknown>
80001694: 20 09        	<unknown>
80001696: 00 80        	<unknown>
80001698: 20 09        	<unknown>
8000169a: 00 80        	<unknown>
8000169c: 20 09        	<unknown>
8000169e: 00 80        	<unknown>
800016a0: 20 09        	<unknown>
800016a2: 00 80        	<unknown>
800016a4: 20 09        	<unknown>
800016a6: 00 80        	<unknown>
800016a8: 20 09        	<unknown>
800016aa: 00 80        	<unknown>
800016ac: 20 09        	<unknown>
800016ae: 00 80        	<unknown>
800016b0: 20 09        	<unknown>
800016b2: 00 80        	<unknown>
800016b4: 20 09        	<unknown>
800016b6: 00 80        	<unknown>
800016b8: 20 09        	<unknown>
800016ba: 00 80        	<unknown>
800016bc: 20 09        	<unknown>
800016be: 00 80        	<unknown>
800016c0: 20 09        	<unknown>
800016c2: 00 80        	<unknown>
800016c4: 20 09        	<unknown>
800016c6: 00 80        	<unknown>
800016c8: 20 09        	<unknown>
800016ca: 00 80        	<unknown>
800016cc: 20 09        	<unknown>
800016ce: 00 80        	<unknown>
800016d0: 20 09        	<unknown>
800016d2: 00 80        	<unknown>
800016d4: 20 09        	<unknown>
800016d6: 00 80        	<unknown>
800016d8: 20 09        	<unknown>
800016da: 00 80        	<unknown>
800016dc: 20 09        	<unknown>
800016de: 00 80        	<unknown>
800016e0: 20 09        	<unknown>
800016e2: 00 80        	<unknown>
800016e4: 20 09        	<unknown>
800016e6: 00 80        	<unknown>
800016e8: 20 09        	<unknown>
800016ea: 00 80        	<unknown>
800016ec: d8 08        	<unknown>
800016ee: 00 80        	<unknown>
800016f0: 20 09        	<unknown>
800016f2: 00 80        	<unknown>
800016f4: 20 09        	<unknown>
800016f6: 00 80        	<unknown>
800016f8: 20 09        	<unknown>
800016fa: 00 80        	<unknown>
800016fc: 20 09        	<unknown>
800016fe: 00 80        	<unknown>
80001700: 20 09        	<unknown>
80001702: 00 80        	<unknown>
80001704: 20 09        	<unknown>
80001706: 00 80        	<unknown>
80001708: 20 09        	<unknown>
8000170a: 00 80        	<unknown>
8000170c: 20 09        	<unknown>
8000170e: 00 80        	<unknown>
80001710: 20 09        	<unknown>
80001712: 00 80        	<unknown>
80001714: 3c 09        	<unknown>
80001716: 00 80        	<unknown>
80001718: f4 09        	<unknown>
8000171a: 00 80        	<unknown>
8000171c: d0 08        	<unknown>
8000171e: 00 80        	<unknown>
80001720: 20 09        	<unknown>
80001722: 00 80        	<unknown>
80001724: 20 09        	<unknown>
80001726: 00 80        	<unknown>
80001728: 20 09        	<unknown>
8000172a: 00 80        	<unknown>
8000172c: 20 09        	<unknown>
8000172e: 00 80        	<unknown>
80001730: d0 08        	<unknown>
80001732: 00 80        	<unknown>
80001734: 20 09        	<unknown>
80001736: 00 80        	<unknown>
80001738: 20 09        	<unknown>
8000173a: 00 80        	<unknown>
8000173c: 20 09        	<unknown>
8000173e: 00 80        	<unknown>
80001740: 20 09        	<unknown>
80001742: 00 80        	<unknown>
80001744: 20 09        	<unknown>
80001746: 00 80        	<unknown>
80001748: 40 09        	<unknown>
8000174a: 00 80        	<unknown>
8000174c: 44 0a        	<unknown>
8000174e: 00 80        	<unknown>
80001750: 20 09        	<unknown>
80001752: 00 80        	<unknown>
80001754: 20 09        	<unknown>
80001756: 00 80        	<unknown>
80001758: 78 0a        	<unknown>
8000175a: 00 80        	<unknown>
8000175c: 20 09        	<unknown>
8000175e: 00 80        	<unknown>
80001760: d0 08        	<unknown>
80001762: 00 80        	<unknown>
80001764: 20 09        	<unknown>
80001766: 00 80        	<unknown>
80001768: 20 09        	<unknown>
8000176a: 00 80        	<unknown>
8000176c: d8 08        	<unknown>
8000176e: 00 80        	<unknown>

Disassembly of section .rodata1:

80001770 <.rodata1>:
...

Disassembly of section .sbss:

80002000 <alloc_l1>:
...

Disassembly of section .l2:

80002004 <.l2>:
...

Disassembly of section .comment:

80002010 <.comment>:
80002010: 63 6c 61 6e  	bltu	sp, t1, 0x80002708 <.comment+0x6f8>
80002014: 67 20 76 65  	<unknown>
80002018: 72 73        	<unknown>
8000201a: 69 6f        	<unknown>
8000201c: 6e 20        	<unknown>
8000201e: 31 34        	<unknown>
80002020: 2e 30        	<unknown>
80002022: 2e 36        	<unknown>
80002024: 20 28        	<unknown>
80002026: 68 74        	<unknown>
80002028: 74 70        	<unknown>
8000202a: 73 3a 2f 2f  	csrrc	s4, 754, t5
8000202e: 67 69 74 68  	<unknown>
80002032: 75 62        	<unknown>
80002034: 2e 63        	<unknown>
80002036: 6f 6d 2f 70  	jal	s10, 0x800f8738 <.comment+0xf6728>
8000203a: 75 6c        	<unknown>
8000203c: 70 2d        	<unknown>
8000203e: 70 6c        	<unknown>
80002040: 61 74        	<unknown>
80002042: 66 6f        	<unknown>
80002044: 72 6d        	<unknown>
80002046: 2f 73 6e 69  	<unknown>
8000204a: 74 63        	<unknown>
8000204c: 68 2d        	<unknown>
8000204e: 6c 6c        	<unknown>
80002050: 76 6d        	<unknown>
80002052: 2e 67        	<unknown>
80002054: 69 74        	<unknown>
80002056: 20 30        	<unknown>
80002058: 31 63        	<unknown>
8000205a: 35 39        	<unknown>
8000205c: 38 30        	<unknown>
8000205e: 31 35        	<unknown>
80002060: 32 61        	<unknown>
80002062: 33 65 39 38  	<unknown>
80002066: 35 61        	<unknown>
80002068: 65 32        	<unknown>
8000206a: 62 31        	<unknown>
8000206c: 39 66        	<unknown>
8000206e: 66 61        	<unknown>
80002070: 34 31        	<unknown>
80002072: 64 34        	<unknown>
80002074: 65 66        	<unknown>
80002076: 37 63 36 38  	lui	t1, 230246
8000207a: 37 36 66 63  	lui	a2, 407139
8000207e: 31 29        	<unknown>
80002080: 00           	<unknown>

Disassembly of section .riscv.attributes:

00000000 <.riscv.attributes>:
       0: 41 a0        	<unknown>
       2: 00 00        	<unknown>
       4: 00 72        	<unknown>
       6: 69 73        	<unknown>
       8: 63 76 00 01  	bgeu	zero, a6, 0x14 <__l1_start+0x14>
       c: 96 00        	<unknown>
       e: 00 00        	<unknown>
      10: 04 10        	<unknown>
      12: 05 72        	<unknown>
      14: 76 33        	<unknown>
      16: 32 69        	<unknown>
      18: 32 70        	<unknown>
      1a: 30 5f        	<unknown>
      1c: 6d 32        	<unknown>
      1e: 70 30        	<unknown>
      20: 5f 61 32 70  	<unknown>
      24: 30 5f        	<unknown>
      26: 7a 65        	<unknown>
      28: 78 70        	<unknown>
      2a: 61 75        	<unknown>
      2c: 78 76        	<unknown>
      2e: 65 63        	<unknown>
      30: 68 61        	<unknown>
      32: 6c 66        	<unknown>
      34: 69 6e        	<unknown>
      36: 78 31        	<unknown>
      38: 70 30        	<unknown>
      3a: 5f 7a 65 78  	<unknown>
      3e: 70 61        	<unknown>
      40: 75 78        	<unknown>
      42: 76 65        	<unknown>
      44: 63 71 75 61  	bgeu	a0, s7, 0x646 <__l1_start+0x646>
      48: 72 74        	<unknown>
      4a: 65 72        	<unknown>
      4c: 69 6e        	<unknown>
      4e: 78 31        	<unknown>
      50: 70 30        	<unknown>
      52: 5f 7a 66 69  	<unknown>
      56: 6e 78        	<unknown>
      58: 31 70        	<unknown>
      5a: 30 5f        	<unknown>
      5c: 7a 71        	<unknown>
      5e: 75 61        	<unknown>
      60: 72 74        	<unknown>
      62: 65 72        	<unknown>
      64: 69 6e        	<unknown>
      66: 78 31        	<unknown>
      68: 70 30        	<unknown>
      6a: 5f 7a 76 65  	<unknown>
      6e: 63 68 61 6c  	bltu	sp, t1, 0x73e <__l1_start+0x73e>
      72: 66 69        	<unknown>
      74: 6e 78        	<unknown>
      76: 31 70        	<unknown>
      78: 30 5f        	<unknown>
      7a: 7a 76        	<unknown>
      7c: 65 63        	<unknown>
      7e: 71 75        	<unknown>
      80: 61 72        	<unknown>
      82: 74 65        	<unknown>
      84: 72 69        	<unknown>
      86: 6e 78        	<unknown>
      88: 31 70        	<unknown>
      8a: 30 5f        	<unknown>
      8c: 7a 68        	<unknown>
      8e: 69 6e        	<unknown>
      90: 78 31        	<unknown>
      92: 70 30        	<unknown>
      94: 5f 78 6d 65  	<unknown>
      98: 6d 70        	<unknown>
      9a: 6f 6f 6c 30  	jal	t5, 0xc63a0 <__l1_alloc_base+0xa3aa0>
      9e: 70 31        	<unknown>
      a0: 00 41        	<unknown>
      a2: a0 00        	<unknown>
      a4: 00 00        	<unknown>
      a6: 72 69        	<unknown>
      a8: 73 63 76 00  	csrrsi	t1, 7, 12
      ac: 01 96        	<unknown>
      ae: 00 00        	<unknown>
      b0: 00 04        	<unknown>
      b2: 10 05        	<unknown>
      b4: 72 76        	<unknown>
      b6: 33 32 69 32  	<unknown>
      ba: 70 30        	<unknown>
      bc: 5f 6d 32 70  	<unknown>
      c0: 30 5f        	<unknown>
      c2: 61 32        	<unknown>
      c4: 70 30        	<unknown>
      c6: 5f 7a 65 78  	<unknown>
      ca: 70 61        	<unknown>
      cc: 75 78        	<unknown>
      ce: 76 65        	<unknown>
      d0: 63 68 61 6c  	bltu	sp, t1, 0x7a0 <__l1_start+0x7a0>
      d4: 66 69        	<unknown>
      d6: 6e 78        	<unknown>
      d8: 31 70        	<unknown>
      da: 30 5f        	<unknown>
      dc: 7a 65        	<unknown>
      de: 78 70        	<unknown>
      e0: 61 75        	<unknown>
      e2: 78 76        	<unknown>
      e4: 65 63        	<unknown>
      e6: 71 75        	<unknown>
      e8: 61 72        	<unknown>
      ea: 74 65        	<unknown>
      ec: 72 69        	<unknown>
      ee: 6e 78        	<unknown>
      f0: 31 70        	<unknown>
      f2: 30 5f        	<unknown>
      f4: 7a 66        	<unknown>
      f6: 69 6e        	<unknown>
      f8: 78 31        	<unknown>
      fa: 70 30        	<unknown>
      fc: 5f 7a 71 75  	<unknown>
     100: 61 72        	<unknown>
     102: 74 65        	<unknown>
     104: 72 69        	<unknown>
     106: 6e 78        	<unknown>
     108: 31 70        	<unknown>
     10a: 30 5f        	<unknown>
     10c: 7a 76        	<unknown>
     10e: 65 63        	<unknown>
     110: 68 61        	<unknown>
     112: 6c 66        	<unknown>
     114: 69 6e        	<unknown>
     116: 78 31        	<unknown>
     118: 70 30        	<unknown>
     11a: 5f 7a 76 65  	<unknown>
     11e: 63 71 75 61  	bgeu	a0, s7, 0x720 <__l1_start+0x720>
     122: 72 74        	<unknown>
     124: 65 72        	<unknown>
     126: 69 6e        	<unknown>
     128: 78 31        	<unknown>
     12a: 70 30        	<unknown>
     12c: 5f 7a 68 69  	<unknown>
     130: 6e 78        	<unknown>
     132: 31 70        	<unknown>
     134: 30 5f        	<unknown>
     136: 78 6d        	<unknown>
     138: 65 6d        	<unknown>
     13a: 70 6f        	<unknown>
     13c: 6f 6c 30 70  	jal	s8, 0x703e <__l1_start+0x703e>
     140: 31 00        	<unknown>
     142: 41 a0        	<unknown>
     144: 00 00        	<unknown>
     146: 00 72        	<unknown>
     148: 69 73        	<unknown>
     14a: 63 76 00 01  	bgeu	zero, a6, 0x156 <__l1_start+0x156>
     14e: 96 00        	<unknown>
     150: 00 00        	<unknown>
     152: 04 10        	<unknown>
     154: 05 72        	<unknown>
     156: 76 33        	<unknown>
     158: 32 69        	<unknown>
     15a: 32 70        	<unknown>
     15c: 30 5f        	<unknown>
     15e: 6d 32        	<unknown>
     160: 70 30        	<unknown>
     162: 5f 61 32 70  	<unknown>
     166: 30 5f        	<unknown>
     168: 7a 65        	<unknown>
     16a: 78 70        	<unknown>
     16c: 61 75        	<unknown>
     16e: 78 76        	<unknown>
     170: 65 63        	<unknown>
     172: 68 61        	<unknown>
     174: 6c 66        	<unknown>
     176: 69 6e        	<unknown>
     178: 78 31        	<unknown>
     17a: 70 30        	<unknown>
     17c: 5f 7a 65 78  	<unknown>
     180: 70 61        	<unknown>
     182: 75 78        	<unknown>
     184: 76 65        	<unknown>
     186: 63 71 75 61  	bgeu	a0, s7, 0x788 <__l1_start+0x788>
     18a: 72 74        	<unknown>
     18c: 65 72        	<unknown>
     18e: 69 6e        	<unknown>
     190: 78 31        	<unknown>
     192: 70 30        	<unknown>
     194: 5f 7a 66 69  	<unknown>
     198: 6e 78        	<unknown>
     19a: 31 70        	<unknown>
     19c: 30 5f        	<unknown>
     19e: 7a 71        	<unknown>
     1a0: 75 61        	<unknown>
     1a2: 72 74        	<unknown>
     1a4: 65 72        	<unknown>
     1a6: 69 6e        	<unknown>
     1a8: 78 31        	<unknown>
     1aa: 70 30        	<unknown>
     1ac: 5f 7a 76 65  	<unknown>
     1b0: 63 68 61 6c  	bltu	sp, t1, 0x880 <__l1_start+0x880>
     1b4: 66 69        	<unknown>
     1b6: 6e 78        	<unknown>
     1b8: 31 70        	<unknown>
     1ba: 30 5f        	<unknown>
     1bc: 7a 76        	<unknown>
     1be: 65 63        	<unknown>
     1c0: 71 75        	<unknown>
     1c2: 61 72        	<unknown>
     1c4: 74 65        	<unknown>
     1c6: 72 69        	<unknown>
     1c8: 6e 78        	<unknown>
     1ca: 31 70        	<unknown>
     1cc: 30 5f        	<unknown>
     1ce: 7a 68        	<unknown>
     1d0: 69 6e        	<unknown>
     1d2: 78 31        	<unknown>
     1d4: 70 30        	<unknown>
     1d6: 5f 78 6d 65  	<unknown>
     1da: 6d 70        	<unknown>
     1dc: 6f 6f 6c 30  	jal	t5, 0xc64e2 <__l1_alloc_base+0xa3be2>
     1e0: 70 31        	<unknown>
     1e2: 00 41        	<unknown>
     1e4: a0 00        	<unknown>
     1e6: 00 00        	<unknown>
     1e8: 72 69        	<unknown>
     1ea: 73 63 76 00  	csrrsi	t1, 7, 12
     1ee: 01 96        	<unknown>
     1f0: 00 00        	<unknown>
     1f2: 00 04        	<unknown>
     1f4: 10 05        	<unknown>
     1f6: 72 76        	<unknown>
     1f8: 33 32 69 32  	<unknown>
     1fc: 70 30        	<unknown>
     1fe: 5f 6d 32 70  	<unknown>
     202: 30 5f        	<unknown>
     204: 61 32        	<unknown>
     206: 70 30        	<unknown>
     208: 5f 7a 65 78  	<unknown>
     20c: 70 61        	<unknown>
     20e: 75 78        	<unknown>
     210: 76 65        	<unknown>
     212: 63 68 61 6c  	bltu	sp, t1, 0x8e2 <__l1_start+0x8e2>
     216: 66 69        	<unknown>
     218: 6e 78        	<unknown>
     21a: 31 70        	<unknown>
     21c: 30 5f        	<unknown>
     21e: 7a 65        	<unknown>
     220: 78 70        	<unknown>
     222: 61 75        	<unknown>
     224: 78 76        	<unknown>
     226: 65 63        	<unknown>
     228: 71 75        	<unknown>
     22a: 61 72        	<unknown>
     22c: 74 65        	<unknown>
     22e: 72 69        	<unknown>
     230: 6e 78        	<unknown>
     232: 31 70        	<unknown>
     234: 30 5f        	<unknown>
     236: 7a 66        	<unknown>
     238: 69 6e        	<unknown>
     23a: 78 31        	<unknown>
     23c: 70 30        	<unknown>
     23e: 5f 7a 71 75  	<unknown>
     242: 61 72        	<unknown>
     244: 74 65        	<unknown>
     246: 72 69        	<unknown>
     248: 6e 78        	<unknown>
     24a: 31 70        	<unknown>
     24c: 30 5f        	<unknown>
     24e: 7a 76        	<unknown>
     250: 65 63        	<unknown>
     252: 68 61        	<unknown>
     254: 6c 66        	<unknown>
     256: 69 6e        	<unknown>
     258: 78 31        	<unknown>
     25a: 70 30        	<unknown>
     25c: 5f 7a 76 65  	<unknown>
     260: 63 71 75 61  	bgeu	a0, s7, 0x862 <__l1_start+0x862>
     264: 72 74        	<unknown>
     266: 65 72        	<unknown>
     268: 69 6e        	<unknown>
     26a: 78 31        	<unknown>
     26c: 70 30        	<unknown>
     26e: 5f 7a 68 69  	<unknown>
     272: 6e 78        	<unknown>
     274: 31 70        	<unknown>
     276: 30 5f        	<unknown>
     278: 78 6d        	<unknown>
     27a: 65 6d        	<unknown>
     27c: 70 6f        	<unknown>
     27e: 6f 6c 30 70  	jal	s8, 0x7180 <__l1_start+0x7180>
     282: 31 00        	<unknown>
     284: 41 a0        	<unknown>
     286: 00 00        	<unknown>
     288: 00 72        	<unknown>
     28a: 69 73        	<unknown>
     28c: 63 76 00 01  	bgeu	zero, a6, 0x298 <__l1_start+0x298>
     290: 96 00        	<unknown>
     292: 00 00        	<unknown>
     294: 04 10        	<unknown>
     296: 05 72        	<unknown>
     298: 76 33        	<unknown>
     29a: 32 69        	<unknown>
     29c: 32 70        	<unknown>
     29e: 30 5f        	<unknown>
     2a0: 6d 32        	<unknown>
     2a2: 70 30        	<unknown>
     2a4: 5f 61 32 70  	<unknown>
     2a8: 30 5f        	<unknown>
     2aa: 7a 65        	<unknown>
     2ac: 78 70        	<unknown>
     2ae: 61 75        	<unknown>
     2b0: 78 76        	<unknown>
     2b2: 65 63        	<unknown>
     2b4: 68 61        	<unknown>
     2b6: 6c 66        	<unknown>
     2b8: 69 6e        	<unknown>
     2ba: 78 31        	<unknown>
     2bc: 70 30        	<unknown>
     2be: 5f 7a 65 78  	<unknown>
     2c2: 70 61        	<unknown>
     2c4: 75 78        	<unknown>
     2c6: 76 65        	<unknown>
     2c8: 63 71 75 61  	bgeu	a0, s7, 0x8ca <__l1_start+0x8ca>
     2cc: 72 74        	<unknown>
     2ce: 65 72        	<unknown>
     2d0: 69 6e        	<unknown>
     2d2: 78 31        	<unknown>
     2d4: 70 30        	<unknown>
     2d6: 5f 7a 66 69  	<unknown>
     2da: 6e 78        	<unknown>
     2dc: 31 70        	<unknown>
     2de: 30 5f        	<unknown>
     2e0: 7a 71        	<unknown>
     2e2: 75 61        	<unknown>
     2e4: 72 74        	<unknown>
     2e6: 65 72        	<unknown>
     2e8: 69 6e        	<unknown>
     2ea: 78 31        	<unknown>
     2ec: 70 30        	<unknown>
     2ee: 5f 7a 76 65  	<unknown>
     2f2: 63 68 61 6c  	bltu	sp, t1, 0x9c2 <__l1_start+0x9c2>
     2f6: 66 69        	<unknown>
     2f8: 6e 78        	<unknown>
     2fa: 31 70        	<unknown>
     2fc: 30 5f        	<unknown>
     2fe: 7a 76        	<unknown>
     300: 65 63        	<unknown>
     302: 71 75        	<unknown>
     304: 61 72        	<unknown>
     306: 74 65        	<unknown>
     308: 72 69        	<unknown>
     30a: 6e 78        	<unknown>
     30c: 31 70        	<unknown>
     30e: 30 5f        	<unknown>
     310: 7a 68        	<unknown>
     312: 69 6e        	<unknown>
     314: 78 31        	<unknown>
     316: 70 30        	<unknown>
     318: 5f 78 6d 65  	<unknown>
     31c: 6d 70        	<unknown>
     31e: 6f 6f 6c 30  	jal	t5, 0xc6624 <__l1_alloc_base+0xa3d24>
     322: 70 31        	<unknown>
     324: 00 41        	<unknown>
     326: a0 00        	<unknown>
     328: 00 00        	<unknown>
     32a: 72 69        	<unknown>
     32c: 73 63 76 00  	csrrsi	t1, 7, 12
     330: 01 96        	<unknown>
     332: 00 00        	<unknown>
     334: 00 04        	<unknown>
     336: 10 05        	<unknown>
     338: 72 76        	<unknown>
     33a: 33 32 69 32  	<unknown>
     33e: 70 30        	<unknown>
     340: 5f 6d 32 70  	<unknown>
     344: 30 5f        	<unknown>
     346: 61 32        	<unknown>
     348: 70 30        	<unknown>
     34a: 5f 7a 65 78  	<unknown>
     34e: 70 61        	<unknown>
     350: 75 78        	<unknown>
     352: 76 65        	<unknown>
     354: 63 68 61 6c  	bltu	sp, t1, 0xa24 <__l1_start+0xa24>
     358: 66 69        	<unknown>
     35a: 6e 78        	<unknown>
     35c: 31 70        	<unknown>
     35e: 30 5f        	<unknown>
     360: 7a 65        	<unknown>
     362: 78 70        	<unknown>
     364: 61 75        	<unknown>
     366: 78 76        	<unknown>
     368: 65 63        	<unknown>
     36a: 71 75        	<unknown>
     36c: 61 72        	<unknown>
     36e: 74 65        	<unknown>
     370: 72 69        	<unknown>
     372: 6e 78        	<unknown>
     374: 31 70        	<unknown>
     376: 30 5f        	<unknown>
     378: 7a 66        	<unknown>
     37a: 69 6e        	<unknown>
     37c: 78 31        	<unknown>
     37e: 70 30        	<unknown>
     380: 5f 7a 71 75  	<unknown>
     384: 61 72        	<unknown>
     386: 74 65        	<unknown>
     388: 72 69        	<unknown>
     38a: 6e 78        	<unknown>
     38c: 31 70        	<unknown>
     38e: 30 5f        	<unknown>
     390: 7a 76        	<unknown>
     392: 65 63        	<unknown>
     394: 68 61        	<unknown>
     396: 6c 66        	<unknown>
     398: 69 6e        	<unknown>
     39a: 78 31        	<unknown>
     39c: 70 30        	<unknown>
     39e: 5f 7a 76 65  	<unknown>
     3a2: 63 71 75 61  	bgeu	a0, s7, 0x9a4 <__l1_start+0x9a4>
     3a6: 72 74        	<unknown>
     3a8: 65 72        	<unknown>
     3aa: 69 6e        	<unknown>
     3ac: 78 31        	<unknown>
     3ae: 70 30        	<unknown>
     3b0: 5f 7a 68 69  	<unknown>
     3b4: 6e 78        	<unknown>
     3b6: 31 70        	<unknown>
     3b8: 30 5f        	<unknown>
     3ba: 78 6d        	<unknown>
     3bc: 65 6d        	<unknown>
     3be: 70 6f        	<unknown>
     3c0: 6f 6c 30 70  	jal	s8, 0x72c2 <__l1_start+0x72c2>
     3c4: 31 00        	<unknown>

Disassembly of section .debug_loclists:

00000000 <.debug_loclists>:
       0: 50 00        	<unknown>
       2: 00 00        	<unknown>
       4: 05 00        	<unknown>
       6: 04 00        	<unknown>
       8: 06 00        	<unknown>
       a: 00 00        	<unknown>
       c: 18 00        	<unknown>
       e: 00 00        	<unknown>
      10: 1e 00        	<unknown>
      12: 00 00        	<unknown>
      14: 26 00        	<unknown>
      16: 00 00        	<unknown>
      18: 32 00        	<unknown>
      1a: 00 00        	<unknown>
      1c: 3c 00        	<unknown>
      1e: 00 00        	<unknown>
      20: 42 00        	<unknown>
      22: 00 00        	<unknown>
      24: 04 00        	<unknown>
      26: 04 01        	<unknown>
      28: 5a 00        	<unknown>
      2a: 04 1c        	<unknown>
      2c: 88 01        	<unknown>
      2e: 02 34        	<unknown>
      30: 9f 00 04 1c  	<unknown>
      34: 64 02        	<unknown>
      36: 30 9f        	<unknown>
      38: 04 64        	<unknown>
      3a: 7c 01        	<unknown>
      3c: 58 00        	<unknown>
      3e: 04 1c        	<unknown>
      40: 88 01        	<unknown>
      42: 04 10        	<unknown>
      44: 80 02        	<unknown>
      46: 9f 00 04 1c  	<unknown>
      4a: 64 01        	<unknown>
      4c: 58 00        	<unknown>
      4e: 04 50        	<unknown>
      50: 54 01        	<unknown>
      52: 5a 00        	<unknown>
      54: a0 03        	<unknown>
      56: 00 00        	<unknown>
      58: 05 00        	<unknown>
      5a: 04 00        	<unknown>
      5c: 2f 00 00 00  	<unknown>
      60: bc 00        	<unknown>
      62: 00 00        	<unknown>
      64: c2 00        	<unknown>
      66: 00 00        	<unknown>
      68: c8 00        	<unknown>
      6a: 00 00        	<unknown>
      6c: ce 00        	<unknown>
      6e: 00 00        	<unknown>
      70: d4 00        	<unknown>
      72: 00 00        	<unknown>
      74: e6 00        	<unknown>
      76: 00 00        	<unknown>
      78: ec 00        	<unknown>
      7a: 00 00        	<unknown>
      7c: f4 00        	<unknown>
      7e: 00 00        	<unknown>
      80: 07 01 00 00  	flb	ft2, 0(zero)
      84: 14 01        	<unknown>
      86: 00 00        	<unknown>
      88: 22 01        	<unknown>
      8a: 00 00        	<unknown>
      8c: 35 01        	<unknown>
      8e: 00 00        	<unknown>
      90: 51 01        	<unknown>
      92: 00 00        	<unknown>
      94: 5f 01 00 00  	<unknown>
      98: 67 01 00 00  	jalr	sp, zero
      9c: 6f 01 00 00  	jal	sp, 0x9c <__l1_start+0x9c>
      a0: 77 01 00 00  	<unknown>
      a4: 7f 01 00 00  	<unknown>
      a8: 87 01 00 00  	flb	ft3, 0(zero)
      ac: 91 01        	<unknown>
      ae: 00 00        	<unknown>
      b0: a7 01 00 00  	fsb	ft0, 3(zero)
      b4: b6 01        	<unknown>
      b6: 00 00        	<unknown>
      b8: cc 01        	<unknown>
      ba: 00 00        	<unknown>
      bc: eb 01 00 00  	<unknown>
      c0: f3 01 00 00  	<unknown>
      c4: fb 01 00 00  	<unknown>
      c8: 11 02        	<unknown>
      ca: 00 00        	<unknown>
      cc: 27 02 00 00  	fsb	ft0, 4(zero)
      d0: 2f 02 00 00  	<unknown>
      d4: 64 02        	<unknown>
      d6: 00 00        	<unknown>
      d8: 7a 02        	<unknown>
      da: 00 00        	<unknown>
      dc: 82 02        	<unknown>
      de: 00 00        	<unknown>
      e0: 91 02        	<unknown>
      e2: 00 00        	<unknown>
      e4: a0 02        	<unknown>
      e6: 00 00        	<unknown>
      e8: af 02 00 00  	<unknown>
      ec: be 02        	<unknown>
      ee: 00 00        	<unknown>
      f0: d4 02        	<unknown>
      f2: 00 00        	<unknown>
      f4: ea 02        	<unknown>
      f6: 00 00        	<unknown>
      f8: f2 02        	<unknown>
      fa: 00 00        	<unknown>
      fc: 27 03 00 00  	fsb	ft0, 6(zero)
     100: 3d 03        	<unknown>
     102: 00 00        	<unknown>
     104: 45 03        	<unknown>
     106: 00 00        	<unknown>
     108: 54 03        	<unknown>
     10a: 00 00        	<unknown>
     10c: 63 03 00 00  	beqz	zero, 0x112 <__l1_start+0x112>
     110: 72 03        	<unknown>
     112: 00 00        	<unknown>
     114: 7a 03        	<unknown>
     116: 00 00        	<unknown>
     118: 90 03        	<unknown>
     11a: 00 00        	<unknown>
     11c: 04 00        	<unknown>
     11e: 0c 01        	<unknown>
     120: 5b 00 04 08  	<unknown>
     124: 28 01        	<unknown>
     126: 5d 00        	<unknown>
     128: 04 08        	<unknown>
     12a: 28 01        	<unknown>
     12c: 5d 00        	<unknown>
     12e: 04 10        	<unknown>
     130: 1c 01        	<unknown>
     132: 5b 00 04 28  	<unknown>
     136: 44 01        	<unknown>
     138: 5a 04        	<unknown>
     13a: 60 70        	<unknown>
     13c: 01 5a        	<unknown>
     13e: 04 b4        	<unknown>
     140: 01 e0        	<unknown>
     142: 01 01        	<unknown>
     144: 5a 00        	<unknown>
     146: 04 28        	<unknown>
     148: 34 01        	<unknown>
     14a: 5b 00 04 30  	<unknown>
     14e: 34 03        	<unknown>
     150: 7b 04 9f 00  	<unknown>
     154: 04 38        	<unknown>
     156: 50 01        	<unknown>
     158: 5b 04 60 a4  	<unknown>
     15c: 01 01        	<unknown>
     15e: 5b 04 b4 01  	<unknown>
     162: 80 02        	<unknown>
     164: 01 5b        	<unknown>
     166: 00 04        	<unknown>
     168: 60 70        	<unknown>
     16a: 01 5a        	<unknown>
     16c: 04 b4        	<unknown>
     16e: 01 e0        	<unknown>
     170: 01 01        	<unknown>
     172: 5a 00        	<unknown>
     174: 04 60        	<unknown>
     176: 94 01        	<unknown>
     178: 01 5b        	<unknown>
     17a: 04 b4        	<unknown>
     17c: 01 f8        	<unknown>
     17e: 01 01        	<unknown>
     180: 5b 00 04 64  	<unknown>
     184: 74 01        	<unknown>
     186: 5c 04        	<unknown>
     188: 78 94        	<unknown>
     18a: 01 01        	<unknown>
     18c: 5c 04        	<unknown>
     18e: b4 01        	<unknown>
     190: f8 01        	<unknown>
     192: 01 5c        	<unknown>
     194: 00 04        	<unknown>
     196: 60 70        	<unknown>
     198: 02 30        	<unknown>
     19a: 9f 04 74 94  	<unknown>
     19e: 01 01        	<unknown>
     1a0: 5a 04        	<unknown>
     1a2: b4 01        	<unknown>
     1a4: e0 01        	<unknown>
     1a6: 02 30        	<unknown>
     1a8: 9f 04 e0 01  	<unknown>
     1ac: f8 01        	<unknown>
     1ae: 01 5a        	<unknown>
     1b0: 00 04        	<unknown>
     1b2: 78 94        	<unknown>
     1b4: 01 01        	<unknown>
     1b6: 5c 04        	<unknown>
     1b8: e0 01        	<unknown>
     1ba: f8 01        	<unknown>
     1bc: 01 5c        	<unknown>
     1be: 00 04        	<unknown>
     1c0: e4 01        	<unknown>
     1c2: f8 01        	<unknown>
     1c4: 01 5e        	<unknown>
     1c6: 00 04        	<unknown>
     1c8: f8 01        	<unknown>
     1ca: 80 02        	<unknown>
     1cc: 01 5b        	<unknown>
     1ce: 00 04        	<unknown>
     1d0: 8c 02        	<unknown>
     1d2: 98 02        	<unknown>
     1d4: 01 5a        	<unknown>
     1d6: 00 04        	<unknown>
     1d8: 98 02        	<unknown>
     1da: a4 02        	<unknown>
     1dc: 01 5a        	<unknown>
     1de: 00 04        	<unknown>
     1e0: 98 02        	<unknown>
     1e2: a4 02        	<unknown>
     1e4: 01 5a        	<unknown>
     1e6: 00 04        	<unknown>
     1e8: a0 02        	<unknown>
     1ea: a4 02        	<unknown>
     1ec: 03 7a 04 9f  	<unknown>
     1f0: 00 04        	<unknown>
     1f2: a8 02        	<unknown>
     1f4: c0 02        	<unknown>
     1f6: 01 5b        	<unknown>
     1f8: 04 d0        	<unknown>
     1fa: 02 98        	<unknown>
     1fc: 03 01 5b 04  	lb	sp, 69(s6)
     200: a8 03        	<unknown>
     202: f8 03        	<unknown>
     204: 01 5b        	<unknown>
     206: 00 04        	<unknown>
     208: d0 02        	<unknown>
     20a: 88 03        	<unknown>
     20c: 01 5b        	<unknown>
     20e: 04 a8        	<unknown>
     210: 03 f4 03 01  	p.lb	s0, a6(t2)
     214: 5b 00 04 d8  	<unknown>
     218: 02 e8        	<unknown>
     21a: 02 01        	<unknown>
     21c: 5a 04        	<unknown>
     21e: ec 02        	<unknown>
     220: 88 03        	<unknown>
     222: 01 5a        	<unknown>
     224: 04 a8        	<unknown>
     226: 03 f4 03 01  	p.lb	s0, a6(t2)
     22a: 5a 00        	<unknown>
     22c: 04 d0        	<unknown>
     22e: 02 e4        	<unknown>
     230: 02 02        	<unknown>
     232: 30 9f        	<unknown>
     234: 04 e8        	<unknown>
     236: 02 88        	<unknown>
     238: 03 01 5c 04  	lb	sp, 69(s8)
     23c: a8 03        	<unknown>
     23e: dc 03        	<unknown>
     240: 02 30        	<unknown>
     242: 9f 04 dc 03  	<unknown>
     246: f4 03        	<unknown>
     248: 01 5c        	<unknown>
     24a: 00 04        	<unknown>
     24c: e0 03        	<unknown>
     24e: f4 03        	<unknown>
     250: 01 5e        	<unknown>
     252: 00 04        	<unknown>
     254: f4 03        	<unknown>
     256: f8 03        	<unknown>
     258: 01 5b        	<unknown>
     25a: 00 04        	<unknown>
     25c: 94 04        	<unknown>
     25e: ec 04        	<unknown>
     260: 01 5a        	<unknown>
     262: 04 fc        	<unknown>
     264: 04 80        	<unknown>
     266: 05 01        	<unknown>
     268: 5a 04        	<unknown>
     26a: 8c 05        	<unknown>
     26c: ac 05        	<unknown>
     26e: 01 5a        	<unknown>
     270: 00 04        	<unknown>
     272: 94 04        	<unknown>
     274: 98 04        	<unknown>
     276: 01 5b        	<unknown>
     278: 04 98        	<unknown>
     27a: 04 f0        	<unknown>
     27c: 04 01        	<unknown>
     27e: 5c 04        	<unknown>
     280: fc 04        	<unknown>
     282: ac 05        	<unknown>
     284: 01 5c        	<unknown>
     286: 00 04        	<unknown>
     288: 9c 04        	<unknown>
     28a: bc 05        	<unknown>
     28c: 01 5b        	<unknown>
     28e: 00 04        	<unknown>
     290: a0 04        	<unknown>
     292: b4 04        	<unknown>
     294: 0b 93 04 7e  	p.lh	t1, 2016(s1!)
     298: 00 10        	<unknown>
     29a: ff 01 1a 9f  	<unknown>
     29e: 93 04 04 b4  	addi	s1, s0, -1216
     2a2: 04 e8        	<unknown>
     2a4: 04 03        	<unknown>
     2a6: 5e 93        	<unknown>
     2a8: 04 04        	<unknown>
     2aa: fc 04        	<unknown>
     2ac: 8c 05        	<unknown>
     2ae: 0b 93 04 7e  	p.lh	t1, 2016(s1!)
     2b2: 00 10        	<unknown>
     2b4: ff 01 1a 9f  	<unknown>
     2b8: 93 04 04 8c  	addi	s1, s0, -1856
     2bc: 05 94        	<unknown>
     2be: 05 03        	<unknown>
     2c0: 5e 93        	<unknown>
     2c2: 04 00        	<unknown>
     2c4: 04 c0        	<unknown>
     2c6: 04 cc        	<unknown>
     2c8: 04 01        	<unknown>
     2ca: 5f 04 cc 04  	<unknown>
     2ce: e8 04        	<unknown>
     2d0: 01 5d        	<unknown>
     2d2: 04 8c        	<unknown>
     2d4: 05 9c        	<unknown>
     2d6: 05 01        	<unknown>
     2d8: 5d 00        	<unknown>
     2da: 04 c0        	<unknown>
     2dc: 04 d0        	<unknown>
     2de: 04 01        	<unknown>
     2e0: 5d 00        	<unknown>
     2e2: 04 b8        	<unknown>
     2e4: 04 fc        	<unknown>
     2e6: 04 01        	<unknown>
     2e8: 5b 04 8c 05  	<unknown>
     2ec: bc 05        	<unknown>
     2ee: 01 5b        	<unknown>
     2f0: 00 04        	<unknown>
     2f2: b8 04        	<unknown>
     2f4: e8 04        	<unknown>
     2f6: 01 5e        	<unknown>
     2f8: 04 8c        	<unknown>
     2fa: 05 94        	<unknown>
     2fc: 05 01        	<unknown>
     2fe: 5e 00        	<unknown>
     300: 04 b8        	<unknown>
     302: 04 fc        	<unknown>
     304: 04 01        	<unknown>
     306: 5b 04 8c 05  	<unknown>
     30a: bc 05        	<unknown>
     30c: 01 5b        	<unknown>
     30e: 00 04        	<unknown>
     310: b8 04        	<unknown>
     312: ec 04        	<unknown>
     314: 01 5a        	<unknown>
     316: 04 8c        	<unknown>
     318: 05 ac        	<unknown>
     31a: 05 01        	<unknown>
     31c: 5a 00        	<unknown>
     31e: 04 bc        	<unknown>
     320: 05 94        	<unknown>
     322: 06 01        	<unknown>
     324: 5a 04        	<unknown>
     326: a4 06        	<unknown>
     328: a8 06        	<unknown>
     32a: 01 5a        	<unknown>
     32c: 04 b4        	<unknown>
     32e: 06 d0        	<unknown>
     330: 06 01        	<unknown>
     332: 5a 00        	<unknown>
     334: 04 bc        	<unknown>
     336: 05 94        	<unknown>
     338: 06 01        	<unknown>
     33a: 5a 04        	<unknown>
     33c: a4 06        	<unknown>
     33e: a8 06        	<unknown>
     340: 01 5a        	<unknown>
     342: 04 b4        	<unknown>
     344: 06 d0        	<unknown>
     346: 06 01        	<unknown>
     348: 5a 00        	<unknown>
     34a: 04 c0        	<unknown>
     34c: 05 e8        	<unknown>
     34e: 06 01        	<unknown>
     350: 5b 00 04 c4  	<unknown>
     354: 05 d8        	<unknown>
     356: 05 0b        	<unknown>
     358: 93 04 7d 00  	addi	s1, s10, 7
     35c: 10 ff        	<unknown>
     35e: 01 1a        	<unknown>
     360: 9f 93 04 04  	<unknown>
     364: e0 05        	<unknown>
     366: 90 06        	<unknown>
     368: 03 5d 93 04  	lhu	s10, 73(t1)
     36c: 04 a4        	<unknown>
     36e: 06 b4        	<unknown>
     370: 06 0b        	<unknown>
     372: 93 04 7d 00  	addi	s1, s10, 7
     376: 10 ff        	<unknown>
     378: 01 1a        	<unknown>
     37a: 9f 93 04 04  	<unknown>
     37e: b4 06        	<unknown>
     380: bc 06        	<unknown>
     382: 03 5d 93 04  	lhu	s10, 73(t1)
     386: 00 04        	<unknown>
     388: e8 05        	<unknown>
     38a: f4 05        	<unknown>
     38c: 01 5e        	<unknown>
     38e: 04 f4        	<unknown>
     390: 05 90        	<unknown>
     392: 06 01        	<unknown>
     394: 5c 04        	<unknown>
     396: b4 06        	<unknown>
     398: c4 06        	<unknown>
     39a: 01 5c        	<unknown>
     39c: 00 04        	<unknown>
     39e: e8 05        	<unknown>
     3a0: f8 05        	<unknown>
     3a2: 01 5c        	<unknown>
     3a4: 00 04        	<unknown>
     3a6: e0 05        	<unknown>
     3a8: a4 06        	<unknown>
     3aa: 01 5b        	<unknown>
     3ac: 04 b4        	<unknown>
     3ae: 06 e8        	<unknown>
     3b0: 06 01        	<unknown>
     3b2: 5b 00 04 e0  	<unknown>
     3b6: 05 90        	<unknown>
     3b8: 06 01        	<unknown>
     3ba: 5d 04        	<unknown>
     3bc: b4 06        	<unknown>
     3be: bc 06        	<unknown>
     3c0: 01 5d        	<unknown>
     3c2: 00 04        	<unknown>
     3c4: e0 05        	<unknown>
     3c6: a4 06        	<unknown>
     3c8: 01 5b        	<unknown>
     3ca: 04 b4        	<unknown>
     3cc: 06 e8        	<unknown>
     3ce: 06 01        	<unknown>
     3d0: 5b 00 04 e8  	<unknown>
     3d4: 06 84        	<unknown>
     3d6: 07 01 5a 00  	flb	ft2, 5(s4)
     3da: 04 80        	<unknown>
     3dc: 07 a0 07 01  	flw	ft0, 16(a5)
     3e0: 62 04        	<unknown>
     3e2: a0 07        	<unknown>
     3e4: d0 07        	<unknown>
     3e6: 01 59        	<unknown>
     3e8: 04 e0        	<unknown>
     3ea: 07 f0 07 01  	<unknown>
     3ee: 62 00        	<unknown>
     3f0: 04 84        	<unknown>
     3f2: 08 90        	<unknown>
     3f4: 08 01        	<unknown>
     3f6: 5a 00        	<unknown>
     3f8: 7a 08        	<unknown>
     3fa: 00 00        	<unknown>
     3fc: 05 00        	<unknown>
     3fe: 04 00        	<unknown>
     400: 3f 00 00 00  	<unknown>
     404: fc 00        	<unknown>
     406: 00 00        	<unknown>
     408: 0c 01        	<unknown>
     40a: 00 00        	<unknown>
     40c: 12 01        	<unknown>
     40e: 00 00        	<unknown>
     410: 2e 01        	<unknown>
     412: 00 00        	<unknown>
     414: 3c 01        	<unknown>
     416: 00 00        	<unknown>
     418: 4a 01        	<unknown>
     41a: 00 00        	<unknown>
     41c: ca 01        	<unknown>
     41e: 00 00        	<unknown>
     420: f9 02        	<unknown>
     422: 00 00        	<unknown>
     424: 95 03        	<unknown>
     426: 00 00        	<unknown>
     428: ff 03 00 00  	<unknown>
     42c: 08 04        	<unknown>
     42e: 00 00        	<unknown>
     430: 53 04 00 00  	fadd.s	s0, zero, zero, rne
     434: 96 04        	<unknown>
     436: 00 00        	<unknown>
     438: 9e 04        	<unknown>
     43a: 00 00        	<unknown>
     43c: a6 04        	<unknown>
     43e: 00 00        	<unknown>
     440: b6 04        	<unknown>
     442: 00 00        	<unknown>
     444: be 04        	<unknown>
     446: 00 00        	<unknown>
     448: e8 04        	<unknown>
     44a: 00 00        	<unknown>
     44c: 02 05        	<unknown>
     44e: 00 00        	<unknown>
     450: 18 05        	<unknown>
     452: 00 00        	<unknown>
     454: 20 05        	<unknown>
     456: 00 00        	<unknown>
     458: 57 05 00 00  	pv.add.h	a0, zero, zero
     45c: 78 05        	<unknown>
     45e: 00 00        	<unknown>
     460: 80 05        	<unknown>
     462: 00 00        	<unknown>
     464: 88 05        	<unknown>
     466: 00 00        	<unknown>
     468: 97 05 00 00  	auipc	a1, 0
     46c: ad 05        	<unknown>
     46e: 00 00        	<unknown>
     470: b5 05        	<unknown>
     472: 00 00        	<unknown>
     474: bd 05        	<unknown>
     476: 00 00        	<unknown>
     478: cc 05        	<unknown>
     47a: 00 00        	<unknown>
     47c: db 05 00 00  	<unknown>
     480: f1 05        	<unknown>
     482: 00 00        	<unknown>
     484: f9 05        	<unknown>
     486: 00 00        	<unknown>
     488: 08 06        	<unknown>
     48a: 00 00        	<unknown>
     48c: 17 06 00 00  	auipc	a2, 0
     490: 26 06        	<unknown>
     492: 00 00        	<unknown>
     494: 35 06        	<unknown>
     496: 00 00        	<unknown>
     498: 3d 06        	<unknown>
     49a: 00 00        	<unknown>
     49c: 45 06        	<unknown>
     49e: 00 00        	<unknown>
     4a0: 5b 06 00 00  	<unknown>
     4a4: 63 06 00 00  	beqz	zero, 0x4b0 <__l1_start+0x4b0>
     4a8: 72 06        	<unknown>
     4aa: 00 00        	<unknown>
     4ac: 81 06        	<unknown>
     4ae: 00 00        	<unknown>
     4b0: 90 06        	<unknown>
     4b2: 00 00        	<unknown>
     4b4: a6 06        	<unknown>
     4b6: 00 00        	<unknown>
     4b8: b5 06        	<unknown>
     4ba: 00 00        	<unknown>
     4bc: cb 06 00 00  	fnmsub.s	a3, zero, zero, zero, rne
     4c0: df 06 00 00  	<unknown>
     4c4: e7 06 00 00  	jalr	a3, zero
     4c8: ef 06 00 00  	jal	a3, 0x4c8 <__l1_start+0x4c8>
     4cc: 05 07        	<unknown>
     4ce: 00 00        	<unknown>
     4d0: 0d 07        	<unknown>
     4d2: 00 00        	<unknown>
     4d4: 39 07        	<unknown>
     4d6: 00 00        	<unknown>
     4d8: 6b 07 00 00  	<unknown>
     4dc: c0 07        	<unknown>
     4de: 00 00        	<unknown>
     4e0: d4 07        	<unknown>
     4e2: 00 00        	<unknown>
     4e4: dc 07        	<unknown>
     4e6: 00 00        	<unknown>
     4e8: e4 07        	<unknown>
     4ea: 00 00        	<unknown>
     4ec: f3 07 00 00  	<unknown>
     4f0: fb 07 00 00  	<unknown>
     4f4: 03 08 00 00  	lb	a6, 0(zero)
     4f8: 0d 08        	<unknown>
     4fa: 00 00        	<unknown>
     4fc: 48 08        	<unknown>
     4fe: 00 00        	<unknown>
     500: 04 00        	<unknown>
     502: 0c 01        	<unknown>
     504: 5a 04        	<unknown>
     506: 0c 48        	<unknown>
     508: 01 55        	<unknown>
     50a: 04 48        	<unknown>
     50c: 50 01        	<unknown>
     50e: 5d 00        	<unknown>
     510: 04 50        	<unknown>
     512: 5c 01        	<unknown>
     514: 5a 00        	<unknown>
     516: 04 5c        	<unknown>
     518: ac 01        	<unknown>
     51a: 01 5a        	<unknown>
     51c: 04 ac        	<unknown>
     51e: 01 b0        	<unknown>
     520: 01 01        	<unknown>
     522: 62 04        	<unknown>
     524: b0 01        	<unknown>
     526: b4 01        	<unknown>
     528: 01 5a        	<unknown>
     52a: 04 b8        	<unknown>
     52c: 01 8c        	<unknown>
     52e: 0f 01 62 00  	<unknown>
     532: 04 5c        	<unknown>
     534: a4 01        	<unknown>
     536: 01 5b        	<unknown>
     538: 04 a4        	<unknown>
     53a: 01 88        	<unknown>
     53c: 0f 01 59 00  	<unknown>
     540: 04 5c        	<unknown>
     542: a0 01        	<unknown>
     544: 01 5c        	<unknown>
     546: 04 a0        	<unknown>
     548: 01 84        	<unknown>
     54a: 0f 01 58 00  	<unknown>
     54e: 04 5c        	<unknown>
     550: 9c 01        	<unknown>
     552: 01 5d        	<unknown>
     554: 04 9c        	<unknown>
     556: 01 e0        	<unknown>
     558: 01 01        	<unknown>
     55a: 65 04        	<unknown>
     55c: e4 01        	<unknown>
     55e: a4 02        	<unknown>
     560: 01 65        	<unknown>
     562: 04 a4        	<unknown>
     564: 03 b4 03 01  	<unknown>
     568: 6b 04 b4 03  	<unknown>
     56c: cc 03        	<unknown>
     56e: 01 5b        	<unknown>
     570: 04 a8        	<unknown>
     572: 04 b4        	<unknown>
     574: 04 01        	<unknown>
     576: 6b 04 b4 04  	<unknown>
     57a: dc 04        	<unknown>
     57c: 01 5b        	<unknown>
     57e: 04 dc        	<unknown>
     580: 04 e0        	<unknown>
     582: 04 01        	<unknown>
     584: 6b 04 e8 04  	<unknown>
     588: fc 04        	<unknown>
     58a: 01 6b        	<unknown>
     58c: 04 fc        	<unknown>
     58e: 04 80        	<unknown>
     590: 05 01        	<unknown>
     592: 5b 04 84 05  	<unknown>
     596: bc 05        	<unknown>
     598: 01 6b        	<unknown>
     59a: 04 ec        	<unknown>
     59c: 05 f4        	<unknown>
     59e: 05 01        	<unknown>
     5a0: 6b 04 80 06  	<unknown>
     5a4: d4 06        	<unknown>
     5a6: 01 6b        	<unknown>
     5a8: 04 dc        	<unknown>
     5aa: 06 e0        	<unknown>
     5ac: 06 01        	<unknown>
     5ae: 6b 04 e8 06  	<unknown>
     5b2: 8c 07        	<unknown>
     5b4: 01 6b        	<unknown>
     5b6: 04 8c        	<unknown>
     5b8: 07 94 07 03  	<unknown>
     5bc: 8b 01 9f 04  	p.lb	gp, 73(t5!)
     5c0: 94 07        	<unknown>
     5c2: d0 0e        	<unknown>
     5c4: 01 6b        	<unknown>
     5c6: 04 dc        	<unknown>
     5c8: 0e 98        	<unknown>
     5ca: 0f 01 65 00  	<unknown>
     5ce: 04 5c        	<unknown>
     5d0: 98 01        	<unknown>
     5d2: 01 5e        	<unknown>
     5d4: 04 98        	<unknown>
     5d6: 01 fc        	<unknown>
     5d8: 03 02 72 18  	lb	tp, 391(tp)
     5dc: 04 94        	<unknown>
     5de: 04 98        	<unknown>
     5e0: 04 01        	<unknown>
     5e2: 5b 04 98 04  	<unknown>
     5e6: bc 04        	<unknown>
     5e8: 02 72        	<unknown>
     5ea: 18 04        	<unknown>
     5ec: d0 04        	<unknown>
     5ee: d4 04        	<unknown>
     5f0: 01 5a        	<unknown>
     5f2: 04 d4        	<unknown>
     5f4: 04 d8        	<unknown>
     5f6: 07 02 72 18  	flb	ft4, 391(tp)
     5fa: 04 d8        	<unknown>
     5fc: 07 dc 07 07  	<unknown>
     600: 72 18        	<unknown>
     602: 94 04        	<unknown>
     604: 23 04 9f 04  	sb	s1, 72(t5)
     608: dc 07        	<unknown>
     60a: e0 07        	<unknown>
     60c: 03 7a 04 9f  	<unknown>
     610: 04 e0        	<unknown>
     612: 07 f4 07 07  	<unknown>
     616: 72 18        	<unknown>
     618: 94 04        	<unknown>
     61a: 23 04 9f 04  	sb	s1, 72(t5)
     61e: f4 07        	<unknown>
     620: 90 08        	<unknown>
     622: 02 72        	<unknown>
     624: 18 04        	<unknown>
     626: 90 08        	<unknown>
     628: 94 08        	<unknown>
     62a: 07 72 18 94  	<unknown>
     62e: 04 23        	<unknown>
     630: 04 9f        	<unknown>
     632: 04 94        	<unknown>
     634: 08 98        	<unknown>
     636: 08 03        	<unknown>
     638: 7b 04 9f 04  	<unknown>
     63c: 98 08        	<unknown>
     63e: ac 08        	<unknown>
     640: 07 72 18 94  	<unknown>
     644: 04 23        	<unknown>
     646: 04 9f        	<unknown>
     648: 04 ac        	<unknown>
     64a: 08 b4        	<unknown>
     64c: 08 02        	<unknown>
     64e: 72 18        	<unknown>
     650: 04 b4        	<unknown>
     652: 08 cc        	<unknown>
     654: 08 01        	<unknown>
     656: 63 04 cc 08  	beq	s8, a2, 0x6de <__l1_start+0x6de>
     65a: a8 09        	<unknown>
     65c: 02 72        	<unknown>
     65e: 18 04        	<unknown>
     660: a8 09        	<unknown>
     662: d0 09        	<unknown>
     664: 01 63        	<unknown>
     666: 04 8c        	<unknown>
     668: 0b 9c 0b 02  	p.lh	s8, 32(s7!)
     66c: 72 18        	<unknown>
     66e: 04 9c        	<unknown>
     670: 0b e8 0b 01  	<unknown>
     674: 66 04        	<unknown>
     676: e8 0b        	<unknown>
     678: ec 0b        	<unknown>
     67a: 02 72        	<unknown>
     67c: 18 04        	<unknown>
     67e: ec 0b        	<unknown>
     680: f0 0b        	<unknown>
     682: 07 72 18 94  	<unknown>
     686: 04 23        	<unknown>
     688: 04 9f        	<unknown>
     68a: 04 f0        	<unknown>
     68c: 0b f4 0b 03  	<unknown>
     690: 7b 04 9f 04  	<unknown>
     694: f8 0b        	<unknown>
     696: fc 0b        	<unknown>
     698: 01 5b        	<unknown>
     69a: 04 fc        	<unknown>
     69c: 0b 98 0c 02  	p.lh	a6, 32(s9!)
     6a0: 72 18        	<unknown>
     6a2: 04 98        	<unknown>
     6a4: 0c c8        	<unknown>
     6a6: 0c 01        	<unknown>
     6a8: 63 04 c8 0c  	beq	a6, a2, 0x770 <__l1_start+0x770>
     6ac: cc 0c        	<unknown>
     6ae: 02 72        	<unknown>
     6b0: 18 04        	<unknown>
     6b2: d8 0c        	<unknown>
     6b4: dc 0c        	<unknown>
     6b6: 01 66        	<unknown>
     6b8: 04 dc        	<unknown>
     6ba: 0c e0        	<unknown>
     6bc: 0c 02        	<unknown>
     6be: 72 18        	<unknown>
     6c0: 04 e0        	<unknown>
     6c2: 0c e4        	<unknown>
     6c4: 0c 07        	<unknown>
     6c6: 72 18        	<unknown>
     6c8: 94 04        	<unknown>
     6ca: 23 04 9f 04  	sb	s1, 72(t5)
     6ce: e4 0c        	<unknown>
     6d0: e8 0c        	<unknown>
     6d2: 03 7a 04 9f  	<unknown>
     6d6: 04 ec        	<unknown>
     6d8: 0c f0        	<unknown>
     6da: 0c 01        	<unknown>
     6dc: 5a 04        	<unknown>
     6de: f0 0c        	<unknown>
     6e0: 9c 0d        	<unknown>
     6e2: 02 72        	<unknown>
     6e4: 18 04        	<unknown>
     6e6: f4 0d        	<unknown>
     6e8: f8 0d        	<unknown>
     6ea: 01 5a        	<unknown>
     6ec: 04 f8        	<unknown>
     6ee: 0d cc        	<unknown>
     6f0: 0e 02        	<unknown>
     6f2: 72 18        	<unknown>
     6f4: 04 d8        	<unknown>
     6f6: 0e b8        	<unknown>
     6f8: 0f 02 72 18  	<unknown>
     6fc: 00 04        	<unknown>
     6fe: a4 01        	<unknown>
     700: e0 01        	<unknown>
     702: 02 30        	<unknown>
     704: 9f 04 e4 01  	<unknown>
     708: f4 01        	<unknown>
     70a: 01 64        	<unknown>
     70c: 04 f4        	<unknown>
     70e: 01 90        	<unknown>
     710: 02 01        	<unknown>
     712: 63 04 90 02  	beq	zero, s1, 0x73a <__l1_start+0x73a>
     716: f0 06        	<unknown>
     718: 01 64        	<unknown>
     71a: 04 f0        	<unknown>
     71c: 06 f8        	<unknown>
     71e: 06 01        	<unknown>
     720: 63 04 f8 06  	beq	a6, a5, 0x788 <__l1_start+0x788>
     724: fc 06        	<unknown>
     726: 01 64        	<unknown>
     728: 04 fc        	<unknown>
     72a: 06 90        	<unknown>
     72c: 07 01 63 04  	flb	ft2, 70(t1)
     730: 90 07        	<unknown>
     732: f0 08        	<unknown>
     734: 01 64        	<unknown>
     736: 04 9c        	<unknown>
     738: 09 dc        	<unknown>
     73a: 0a 01        	<unknown>
     73c: 64 04        	<unknown>
     73e: 84 0b        	<unknown>
     740: 90 0b        	<unknown>
     742: 01 64        	<unknown>
     744: 04 98        	<unknown>
     746: 0b a4 0b 01  	p.lw	s0, 16(s7!)
     74a: 5c 04        	<unknown>
     74c: a4 0b        	<unknown>
     74e: c8 0b        	<unknown>
     750: 01 64        	<unknown>
     752: 04 c8        	<unknown>
     754: 0b cc 0b 01  	p.lbu	s8, 16(s7!)
     758: 5c 04        	<unknown>
     75a: cc 0b        	<unknown>
     75c: b8 0d        	<unknown>
     75e: 01 64        	<unknown>
     760: 04 b8        	<unknown>
     762: 0d dc        	<unknown>
     764: 0d 01        	<unknown>
     766: 63 04 dc 0d  	beq	s8, t4, 0x82e <__l1_start+0x82e>
     76a: ec 0d        	<unknown>
     76c: 01 64        	<unknown>
     76e: 04 ec        	<unknown>
     770: 0d a0        	<unknown>
     772: 0e 01        	<unknown>
     774: 63 04 a0 0e  	beq	zero, a0, 0x85c <__l1_start+0x85c>
     778: a4 0e        	<unknown>
     77a: 01 5c        	<unknown>
     77c: 04 a4        	<unknown>
     77e: 0e c0        	<unknown>
     780: 0e 01        	<unknown>
     782: 63 04 c0 0e  	beq	zero, a2, 0x86a <__l1_start+0x86a>
     786: c8 0e        	<unknown>
     788: 01 64        	<unknown>
     78a: 04 c8        	<unknown>
     78c: 0e cc        	<unknown>
     78e: 0e 01        	<unknown>
     790: 63 04 cc 0e  	beq	s8, a2, 0x878 <__l1_start+0x878>
     794: 94 0f        	<unknown>
     796: 01 64        	<unknown>
     798: 00 04        	<unknown>
     79a: a4 02        	<unknown>
     79c: a8 02        	<unknown>
     79e: 01 6c        	<unknown>
     7a0: 04 ac        	<unknown>
     7a2: 02 d0        	<unknown>
     7a4: 02 01        	<unknown>
     7a6: 6c 04        	<unknown>
     7a8: e8 02        	<unknown>
     7aa: 8c 04        	<unknown>
     7ac: 01 6c        	<unknown>
     7ae: 04 a4        	<unknown>
     7b0: 04 bc        	<unknown>
     7b2: 05 01        	<unknown>
     7b4: 6c 04        	<unknown>
     7b6: ec 05        	<unknown>
     7b8: f4 05        	<unknown>
     7ba: 01 6c        	<unknown>
     7bc: 04 80        	<unknown>
     7be: 06 d4        	<unknown>
     7c0: 06 01        	<unknown>
     7c2: 6c 04        	<unknown>
     7c4: d8 06        	<unknown>
     7c6: e0 06        	<unknown>
     7c8: 01 6c        	<unknown>
     7ca: 04 e4        	<unknown>
     7cc: 06 8c        	<unknown>
     7ce: 07 01 6c 04  	flb	ft2, 70(s8)
     7d2: 94 07        	<unknown>
     7d4: f0 08        	<unknown>
     7d6: 01 6c        	<unknown>
     7d8: 04 9c        	<unknown>
     7da: 09 dc        	<unknown>
     7dc: 0a 01        	<unknown>
     7de: 6c 04        	<unknown>
     7e0: 8c 0b        	<unknown>
     7e2: 90 0b        	<unknown>
     7e4: 01 6c        	<unknown>
     7e6: 04 ec        	<unknown>
     7e8: 0b c0 0c 01  	p.lbu	zero, 16(s9!)
     7ec: 6c 04        	<unknown>
     7ee: cc 0c        	<unknown>
     7f0: d8 0c        	<unknown>
     7f2: 01 6c        	<unknown>
     7f4: 04 e0        	<unknown>
     7f6: 0c 94        	<unknown>
     7f8: 0d 01        	<unknown>
     7fa: 6c 04        	<unknown>
     7fc: 9c 0d        	<unknown>
     7fe: a8 0d        	<unknown>
     800: 01 6c        	<unknown>
     802: 00 04        	<unknown>
     804: d0 02        	<unknown>
     806: e8 02        	<unknown>
     808: 02 31        	<unknown>
     80a: 9f 00 04 e8  	<unknown>
     80e: 02 a4        	<unknown>
     810: 03 02 30 9f  	lb	tp, -1549(zero)
     814: 04 a4        	<unknown>
     816: 03 f4 03 01  	p.lb	s0, a6(t2)
     81a: 65 04        	<unknown>
     81c: f4 03        	<unknown>
     81e: 84 04        	<unknown>
     820: 02 30        	<unknown>
     822: 9f 04 a4 04  	<unknown>
     826: e0 04        	<unknown>
     828: 01 65        	<unknown>
     82a: 04 e0        	<unknown>
     82c: 04 e8        	<unknown>
     82e: 04 02        	<unknown>
     830: 30 9f        	<unknown>
     832: 04 e8        	<unknown>
     834: 04 9c        	<unknown>
     836: 09 01        	<unknown>
     838: 65 04        	<unknown>
     83a: 9c 09        	<unknown>
     83c: d0 09        	<unknown>
     83e: 02 38        	<unknown>
     840: 9f 04 d0 09  	<unknown>
     844: b8 0c        	<unknown>
     846: 01 65        	<unknown>
     848: 04 cc        	<unknown>
     84a: 0c c4        	<unknown>
     84c: 0e 01        	<unknown>
     84e: 65 04        	<unknown>
     850: c8 0e        	<unknown>
     852: d0 0e        	<unknown>
     854: 01 65        	<unknown>
     856: 00 04        	<unknown>
     858: a4 03        	<unknown>
     85a: f4 03        	<unknown>
     85c: 02 30        	<unknown>
     85e: 9f 04 a8 04  	<unknown>
     862: d0 04        	<unknown>
     864: 02 30        	<unknown>
     866: 9f 04 d0 04  	<unknown>
     86a: e0 04        	<unknown>
     86c: 01 66        	<unknown>
     86e: 04 e8        	<unknown>
     870: 04 84        	<unknown>
     872: 05 02        	<unknown>
     874: 30 9f        	<unknown>
     876: 04 84        	<unknown>
     878: 05 f0        	<unknown>
     87a: 08 01        	<unknown>
     87c: 66 04        	<unknown>
     87e: 9c 09        	<unknown>
     880: 90 0b        	<unknown>
     882: 01 66        	<unknown>
     884: 04 ec        	<unknown>
     886: 0b d8 0c 01  	p.lhu	a6, 16(s9!)
     88a: 66 04        	<unknown>
     88c: e0 0c        	<unknown>
     88e: b0 0d        	<unknown>
     890: 01 66        	<unknown>
     892: 04 b4        	<unknown>
     894: 0d e4        	<unknown>
     896: 0d 01        	<unknown>
     898: 66 00        	<unknown>
     89a: 04 84        	<unknown>
     89c: 04 88        	<unknown>
     89e: 04 01        	<unknown>
     8a0: 5a 00        	<unknown>
     8a2: 04 c4        	<unknown>
     8a4: 04 c8        	<unknown>
     8a6: 04 01        	<unknown>
     8a8: 66 00        	<unknown>
     8aa: 04 a8        	<unknown>
     8ac: 06 b0        	<unknown>
     8ae: 06 02        	<unknown>
     8b0: 3a 9f        	<unknown>
     8b2: 04 b0        	<unknown>
     8b4: 06 d4        	<unknown>
     8b6: 06 01        	<unknown>
     8b8: 60 00        	<unknown>
     8ba: 04 b8        	<unknown>
     8bc: 08 cc        	<unknown>
     8be: 08 01        	<unknown>
     8c0: 5a 00        	<unknown>
     8c2: 04 cc        	<unknown>
     8c4: 08 d8        	<unknown>
     8c6: 08 02        	<unknown>
     8c8: 31 9f        	<unknown>
     8ca: 04 d8        	<unknown>
     8cc: 08 f0        	<unknown>
     8ce: 08 02        	<unknown>
     8d0: 32 9f        	<unknown>
     8d2: 04 84        	<unknown>
     8d4: 09 88        	<unknown>
     8d6: 09 03        	<unknown>
     8d8: 87 03 9f 04  	flb	ft7, 73(t5)
     8dc: 98 0b        	<unknown>
     8de: b8 0b        	<unknown>
     8e0: 01 63        	<unknown>
     8e2: 04 b8        	<unknown>
     8e4: 0b c0 0b 03  	p.lbu	zero, 48(s7!)
     8e8: 83 01 9f 00  	lb	gp, 9(t5)
     8ec: 04 f0        	<unknown>
     8ee: 09 f4        	<unknown>
     8f0: 09 03        	<unknown>
     8f2: 7b 7f 9f 04  	<unknown>
     8f6: f8 09        	<unknown>
     8f8: 88 0a        	<unknown>
     8fa: 01 5b        	<unknown>
     8fc: 04 94        	<unknown>
     8fe: 0a 98        	<unknown>
     900: 0a 03        	<unknown>
     902: 7b 7f 9f 00  	<unknown>
     906: 04 d8        	<unknown>
     908: 09 e4        	<unknown>
     90a: 09 01        	<unknown>
     90c: 60 04        	<unknown>
     90e: f8 09        	<unknown>
     910: fc 09        	<unknown>
     912: 01 5d        	<unknown>
     914: 04 fc        	<unknown>
     916: 09 98        	<unknown>
     918: 0a 01        	<unknown>
     91a: 5c 00        	<unknown>
     91c: 04 d8        	<unknown>
     91e: 09 e4        	<unknown>
     920: 09 01        	<unknown>
     922: 60 00        	<unknown>
     924: 04 d8        	<unknown>
     926: 09 cc        	<unknown>
     928: 0a 01        	<unknown>
     92a: 60 04        	<unknown>
     92c: cc 0a        	<unknown>
     92e: 84 0b        	<unknown>
     930: 02 72        	<unknown>
     932: 04 04        	<unknown>
     934: 84 0b        	<unknown>
     936: 8c 0b        	<unknown>
     938: 01 60        	<unknown>
     93a: 04 9c        	<unknown>
     93c: 0d b0        	<unknown>
     93e: 0d 01        	<unknown>
     940: 60 04        	<unknown>
     942: b0 0d        	<unknown>
     944: b4 0d        	<unknown>
     946: 03 87 7f 9f  	lb	a4, -1545(t6)
     94a: 04 b4        	<unknown>
     94c: 0d d4        	<unknown>
     94e: 0d 01        	<unknown>
     950: 67 04 dc 0d  	jalr	s0, 221(s8)
     954: e8 0d        	<unknown>
     956: 03 87 7f 9f  	lb	a4, -1545(t6)
     95a: 00 04        	<unknown>
     95c: 9c 0a        	<unknown>
     95e: c4 0a        	<unknown>
     960: 01 5b        	<unknown>
     962: 04 84        	<unknown>
     964: 0b 8c 0b 02  	p.lb	s8, 32(s7!)
     968: 72 08        	<unknown>
     96a: 04 a4        	<unknown>
     96c: 0d 8c        	<unknown>
     96e: 0e 02        	<unknown>
     970: 72 08        	<unknown>
     972: 04 8c        	<unknown>
     974: 0e 9c        	<unknown>
     976: 0e 03        	<unknown>
     978: 7c 01        	<unknown>
     97a: 9f 00 04 f8  	<unknown>
     97e: 0b 90 0c 01  	p.lh	zero, 16(s9!)
     982: 5a 00        	<unknown>
     984: 04 ec        	<unknown>
     986: 0c f4        	<unknown>
     988: 0c 01        	<unknown>
     98a: 5e 00        	<unknown>
     98c: 04 c8        	<unknown>
     98e: 0f d8 0f 01  	<unknown>
     992: 5a 04        	<unknown>
     994: d8 0f        	<unknown>
     996: 94 10        	<unknown>
     998: 01 5b        	<unknown>
     99a: 00 04        	<unknown>
     99c: c8 0f        	<unknown>
     99e: d4 0f        	<unknown>
     9a0: 01 5b        	<unknown>
     9a2: 04 d4        	<unknown>
     9a4: 0f 8c 10 01  	<unknown>
     9a8: 55 04        	<unknown>
     9aa: 8c 10        	<unknown>
     9ac: 94 10        	<unknown>
     9ae: 01 5d        	<unknown>
     9b0: 00 04        	<unknown>
     9b2: 94 10        	<unknown>
     9b4: a0 10        	<unknown>
     9b6: 01 5a        	<unknown>
     9b8: 00 04        	<unknown>
     9ba: a0 10        	<unknown>
     9bc: a8 10        	<unknown>
     9be: 01 5b        	<unknown>
     9c0: 00 04        	<unknown>
     9c2: b0 10        	<unknown>
     9c4: c4 10        	<unknown>
     9c6: 01 5a        	<unknown>
     9c8: 04 c4        	<unknown>
     9ca: 10 f8        	<unknown>
     9cc: 10 01        	<unknown>
     9ce: 5b 00 04 b0  	<unknown>
     9d2: 10 c0        	<unknown>
     9d4: 10 01        	<unknown>
     9d6: 5b 04 c0 10  	<unknown>
     9da: f8 10        	<unknown>
     9dc: 01 5c        	<unknown>
     9de: 00 04        	<unknown>
     9e0: b0 10        	<unknown>
     9e2: bc 10        	<unknown>
     9e4: 01 5c        	<unknown>
     9e6: 04 bc        	<unknown>
     9e8: 10 f0        	<unknown>
     9ea: 10 01        	<unknown>
     9ec: 55 04        	<unknown>
     9ee: f0 10        	<unknown>
     9f0: f8 10        	<unknown>
     9f2: 01 5d        	<unknown>
     9f4: 00 04        	<unknown>
     9f6: f8 10        	<unknown>
     9f8: 84 11        	<unknown>
     9fa: 01 5a        	<unknown>
     9fc: 00 04        	<unknown>
     9fe: 84 11        	<unknown>
     a00: 94 11        	<unknown>
     a02: 01 5a        	<unknown>
     a04: 04 94        	<unknown>
     a06: 11 a4        	<unknown>
     a08: 11 01        	<unknown>
     a0a: 5b 00 04 84  	<unknown>
     a0e: 11 90        	<unknown>
     a10: 11 01        	<unknown>
     a12: 5b 04 90 11  	<unknown>
     a16: a4 11        	<unknown>
     a18: 01 5c        	<unknown>
     a1a: 00 04        	<unknown>
     a1c: 84 11        	<unknown>
     a1e: 8c 11        	<unknown>
     a20: 01 5c        	<unknown>
     a22: 04 8c        	<unknown>
     a24: 11 a4        	<unknown>
     a26: 11 01        	<unknown>
     a28: 5d 00        	<unknown>
     a2a: 04 84        	<unknown>
     a2c: 11 88        	<unknown>
     a2e: 11 01        	<unknown>
     a30: 5d 04        	<unknown>
     a32: 88 11        	<unknown>
     a34: a4 11        	<unknown>
     a36: 01 5e        	<unknown>
     a38: 00 04        	<unknown>
     a3a: a4 11        	<unknown>
     a3c: d8 11        	<unknown>
     a3e: 01 5a        	<unknown>
     a40: 00 04        	<unknown>
     a42: a4 11        	<unknown>
     a44: e0 11        	<unknown>
     a46: 01 5b        	<unknown>
     a48: 00 04        	<unknown>
     a4a: a4 11        	<unknown>
     a4c: b0 11        	<unknown>
     a4e: 01 5c        	<unknown>
     a50: 04 b0        	<unknown>
     a52: 11 ec        	<unknown>
     a54: 11 01        	<unknown>
     a56: 55 04        	<unknown>
     a58: ec 11        	<unknown>
     a5a: f4 11        	<unknown>
     a5c: 01 5d        	<unknown>
     a5e: 00 04        	<unknown>
     a60: f4 11        	<unknown>
     a62: 80 12        	<unknown>
     a64: 01 5a        	<unknown>
     a66: 00 04        	<unknown>
     a68: 80 12        	<unknown>
     a6a: 8c 12        	<unknown>
     a6c: 01 5b        	<unknown>
     a6e: 04 90        	<unknown>
     a70: 12 94        	<unknown>
     a72: 12 01        	<unknown>
     a74: 5b 00 04 98  	<unknown>
     a78: 12 dc        	<unknown>
     a7a: 12 01        	<unknown>
     a7c: 5a 04        	<unknown>
     a7e: dc 12        	<unknown>
     a80: 80 19        	<unknown>
     a82: 01 63        	<unknown>
     a84: 00 04        	<unknown>
     a86: 98 12        	<unknown>
     a88: d8 12        	<unknown>
     a8a: 01 5b        	<unknown>
     a8c: 04 d8        	<unknown>
     a8e: 12 fc        	<unknown>
     a90: 18 01        	<unknown>
     a92: 62 00        	<unknown>
     a94: 04 98        	<unknown>
     a96: 12 d4        	<unknown>
     a98: 12 01        	<unknown>
     a9a: 5c 04        	<unknown>
     a9c: d4 12        	<unknown>
     a9e: bc 18        	<unknown>
     aa0: 01 64        	<unknown>
     aa2: 04 e4        	<unknown>
     aa4: 18 e8        	<unknown>
     aa6: 18 01        	<unknown>
     aa8: 64 00        	<unknown>
     aaa: 04 98        	<unknown>
     aac: 12 d0        	<unknown>
     aae: 12 01        	<unknown>
     ab0: 5d 04        	<unknown>
     ab2: d0 12        	<unknown>
     ab4: f8 18        	<unknown>
     ab6: 01 59        	<unknown>
     ab8: 00 04        	<unknown>
     aba: 98 12        	<unknown>
     abc: a8 13        	<unknown>
     abe: 01 5e        	<unknown>
     ac0: 04 a8        	<unknown>
     ac2: 13 c0 13 01  	xori	zero, t2, 17
     ac6: 57 04 c0 13  	<unknown>
     aca: 9c 14        	<unknown>
     acc: 01 5e        	<unknown>
     ace: 00 04        	<unknown>
     ad0: 98 12        	<unknown>
     ad2: cc 17        	<unknown>
     ad4: 0d 7f        	<unknown>
     ad6: 00 a8        	<unknown>
     ad8: ab 80 80 00  	p.sb	s0, 1(ra!)
     adc: a8 af        	<unknown>
     ade: 80 80        	<unknown>
     ae0: 00 9f        	<unknown>
     ae2: 00 04        	<unknown>
     ae4: 98 12        	<unknown>
     ae6: cc 17        	<unknown>
     ae8: 01 60        	<unknown>
     aea: 00 04        	<unknown>
     aec: 98 12        	<unknown>
     aee: cc 17        	<unknown>
     af0: 01 61        	<unknown>
     af2: 00 04        	<unknown>
     af4: 98 12        	<unknown>
     af6: cc 12        	<unknown>
     af8: 01 57        	<unknown>
     afa: 04 cc        	<unknown>
     afc: 12 88        	<unknown>
     afe: 14 01        	<unknown>
     b00: 58 04        	<unknown>
     b02: 8c 14        	<unknown>
     b04: 90 14        	<unknown>
     b06: 01 58        	<unknown>
     b08: 00 04        	<unknown>
     b0a: 98 12        	<unknown>
     b0c: cc 17        	<unknown>
     b0e: 01 6c        	<unknown>
     b10: 00 04        	<unknown>
     b12: dc 12        	<unknown>
     b14: 98 13        	<unknown>
     b16: 02 30        	<unknown>
     b18: 9f 04 98 13  	<unknown>
     b1c: a0 13        	<unknown>
     b1e: 01 5d        	<unknown>
     b20: 04 a0        	<unknown>
     b22: 13 c4 13 01  	xori	s0, t2, 17
     b26: 5a 04        	<unknown>
     b28: c4 13        	<unknown>
     b2a: e4 13        	<unknown>
     b2c: 01 5d        	<unknown>
     b2e: 04 e4        	<unknown>
     b30: 13 b0 14 01  	sltiu	zero, s1, 17
     b34: 5a 04        	<unknown>
     b36: d8 14        	<unknown>
     b38: e0 14        	<unknown>
     b3a: 01 5a        	<unknown>
     b3c: 00 04        	<unknown>
     b3e: e4 13        	<unknown>
     b40: cc 17        	<unknown>
     b42: 01 64        	<unknown>
     b44: 04 cc        	<unknown>
     b46: 17 d0 17 01  	auipc	zero, 4477
     b4a: 5c 04        	<unknown>
     b4c: d0 17        	<unknown>
     b4e: 80 18        	<unknown>
     b50: 01 66        	<unknown>
     b52: 04 80        	<unknown>
     b54: 18 a0        	<unknown>
     b56: 18 01        	<unknown>
     b58: 65 04        	<unknown>
     b5a: a0 18        	<unknown>
     b5c: a4 18        	<unknown>
     b5e: 01 66        	<unknown>
     b60: 04 a4        	<unknown>
     b62: 18 c0        	<unknown>
     b64: 18 01        	<unknown>
     b66: 65 04        	<unknown>
     b68: c0 18        	<unknown>
     b6a: e4 18        	<unknown>
     b6c: 01 64        	<unknown>
     b6e: 00 04        	<unknown>
     b70: e4 13        	<unknown>
     b72: b4 14        	<unknown>
     b74: 01 5a        	<unknown>
     b76: 04 b4        	<unknown>
     b78: 14 d8        	<unknown>
     b7a: 14 01        	<unknown>
     b7c: 5d 04        	<unknown>
     b7e: d8 14        	<unknown>
     b80: dc 14        	<unknown>
     b82: 01 5a        	<unknown>
     b84: 04 dc        	<unknown>
     b86: 14 a0        	<unknown>
     b88: 15 01        	<unknown>
     b8a: 5d 04        	<unknown>
     b8c: a0 15        	<unknown>
     b8e: d4 15        	<unknown>
     b90: 01 5a        	<unknown>
     b92: 04 d4        	<unknown>
     b94: 15 ec        	<unknown>
     b96: 15 01        	<unknown>
     b98: 5b 04 f0 15  	<unknown>
     b9c: c8 16        	<unknown>
     b9e: 01 5a        	<unknown>
     ba0: 04 cc        	<unknown>
     ba2: 16 98        	<unknown>
     ba4: 17 01 5a 04  	auipc	sp, 17824
     ba8: 98 17        	<unknown>
     baa: 9c 17        	<unknown>
     bac: 01 68        	<unknown>
     bae: 04 9c        	<unknown>
     bb0: 17 a8 17 01  	auipc	a6, 4474
     bb4: 5a 04        	<unknown>
     bb6: ac 17        	<unknown>
     bb8: f4 17        	<unknown>
     bba: 01 68        	<unknown>
     bbc: 04 a0        	<unknown>
     bbe: 18 a4        	<unknown>
     bc0: 18 01        	<unknown>
     bc2: 68 00        	<unknown>
     bc4: 04 e4        	<unknown>
     bc6: 13 cc 17 0d  	xori	s8, a5, 209
     bca: 7f 00 a8 ab  	<unknown>
     bce: 80 80        	<unknown>
     bd0: 00 a8        	<unknown>
     bd2: af 80 80 00  	<unknown>
     bd6: 9f 00 04 e4  	<unknown>
     bda: 13 cc 17 01  	xori	s8, a5, 17
     bde: 60 00        	<unknown>
     be0: 04 e4        	<unknown>
     be2: 13 cc 17 01  	xori	s8, a5, 17
     be6: 61 00        	<unknown>
     be8: 04 e4        	<unknown>
     bea: 13 88 14 01  	addi	a6, s1, 17
     bee: 58 04        	<unknown>
     bf0: 8c 14        	<unknown>
     bf2: e4 18        	<unknown>
     bf4: 01 58        	<unknown>
     bf6: 00 04        	<unknown>
     bf8: e4 13        	<unknown>
     bfa: cc 17        	<unknown>
     bfc: 01 6c        	<unknown>
     bfe: 00 04        	<unknown>
     c00: e4 13        	<unknown>
     c02: bc 18        	<unknown>
     c04: 01 64        	<unknown>
     c06: 00 04        	<unknown>
     c08: e8 13        	<unknown>
     c0a: e4 18        	<unknown>
     c0c: 03 72 04 9f  	<unknown>
     c10: 00 04        	<unknown>
     c12: c4 17        	<unknown>
     c14: cc 17        	<unknown>
     c16: 01 68        	<unknown>
     c18: 04 cc        	<unknown>
     c1a: 17 e0 17 12  	auipc	zero, 74110
     c1e: 85 00        	<unknown>
     c20: 11 7f        	<unknown>
     c22: 88 00        	<unknown>
     c24: 1e 78        	<unknown>
     c26: 00 22        	<unknown>
     c28: 1c 11        	<unknown>
     c2a: 7f 1b 88 00  	<unknown>
     c2e: 22 9f        	<unknown>
     c30: 04 e0        	<unknown>
     c32: 17 e4 17 15  	auipc	s0, 86398
     c36: 85 00        	<unknown>
     c38: 11 7f        	<unknown>
     c3a: 88 00        	<unknown>
     c3c: 1e 78        	<unknown>
     c3e: 00 22        	<unknown>
     c40: 1c 11        	<unknown>
     c42: 7f 1b 11 01  	<unknown>
     c46: 88 00        	<unknown>
     c48: 22 22        	<unknown>
     c4a: 9f 00 04 ec  	<unknown>
     c4e: 17 f4 17 02  	auipc	s0, 8575
     c52: 30 9f        	<unknown>
     c54: 04 f4        	<unknown>
     c56: 17 90 18 09  	auipc	zero, 37257
     c5a: 88 00        	<unknown>
     c5c: 88 00        	<unknown>
     c5e: 1c 11        	<unknown>
     c60: 7f 1b 9f 04  	<unknown>
     c64: 90 18        	<unknown>
     c66: 94 18        	<unknown>
     c68: 0c 88        	<unknown>
     c6a: 00 88        	<unknown>
     c6c: 00 1c        	<unknown>
     c6e: 11 7f        	<unknown>
     c70: 1b 11 01 22  	<unknown>
     c74: 9f 00 5a 02  	<unknown>
     c78: 00 00        	<unknown>
     c7a: 05 00        	<unknown>
     c7c: 04 00        	<unknown>
     c7e: 19 00        	<unknown>
     c80: 00 00        	<unknown>
     c82: 64 00        	<unknown>
     c84: 00 00        	<unknown>
     c86: 6f 00 00 00  	j	0xc86 <__l1_start+0xc86>
     c8a: 7a 00        	<unknown>
     c8c: 00 00        	<unknown>
     c8e: 8f 00 00 00  	<unknown>
     c92: a4 00        	<unknown>
     c94: 00 00        	<unknown>
     c96: ab 00 00 00  	p.sb	zero, 1(zero!)
     c9a: b8 00        	<unknown>
     c9c: 00 00        	<unknown>
     c9e: c4 00        	<unknown>
     ca0: 00 00        	<unknown>
     ca2: e1 00        	<unknown>
     ca4: 00 00        	<unknown>
     ca6: e9 00        	<unknown>
     ca8: 00 00        	<unknown>
     caa: 0c 01        	<unknown>
     cac: 00 00        	<unknown>
     cae: 14 01        	<unknown>
     cb0: 00 00        	<unknown>
     cb2: 1c 01        	<unknown>
     cb4: 00 00        	<unknown>
     cb6: 24 01        	<unknown>
     cb8: 00 00        	<unknown>
     cba: 41 01        	<unknown>
     cbc: 00 00        	<unknown>
     cbe: 57 01 00 00  	pv.add.h	sp, zero, zero
     cc2: 78 01        	<unknown>
     cc4: 00 00        	<unknown>
     cc6: 8e 01        	<unknown>
     cc8: 00 00        	<unknown>
     cca: 96 01        	<unknown>
     ccc: 00 00        	<unknown>
     cce: 9e 01        	<unknown>
     cd0: 00 00        	<unknown>
     cd2: a6 01        	<unknown>
     cd4: 00 00        	<unknown>
     cd6: ae 01        	<unknown>
     cd8: 00 00        	<unknown>
     cda: d1 01        	<unknown>
     cdc: 00 00        	<unknown>
     cde: 19 02        	<unknown>
     ce0: 00 00        	<unknown>
     ce2: 31 02        	<unknown>
     ce4: 00 00        	<unknown>
     ce6: 04 00        	<unknown>
     ce8: 1c 01        	<unknown>
     cea: 5b 04 3c 44  	<unknown>
     cee: 01 5b        	<unknown>
     cf0: 00 04        	<unknown>
     cf2: 00 1c        	<unknown>
     cf4: 01 5c        	<unknown>
     cf6: 04 3c        	<unknown>
     cf8: 44 01        	<unknown>
     cfa: 5c 00        	<unknown>
     cfc: 04 14        	<unknown>
     cfe: 1c 01        	<unknown>
     d00: 5a 04        	<unknown>
     d02: 1c 2c        	<unknown>
     d04: 01 5d        	<unknown>
     d06: 04 2c        	<unknown>
     d08: 34 01        	<unknown>
     d0a: 5f 04 34 3c  	<unknown>
     d0e: 01 5d        	<unknown>
     d10: 00 04        	<unknown>
     d12: 3c 44        	<unknown>
     d14: 01 5a        	<unknown>
     d16: 04 44        	<unknown>
     d18: 50 01        	<unknown>
     d1a: 5c 04        	<unknown>
     d1c: 50 58        	<unknown>
     d1e: 01 5f        	<unknown>
     d20: 04 58        	<unknown>
     d22: 5c 01        	<unknown>
     d24: 5c 00        	<unknown>
     d26: 04 60        	<unknown>
     d28: 98 01        	<unknown>
     d2a: 01 5b        	<unknown>
     d2c: 00 04        	<unknown>
     d2e: 60 78        	<unknown>
     d30: 01 5c        	<unknown>
     d32: 04 8c        	<unknown>
     d34: 01 90        	<unknown>
     d36: 01 01        	<unknown>
     d38: 5c 00        	<unknown>
     d3a: 04 70        	<unknown>
     d3c: 78 01        	<unknown>
     d3e: 5a 04        	<unknown>
     d40: 78 8c        	<unknown>
     d42: 01 01        	<unknown>
     d44: 5d 00        	<unknown>
     d46: 04 8c        	<unknown>
     d48: 01 a8        	<unknown>
     d4a: 01 01        	<unknown>
     d4c: 5a 04        	<unknown>
     d4e: a8 01        	<unknown>
     d50: ac 01        	<unknown>
     d52: 01 5d        	<unknown>
     d54: 04 ac        	<unknown>
     d56: 01 b4        	<unknown>
     d58: 01 01        	<unknown>
     d5a: 5e 04        	<unknown>
     d5c: b4 01        	<unknown>
     d5e: b8 01        	<unknown>
     d60: 01 5d        	<unknown>
     d62: 00 04        	<unknown>
     d64: bc 01        	<unknown>
     d66: d4 01        	<unknown>
     d68: 01 5a        	<unknown>
     d6a: 00 04        	<unknown>
     d6c: bc 01        	<unknown>
     d6e: c0 01        	<unknown>
     d70: 01 5a        	<unknown>
     d72: 04 c0        	<unknown>
     d74: 01 c8        	<unknown>
     d76: 01 06        	<unknown>
     d78: 7b 00 7a 00  	<unknown>
     d7c: 22 9f        	<unknown>
     d7e: 04 c8        	<unknown>
     d80: 01 cc        	<unknown>
     d82: 01 09        	<unknown>
     d84: 7b 00 11 01  	<unknown>
     d88: 7a 00        	<unknown>
     d8a: 22 22        	<unknown>
     d8c: 9f 00 04 d8  	<unknown>
     d90: 01 80        	<unknown>
     d92: 02 01        	<unknown>
     d94: 5a 00        	<unknown>
     d96: 04 dc        	<unknown>
     d98: 01 84        	<unknown>
     d9a: 02 01        	<unknown>
     d9c: 5c 00        	<unknown>
     d9e: 04 e4        	<unknown>
     da0: 01 84        	<unknown>
     da2: 02 01        	<unknown>
     da4: 5d 00        	<unknown>
     da6: 04 84        	<unknown>
     da8: 02 c4        	<unknown>
     daa: 02 01        	<unknown>
     dac: 5a 04        	<unknown>
     dae: c8 02        	<unknown>
     db0: cc 02        	<unknown>
     db2: 01 5d        	<unknown>
     db4: 04 cc        	<unknown>
     db6: 02 ec        	<unknown>
     db8: 02 01        	<unknown>
     dba: 5a 04        	<unknown>
     dbc: f0 02        	<unknown>
     dbe: f4 02        	<unknown>
     dc0: 01 5a        	<unknown>
     dc2: 00 04        	<unknown>
     dc4: 84 02        	<unknown>
     dc6: a0 02        	<unknown>
     dc8: 01 5b        	<unknown>
     dca: 04 bc        	<unknown>
     dcc: 02 c0        	<unknown>
     dce: 02 01        	<unknown>
     dd0: 5b 04 c8 02  	<unknown>
     dd4: f8 02        	<unknown>
     dd6: 01 5b        	<unknown>
     dd8: 00 04        	<unknown>
     dda: 84 02        	<unknown>
     ddc: cc 02        	<unknown>
     dde: 01 5c        	<unknown>
     de0: 04 cc        	<unknown>
     de2: 02 d4        	<unknown>
     de4: 02 03        	<unknown>
     de6: 7c 7f        	<unknown>
     de8: 9f 04 d4 02  	<unknown>
     dec: f0 02        	<unknown>
     dee: 01 5c        	<unknown>
     df0: 04 f0        	<unknown>
     df2: 02 f8        	<unknown>
     df4: 02 03        	<unknown>
     df6: 7c 7f        	<unknown>
     df8: 9f 00 04 90  	<unknown>
     dfc: 02 a0        	<unknown>
     dfe: 02 01        	<unknown>
     e00: 5a 04        	<unknown>
     e02: a0 02        	<unknown>
     e04: bc 02        	<unknown>
     e06: 01 5d        	<unknown>
     e08: 04 bc        	<unknown>
     e0a: 02 c0        	<unknown>
     e0c: 02 01        	<unknown>
     e0e: 5a 00        	<unknown>
     e10: 04 98        	<unknown>
     e12: 02 cc        	<unknown>
     e14: 02 01        	<unknown>
     e16: 5e 00        	<unknown>
     e18: 04 d8        	<unknown>
     e1a: 02 f0        	<unknown>
     e1c: 02 01        	<unknown>
     e1e: 5d 00        	<unknown>
     e20: 04 e0        	<unknown>
     e22: 02 f0        	<unknown>
     e24: 02 01        	<unknown>
     e26: 5e 00        	<unknown>
     e28: 04 f8        	<unknown>
     e2a: 02 fc        	<unknown>
     e2c: 02 01        	<unknown>
     e2e: 5b 00 04 f8  	<unknown>
     e32: 02 fc        	<unknown>
     e34: 02 01        	<unknown>
     e36: 5a 04        	<unknown>
     e38: fc 02        	<unknown>
     e3a: 88 03        	<unknown>
     e3c: 06 7c        	<unknown>
     e3e: 00 7a        	<unknown>
     e40: 00 22        	<unknown>
     e42: 9f 04 88 03  	<unknown>
     e46: 8c 03        	<unknown>
     e48: 09 7c        	<unknown>
     e4a: 00 11        	<unknown>
     e4c: 01 7a        	<unknown>
     e4e: 00 22        	<unknown>
     e50: 22 9f        	<unknown>
     e52: 00 04        	<unknown>
     e54: 98 03        	<unknown>
     e56: a0 03        	<unknown>
     e58: 01 5a        	<unknown>
     e5a: 04 a0        	<unknown>
     e5c: 03 a8 03 03  	lw	a6, 48(t2)
     e60: 7d 7f        	<unknown>
     e62: 9f 04 a8 03  	<unknown>
     e66: ac 03        	<unknown>
     e68: 01 5d        	<unknown>
     e6a: 04 ac        	<unknown>
     e6c: 03 cc 03 03  	lbu	s8, 48(t2)
     e70: 7d 7f        	<unknown>
     e72: 9f 04 d0 03  	<unknown>
     e76: dc 03        	<unknown>
     e78: 01 5d        	<unknown>
     e7a: 04 dc        	<unknown>
     e7c: 03 e4 03 03  	<unknown>
     e80: 7d 7f        	<unknown>
     e82: 9f 04 e4 03  	<unknown>
     e86: f0 03        	<unknown>
     e88: 01 5d        	<unknown>
     e8a: 04 f4        	<unknown>
     e8c: 03 f8 03 03  	<unknown>
     e90: 7d 7f        	<unknown>
     e92: 9f 04 f8 03  	<unknown>
     e96: 8c 04        	<unknown>
     e98: 01 5d        	<unknown>
     e9a: 00 04        	<unknown>
     e9c: 98 03        	<unknown>
     e9e: f4 03        	<unknown>
     ea0: 03 11 00 9f  	lh	sp, -1552(zero)
     ea4: 04 f4        	<unknown>
     ea6: 03 84 04 01  	lb	s0, 16(s1)
     eaa: 5a 04        	<unknown>
     eac: 88 04        	<unknown>
     eae: 90 04        	<unknown>
     eb0: 01 5a        	<unknown>
     eb2: 00 04        	<unknown>
     eb4: 98 03        	<unknown>
     eb6: cc 03        	<unknown>
     eb8: 03 11 00 9f  	lh	sp, -1552(zero)
     ebc: 04 cc        	<unknown>
     ebe: 03 dc 03 01  	lhu	s8, 16(t2)
     ec2: 5c 04        	<unknown>
     ec4: dc 03        	<unknown>
     ec6: e4 03        	<unknown>
     ec8: 03 11 00 9f  	lh	sp, -1552(zero)
     ecc: 04 e4        	<unknown>
     ece: 03 9c 04 01  	lh	s8, 16(s1)
     ed2: 5c 00        	<unknown>
     ed4: 1c 00        	<unknown>
     ed6: 00 00        	<unknown>
     ed8: 05 00        	<unknown>
     eda: 04 00        	<unknown>
     edc: 02 00        	<unknown>
     ede: 00 00        	<unknown>
     ee0: 08 00        	<unknown>
     ee2: 00 00        	<unknown>
     ee4: 0e 00        	<unknown>
     ee6: 00 00        	<unknown>
     ee8: 04 00        	<unknown>
     eea: 10 01        	<unknown>
     eec: 5a 00        	<unknown>
     eee: 04 58        	<unknown>
     ef0: 60 01        	<unknown>
     ef2: 5a 00        	<unknown>

Disassembly of section .debug_abbrev:

00000000 <.debug_abbrev>:
       0: 01 11        	<unknown>
       2: 01 25        	<unknown>
       4: 25 13        	<unknown>
       6: 05 03        	<unknown>
       8: 25 72        	<unknown>
       a: 17 10 17 1b  	auipc	zero, 110961
       e: 25 11        	<unknown>
      10: 1b 12 06 73  	<unknown>
      14: 17 8c 01 17  	auipc	s8, 94232
      18: 00 00        	<unknown>
      1a: 02 34        	<unknown>
      1c: 00 03        	<unknown>
      1e: 25 49        	<unknown>
      20: 13 3f 19 3a  	sltiu	t5, s2, 929
      24: 0b 3b 0b 02  	<unknown>
      28: 18 00        	<unknown>
      2a: 00 03        	<unknown>
      2c: 01 01        	<unknown>
      2e: 49 13        	<unknown>
      30: 00 00        	<unknown>
      32: 04 21        	<unknown>
      34: 00 49        	<unknown>
      36: 13 37 05 00  	sltiu	a4, a0, 0
      3a: 00 05        	<unknown>
      3c: 35 00        	<unknown>
      3e: 49 13        	<unknown>
      40: 00 00        	<unknown>
      42: 06 16        	<unknown>
      44: 00 49        	<unknown>
      46: 13 03 25 3a  	addi	t1, a0, 930
      4a: 0b 3b 0b 00  	<unknown>
      4e: 00 07        	<unknown>
      50: 24 00        	<unknown>
      52: 03 25 3e 0b  	lw	a0, 179(t3)
      56: 0b 0b 00 00  	p.lb	s6, 0(zero!)
      5a: 08 24        	<unknown>
      5c: 00 03        	<unknown>
      5e: 25 0b        	<unknown>
      60: 0b 3e 0b 00  	<unknown>
      64: 00 09        	<unknown>
      66: 2e 01        	<unknown>
      68: 11 1b        	<unknown>
      6a: 12 06        	<unknown>
      6c: 40 18        	<unknown>
      6e: 7a 19        	<unknown>
      70: 31 13        	<unknown>
      72: 00 00        	<unknown>
      74: 0a 05        	<unknown>
      76: 00 02        	<unknown>
      78: 22 31        	<unknown>
      7a: 13 00 00 0b  	li	zero, 176
      7e: 05 00        	<unknown>
      80: 02 18        	<unknown>
      82: 31 13        	<unknown>
      84: 00 00        	<unknown>
      86: 0c 2e        	<unknown>
      88: 01 03        	<unknown>
      8a: 25 3a        	<unknown>
      8c: 0b 3b 0b 49  	<unknown>
      90: 13 20 21 01  	slti	zero, sp, 18
      94: 00 00        	<unknown>
      96: 0d 34        	<unknown>
      98: 00 03        	<unknown>
      9a: 25 3a        	<unknown>
      9c: 0b 3b 0b 49  	<unknown>
      a0: 13 00 00 0e  	li	zero, 224
      a4: 2e 01        	<unknown>
      a6: 03 25 3a 0b  	lw	a0, 179(s4)
      aa: 3b 0b 27 19  	<unknown>
      ae: 49 13        	<unknown>
      b0: 3f 19 20 21  	<unknown>
      b4: 01 00        	<unknown>
      b6: 00 0f        	<unknown>
      b8: 05 00        	<unknown>
      ba: 03 25 3a 0b  	lw	a0, 179(s4)
      be: 3b 0b 49 13  	<unknown>
      c2: 00 00        	<unknown>
      c4: 10 2e        	<unknown>
      c6: 01 11        	<unknown>
      c8: 1b 12 06 40  	<unknown>
      cc: 18 7a        	<unknown>
      ce: 19 03        	<unknown>
      d0: 25 3a        	<unknown>
      d2: 0b 3b 0b 49  	<unknown>
      d6: 13 3f 19 00  	seqz	t5, s2
      da: 00 11        	<unknown>
      dc: 34 00        	<unknown>
      de: 02 22        	<unknown>
      e0: 03 25 3a 0b  	lw	a0, 179(s4)
      e4: 3b 0b 49 13  	<unknown>
      e8: 00 00        	<unknown>
      ea: 12 1d        	<unknown>
      ec: 00 31        	<unknown>
      ee: 13 11 1b 12  	<unknown>
      f2: 06 58        	<unknown>
      f4: 0b 59 0b 57  	p.lhu	s2, 1392(s6!)
      f8: 0b 00 00 13  	p.lb	zero, 304(zero!)
      fc: 1d 01        	<unknown>
      fe: 31 13        	<unknown>
     100: 11 1b        	<unknown>
     102: 12 06        	<unknown>
     104: 58 0b        	<unknown>
     106: 59 0b        	<unknown>
     108: 57 0b 00 00  	pv.add.h	s6, zero, zero
     10c: 14 05        	<unknown>
     10e: 00 1c        	<unknown>
     110: 0f 31 13 00  	<unknown>
     114: 00 15        	<unknown>
     116: 48 00        	<unknown>
     118: 7f 13 7d 1b  	<unknown>
     11c: 00 00        	<unknown>
     11e: 16 2e        	<unknown>
     120: 01 03        	<unknown>
     122: 25 3a        	<unknown>
     124: 0b 3b 0b 27  	<unknown>
     128: 19 3c        	<unknown>
     12a: 19 3f        	<unknown>
     12c: 19 00        	<unknown>
     12e: 00 17        	<unknown>
     130: 05 00        	<unknown>
     132: 49 13        	<unknown>
     134: 00 00        	<unknown>
     136: 00 01        	<unknown>
     138: 11 01        	<unknown>
     13a: 25 25        	<unknown>
     13c: 13 05 03 25  	addi	a0, t1, 592
     140: 72 17        	<unknown>
     142: 10 17        	<unknown>
     144: 1b 25 11 1b  	<unknown>
     148: 12 06        	<unknown>
     14a: 73 17 74 17  	csrrw	a4, 375, s0
     14e: 8c 01        	<unknown>
     150: 17 00 00 02  	auipc	zero, 8192
     154: 34 00        	<unknown>
     156: 03 25 49 13  	lw	a0, 308(s2)
     15a: 3f 19 3a 0b  	<unknown>
     15e: 3b 0b 02 18  	<unknown>
     162: 00 00        	<unknown>
     164: 03 16 00 49  	lh	a2, 1168(zero)
     168: 13 03 25 3a  	addi	t1, a0, 930
     16c: 0b 3b 0b 00  	<unknown>
     170: 00 04        	<unknown>
     172: 13 01 0b 0b  	addi	sp, s6, 176
     176: 3a 0b        	<unknown>
     178: 3b 0b 00 00  	<unknown>
     17c: 05 0d        	<unknown>
     17e: 00 03        	<unknown>
     180: 25 49        	<unknown>
     182: 13 3a 0b 3b  	sltiu	s4, s6, 944
     186: 0b 38 0b 00  	<unknown>
     18a: 00 06        	<unknown>
     18c: 0f 00 49 13  	<unknown>
     190: 00 00        	<unknown>
     192: 07 13 01 03  	<unknown>
     196: 25 0b        	<unknown>
     198: 0b 3a 0b 3b  	<unknown>
     19c: 0b 00 00 08  	p.lb	zero, 128(zero!)
     1a0: 24 00        	<unknown>
     1a2: 03 25 3e 0b  	lw	a0, 179(t3)
     1a6: 0b 0b 00 00  	p.lb	s6, 0(zero!)
     1aa: 09 01        	<unknown>
     1ac: 01 49        	<unknown>
     1ae: 13 00 00 0a  	li	zero, 160
     1b2: 21 00        	<unknown>
     1b4: 49 13        	<unknown>
     1b6: 37 0b 00 00  	lui	s6, 0
     1ba: 0b 24 00 03  	p.lw	s0, 48(zero!)
     1be: 25 0b        	<unknown>
     1c0: 0b 3e 0b 00  	<unknown>
     1c4: 00 0c        	<unknown>
     1c6: 0f 00 00 00  	fence	unknown, unknown
     1ca: 0d 26        	<unknown>
     1cc: 00 49        	<unknown>
     1ce: 13 00 00 0e  	li	zero, 224
     1d2: 2e 01        	<unknown>
     1d4: 11 1b        	<unknown>
     1d6: 12 06        	<unknown>
     1d8: 40 18        	<unknown>
     1da: 7a 19        	<unknown>
     1dc: 03 25 3a 0b  	lw	a0, 179(s4)
     1e0: 3b 0b 27 19  	<unknown>
     1e4: 3f 19 00 00  	<unknown>
     1e8: 0f 05 00 02  	<unknown>
     1ec: 18 03        	<unknown>
     1ee: 25 3a        	<unknown>
     1f0: 0b 3b 0b 49  	<unknown>
     1f4: 13 00 00 10  	li	zero, 256
     1f8: 05 00        	<unknown>
     1fa: 02 22        	<unknown>
     1fc: 03 25 3a 0b  	lw	a0, 179(s4)
     200: 3b 0b 49 13  	<unknown>
     204: 00 00        	<unknown>
     206: 11 34        	<unknown>
     208: 00 02        	<unknown>
     20a: 22 03        	<unknown>
     20c: 25 3a        	<unknown>
     20e: 0b 3b 0b 49  	<unknown>
     212: 13 00 00 12  	li	zero, 288
     216: 2e 01        	<unknown>
     218: 03 25 3a 0b  	lw	a0, 179(s4)
     21c: 3b 0b 27 19  	<unknown>
     220: 49 13        	<unknown>
     222: 20 21        	<unknown>
     224: 01 00        	<unknown>
     226: 00 13        	<unknown>
     228: 05 00        	<unknown>
     22a: 03 25 3a 0b  	lw	a0, 179(s4)
     22e: 3b 0b 49 13  	<unknown>
     232: 00 00        	<unknown>
     234: 14 34        	<unknown>
     236: 00 03        	<unknown>
     238: 25 3a        	<unknown>
     23a: 0b 3b 0b 49  	<unknown>
     23e: 13 00 00 15  	li	zero, 336
     242: 0b 01 00 00  	p.lb	sp, 0(zero!)
     246: 16 26        	<unknown>
     248: 00 00        	<unknown>
     24a: 00 17        	<unknown>
     24c: 2e 01        	<unknown>
     24e: 11 1b        	<unknown>
     250: 12 06        	<unknown>
     252: 40 18        	<unknown>
     254: 7a 19        	<unknown>
     256: 31 13        	<unknown>
     258: 00 00        	<unknown>
     25a: 18 05        	<unknown>
     25c: 00 02        	<unknown>
     25e: 22 31        	<unknown>
     260: 13 00 00 19  	li	zero, 400
     264: 34 00        	<unknown>
     266: 02 22        	<unknown>
     268: 31 13        	<unknown>
     26a: 00 00        	<unknown>
     26c: 1a 1d        	<unknown>
     26e: 01 31        	<unknown>
     270: 13 55 23 58  	<unknown>
     274: 0b 59 0b 57  	p.lhu	s2, 1392(s6!)
     278: 0b 00 00 1b  	p.lb	zero, 432(zero!)
     27c: 0b 01 11 1b  	p.lb	sp, 433(sp!)
     280: 12 06        	<unknown>
     282: 00 00        	<unknown>
     284: 1c 1d        	<unknown>
     286: 01 31        	<unknown>
     288: 13 11 1b 12  	<unknown>
     28c: 06 58        	<unknown>
     28e: 0b 59 0b 57  	p.lhu	s2, 1392(s6!)
     292: 0b 00 00 1d  	p.lb	zero, 464(zero!)
     296: 48 00        	<unknown>
     298: 7f 13 7d 1b  	<unknown>
     29c: 00 00        	<unknown>
     29e: 1e 2e        	<unknown>
     2a0: 01 03        	<unknown>
     2a2: 25 3a        	<unknown>
     2a4: 0b 3b 0b 27  	<unknown>
     2a8: 19 49        	<unknown>
     2aa: 13 3c 19 3f  	sltiu	s8, s2, 1009
     2ae: 19 00        	<unknown>
     2b0: 00 1f        	<unknown>
     2b2: 05 00        	<unknown>
     2b4: 49 13        	<unknown>
     2b6: 00 00        	<unknown>
     2b8: 20 18        	<unknown>
     2ba: 00 00        	<unknown>
     2bc: 00 21        	<unknown>
     2be: 2e 01        	<unknown>
     2c0: 03 25 3a 0b  	lw	a0, 179(s4)
     2c4: 3b 0b 27 19  	<unknown>
     2c8: 49 13        	<unknown>
     2ca: 3f 19 20 21  	<unknown>
     2ce: 01 00        	<unknown>
     2d0: 00 22        	<unknown>
     2d2: 2e 01        	<unknown>
     2d4: 11 1b        	<unknown>
     2d6: 12 06        	<unknown>
     2d8: 40 18        	<unknown>
     2da: 7a 19        	<unknown>
     2dc: 03 25 3a 0b  	lw	a0, 179(s4)
     2e0: 3b 0b 27 19  	<unknown>
     2e4: 49 13        	<unknown>
     2e6: 3f 19 00 00  	<unknown>
     2ea: 23 2e 01 03  	sw	a6, 60(sp)
     2ee: 25 3a        	<unknown>
     2f0: 0b 3b 0b 27  	<unknown>
     2f4: 19 20        	<unknown>
     2f6: 21 01        	<unknown>
     2f8: 00 00        	<unknown>
     2fa: 24 05        	<unknown>
     2fc: 00 02        	<unknown>
     2fe: 18 31        	<unknown>
     300: 13 00 00 25  	li	zero, 592
     304: 48 00        	<unknown>
     306: 7f 13 82 01  	<unknown>
     30a: 19 81        	<unknown>
     30c: 01 1b        	<unknown>
     30e: 00 00        	<unknown>
     310: 26 2e        	<unknown>
     312: 01 03        	<unknown>
     314: 25 3a        	<unknown>
     316: 0b 3b 0b 27  	<unknown>
     31a: 19 3f        	<unknown>
     31c: 19 20        	<unknown>
     31e: 21 01        	<unknown>
     320: 00 00        	<unknown>
     322: 27 2e 00 11  	fsw	fa6, 284(zero)
     326: 1b 12 06 40  	<unknown>
     32a: 18 7a        	<unknown>
     32c: 19 03        	<unknown>
     32e: 25 3a        	<unknown>
     330: 0b 3b 0b 49  	<unknown>
     334: 13 3f 19 00  	seqz	t5, s2
     338: 00 00        	<unknown>
     33a: 01 11        	<unknown>
     33c: 01 10        	<unknown>
     33e: 17 11 01 12  	auipc	sp, 73745
     342: 01 03        	<unknown>
     344: 08 1b        	<unknown>
     346: 08 25        	<unknown>
     348: 08 13        	<unknown>
     34a: 05 00        	<unknown>
     34c: 00 02        	<unknown>
     34e: 0a 00        	<unknown>
     350: 03 08 3a 06  	lb	a6, 99(s4)
     354: 3b 06 11 01  	<unknown>
     358: 00 00        	<unknown>
     35a: 00 01        	<unknown>
     35c: 11 01        	<unknown>
     35e: 25 25        	<unknown>
     360: 13 05 03 25  	addi	a0, t1, 592
     364: 72 17        	<unknown>
     366: 10 17        	<unknown>
     368: 1b 25 11 1b  	<unknown>
     36c: 12 06        	<unknown>
     36e: 73 17 74 17  	csrrw	a4, 375, s0
     372: 8c 01        	<unknown>
     374: 17 00 00 02  	auipc	zero, 8192
     378: 24 00        	<unknown>
     37a: 03 25 3e 0b  	lw	a0, 179(t3)
     37e: 0b 0b 00 00  	p.lb	s6, 0(zero!)
     382: 03 16 00 49  	lh	a2, 1168(zero)
     386: 13 03 25 3a  	addi	t1, a0, 930
     38a: 0b 3b 0b 00  	<unknown>
     38e: 00 04        	<unknown>
     390: 0f 00 49 13  	<unknown>
     394: 00 00        	<unknown>
     396: 05 13        	<unknown>
     398: 01 0b        	<unknown>
     39a: 0b 3a 0b 3b  	<unknown>
     39e: 0b 00 00 06  	p.lb	zero, 96(zero!)
     3a2: 0d 00        	<unknown>
     3a4: 03 25 49 13  	lw	a0, 308(s2)
     3a8: 3a 0b        	<unknown>
     3aa: 3b 0b 38 0b  	<unknown>
     3ae: 00 00        	<unknown>
     3b0: 07 15 01 27  	<unknown>
     3b4: 19 00        	<unknown>
     3b6: 00 08        	<unknown>
     3b8: 05 00        	<unknown>
     3ba: 49 13        	<unknown>
     3bc: 00 00        	<unknown>
     3be: 09 0f        	<unknown>
     3c0: 00 00        	<unknown>
     3c2: 00 0a        	<unknown>
     3c4: 2e 01        	<unknown>
     3c6: 11 1b        	<unknown>
     3c8: 12 06        	<unknown>
     3ca: 40 18        	<unknown>
     3cc: 7a 19        	<unknown>
     3ce: 03 25 3a 0b  	lw	a0, 179(s4)
     3d2: 3b 05 27 19  	<unknown>
     3d6: 49 13        	<unknown>
     3d8: 3f 19 00 00  	<unknown>
     3dc: 0b 05 00 02  	p.lb	a0, 32(zero!)
     3e0: 22 03        	<unknown>
     3e2: 25 3a        	<unknown>
     3e4: 0b 3b 05 49  	<unknown>
     3e8: 13 00 00 0c  	li	zero, 192
     3ec: 34 00        	<unknown>
     3ee: 02 18        	<unknown>
     3f0: 03 25 3a 0b  	lw	a0, 179(s4)
     3f4: 3b 05 49 13  	<unknown>
     3f8: 00 00        	<unknown>
     3fa: 0d 34        	<unknown>
     3fc: 00 02        	<unknown>
     3fe: 22 03        	<unknown>
     400: 25 3a        	<unknown>
     402: 0b 3b 05 49  	<unknown>
     406: 13 00 00 0e  	li	zero, 224
     40a: 18 00        	<unknown>
     40c: 00 00        	<unknown>
     40e: 0f 48 00 7f  	<unknown>
     412: 13 7d 1b 00  	andi	s10, s6, 1
     416: 00 10        	<unknown>
     418: 2e 01        	<unknown>
     41a: 11 1b        	<unknown>
     41c: 12 06        	<unknown>
     41e: 40 18        	<unknown>
     420: 7a 19        	<unknown>
     422: 03 25 3a 0b  	lw	a0, 179(s4)
     426: 3b 05 27 19  	<unknown>
     42a: 49 13        	<unknown>
     42c: 00 00        	<unknown>
     42e: 11 1d        	<unknown>
     430: 01 31        	<unknown>
     432: 13 11 1b 12  	<unknown>
     436: 06 58        	<unknown>
     438: 0b 59 05 57  	p.lhu	s2, 1392(a0!)
     43c: 0b 00 00 12  	p.lb	zero, 288(zero!)
     440: 05 00        	<unknown>
     442: 02 18        	<unknown>
     444: 31 13        	<unknown>
     446: 00 00        	<unknown>
     448: 13 34 00 02  	sltiu	s0, zero, 32
     44c: 18 31        	<unknown>
     44e: 13 00 00 14  	li	zero, 320
     452: 1d 01        	<unknown>
     454: 31 13        	<unknown>
     456: 11 1b        	<unknown>
     458: 12 06        	<unknown>
     45a: 58 0b        	<unknown>
     45c: 59 0b        	<unknown>
     45e: 57 0b 00 00  	pv.add.h	s6, zero, zero
     462: 15 0b        	<unknown>
     464: 01 11        	<unknown>
     466: 1b 12 06 00  	<unknown>
     46a: 00 16        	<unknown>
     46c: 0b 01 55 23  	p.lb	sp, 565(a0!)
     470: 00 00        	<unknown>
     472: 17 1d 01 31  	auipc	s10, 200721
     476: 13 55 23 58  	<unknown>
     47a: 0b 59 05 57  	p.lhu	s2, 1392(a0!)
     47e: 0b 00 00 18  	p.lb	zero, 384(zero!)
     482: 05 00        	<unknown>
     484: 02 22        	<unknown>
     486: 31 13        	<unknown>
     488: 00 00        	<unknown>
     48a: 19 34        	<unknown>
     48c: 00 02        	<unknown>
     48e: 22 31        	<unknown>
     490: 13 00 00 1a  	li	zero, 416
     494: 48 00        	<unknown>
     496: 83 01 18 7d  	lb	gp, 2001(a6)
     49a: 1b 00 00 1b  	<unknown>
     49e: 2e 01        	<unknown>
     4a0: 03 25 3a 0b  	lw	a0, 179(s4)
     4a4: 3b 0b 27 19  	<unknown>
     4a8: 49 13        	<unknown>
     4aa: 20 21        	<unknown>
     4ac: 01 00        	<unknown>
     4ae: 00 1c        	<unknown>
     4b0: 05 00        	<unknown>
     4b2: 03 25 3a 0b  	lw	a0, 179(s4)
     4b6: 3b 0b 49 13  	<unknown>
     4ba: 00 00        	<unknown>
     4bc: 1d 34        	<unknown>
     4be: 00 03        	<unknown>
     4c0: 25 3a        	<unknown>
     4c2: 0b 3b 0b 49  	<unknown>
     4c6: 13 00 00 1e  	li	zero, 480
     4ca: 26 00        	<unknown>
     4cc: 49 13        	<unknown>
     4ce: 00 00        	<unknown>
     4d0: 1f 2e 01 11  	<unknown>
     4d4: 1b 12 06 40  	<unknown>
     4d8: 18 7a        	<unknown>
     4da: 19 03        	<unknown>
     4dc: 25 3a        	<unknown>
     4de: 0b 3b 0b 27  	<unknown>
     4e2: 19 49        	<unknown>
     4e4: 13 00 00 20  	li	zero, 512
     4e8: 05 00        	<unknown>
     4ea: 02 22        	<unknown>
     4ec: 03 25 3a 0b  	lw	a0, 179(s4)
     4f0: 3b 0b 49 13  	<unknown>
     4f4: 00 00        	<unknown>
     4f6: 21 34        	<unknown>
     4f8: 00 02        	<unknown>
     4fa: 18 03        	<unknown>
     4fc: 25 3a        	<unknown>
     4fe: 0b 3b 0b 49  	<unknown>
     502: 13 00 00 22  	li	zero, 544
     506: 34 00        	<unknown>
     508: 02 22        	<unknown>
     50a: 03 25 3a 0b  	lw	a0, 179(s4)
     50e: 3b 0b 49 13  	<unknown>
     512: 00 00        	<unknown>
     514: 23 34 00 03  	<unknown>
     518: 25 3a        	<unknown>
     51a: 0b 3b 05 49  	<unknown>
     51e: 13 00 00 24  	li	zero, 576
     522: 2e 01        	<unknown>
     524: 11 1b        	<unknown>
     526: 12 06        	<unknown>
     528: 40 18        	<unknown>
     52a: 7a 19        	<unknown>
     52c: 03 25 3a 0b  	lw	a0, 179(s4)
     530: 3b 0b 27 19  	<unknown>
     534: 00 00        	<unknown>
     536: 25 05        	<unknown>
     538: 00 02        	<unknown>
     53a: 18 03        	<unknown>
     53c: 25 3a        	<unknown>
     53e: 0b 3b 0b 49  	<unknown>
     542: 13 00 00 26  	li	zero, 608
     546: 48 00        	<unknown>
     548: 7f 13 82 01  	<unknown>
     54c: 19 81        	<unknown>
     54e: 01 1b        	<unknown>
     550: 00 00        	<unknown>
     552: 27 48 00 83  	<unknown>
     556: 01 18        	<unknown>
     558: 82 01        	<unknown>
     55a: 19 81        	<unknown>
     55c: 01 1b        	<unknown>
     55e: 00 00        	<unknown>
     560: 28 0b        	<unknown>
     562: 01 00        	<unknown>
     564: 00 29        	<unknown>
     566: 01 01        	<unknown>
     568: 49 13        	<unknown>
     56a: 00 00        	<unknown>
     56c: 2a 21        	<unknown>
     56e: 00 49        	<unknown>
     570: 13 37 0b 00  	sltiu	a4, s6, 0
     574: 00 2b        	<unknown>
     576: 24 00        	<unknown>
     578: 03 25 0b 0b  	lw	a0, 176(s6)
     57c: 3e 0b        	<unknown>
     57e: 00 00        	<unknown>
     580: 2c 16        	<unknown>
     582: 00 49        	<unknown>
     584: 13 03 25 00  	addi	t1, a0, 2
     588: 00 00        	<unknown>
     58a: 01 11        	<unknown>
     58c: 01 25        	<unknown>
     58e: 25 13        	<unknown>
     590: 05 03        	<unknown>
     592: 25 72        	<unknown>
     594: 17 10 17 1b  	auipc	zero, 110961
     598: 25 11        	<unknown>
     59a: 1b 12 06 73  	<unknown>
     59e: 17 00 00 02  	auipc	zero, 8192
     5a2: 2e 01        	<unknown>
     5a4: 11 1b        	<unknown>
     5a6: 12 06        	<unknown>
     5a8: 40 18        	<unknown>
     5aa: 7a 19        	<unknown>
     5ac: 03 25 3a 0b  	lw	a0, 179(s4)
     5b0: 3b 0b 27 19  	<unknown>
     5b4: 3f 19 00 00  	<unknown>
     5b8: 03 05 00 02  	lb	a0, 32(zero)
     5bc: 18 03        	<unknown>
     5be: 25 3a        	<unknown>
     5c0: 0b 3b 0b 49  	<unknown>
     5c4: 13 00 00 04  	li	zero, 64
     5c8: 24 00        	<unknown>
     5ca: 03 25 3e 0b  	lw	a0, 179(t3)
     5ce: 0b 0b 00 00  	p.lb	s6, 0(zero!)
     5d2: 00 01        	<unknown>
     5d4: 11 01        	<unknown>
     5d6: 25 25        	<unknown>
     5d8: 13 05 03 25  	addi	a0, t1, 592
     5dc: 72 17        	<unknown>
     5de: 10 17        	<unknown>
     5e0: 1b 25 11 1b  	<unknown>
     5e4: 12 06        	<unknown>
     5e6: 73 17 8c 01  	csrrw	a4, 24, s8
     5ea: 17 00 00 02  	auipc	zero, 8192
     5ee: 16 00        	<unknown>
     5f0: 49 13        	<unknown>
     5f2: 03 25 3a 0b  	lw	a0, 179(s4)
     5f6: 3b 0b 00 00  	<unknown>
     5fa: 03 24 00 03  	lw	s0, 48(zero)
     5fe: 25 3e        	<unknown>
     600: 0b 0b 0b 00  	p.lb	s6, 0(s6!)
     604: 00 04        	<unknown>
     606: 0f 00 49 13  	<unknown>
     60a: 00 00        	<unknown>
     60c: 05 26        	<unknown>
     60e: 00 00        	<unknown>
     610: 00 06        	<unknown>
     612: 26 00        	<unknown>
     614: 49 13        	<unknown>
     616: 00 00        	<unknown>
     618: 07 2e 01 11  	flw	ft8, 272(sp)
     61c: 1b 12 06 40  	<unknown>
     620: 18 7a        	<unknown>
     622: 19 03        	<unknown>
     624: 25 3a        	<unknown>
     626: 0b 3b 0b 27  	<unknown>
     62a: 19 49        	<unknown>
     62c: 13 3f 19 00  	seqz	t5, s2
     630: 00 08        	<unknown>
     632: 05 00        	<unknown>
     634: 02 18        	<unknown>
     636: 03 25 3a 0b  	lw	a0, 179(s4)
     63a: 3b 0b 49 13  	<unknown>
     63e: 00 00        	<unknown>
     640: 09 05        	<unknown>
     642: 00 02        	<unknown>
     644: 22 03        	<unknown>
     646: 25 3a        	<unknown>
     648: 0b 3b 0b 49  	<unknown>
     64c: 13 00 00 0a  	li	zero, 160
     650: 0b 01 11 1b  	p.lb	sp, 433(sp!)
     654: 12 06        	<unknown>
     656: 00 00        	<unknown>
     658: 0b 34 00 02  	<unknown>
     65c: 22 03        	<unknown>
     65e: 25 3a        	<unknown>
     660: 0b 3b 0b 49  	<unknown>
     664: 13 00 00 0c  	li	zero, 192
     668: 34 00        	<unknown>
     66a: 02 18        	<unknown>
     66c: 03 25 3a 0b  	lw	a0, 179(s4)
     670: 3b 0b 49 13  	<unknown>
     674: 00 00        	<unknown>
     676: 0d 34        	<unknown>
     678: 00 03        	<unknown>
     67a: 25 3a        	<unknown>
     67c: 0b 3b 0b 49  	<unknown>
     680: 13 00 00 0e  	li	zero, 224
     684: 0f 00 00 00  	fence	unknown, unknown
     688: 00 01        	<unknown>
     68a: 11 01        	<unknown>
     68c: 25 25        	<unknown>
     68e: 13 05 03 25  	addi	a0, t1, 592
     692: 72 17        	<unknown>
     694: 10 17        	<unknown>
     696: 1b 25 11 1b  	<unknown>
     69a: 12 06        	<unknown>
     69c: 73 17 8c 01  	csrrw	a4, 24, s8
     6a0: 17 00 00 02  	auipc	zero, 8192
     6a4: 34 00        	<unknown>
     6a6: 03 25 49 13  	lw	a0, 308(s2)
     6aa: 3f 19 3a 0b  	<unknown>
     6ae: 3b 0b 02 18  	<unknown>
     6b2: 00 00        	<unknown>
     6b4: 03 35 00 49  	<unknown>
     6b8: 13 00 00 04  	li	zero, 64
     6bc: 16 00        	<unknown>
     6be: 49 13        	<unknown>
     6c0: 03 25 3a 0b  	lw	a0, 179(s4)
     6c4: 3b 0b 00 00  	<unknown>
     6c8: 05 24        	<unknown>
     6ca: 00 03        	<unknown>
     6cc: 25 3e        	<unknown>
     6ce: 0b 0b 0b 00  	p.lb	s6, 0(s6!)
     6d2: 00 06        	<unknown>
     6d4: 34 00        	<unknown>
     6d6: 03 25 49 13  	lw	a0, 308(s2)
     6da: 3f 19 3a 0b  	<unknown>
     6de: 3b 0b 88 01  	<unknown>
     6e2: 0f 02 18 00  	<unknown>
     6e6: 00 07        	<unknown>
     6e8: 01 01        	<unknown>
     6ea: 49 13        	<unknown>
     6ec: 00 00        	<unknown>
     6ee: 08 21        	<unknown>
     6f0: 00 49        	<unknown>
     6f2: 13 37 05 00  	sltiu	a4, a0, 0
     6f6: 00 09        	<unknown>
     6f8: 24 00        	<unknown>
     6fa: 03 25 0b 0b  	lw	a0, 176(s6)
     6fe: 3e 0b        	<unknown>
     700: 00 00        	<unknown>
     702: 0a 2e        	<unknown>
     704: 00 03        	<unknown>
     706: 25 3a        	<unknown>
     708: 0b 3b 0b 20  	<unknown>
     70c: 21 01        	<unknown>
     70e: 00 00        	<unknown>
     710: 0b 2e 01 03  	p.lw	t3, 48(sp!)
     714: 25 3a        	<unknown>
     716: 0b 3b 0b 27  	<unknown>
     71a: 19 20        	<unknown>
     71c: 21 01        	<unknown>
     71e: 00 00        	<unknown>
     720: 0c 05        	<unknown>
     722: 00 03        	<unknown>
     724: 25 3a        	<unknown>
     726: 0b 3b 0b 49  	<unknown>
     72a: 13 00 00 0d  	li	zero, 208
     72e: 2e 01        	<unknown>
     730: 03 25 3a 0b  	lw	a0, 179(s4)
     734: 3b 0b 27 19  	<unknown>
     738: 3f 19 20 21  	<unknown>
     73c: 01 00        	<unknown>
     73e: 00 0e        	<unknown>
     740: 2e 01        	<unknown>
     742: 11 1b        	<unknown>
     744: 12 06        	<unknown>
     746: 40 18        	<unknown>
     748: 7a 19        	<unknown>
     74a: 03 25 3a 0b  	lw	a0, 179(s4)
     74e: 3b 0b 27 19  	<unknown>
     752: 3f 19 00 00  	<unknown>
     756: 0f 05 00 02  	<unknown>
     75a: 22 03        	<unknown>
     75c: 25 3a        	<unknown>
     75e: 0b 3b 0b 49  	<unknown>
     762: 13 00 00 10  	li	zero, 256
     766: 1d 00        	<unknown>
     768: 31 13        	<unknown>
     76a: 11 1b        	<unknown>
     76c: 12 06        	<unknown>
     76e: 58 0b        	<unknown>
     770: 59 0b        	<unknown>
     772: 57 0b 00 00  	pv.add.h	s6, zero, zero
     776: 11 1d        	<unknown>
     778: 01 31        	<unknown>
     77a: 13 11 1b 12  	<unknown>
     77e: 06 58        	<unknown>
     780: 0b 59 0b 57  	p.lhu	s2, 1392(s6!)
     784: 0b 00 00 12  	p.lb	zero, 288(zero!)
     788: 05 00        	<unknown>
     78a: 1c 0f        	<unknown>
     78c: 31 13        	<unknown>
     78e: 00 00        	<unknown>
     790: 13 2e 01 11  	slti	t3, sp, 272
     794: 1b 12 06 40  	<unknown>
     798: 18 7a        	<unknown>
     79a: 19 31        	<unknown>
     79c: 13 00 00 14  	li	zero, 320
     7a0: 05 00        	<unknown>
     7a2: 02 22        	<unknown>
     7a4: 31 13        	<unknown>
     7a6: 00 00        	<unknown>
     7a8: 00           	<unknown>

Disassembly of section .debug_info:

00000000 <.debug_info>:
       0: 44 01        	<unknown>
       2: 00 00        	<unknown>
       4: 05 00        	<unknown>
       6: 01 04        	<unknown>
       8: 00 00        	<unknown>
       a: 00 00        	<unknown>
       c: 01 00        	<unknown>
       e: 0c 00        	<unknown>
      10: 01 08        	<unknown>
      12: 00 00        	<unknown>
      14: 00 00        	<unknown>
      16: 00 00        	<unknown>
      18: 00 02        	<unknown>
      1a: 01 88        	<unknown>
      1c: 00 00        	<unknown>
      1e: 00 08        	<unknown>
      20: 00 00        	<unknown>
      22: 00 0c        	<unknown>
      24: 00 00        	<unknown>
      26: 00 02        	<unknown>
      28: 03 32 00 00  	<unknown>
      2c: 00 00        	<unknown>
      2e: 0d 02        	<unknown>
      30: a1 00        	<unknown>
      32: 03 3f 00 00  	<unknown>
      36: 00 04        	<unknown>
      38: 58 00        	<unknown>
      3a: 00 00        	<unknown>
      3c: 00 01        	<unknown>
      3e: 00 05        	<unknown>
      40: 44 00        	<unknown>
      42: 00 00        	<unknown>
      44: 06 4c        	<unknown>
      46: 00 00        	<unknown>
      48: 00 06        	<unknown>
      4a: 02 30        	<unknown>
      4c: 06 54        	<unknown>
      4e: 00 00        	<unknown>
      50: 00 05        	<unknown>
      52: 01 4f        	<unknown>
      54: 07 04 07 04  	flb	fs0, 64(a4)
      58: 08 07        	<unknown>
      5a: 08 07        	<unknown>
      5c: 09 01        	<unknown>
      5e: 08 00        	<unknown>
      60: 00 00        	<unknown>
      62: 01 52        	<unknown>
      64: 8f 00 00 00  	<unknown>
      68: 0a 00        	<unknown>
      6a: 97 00 00 00  	auipc	ra, 0
      6e: 0b 01 5b 9f  	p.lb	sp, -1547(s6!)
      72: 00 00        	<unknown>
      74: 00 00        	<unknown>
      76: 0c 08        	<unknown>
      78: 03 25 87 00  	lw	a0, 8(a4)
      7c: 00 00        	<unknown>
      7e: 0d 0a        	<unknown>
      80: 03 26 87 00  	lw	a2, 8(a4)
      84: 00 00        	<unknown>
      86: 00 06        	<unknown>
      88: 44 00        	<unknown>
      8a: 00 00        	<unknown>
      8c: 09 03        	<unknown>
      8e: 1e 0e        	<unknown>
      90: 0b 00 0f 44  	p.lb	zero, 1088(t5!)
      94: 00 00        	<unknown>
      96: 00 0f        	<unknown>
      98: 0c 00        	<unknown>
      9a: 0f 44 00 00  	<unknown>
      9e: 00 0f        	<unknown>
      a0: 0d 00        	<unknown>
      a2: 0f 44 00 00  	<unknown>
      a6: 00 00        	<unknown>
      a8: 10 02        	<unknown>
      aa: 80 00        	<unknown>
      ac: 00 00        	<unknown>
      ae: 01 52        	<unknown>
      b0: 10 00        	<unknown>
      b2: 13 33 01 00  	sltiu	t1, sp, 0
      b6: 00 11        	<unknown>
      b8: 01 0c        	<unknown>
      ba: 00 17        	<unknown>
      bc: 44 00        	<unknown>
      be: 00 00        	<unknown>
      c0: 11 02        	<unknown>
      c2: 12 00        	<unknown>
      c4: 16 37        	<unknown>
      c6: 01 00        	<unknown>
      c8: 00 11        	<unknown>
      ca: 03 15 00 15  	lh	a0, 336(zero)
      ce: 44 00        	<unknown>
      d0: 00 00        	<unknown>
      d2: 11 04        	<unknown>
      d4: 0d 00        	<unknown>
      d6: 14 44        	<unknown>
      d8: 00 00        	<unknown>
      da: 00 11        	<unknown>
      dc: 05 16        	<unknown>
      de: 00 23        	<unknown>
      e0: 44 00        	<unknown>
      e2: 00 00        	<unknown>
      e4: 12 76        	<unknown>
      e6: 00 00        	<unknown>
      e8: 00 03        	<unknown>
      ea: 10 00        	<unknown>
      ec: 00 00        	<unknown>
      ee: 00 14        	<unknown>
      f0: 16 13        	<unknown>
      f2: 8f 00 00 00  	<unknown>
      f6: 04 04        	<unknown>
      f8: 00 00        	<unknown>
      fa: 00 00        	<unknown>
      fc: 1d 15        	<unknown>
      fe: 14 04        	<unknown>
     100: 97 00 00 00  	auipc	ra, 0
     104: 0b 01 58 9f  	p.lb	sp, -1547(a6!)
     108: 00 00        	<unknown>
     10a: 00 00        	<unknown>
     10c: 15 1f        	<unknown>
     10e: 01 00        	<unknown>
     110: 00 04        	<unknown>
     112: 15 29        	<unknown>
     114: 01 00        	<unknown>
     116: 00 05        	<unknown>
     118: 15 29        	<unknown>
     11a: 01 00        	<unknown>
     11c: 00 06        	<unknown>
     11e: 00 16        	<unknown>
     120: 0e 04        	<unknown>
     122: 0b 17 44 00  	p.lh	a4, 4(s0!)
     126: 00 00        	<unknown>
     128: 00 16        	<unknown>
     12a: 0f 04 0c 17  	<unknown>
     12e: 44 00        	<unknown>
     130: 00 00        	<unknown>
     132: 00 07        	<unknown>
     134: 11 05        	<unknown>
     136: 04 06        	<unknown>
     138: 3f 01 00 00  	<unknown>
     13c: 14 02        	<unknown>
     13e: 2c 06        	<unknown>
     140: 33 01 00 00  	add	sp, zero, zero
     144: 13 01 4d 00  	addi	sp, s10, 4
     148: 91 04        	<unknown>
     14a: 00 00        	<unknown>
     14c: 05 00        	<unknown>
     14e: 01 04        	<unknown>
     150: 37 01 00 00  	lui	sp, 0
     154: 01 00        	<unknown>
     156: 0c 00        	<unknown>
     158: 01 6c        	<unknown>
     15a: 00 00        	<unknown>
     15c: 00 31        	<unknown>
     15e: 01 00        	<unknown>
     160: 00 02        	<unknown>
     162: 02 18        	<unknown>
     164: 04 00        	<unknown>
     166: 00 2c        	<unknown>
     168: 00 00        	<unknown>
     16a: 00 0c        	<unknown>
     16c: 00 00        	<unknown>
     16e: 00 60        	<unknown>
     170: 00 00        	<unknown>
     172: 00 02        	<unknown>
     174: 03 36 00 00  	<unknown>
     178: 00 04        	<unknown>
     17a: 20 02        	<unknown>
     17c: a1 00        	<unknown>
     17e: 03 3e 00 00  	<unknown>
     182: 00 0c        	<unknown>
     184: 03 1c 04 04  	lh	s8, 64(s0)
     188: 03 1a 05 04  	lh	s4, 64(a0)
     18c: 4c 00        	<unknown>
     18e: 00 00        	<unknown>
     190: 03 1b 00 00  	lh	s6, 0(zero)
     194: 06 51        	<unknown>
     196: 00 00        	<unknown>
     198: 00 03        	<unknown>
     19a: 59 00        	<unknown>
     19c: 00 00        	<unknown>
     19e: 0b 03 17 07  	p.lb	t1, 113(a4!)
     1a2: 0a 08        	<unknown>
     1a4: 03 14 05 05  	lh	s0, 80(a0)
     1a8: 71 00        	<unknown>
     1aa: 00 00        	<unknown>
     1ac: 03 15 00 05  	lh	a0, 80(zero)
     1b0: 09 85        	<unknown>
     1b2: 00 00        	<unknown>
     1b4: 00 03        	<unknown>
     1b6: 16 04        	<unknown>
     1b8: 00 03        	<unknown>
     1ba: 79 00        	<unknown>
     1bc: 00 00        	<unknown>
     1be: 08 02        	<unknown>
     1c0: 30 03        	<unknown>
     1c2: 81 00        	<unknown>
     1c4: 00 00        	<unknown>
     1c6: 07 01 4f 08  	flb	ft2, 132(t5)
     1ca: 06 07        	<unknown>
     1cc: 04 06        	<unknown>
     1ce: 59 00        	<unknown>
     1d0: 00 00        	<unknown>
     1d2: 02 0d        	<unknown>
     1d4: 95 00        	<unknown>
     1d6: 00 00        	<unknown>
     1d8: 04 23        	<unknown>
     1da: 02 a1        	<unknown>
     1dc: 01 09        	<unknown>
     1de: 36 00        	<unknown>
     1e0: 00 00        	<unknown>
     1e2: 0a a1        	<unknown>
     1e4: 00 00        	<unknown>
     1e6: 00 40        	<unknown>
     1e8: 00 0b        	<unknown>
     1ea: 0e 08        	<unknown>
     1ec: 07 0c 06 71  	flb	fs8, 1808(a2)
     1f0: 00 00        	<unknown>
     1f2: 00 06        	<unknown>
     1f4: b0 00        	<unknown>
     1f6: 00 00        	<unknown>
     1f8: 0d 71        	<unknown>
     1fa: 00 00        	<unknown>
     1fc: 00 06        	<unknown>
     1fe: ba 00        	<unknown>
     200: 00 00        	<unknown>
     202: 08 0f        	<unknown>
     204: 08 01        	<unknown>
     206: 0e 02        	<unknown>
     208: 28 00        	<unknown>
     20a: 00 00        	<unknown>
     20c: 01 52        	<unknown>
     20e: 26 04        	<unknown>
     210: 3d 0f        	<unknown>
     212: 01 5a        	<unknown>
     214: 11 04        	<unknown>
     216: 3d 35        	<unknown>
     218: 01 00        	<unknown>
     21a: 00 10        	<unknown>
     21c: 00 2c        	<unknown>
     21e: 04 3d        	<unknown>
     220: a5 00        	<unknown>
     222: 00 00        	<unknown>
     224: 0f 01 5c 05  	<unknown>
     228: 04 3d        	<unknown>
     22a: b0 00        	<unknown>
     22c: 00 00        	<unknown>
     22e: 11 01        	<unknown>
     230: 1c 04        	<unknown>
     232: 40 4c        	<unknown>
     234: 00 00        	<unknown>
     236: 00 11        	<unknown>
     238: 02 2d        	<unknown>
     23a: 04 3f        	<unknown>
     23c: 71 00        	<unknown>
     23e: 00 00        	<unknown>
     240: 11 03        	<unknown>
     242: 1b 04 43 71  	<unknown>
     246: 00 00        	<unknown>
     248: 00 00        	<unknown>
     24a: 12 10        	<unknown>
     24c: 04 4f        	<unknown>
     24e: a5 00        	<unknown>
     250: 00 00        	<unknown>
     252: 13 11 04 4f  	<unknown>
     256: 35 01        	<unknown>
     258: 00 00        	<unknown>
     25a: 13 05 04 4f  	addi	a0, s0, 1264
     25e: b0 00        	<unknown>
     260: 00 00        	<unknown>
     262: 14 12        	<unknown>
     264: 04 51        	<unknown>
     266: 4c 00        	<unknown>
     268: 00 00        	<unknown>
     26a: 14 13        	<unknown>
     26c: 04 52        	<unknown>
     26e: 4c 00        	<unknown>
     270: 00 00        	<unknown>
     272: 15 14        	<unknown>
     274: 14 04        	<unknown>
     276: 65 4c        	<unknown>
     278: 00 00        	<unknown>
     27a: 00 00        	<unknown>
     27c: 00 06        	<unknown>
     27e: 36 00        	<unknown>
     280: 00 00        	<unknown>
     282: 12 15        	<unknown>
     284: 04 31        	<unknown>
     286: 71 00        	<unknown>
     288: 00 00        	<unknown>
     28a: 13 16 04 31  	<unknown>
     28e: 53 01 00 00  	fadd.s	sp, zero, zero, rne
     292: 13 05 04 32  	addi	a0, s0, 800
     296: b0 00        	<unknown>
     298: 00 00        	<unknown>
     29a: 00 0d        	<unknown>
     29c: 58 01        	<unknown>
     29e: 00 00        	<unknown>
     2a0: 06 5d        	<unknown>
     2a2: 01 00        	<unknown>
     2a4: 00 16        	<unknown>
     2a6: 17 03 f0 00  	auipc	t1, 3840
     2aa: 00 00        	<unknown>
     2ac: 01 52        	<unknown>
     2ae: fb 01 00 00  	<unknown>
     2b2: 18 04        	<unknown>
     2b4: 03 02 00 00  	lb	tp, 0(zero)
     2b8: 18 05        	<unknown>
     2ba: 0b 02 00 00  	p.lb	tp, 0(zero!)
     2be: 19 06        	<unknown>
     2c0: 13 02 00 00  	li	tp, 0
     2c4: 19 07        	<unknown>
     2c6: 1b 02 00 00  	<unknown>
     2ca: 19 0c        	<unknown>
     2cc: 23 02 00 00  	sb	zero, 4(zero)
     2d0: 19 0f        	<unknown>
     2d2: 2b 02 00 00  	p.sb	zero, 4(zero!)
     2d6: 1a 02        	<unknown>
     2d8: 01 00        	<unknown>
     2da: 00 00        	<unknown>
     2dc: 04 84        	<unknown>
     2de: 15 18        	<unknown>
     2e0: 08 0a        	<unknown>
     2e2: 01 00        	<unknown>
     2e4: 00 18        	<unknown>
     2e6: 09 12        	<unknown>
     2e8: 01 00        	<unknown>
     2ea: 00 19        	<unknown>
     2ec: 0a 1a        	<unknown>
     2ee: 01 00        	<unknown>
     2f0: 00 19        	<unknown>
     2f2: 0b 22 01 00  	p.lw	tp, 0(sp!)
     2f6: 00 1b        	<unknown>
     2f8: 04 34        	<unknown>
     2fa: 00 00        	<unknown>
     2fc: 00 19        	<unknown>
     2fe: 0d 2b        	<unknown>
     300: 01 00        	<unknown>
     302: 00 00        	<unknown>
     304: 00 1c        	<unknown>
     306: 3a 01        	<unknown>
     308: 00 00        	<unknown>
     30a: 05 0c        	<unknown>
     30c: 00 00        	<unknown>
     30e: 00 04        	<unknown>
     310: 8b 1e 18 0e  	p.lh	t4, 225(a6!)
     314: 4a 01        	<unknown>
     316: 00 00        	<unknown>
     318: 00 1d        	<unknown>
     31a: de 01        	<unknown>
     31c: 00 00        	<unknown>
     31e: 06 1d        	<unknown>
     320: de 01        	<unknown>
     322: 00 00        	<unknown>
     324: 07 00 1e 17  	flb	ft0, 369(t3)
     328: 05 3b        	<unknown>
     32a: ed 01        	<unknown>
     32c: 00 00        	<unknown>
     32e: 1f f1 01 00  	<unknown>
     332: 00 20        	<unknown>
     334: 00 08        	<unknown>
     336: 18 05        	<unknown>
     338: 04 06        	<unknown>
     33a: f6 01        	<unknown>
     33c: 00 00        	<unknown>
     33e: 0d ba        	<unknown>
     340: 00 00        	<unknown>
     342: 00 21        	<unknown>
     344: 19 04        	<unknown>
     346: 77 a5 00 00  	<unknown>
     34a: 00 13        	<unknown>
     34c: 11 04        	<unknown>
     34e: 77 35 01 00  	<unknown>
     352: 00 13        	<unknown>
     354: 05 04        	<unknown>
     356: 77 b0 00 00  	<unknown>
     35a: 00 14        	<unknown>
     35c: 1a 04        	<unknown>
     35e: 79 71        	<unknown>
     360: 00 00        	<unknown>
     362: 00 14        	<unknown>
     364: 1b 04 7a 71  	<unknown>
     368: 00 00        	<unknown>
     36a: 00 14        	<unknown>
     36c: 1c 04        	<unknown>
     36e: 84 a5        	<unknown>
     370: 00 00        	<unknown>
     372: 00 14        	<unknown>
     374: 1d 04        	<unknown>
     376: 8e a5        	<unknown>
     378: 00 00        	<unknown>
     37a: 00 00        	<unknown>
     37c: 22 08        	<unknown>
     37e: fc 00        	<unknown>
     380: 00 00        	<unknown>
     382: 01 52        	<unknown>
     384: 27 04 92 a5  	fsb	fs9, -1464(tp)
     388: 00 00        	<unknown>
     38a: 00 10        	<unknown>
     38c: 10 05        	<unknown>
     38e: 04 92        	<unknown>
     390: b0 00        	<unknown>
     392: 00 00        	<unknown>
     394: 1a fb        	<unknown>
     396: 01 00        	<unknown>
     398: 00 01        	<unknown>
     39a: 04 93        	<unknown>
     39c: 0a 18        	<unknown>
     39e: 11 0b        	<unknown>
     3a0: 02 00        	<unknown>
     3a2: 00 19        	<unknown>
     3a4: 12 13        	<unknown>
     3a6: 02 00        	<unknown>
     3a8: 00 19        	<unknown>
     3aa: 13 1b 02 00  	slli	s6, tp, 0
     3ae: 00 1a        	<unknown>
     3b0: 02 01        	<unknown>
     3b2: 00 00        	<unknown>
     3b4: 02 04        	<unknown>
     3b6: 84 15        	<unknown>
     3b8: 18 14        	<unknown>
     3ba: 12 01        	<unknown>
     3bc: 00 00        	<unknown>
     3be: 19 15        	<unknown>
     3c0: 1a 01        	<unknown>
     3c2: 00 00        	<unknown>
     3c4: 19 16        	<unknown>
     3c6: 22 01        	<unknown>
     3c8: 00 00        	<unknown>
     3ca: 1b 09 38 00  	<unknown>
     3ce: 00 00        	<unknown>
     3d0: 19 17        	<unknown>
     3d2: 2b 01 00 00  	p.sb	zero, 2(zero!)
     3d6: 00 00        	<unknown>
     3d8: 1c 3a        	<unknown>
     3da: 01 00        	<unknown>
     3dc: 00 0a        	<unknown>
     3de: 0c 00        	<unknown>
     3e0: 00 00        	<unknown>
     3e2: 04 8b        	<unknown>
     3e4: 1e 18        	<unknown>
     3e6: 18 4a        	<unknown>
     3e8: 01 00        	<unknown>
     3ea: 00 00        	<unknown>
     3ec: 00 1d        	<unknown>
     3ee: de 01        	<unknown>
     3f0: 00 00        	<unknown>
     3f2: 0b 1d de 01  	p.lh	s10, 29(t3!)
     3f6: 00 00        	<unknown>
     3f8: 0c 00        	<unknown>
     3fa: 12 1e        	<unknown>
     3fc: 04 2d        	<unknown>
     3fe: c3 02 00 00  	fmadd.s	t0, zero, zero, zero, rne
     402: 13 16 04 2d  	<unknown>
     406: 53 01 00 00  	fadd.s	sp, zero, zero, rne
     40a: 00 03        	<unknown>
     40c: cb 02 00 00  	fnmsub.s	t0, zero, zero, zero, rne
     410: 21 02        	<unknown>
     412: 18 03        	<unknown>
     414: d3 02 00 00  	fadd.s	t0, zero, zero, rne
     418: 20 01        	<unknown>
     41a: 2b 08 1f 08  	p.sb	ra, 144(t5!)
     41e: 01 23        	<unknown>
     420: 22 04        	<unknown>
     422: 99 13        	<unknown>
     424: 11 04        	<unknown>
     426: 99 35        	<unknown>
     428: 01 00        	<unknown>
     42a: 00 13        	<unknown>
     42c: 16 04        	<unknown>
     42e: 99 0c        	<unknown>
     430: 03 00 00 13  	lb	zero, 304(zero)
     434: 05 04        	<unknown>
     436: 99 b0        	<unknown>
     438: 00 00        	<unknown>
     43a: 00 14        	<unknown>
     43c: 13 04 9d 4c  	addi	s0, s10, 1225
     440: 00 00        	<unknown>
     442: 00 14        	<unknown>
     444: 09 04        	<unknown>
     446: 9c 4c        	<unknown>
     448: 00 00        	<unknown>
     44a: 00 14        	<unknown>
     44c: 1c 04        	<unknown>
     44e: 9a 4c        	<unknown>
     450: 00 00        	<unknown>
     452: 00 00        	<unknown>
     454: 0d a5        	<unknown>
     456: 00 00        	<unknown>
     458: 00 17        	<unknown>
     45a: 0d a8        	<unknown>
     45c: 00 00        	<unknown>
     45e: 00 01        	<unknown>
     460: 52 7f        	<unknown>
     462: 03 00 00 18  	lb	zero, 384(zero)
     466: 19 83        	<unknown>
     468: 03 00 00 18  	lb	zero, 384(zero)
     46c: 1a 8b        	<unknown>
     46e: 03 00 00 19  	lb	zero, 400(zero)
     472: 1b 93 03 00  	<unknown>
     476: 00 19        	<unknown>
     478: 1c 9b        	<unknown>
     47a: 03 00 00 1c  	lb	zero, 448(zero)
     47e: b2 02        	<unknown>
     480: 00 00        	<unknown>
     482: 0e 04        	<unknown>
     484: 00 00        	<unknown>
     486: 00 04        	<unknown>
     488: c8 21        	<unknown>
     48a: 24 01        	<unknown>
     48c: 5b ba 02 00  	<unknown>
     490: 00 00        	<unknown>
     492: 1a d7        	<unknown>
     494: 02 00        	<unknown>
     496: 00 03        	<unknown>
     498: 04 ce        	<unknown>
     49a: 03 18 22 db  	lh	a6, -590(tp)
     49e: 02 00        	<unknown>
     4a0: 00 18        	<unknown>
     4a2: 21 e3        	<unknown>
     4a4: 02 00        	<unknown>
     4a6: 00 18        	<unknown>
     4a8: 20 eb        	<unknown>
     4aa: 02 00        	<unknown>
     4ac: 00 19        	<unknown>
     4ae: 1d f3        	<unknown>
     4b0: 02 00        	<unknown>
     4b2: 00 19        	<unknown>
     4b4: 1e fb        	<unknown>
     4b6: 02 00        	<unknown>
     4b8: 00 19        	<unknown>
     4ba: 1f 03 03 00  	<unknown>
     4be: 00 00        	<unknown>
     4c0: 25 de        	<unknown>
     4c2: 01 00        	<unknown>
     4c4: 00 0f        	<unknown>
     4c6: 00 26        	<unknown>
     4c8: 23 04 bf 13  	sb	s11, 296(t5)
     4cc: 11 04        	<unknown>
     4ce: bf 35 01 00  	<unknown>
     4d2: 00 13        	<unknown>
     4d4: 16 04        	<unknown>
     4d6: bf 0c 03 00  	<unknown>
     4da: 00 14        	<unknown>
     4dc: 1c 04        	<unknown>
     4de: c1 a5        	<unknown>
     4e0: 00 00        	<unknown>
     4e2: 00 14        	<unknown>
     4e4: 24 04        	<unknown>
     4e6: c4 a4        	<unknown>
     4e8: 03 00 00 00  	lb	zero, 0(zero)
     4ec: 0d a9        	<unknown>
     4ee: 03 00 00 03  	lb	zero, 48(zero)
     4f2: b1 03        	<unknown>
     4f4: 00 00        	<unknown>
     4f6: 25 04        	<unknown>
     4f8: 2b 04 08 04  	p.sb	zero, 72(a6!)
     4fc: 28 05        	<unknown>
     4fe: 05 71        	<unknown>
     500: 00 00        	<unknown>
     502: 00 04        	<unknown>
     504: 29 00        	<unknown>
     506: 05 1e        	<unknown>
     508: c3 02 00 00  	fmadd.s	t0, zero, zero, zero, rne
     50c: 04 2a        	<unknown>
     50e: 04 00        	<unknown>
     510: 0e 10        	<unknown>
     512: ac 00        	<unknown>
     514: 00 00        	<unknown>
     516: 01 52        	<unknown>
     518: 28 04        	<unknown>
     51a: d1 10        	<unknown>
     51c: 23 16 04 d1  	sh	a6, -756(s0)
     520: 0c 03        	<unknown>
     522: 00 00        	<unknown>
     524: 1a 7f        	<unknown>
     526: 03 00 00 04  	lb	zero, 64(zero)
     52a: 04 d1        	<unknown>
     52c: 25 18        	<unknown>
     52e: 24 8b        	<unknown>
     530: 03 00 00 19  	lb	zero, 400(zero)
     534: 25 93        	<unknown>
     536: 03 00 00 19  	lb	zero, 400(zero)
     53a: 26 9b        	<unknown>
     53c: 03 00 00 1c  	lb	zero, 448(zero)
     540: b2 02        	<unknown>
     542: 00 00        	<unknown>
     544: 11 04        	<unknown>
     546: 00 00        	<unknown>
     548: 00 04        	<unknown>
     54a: c8 21        	<unknown>
     54c: 24 01        	<unknown>
     54e: 5b ba 02 00  	<unknown>
     552: 00 00        	<unknown>
     554: 1a d7        	<unknown>
     556: 02 00        	<unknown>
     558: 00 05        	<unknown>
     55a: 04 ce        	<unknown>
     55c: 03 18 2b e3  	lh	a6, -462(s6)
     560: 02 00        	<unknown>
     562: 00 18        	<unknown>
     564: 2a eb        	<unknown>
     566: 02 00        	<unknown>
     568: 00 19        	<unknown>
     56a: 27 f3 02 00  	<unknown>
     56e: 00 19        	<unknown>
     570: 28 fb        	<unknown>
     572: 02 00        	<unknown>
     574: 00 19        	<unknown>
     576: 29 03        	<unknown>
     578: 03 00 00 00  	lb	zero, 0(zero)
     57c: 00 25        	<unknown>
     57e: de 01        	<unknown>
     580: 00 00        	<unknown>
     582: 12 00        	<unknown>
     584: 0e 13        	<unknown>
     586: 90 00        	<unknown>
     588: 00 00        	<unknown>
     58a: 01 52        	<unknown>
     58c: 29 04        	<unknown>
     58e: d6 10        	<unknown>
     590: 2c 11        	<unknown>
     592: 04 d6        	<unknown>
     594: 35 01        	<unknown>
     596: 00 00        	<unknown>
     598: 11 2d        	<unknown>
     59a: 12 04        	<unknown>
     59c: d8 4c        	<unknown>
     59e: 00 00        	<unknown>
     5a0: 00 1d        	<unknown>
     5a2: de 01        	<unknown>
     5a4: 00 00        	<unknown>
     5a6: 14 1d        	<unknown>
     5a8: de 01        	<unknown>
     5aa: 00 00        	<unknown>
     5ac: 15 25        	<unknown>
     5ae: de 01        	<unknown>
     5b0: 00 00        	<unknown>
     5b2: 16 00        	<unknown>
     5b4: 27 17 0c 00  	<unknown>
     5b8: 00 00        	<unknown>
     5ba: 01 52        	<unknown>
     5bc: 2a 04        	<unknown>
     5be: ef 35 01 00  	jal	a1, 0x135be <__l1_start+0x135be>
     5c2: 00 22        	<unknown>
     5c4: 18 14        	<unknown>
     5c6: 00 00        	<unknown>
     5c8: 00 01        	<unknown>
     5ca: 52 2b        	<unknown>
     5cc: 04 f1        	<unknown>
     5ce: 35 01        	<unknown>
     5d0: 00 00        	<unknown>
     5d2: 10 2e        	<unknown>
     5d4: 2e 04        	<unknown>
     5d6: f1 b0        	<unknown>
     5d8: 00 00        	<unknown>
     5da: 00 00        	<unknown>
     5dc: 00 ae        	<unknown>
     5de: 01 00        	<unknown>
     5e0: 00 05        	<unknown>
     5e2: 00 01        	<unknown>
     5e4: 04 3a        	<unknown>
     5e6: 03 00 00 01  	lb	zero, 16(zero)
     5ea: 08 08        	<unknown>
     5ec: 00 00        	<unknown>
     5ee: 00 00        	<unknown>
     5f0: 00 80        	<unknown>
     5f2: 08 01        	<unknown>
     5f4: 00 80        	<unknown>
     5f6: 2f 75 73 72  	<unknown>
     5fa: 2f 73 63 72  	<unknown>
     5fe: 61 74        	<unknown>
     600: 63 68 32 2f  	bltu	tp, s3, 0x8f0 <__l1_start+0x8f0>
     604: 6c 61        	<unknown>
     606: 72 61        	<unknown>
     608: 69 6e        	<unknown>
     60a: 38 2f        	<unknown>
     60c: 79 69        	<unknown>
     60e: 63 7a 68 61  	bgeu	a6, s6, 0xc22 <__l1_start+0xc22>
     612: 6e 67        	<unknown>
     614: 2f 74 65 72  	<unknown>
     618: 61 70        	<unknown>
     61a: 6f 6f 6c 5f  	jal	t5, 0xc6c10 <__l1_alloc_base+0xa4310>
     61e: 64 72        	<unknown>
     620: 61 6d        	<unknown>
     622: 5f 73 75 62  	<unknown>
     626: 6d 6f        	<unknown>
     628: 64 75        	<unknown>
     62a: 6c 65        	<unknown>
     62c: 5f 72 65 62  	<unknown>
     630: 61 73        	<unknown>
     632: 65 5f        	<unknown>
     634: 30 35        	<unknown>
     636: 30 32        	<unknown>
     638: 5f 32 30 32  	<unknown>
     63c: 34 2f        	<unknown>
     63e: 6d 65        	<unknown>
     640: 6d 70        	<unknown>
     642: 6f 6f 6c 2f  	jal	t5, 0xc6938 <__l1_alloc_base+0xa4038>
     646: 73 6f 66 74  	csrrsi	t5, 1862, 12
     64a: 77 61 72 65  	<unknown>
     64e: 2f 72 75 6e  	<unknown>
     652: 74 69        	<unknown>
     654: 6d 65        	<unknown>
     656: 2f 63 72 74  	<unknown>
     65a: 30 2e        	<unknown>
     65c: 53 00 2f 75  	<unknown>
     660: 73 72 2f 73  	csrrci	tp, mhpmevent18h, 30
     664: 63 72 61 74  	bgeu	sp, t1, 0xda8 <__l1_start+0xda8>
     668: 63 68 32 2f  	bltu	tp, s3, 0x958 <__l1_start+0x958>
     66c: 6c 61        	<unknown>
     66e: 72 61        	<unknown>
     670: 69 6e        	<unknown>
     672: 38 2f        	<unknown>
     674: 79 69        	<unknown>
     676: 63 7a 68 61  	bgeu	a6, s6, 0xc8a <__l1_start+0xc8a>
     67a: 6e 67        	<unknown>
     67c: 2f 74 65 72  	<unknown>
     680: 61 70        	<unknown>
     682: 6f 6f 6c 5f  	jal	t5, 0xc6c78 <__l1_alloc_base+0xa4378>
     686: 64 72        	<unknown>
     688: 61 6d        	<unknown>
     68a: 5f 73 75 62  	<unknown>
     68e: 6d 6f        	<unknown>
     690: 64 75        	<unknown>
     692: 6c 65        	<unknown>
     694: 5f 72 65 62  	<unknown>
     698: 61 73        	<unknown>
     69a: 65 5f        	<unknown>
     69c: 30 35        	<unknown>
     69e: 30 32        	<unknown>
     6a0: 5f 32 30 32  	<unknown>
     6a4: 34 2f        	<unknown>
     6a6: 6d 65        	<unknown>
     6a8: 6d 70        	<unknown>
     6aa: 6f 6f 6c 2f  	jal	t5, 0xc69a0 <__l1_alloc_base+0xa40a0>
     6ae: 73 6f 66 74  	csrrsi	t5, 1862, 12
     6b2: 77 61 72 65  	<unknown>
     6b6: 2f 61 70 70  	<unknown>
     6ba: 73 2f 62 61  	csrrs	t5, 1558, tp
     6be: 72 65        	<unknown>
     6c0: 6d 65        	<unknown>
     6c2: 74 61        	<unknown>
     6c4: 6c 00        	<unknown>
     6c6: 63 6c 61 6e  	bltu	sp, t1, 0xdbe <__l1_start+0xdbe>
     6ca: 67 20 76 65  	<unknown>
     6ce: 72 73        	<unknown>
     6d0: 69 6f        	<unknown>
     6d2: 6e 20        	<unknown>
     6d4: 31 34        	<unknown>
     6d6: 2e 30        	<unknown>
     6d8: 2e 36        	<unknown>
     6da: 20 28        	<unknown>
     6dc: 68 74        	<unknown>
     6de: 74 70        	<unknown>
     6e0: 73 3a 2f 2f  	csrrc	s4, 754, t5
     6e4: 67 69 74 68  	<unknown>
     6e8: 75 62        	<unknown>
     6ea: 2e 63        	<unknown>
     6ec: 6f 6d 2f 70  	jal	s10, 0xf6dee <__l1_alloc_base+0xd44ee>
     6f0: 75 6c        	<unknown>
     6f2: 70 2d        	<unknown>
     6f4: 70 6c        	<unknown>
     6f6: 61 74        	<unknown>
     6f8: 66 6f        	<unknown>
     6fa: 72 6d        	<unknown>
     6fc: 2f 73 6e 69  	<unknown>
     700: 74 63        	<unknown>
     702: 68 2d        	<unknown>
     704: 6c 6c        	<unknown>
     706: 76 6d        	<unknown>
     708: 2e 67        	<unknown>
     70a: 69 74        	<unknown>
     70c: 20 30        	<unknown>
     70e: 31 63        	<unknown>
     710: 35 39        	<unknown>
     712: 38 30        	<unknown>
     714: 31 35        	<unknown>
     716: 32 61        	<unknown>
     718: 33 65 39 38  	<unknown>
     71c: 35 61        	<unknown>
     71e: 65 32        	<unknown>
     720: 62 31        	<unknown>
     722: 39 66        	<unknown>
     724: 66 61        	<unknown>
     726: 34 31        	<unknown>
     728: 64 34        	<unknown>
     72a: 65 66        	<unknown>
     72c: 37 63 36 38  	lui	t1, 230246
     730: 37 36 66 63  	lui	a2, 407139
     734: 31 29        	<unknown>
     736: 00 01        	<unknown>
     738: 80 02        	<unknown>
     73a: 73 74 61 72  	csrrci	s0, mhpmevent6h, 2
     73e: 74 00        	<unknown>
     740: 00 00        	<unknown>
     742: 00 00        	<unknown>
     744: 0a 00        	<unknown>
     746: 00 00        	<unknown>
     748: 00 00        	<unknown>
     74a: 00 80        	<unknown>
     74c: 02 72        	<unknown>
     74e: 65 73        	<unknown>
     750: 65 74        	<unknown>
     752: 5f 76 65 63  	<unknown>
     756: 74 6f        	<unknown>
     758: 72 00        	<unknown>
     75a: 00 00        	<unknown>
     75c: 00 00        	<unknown>
     75e: 14 00        	<unknown>
     760: 00 00        	<unknown>
     762: 0c 00        	<unknown>
     764: 00 80        	<unknown>
     766: 02 6a        	<unknown>
     768: 75 6d        	<unknown>
     76a: 70 5f        	<unknown>
     76c: 6d 61        	<unknown>
     76e: 69 6e        	<unknown>
     770: 00 00        	<unknown>
     772: 00 00        	<unknown>
     774: 00 4e        	<unknown>
     776: 00 00        	<unknown>
     778: 00 e4        	<unknown>
     77a: 00 00        	<unknown>
     77c: 80 02        	<unknown>
     77e: 65 6f        	<unknown>
     780: 63 00 00 00  	beqz	zero, 0x780 <__l1_start+0x780>
     784: 00 00        	<unknown>
     786: 51 00        	<unknown>
     788: 00 00        	<unknown>
     78a: e8 00        	<unknown>
     78c: 00 80        	<unknown>
     78e: 00 e3        	<unknown>
     790: 06 00        	<unknown>
     792: 00 05        	<unknown>
     794: 00 01        	<unknown>
     796: 04 5b        	<unknown>
     798: 03 00 00 01  	lb	zero, 16(zero)
     79c: 00 0c        	<unknown>
     79e: 00 01        	<unknown>
     7a0: 30 01        	<unknown>
     7a2: 00 00        	<unknown>
     7a4: 86 08        	<unknown>
     7a6: 00 00        	<unknown>
     7a8: 02 00        	<unknown>
     7aa: a0 0c        	<unknown>
     7ac: 00 00        	<unknown>
     7ae: 98 00        	<unknown>
     7b0: 00 00        	<unknown>
     7b2: 85 00        	<unknown>
     7b4: 00 00        	<unknown>
     7b6: 04 04        	<unknown>
     7b8: 00 00        	<unknown>
     7ba: 02 28        	<unknown>
     7bc: 07 01 02 27  	flb	ft2, 624(tp)
     7c0: 07 01 03 3b  	flb	ft2, 944(t1)
     7c4: 00 00        	<unknown>
     7c6: 00 04        	<unknown>
     7c8: 01 2e        	<unknown>
     7ca: 02 03        	<unknown>
     7cc: 07 04 04 44  	flb	fs0, 1088(s0)
     7d0: 00 00        	<unknown>
     7d2: 00 02        	<unknown>
     7d4: 05 08        	<unknown>
     7d6: 01 03        	<unknown>
     7d8: 50 00        	<unknown>
     7da: 00 00        	<unknown>
     7dc: 07 03 52 03  	flb	ft6, 53(tp)
     7e0: 3b 00 00 00  	<unknown>
     7e4: 06 02        	<unknown>
     7e6: e8 02        	<unknown>
     7e8: 08 05        	<unknown>
     7ea: 04 02        	<unknown>
     7ec: 09 07        	<unknown>
     7ee: 04 02        	<unknown>
     7f0: 0a 05        	<unknown>
     7f2: 02 02        	<unknown>
     7f4: 0b 08 01 02  	p.lb	a6, 32(sp!)
     7f8: 0c 07        	<unknown>
     7fa: 02 04        	<unknown>
     7fc: 71 00        	<unknown>
     7fe: 00 00        	<unknown>
     800: 03 79 00 00  	p.lb	s2, zero(zero)
     804: 00 0f        	<unknown>
     806: 04 65        	<unknown>
     808: 05 08        	<unknown>
     80a: 04 62        	<unknown>
     80c: 06 0d        	<unknown>
     80e: 90 00        	<unknown>
     810: 00 00        	<unknown>
     812: 04 63        	<unknown>
     814: 00 06        	<unknown>
     816: 0e a1        	<unknown>
     818: 00 00        	<unknown>
     81a: 00 04        	<unknown>
     81c: 64 04        	<unknown>
     81e: 00 04        	<unknown>
     820: 95 00        	<unknown>
     822: 00 00        	<unknown>
     824: 07 08 44 00  	flb	fa6, 4(s0)
     828: 00 00        	<unknown>
     82a: 08 a1        	<unknown>
     82c: 00 00        	<unknown>
     82e: 00 00        	<unknown>
     830: 09 0a        	<unknown>
     832: 00 5c        	<unknown>
     834: 00 00        	<unknown>
     836: 00 01        	<unknown>
     838: 52 29        	<unknown>
     83a: 04 f2        	<unknown>
     83c: 02 58        	<unknown>
     83e: 00 00        	<unknown>
     840: 00 0b        	<unknown>
     842: 00 35        	<unknown>
     844: 04 f2        	<unknown>
     846: 02 d7        	<unknown>
     848: 02 00        	<unknown>
     84a: 00 0c        	<unknown>
     84c: 02 91        	<unknown>
     84e: 07 1c 04 f5  	<unknown>
     852: 02 a4        	<unknown>
     854: 06 00        	<unknown>
     856: 00 0c        	<unknown>
     858: 02 91        	<unknown>
     85a: 08 36        	<unknown>
     85c: 04 f3        	<unknown>
     85e: 02 b4        	<unknown>
     860: 06 00        	<unknown>
     862: 00 0d        	<unknown>
     864: 01 39        	<unknown>
     866: 04 f6        	<unknown>
     868: 02 c2        	<unknown>
     86a: 06 00        	<unknown>
     86c: 00 0e        	<unknown>
     86e: 0f e6 00 00  	<unknown>
     872: 00 01        	<unknown>
     874: 00 10        	<unknown>
     876: 02 5c        	<unknown>
     878: 07 00 00 01  	flb	ft0, 16(zero)
     87c: 52 2a        	<unknown>
     87e: 04 c2        	<unknown>
     880: 01 58        	<unknown>
     882: 00 00        	<unknown>
     884: 00 0b        	<unknown>
     886: 02 1a        	<unknown>
     888: 04 c2        	<unknown>
     88a: 01 7c        	<unknown>
     88c: 06 00        	<unknown>
     88e: 00 0b        	<unknown>
     890: 03 1c 04 c2  	lh	s8, -992(s0)
     894: 01 3f        	<unknown>
     896: 00 00        	<unknown>
     898: 00 0b        	<unknown>
     89a: 04 1e        	<unknown>
     89c: 04 c2        	<unknown>
     89e: 01 9f        	<unknown>
     8a0: 06 00        	<unknown>
     8a2: 00 0b        	<unknown>
     8a4: 05 35        	<unknown>
     8a6: 04 c3        	<unknown>
     8a8: 01 d7        	<unknown>
     8aa: 02 00        	<unknown>
     8ac: 00 0b        	<unknown>
     8ae: 06 36        	<unknown>
     8b0: 04 c3        	<unknown>
     8b2: 01 b4        	<unknown>
     8b4: 06 00        	<unknown>
     8b6: 00 0d        	<unknown>
     8b8: 07 1d 04 c5  	<unknown>
     8bc: 01 33        	<unknown>
     8be: 00 00        	<unknown>
     8c0: 00 0d        	<unknown>
     8c2: 08 25        	<unknown>
     8c4: 04 c4        	<unknown>
     8c6: 01 3b        	<unknown>
     8c8: 00 00        	<unknown>
     8ca: 00 0d        	<unknown>
     8cc: 09 3a        	<unknown>
     8ce: 04 c4        	<unknown>
     8d0: 01 3b        	<unknown>
     8d2: 00 00        	<unknown>
     8d4: 00 0d        	<unknown>
     8d6: 0a 24        	<unknown>
     8d8: 04 c4        	<unknown>
     8da: 01 3b        	<unknown>
     8dc: 00 00        	<unknown>
     8de: 00 0d        	<unknown>
     8e0: 0b 3b 04 c4  	<unknown>
     8e4: 01 3b        	<unknown>
     8e6: 00 00        	<unknown>
     8e8: 00 11        	<unknown>
     8ea: a4 02        	<unknown>
     8ec: 00 00        	<unknown>
     8ee: 03 08 00 00  	lb	a6, 0(zero)
     8f2: 00 04        	<unknown>
     8f4: fd 01        	<unknown>
     8f6: 09 12        	<unknown>
     8f8: 01 5a        	<unknown>
     8fa: ac 02        	<unknown>
     8fc: 00 00        	<unknown>
     8fe: 00 11        	<unknown>
     900: b9 02        	<unknown>
     902: 00 00        	<unknown>
     904: 04 24        	<unknown>
     906: 00 00        	<unknown>
     908: 00 04        	<unknown>
     90a: fe 01        	<unknown>
     90c: 0f 13 01 65  	<unknown>
     910: c9 02        	<unknown>
     912: 00 00        	<unknown>
     914: 14 a4        	<unknown>
     916: 02 00        	<unknown>
     918: 00 05        	<unknown>
     91a: 08 00        	<unknown>
     91c: 00 00        	<unknown>
     91e: 04 a0        	<unknown>
     920: 0a 12        	<unknown>
     922: 01 5a        	<unknown>
     924: ac 02        	<unknown>
     926: 00 00        	<unknown>
     928: 00 00        	<unknown>
     92a: 15 06        	<unknown>
     92c: 0c 00        	<unknown>
     92e: 00 00        	<unknown>
     930: 0d 0c        	<unknown>
     932: 3c 04        	<unknown>
     934: 00 02        	<unknown>
     936: c2 06        	<unknown>
     938: 00 00        	<unknown>
     93a: 00 11        	<unknown>
     93c: a4 02        	<unknown>
     93e: 00 00        	<unknown>
     940: 07 0c 00 00  	flb	fs8, 0(zero)
     944: 00 04        	<unknown>
     946: 0f 02 0b 12  	<unknown>
     94a: 01 5a        	<unknown>
     94c: ac 02        	<unknown>
     94e: 00 00        	<unknown>
     950: 00 11        	<unknown>
     952: b9 02        	<unknown>
     954: 00 00        	<unknown>
     956: 08 28        	<unknown>
     958: 00 00        	<unknown>
     95a: 00 04        	<unknown>
     95c: 10 02        	<unknown>
     95e: 15 13        	<unknown>
     960: 01 66        	<unknown>
     962: c9 02        	<unknown>
     964: 00 00        	<unknown>
     966: 14 a4        	<unknown>
     968: 02 00        	<unknown>
     96a: 00 09        	<unknown>
     96c: 08 00        	<unknown>
     96e: 00 00        	<unknown>
     970: 04 a0        	<unknown>
     972: 0a 12        	<unknown>
     974: 01 5a        	<unknown>
     976: ac 02        	<unknown>
     978: 00 00        	<unknown>
     97a: 00 00        	<unknown>
     97c: 16 00        	<unknown>
     97e: 0d 0d        	<unknown>
     980: 23 04 12 02  	sb	ra, 40(tp)
     984: c2 06        	<unknown>
     986: 00 00        	<unknown>
     988: 00 16        	<unknown>
     98a: 01 0d        	<unknown>
     98c: 0e 22        	<unknown>
     98e: 04 48        	<unknown>
     990: 02 3b        	<unknown>
     992: 00 00        	<unknown>
     994: 00 16        	<unknown>
     996: 02 0d        	<unknown>
     998: 16 3d        	<unknown>
     99a: 04 73        	<unknown>
     99c: 02 c2        	<unknown>
     99e: 06 00        	<unknown>
     9a0: 00 00        	<unknown>
     9a2: 15 0a        	<unknown>
     9a4: 1c 00        	<unknown>
     9a6: 00 00        	<unknown>
     9a8: 0d 0f        	<unknown>
     9aa: 3d 04        	<unknown>
     9ac: 6e 02        	<unknown>
     9ae: c7 06 00 00  	fmsub.s	a3, zero, zero, zero, rne
     9b2: 00 16        	<unknown>
     9b4: 03 0d 17 3d  	lb	s10, 977(a4)
     9b8: 04 86        	<unknown>
     9ba: 02 d0        	<unknown>
     9bc: 06 00        	<unknown>
     9be: 00 00        	<unknown>
     9c0: 00 16        	<unknown>
     9c2: 04 0d        	<unknown>
     9c4: 10 3f        	<unknown>
     9c6: 04 9b        	<unknown>
     9c8: 02 3b        	<unknown>
     9ca: 00 00        	<unknown>
     9cc: 00 00        	<unknown>
     9ce: 16 05        	<unknown>
     9d0: 0d 14        	<unknown>
     9d2: 40 04        	<unknown>
     9d4: af 02 d7 02  	<unknown>
     9d8: 00 00        	<unknown>
     9da: 0d 15        	<unknown>
     9dc: 3f 04 b0 02  	<unknown>
     9e0: 3b 00 00 00  	<unknown>
     9e4: 17 e1 02 00  	auipc	sp, 46
     9e8: 00 06        	<unknown>
     9ea: 04 b0        	<unknown>
     9ec: 02 18        	<unknown>
     9ee: 18 13        	<unknown>
     9f0: e9 02        	<unknown>
     9f2: 00 00        	<unknown>
     9f4: 18 11        	<unknown>
     9f6: f1 02        	<unknown>
     9f8: 00 00        	<unknown>
     9fa: 19 12        	<unknown>
     9fc: f9 02        	<unknown>
     9fe: 00 00        	<unknown>
     a00: 00 00        	<unknown>
     a02: 1a 01        	<unknown>
     a04: 62 0b        	<unknown>
     a06: 1a 01        	<unknown>
     a08: 62 0c        	<unknown>
     a0a: 1a 01        	<unknown>
     a0c: 62 0d        	<unknown>
     a0e: 1a 01        	<unknown>
     a10: 62 0e        	<unknown>
     a12: 1a 01        	<unknown>
     a14: 62 0f        	<unknown>
     a16: 1a 01        	<unknown>
     a18: 62 10        	<unknown>
     a1a: 0f 02 03 00  	<unknown>
     a1e: 00 11        	<unknown>
     a20: 0f 02 03 00  	<unknown>
     a24: 00 12        	<unknown>
     a26: 1a 01        	<unknown>
     a28: 62 13        	<unknown>
     a2a: 1a 01        	<unknown>
     a2c: 62 14        	<unknown>
     a2e: 1a 01        	<unknown>
     a30: 62 15        	<unknown>
     a32: 00 1b        	<unknown>
     a34: 10 04        	<unknown>
     a36: 9b b5 02 00  	<unknown>
     a3a: 00 1c        	<unknown>
     a3c: 12 04        	<unknown>
     a3e: 9b 44 00 00  	<unknown>
     a42: 00 00        	<unknown>
     a44: 02 11        	<unknown>
     a46: 02 01        	<unknown>
     a48: 1b 13 04 9e  	<unknown>
     a4c: 3b 00 00 00  	<unknown>
     a50: 1c 14        	<unknown>
     a52: 04 9e        	<unknown>
     a54: d2 02        	<unknown>
     a56: 00 00        	<unknown>
     a58: 1d 15        	<unknown>
     a5a: 04 9f        	<unknown>
     a5c: 3b 00 00 00  	<unknown>
     a60: 00 04        	<unknown>
     a62: d7 02 00 00  	pv.add.h	t0, zero, zero
     a66: 04 dc        	<unknown>
     a68: 02 00        	<unknown>
     a6a: 00 1e        	<unknown>
     a6c: 44 00        	<unknown>
     a6e: 00 00        	<unknown>
     a70: 1b 16 04 92  	<unknown>
     a74: 3b 00 00 00  	<unknown>
     a78: 1c 14        	<unknown>
     a7a: 04 92        	<unknown>
     a7c: d7 02 00 00  	pv.add.h	t0, zero, zero
     a80: 1c 17        	<unknown>
     a82: 04 92        	<unknown>
     a84: 33 00 00 00  	add	zero, zero, zero
     a88: 1d 18        	<unknown>
     a8a: 04 93        	<unknown>
     a8c: d7 02 00 00  	pv.add.h	t0, zero, zero
     a90: 00 1f        	<unknown>
     a92: 23 88 03 00  	sb	zero, 16(t2)
     a96: 00 01        	<unknown>
     a98: 52 33        	<unknown>
     a9a: 04 f4        	<unknown>
     a9c: 33 00 00 00  	add	zero, zero, zero
     aa0: 20 29        	<unknown>
     aa2: 1a 04        	<unknown>
     aa4: f4 7c        	<unknown>
     aa6: 06 00        	<unknown>
     aa8: 00 20        	<unknown>
     aaa: 2a 1c        	<unknown>
     aac: 04 f4        	<unknown>
     aae: 3f 00 00 00  	<unknown>
     ab2: 20 2b        	<unknown>
     ab4: 1d 04        	<unknown>
     ab6: f4 33        	<unknown>
     ab8: 00 00        	<unknown>
     aba: 00 20        	<unknown>
     abc: 2c 1e        	<unknown>
     abe: 04 f5        	<unknown>
     ac0: 33 00 00 00  	add	zero, zero, zero
     ac4: 20 2d        	<unknown>
     ac6: 3d 04        	<unknown>
     ac8: f5 5c        	<unknown>
     aca: 00 00        	<unknown>
     acc: 00 20        	<unknown>
     ace: 2e 21        	<unknown>
     ad0: 04 f5        	<unknown>
     ad2: b5 02        	<unknown>
     ad4: 00 00        	<unknown>
     ad6: 20 2f        	<unknown>
     ad8: 22 04        	<unknown>
     ada: f6 5c        	<unknown>
     adc: 00 00        	<unknown>
     ade: 00 20        	<unknown>
     ae0: 30 23        	<unknown>
     ae2: 04 f6        	<unknown>
     ae4: 3b 00 00 00  	<unknown>
     ae8: 20 31        	<unknown>
     aea: 24 04        	<unknown>
     aec: f7 3b 00 00  	<unknown>
     af0: 00 20        	<unknown>
     af2: 32 25        	<unknown>
     af4: 04 f7        	<unknown>
     af6: 3b 00 00 00  	<unknown>
     afa: 21 02        	<unknown>
     afc: 91 04        	<unknown>
     afe: 1f 04 f8 da  	<unknown>
     b02: 06 00        	<unknown>
     b04: 00 22        	<unknown>
     b06: 33 20 04 f9  	<unknown>
     b0a: 33 00 00 00  	add	zero, zero, zero
     b0e: 16 07        	<unknown>
     b10: 23 44 04 03  	<unknown>
     b14: 01 dc        	<unknown>
     b16: 02 00        	<unknown>
     b18: 00 00        	<unknown>
     b1a: 17 ff 05 00  	auipc	t5, 95
     b1e: 00 08        	<unknown>
     b20: 04 0b        	<unknown>
     b22: 01 0a        	<unknown>
     b24: 12 01        	<unknown>
     b26: 63 07 06 00  	beqz	a2, 0xb34 <__l1_start+0xb34>
     b2a: 00 12        	<unknown>
     b2c: 01 62        	<unknown>
     b2e: 0f 06 00 00  	<unknown>
     b32: 18 34        	<unknown>
     b34: 17 06 00 00  	auipc	a2, 0
     b38: 12 01        	<unknown>
     b3a: 59 1f        	<unknown>
     b3c: 06 00        	<unknown>
     b3e: 00 18        	<unknown>
     b40: 3c 27        	<unknown>
     b42: 06 00        	<unknown>
     b44: 00 18        	<unknown>
     b46: 35 2f        	<unknown>
     b48: 06 00        	<unknown>
     b4a: 00 18        	<unknown>
     b4c: 36 37        	<unknown>
     b4e: 06 00        	<unknown>
     b50: 00 18        	<unknown>
     b52: 37 3f 06 00  	lui	t5, 99
     b56: 00 18        	<unknown>
     b58: 38 47        	<unknown>
     b5a: 06 00        	<unknown>
     b5c: 00 18        	<unknown>
     b5e: 39 4f        	<unknown>
     b60: 06 00        	<unknown>
     b62: 00 18        	<unknown>
     b64: 3a 57        	<unknown>
     b66: 06 00        	<unknown>
     b68: 00 19        	<unknown>
     b6a: 3b 5f 06 00  	<unknown>
     b6e: 00 15        	<unknown>
     b70: 24 28        	<unknown>
     b72: 00 00        	<unknown>
     b74: 00 19        	<unknown>
     b76: 3d 68        	<unknown>
     b78: 06 00        	<unknown>
     b7a: 00 00        	<unknown>
     b7c: 15 25        	<unknown>
     b7e: 34 00        	<unknown>
     b80: 00 00        	<unknown>
     b82: 19 3e        	<unknown>
     b84: 72 06        	<unknown>
     b86: 00 00        	<unknown>
     b88: 00 00        	<unknown>
     b8a: 1a 01        	<unknown>
     b8c: 63 26 1a 01  	<unknown>
     b90: 63 27 1a 01  	<unknown>
     b94: 63 28 00 24  	<unknown>
     b98: 16 10        	<unknown>
     b9a: 00 00        	<unknown>
     b9c: 00 01        	<unknown>
     b9e: 52 2b        	<unknown>
     ba0: 04 79        	<unknown>
     ba2: 25 01        	<unknown>
     ba4: 5a 41        	<unknown>
     ba6: 04 79        	<unknown>
     ba8: 44 00        	<unknown>
     baa: 00 00        	<unknown>
     bac: 25 01        	<unknown>
     bae: 5b 1c 04 79  	<unknown>
     bb2: a1 00        	<unknown>
     bb4: 00 00        	<unknown>
     bb6: 25 01        	<unknown>
     bb8: 5c 1d        	<unknown>
     bba: 04 79        	<unknown>
     bbc: 33 00 00 00  	add	zero, zero, zero
     bc0: 25 01        	<unknown>
     bc2: 5d 1e        	<unknown>
     bc4: 04 7a        	<unknown>
     bc6: 33 00 00 00  	add	zero, zero, zero
     bca: 00 0a        	<unknown>
     bcc: 17 58 00 00  	auipc	a6, 5
     bd0: 00 01        	<unknown>
     bd2: 52 2c        	<unknown>
     bd4: 04 fb        	<unknown>
     bd6: 02 58        	<unknown>
     bd8: 00 00        	<unknown>
     bda: 00 0b        	<unknown>
     bdc: 18 1c        	<unknown>
     bde: 04 fb        	<unknown>
     be0: 02 3f        	<unknown>
     be2: 00 00        	<unknown>
     be4: 00 0b        	<unknown>
     be6: 19 35        	<unknown>
     be8: 04 fb        	<unknown>
     bea: 02 d7        	<unknown>
     bec: 02 00        	<unknown>
     bee: 00 0c        	<unknown>
     bf0: 02 91        	<unknown>
     bf2: 00 36        	<unknown>
     bf4: 04 fc        	<unknown>
     bf6: 02 b4        	<unknown>
     bf8: 06 00        	<unknown>
     bfa: 00 0d        	<unknown>
     bfc: 1a 39        	<unknown>
     bfe: 04 fe        	<unknown>
     c00: 02 c2        	<unknown>
     c02: 06 00        	<unknown>
     c04: 00 0e        	<unknown>
     c06: 0f e6 00 00  	<unknown>
     c0a: 00 18        	<unknown>
     c0c: 00 24        	<unknown>
     c0e: 19 10        	<unknown>
     c10: 00 00        	<unknown>
     c12: 00 01        	<unknown>
     c14: 52 2d        	<unknown>
     c16: 04 68        	<unknown>
     c18: 25 01        	<unknown>
     c1a: 5a 41        	<unknown>
     c1c: 04 68        	<unknown>
     c1e: 44 00        	<unknown>
     c20: 00 00        	<unknown>
     c22: 20 1b        	<unknown>
     c24: 1c 04        	<unknown>
     c26: 68 a1        	<unknown>
     c28: 00 00        	<unknown>
     c2a: 00 25        	<unknown>
     c2c: 01 5c        	<unknown>
     c2e: 1d 04        	<unknown>
     c30: 68 33        	<unknown>
     c32: 00 00        	<unknown>
     c34: 00 25        	<unknown>
     c36: 01 5d        	<unknown>
     c38: 1e 04        	<unknown>
     c3a: 69 33        	<unknown>
     c3c: 00 00        	<unknown>
     c3e: 00 00        	<unknown>
     c40: 0a 1a        	<unknown>
     c42: 54 00        	<unknown>
     c44: 00 00        	<unknown>
     c46: 01 52        	<unknown>
     c48: 2e 04        	<unknown>
     c4a: 03 03 58 00  	lb	t1, 5(a6)
     c4e: 00 00        	<unknown>
     c50: 0b 1c 1c 04  	p.lh	s8, 65(s8!)
     c54: 03 03 3f 00  	lb	t1, 3(t5)
     c58: 00 00        	<unknown>
     c5a: 0b 1d 42 04  	p.lh	s10, 68(tp!)
     c5e: 03 03 33 00  	lb	t1, 3(t1)
     c62: 00 00        	<unknown>
     c64: 0b 1e 35 04  	p.lh	t3, 67(a0!)
     c68: 03 03 d7 02  	lb	t1, 45(a4)
     c6c: 00 00        	<unknown>
     c6e: 0c 02        	<unknown>
     c70: 91 00        	<unknown>
     c72: 36 04        	<unknown>
     c74: 04 03        	<unknown>
     c76: b4 06        	<unknown>
     c78: 00 00        	<unknown>
     c7a: 0d 1f        	<unknown>
     c7c: 39 04        	<unknown>
     c7e: 06 03        	<unknown>
     c80: c2 06        	<unknown>
     c82: 00 00        	<unknown>
     c84: 0e 0f        	<unknown>
     c86: e6 00        	<unknown>
     c88: 00 00        	<unknown>
     c8a: 1b 00 0a 1c  	<unknown>
     c8e: 20 00        	<unknown>
     c90: 00 00        	<unknown>
     c92: 01 52        	<unknown>
     c94: 2f 04 0b 03  	<unknown>
     c98: 58 00        	<unknown>
     c9a: 00 00        	<unknown>
     c9c: 0b 20 1c 04  	p.lw	zero, 65(s8!)
     ca0: 0b 03 3f 00  	p.lb	t1, 3(t5!)
     ca4: 00 00        	<unknown>
     ca6: 0b 21 42 04  	p.lw	sp, 68(tp!)
     caa: 0b 03 33 00  	p.lb	t1, 3(t1!)
     cae: 00 00        	<unknown>
     cb0: 0b 22 35 04  	p.lw	tp, 67(a0!)
     cb4: 0b 03 d7 02  	p.lb	t1, 45(a4!)
     cb8: 00 00        	<unknown>
     cba: 0b 23 36 04  	p.lw	t1, 67(a2!)
     cbe: 0b 03 b4 06  	p.lb	t1, 107(s0!)
     cc2: 00 00        	<unknown>
     cc4: 26 e6        	<unknown>
     cc6: 00 00        	<unknown>
     cc8: 00 1d        	<unknown>
     cca: 00 0a        	<unknown>
     ccc: 1e 5c        	<unknown>
     cce: 00 00        	<unknown>
     cd0: 00 01        	<unknown>
     cd2: 52 30        	<unknown>
     cd4: 04 0f        	<unknown>
     cd6: 03 58 00 00  	lhu	a6, 0(zero)
     cda: 00 0b        	<unknown>
     cdc: 24 1a        	<unknown>
     cde: 04 0f        	<unknown>
     ce0: 03 90 00 00  	lh	zero, 0(ra)
     ce4: 00 0b        	<unknown>
     ce6: 25 0e        	<unknown>
     ce8: 04 0f        	<unknown>
     cea: 03 a1 00 00  	lw	sp, 0(ra)
     cee: 00 0b        	<unknown>
     cf0: 26 35        	<unknown>
     cf2: 04 10        	<unknown>
     cf4: 03 d7 02 00  	lhu	a4, 0(t0)
     cf8: 00 0c        	<unknown>
     cfa: 02 91        	<unknown>
     cfc: 08 43        	<unknown>
     cfe: 04 13        	<unknown>
     d00: 03 d5 06 00  	lhu	a0, 0(a3)
     d04: 00 0c        	<unknown>
     d06: 02 91        	<unknown>
     d08: 10 36        	<unknown>
     d0a: 04 11        	<unknown>
     d0c: 03 b4 06 00  	<unknown>
     d10: 00 0d        	<unknown>
     d12: 27 39 04 14  	<unknown>
     d16: 03 c2 06 00  	lbu	tp, 0(a3)
     d1a: 00 0e        	<unknown>
     d1c: 0f e6 00 00  	<unknown>
     d20: 00 1f        	<unknown>
     d22: 00 24        	<unknown>
     d24: 20 14        	<unknown>
     d26: 00 00        	<unknown>
     d28: 00 01        	<unknown>
     d2a: 52 31        	<unknown>
     d2c: 04 84        	<unknown>
     d2e: 25 01        	<unknown>
     d30: 5a 41        	<unknown>
     d32: 04 84        	<unknown>
     d34: 44 00        	<unknown>
     d36: 00 00        	<unknown>
     d38: 20 28        	<unknown>
     d3a: 1c 04        	<unknown>
     d3c: 84 a1        	<unknown>
     d3e: 00 00        	<unknown>
     d40: 00 25        	<unknown>
     d42: 01 5c        	<unknown>
     d44: 1d 04        	<unknown>
     d46: 84 33        	<unknown>
     d48: 00 00        	<unknown>
     d4a: 00 25        	<unknown>
     d4c: 01 5d        	<unknown>
     d4e: 1e 04        	<unknown>
     d50: 85 33        	<unknown>
     d52: 00 00        	<unknown>
     d54: 00 27        	<unknown>
     d56: 01 56        	<unknown>
     d58: 21 00        	<unknown>
     d5a: 24 22        	<unknown>
     d5c: 04 00        	<unknown>
     d5e: 00 00        	<unknown>
     d60: 01 52        	<unknown>
     d62: 32 04        	<unknown>
     d64: 70 25        	<unknown>
     d66: 01 5a        	<unknown>
     d68: 41 04        	<unknown>
     d6a: 70 44        	<unknown>
     d6c: 00 00        	<unknown>
     d6e: 00 25        	<unknown>
     d70: 01 5b        	<unknown>
     d72: 1c 04        	<unknown>
     d74: 70 a1        	<unknown>
     d76: 00 00        	<unknown>
     d78: 00 25        	<unknown>
     d7a: 01 5c        	<unknown>
     d7c: 1d 04        	<unknown>
     d7e: 70 33        	<unknown>
     d80: 00 00        	<unknown>
     d82: 00 25        	<unknown>
     d84: 01 5d        	<unknown>
     d86: 1e 04        	<unknown>
     d88: 71 33        	<unknown>
     d8a: 00 00        	<unknown>
     d8c: 00 00        	<unknown>
     d8e: 1b 19 04 a7  	<unknown>
     d92: 33 00 00 00  	add	zero, zero, zero
     d96: 1c 1a        	<unknown>
     d98: 04 a7        	<unknown>
     d9a: 7c 06        	<unknown>
     d9c: 00 00        	<unknown>
     d9e: 1c 1c        	<unknown>
     da0: 04 a7        	<unknown>
     da2: 3f 00 00 00  	<unknown>
     da6: 1c 1d        	<unknown>
     da8: 04 a7        	<unknown>
     daa: 33 00 00 00  	add	zero, zero, zero
     dae: 1c 1e        	<unknown>
     db0: 04 a8        	<unknown>
     db2: 33 00 00 00  	add	zero, zero, zero
     db6: 1c 1f        	<unknown>
     db8: 04 a8        	<unknown>
     dba: 3f 00 00 00  	<unknown>
     dbe: 1c 20        	<unknown>
     dc0: 04 a8        	<unknown>
     dc2: 33 00 00 00  	add	zero, zero, zero
     dc6: 1c 21        	<unknown>
     dc8: 04 a8        	<unknown>
     dca: b5 02        	<unknown>
     dcc: 00 00        	<unknown>
     dce: 1c 22        	<unknown>
     dd0: 04 a9        	<unknown>
     dd2: 3b 00 00 00  	<unknown>
     dd6: 1c 23        	<unknown>
     dd8: 04 a9        	<unknown>
     dda: 3b 00 00 00  	<unknown>
     dde: 1c 24        	<unknown>
     de0: 04 aa        	<unknown>
     de2: 3b 00 00 00  	<unknown>
     de6: 1c 25        	<unknown>
     de8: 04 aa        	<unknown>
     dea: 3b 00 00 00  	<unknown>
     dee: 1d 26        	<unknown>
     df0: 04 ab        	<unknown>
     df2: 9f 06 00 00  	<unknown>
     df6: 28 1d        	<unknown>
     df8: 15 04        	<unknown>
     dfa: df 33 00 00  	<unknown>
     dfe: 00 00        	<unknown>
     e00: 28 1d        	<unknown>
     e02: 15 04        	<unknown>
     e04: e5 33        	<unknown>
     e06: 00 00        	<unknown>
     e08: 00 00        	<unknown>
     e0a: 00 03        	<unknown>
     e0c: 84 06        	<unknown>
     e0e: 00 00        	<unknown>
     e10: 1b 04 5e 04  	<unknown>
     e14: 89 06        	<unknown>
     e16: 00 00        	<unknown>
     e18: 07 08 44 00  	flb	fa6, 4(s0)
     e1c: 00 00        	<unknown>
     e1e: 08 a1        	<unknown>
     e20: 00 00        	<unknown>
     e22: 00 08        	<unknown>
     e24: 33 00 00 00  	add	zero, zero, zero
     e28: 08 33        	<unknown>
     e2a: 00 00        	<unknown>
     e2c: 00 00        	<unknown>
     e2e: 1e 33        	<unknown>
     e30: 00 00        	<unknown>
     e32: 00 29        	<unknown>
     e34: 44 00        	<unknown>
     e36: 00 00        	<unknown>
     e38: 2a b0        	<unknown>
     e3a: 06 00        	<unknown>
     e3c: 00 01        	<unknown>
     e3e: 00 2b        	<unknown>
     e40: 34 08        	<unknown>
     e42: 07 03 bc 06  	flb	ft6, 107(s8)
     e46: 00 00        	<unknown>
     e48: 38 05        	<unknown>
     e4a: 0e 2c        	<unknown>
     e4c: a1 00        	<unknown>
     e4e: 00 00        	<unknown>
     e50: 37 1e 58 00  	lui	t3, 1409
     e54: 00 00        	<unknown>
     e56: 1e cc        	<unknown>
     e58: 06 00        	<unknown>
     e5a: 00 02        	<unknown>
     e5c: 3e 05        	<unknown>
     e5e: 04 1e        	<unknown>
     e60: 3b 00 00 00  	<unknown>
     e64: 1e 71        	<unknown>
     e66: 00 00        	<unknown>
     e68: 00 29        	<unknown>
     e6a: 44 00        	<unknown>
     e6c: 00 00        	<unknown>
     e6e: 2a b0        	<unknown>
     e70: 06 00        	<unknown>
     e72: 00 20        	<unknown>
     e74: 00 00        	<unknown>
     e76: 3a 00        	<unknown>
     e78: 00 00        	<unknown>
     e7a: 05 00        	<unknown>
     e7c: 01 04        	<unknown>
     e7e: 8a 05        	<unknown>
     e80: 00 00        	<unknown>
     e82: 01 00        	<unknown>
     e84: 0c 00        	<unknown>
     e86: 01 4c        	<unknown>
     e88: 02 00        	<unknown>
     e8a: 00 ea        	<unknown>
     e8c: 14 00        	<unknown>
     e8e: 00 02        	<unknown>
     e90: 00 0c        	<unknown>
     e92: 00 00        	<unknown>
     e94: 00 44        	<unknown>
     e96: 01 00        	<unknown>
     e98: 00 02        	<unknown>
     e9a: 00 0c        	<unknown>
     e9c: 00 00        	<unknown>
     e9e: 00 01        	<unknown>
     ea0: 52 03        	<unknown>
     ea2: 01 09        	<unknown>
     ea4: 03 01 5a 04  	lb	sp, 69(s4)
     ea8: 01 09        	<unknown>
     eaa: 39 00        	<unknown>
     eac: 00 00        	<unknown>
     eae: 00 04        	<unknown>
     eb0: 05 08        	<unknown>
     eb2: 01 00        	<unknown>
     eb4: 48 02        	<unknown>
     eb6: 00 00        	<unknown>
     eb8: 05 00        	<unknown>
     eba: 01 04        	<unknown>
     ebc: d3 05 00 00  	fadd.s	a1, zero, zero, rne
     ec0: 01 00        	<unknown>
     ec2: 0c 00        	<unknown>
     ec4: 01 6c        	<unknown>
     ec6: 02 00        	<unknown>
     ec8: 00 65        	<unknown>
     eca: 15 00        	<unknown>
     ecc: 00 02        	<unknown>
     ece: 00 1c        	<unknown>
     ed0: 02 00        	<unknown>
     ed2: 00 50        	<unknown>
     ed4: 01 00        	<unknown>
     ed6: 00 82        	<unknown>
     ed8: 0c 00        	<unknown>
     eda: 00 02        	<unknown>
     edc: 2f 00 00 00  	<unknown>
     ee0: 05 02        	<unknown>
     ee2: 52 02        	<unknown>
     ee4: 37 00 00 00  	lui	zero, 0
     ee8: 04 01        	<unknown>
     eea: e8 03        	<unknown>
     eec: 03 07 04 04  	lb	a4, 64(s0)
     ef0: 27 00 00 00  	fsb	ft0, 0(zero)
     ef4: 04 45        	<unknown>
     ef6: 00 00        	<unknown>
     ef8: 00 03        	<unknown>
     efa: 06 08        	<unknown>
     efc: 01 02        	<unknown>
     efe: 37 00 00 00  	lui	zero, 0
     f02: 07 03 2e 04  	flb	ft6, 66(t3)
     f06: 56 00        	<unknown>
     f08: 00 00        	<unknown>
     f0a: 05 04        	<unknown>
     f0c: 5c 00        	<unknown>
     f0e: 00 00        	<unknown>
     f10: 06 61        	<unknown>
     f12: 00 00        	<unknown>
     f14: 00 03        	<unknown>
     f16: 08 08        	<unknown>
     f18: 01 07        	<unknown>
     f1a: 00 60        	<unknown>
     f1c: 00 00        	<unknown>
     f1e: 00 01        	<unknown>
     f20: 52 09        	<unknown>
     f22: 04 09        	<unknown>
     f24: 2e 02        	<unknown>
     f26: 00 00        	<unknown>
     f28: 08 01        	<unknown>
     f2a: 5a 12        	<unknown>
     f2c: 04 09        	<unknown>
     f2e: 2e 02        	<unknown>
     f30: 00 00        	<unknown>
     f32: 09 00        	<unknown>
     f34: 13 04 09 51  	addi	s0, s2, 1296
     f38: 00 00        	<unknown>
     f3a: 00 09        	<unknown>
     f3c: 01 14        	<unknown>
     f3e: 04 09        	<unknown>
     f40: 49 00        	<unknown>
     f42: 00 00        	<unknown>
     f44: 0a 01        	<unknown>
     f46: 28 00        	<unknown>
     f48: 00 00        	<unknown>
     f4a: 0b 02 15 04  	p.lb	tp, 65(a0!)
     f4e: 12 40        	<unknown>
     f50: 00 00        	<unknown>
     f52: 00 0c        	<unknown>
     f54: 01 5b        	<unknown>
     f56: 16 04        	<unknown>
     f58: 11 37        	<unknown>
     f5a: 02 00        	<unknown>
     f5c: 00 00        	<unknown>
     f5e: 0a 02        	<unknown>
     f60: 20 00        	<unknown>
     f62: 00 00        	<unknown>
     f64: 0c 01        	<unknown>
     f66: 5b 16 04 0c  	<unknown>
     f6a: 41 02        	<unknown>
     f6c: 00 00        	<unknown>
     f6e: 0b 03 15 04  	p.lb	t1, 65(a0!)
     f72: 0d 3b        	<unknown>
     f74: 00 00        	<unknown>
     f76: 00 00        	<unknown>
     f78: 00 07        	<unknown>
     f7a: 03 5c 00 00  	lhu	s8, 0(zero)
     f7e: 00 01        	<unknown>
     f80: 52 0a        	<unknown>
     f82: 04 19        	<unknown>
     f84: 2e 02        	<unknown>
     f86: 00 00        	<unknown>
     f88: 08 01        	<unknown>
     f8a: 5a 12        	<unknown>
     f8c: 04 19        	<unknown>
     f8e: 2e 02        	<unknown>
     f90: 00 00        	<unknown>
     f92: 09 04        	<unknown>
     f94: 17 04 19 2f  	auipc	s0, 192912
     f98: 02 00        	<unknown>
     f9a: 00 09        	<unknown>
     f9c: 05 14        	<unknown>
     f9e: 04 19        	<unknown>
     fa0: 49 00        	<unknown>
     fa2: 00 00        	<unknown>
     fa4: 0a 04        	<unknown>
     fa6: 1c 00        	<unknown>
     fa8: 00 00        	<unknown>
     faa: 0b 06 15 04  	p.lb	a2, 65(a0!)
     fae: 24 40        	<unknown>
     fb0: 00 00        	<unknown>
     fb2: 00 00        	<unknown>
     fb4: 0a 05        	<unknown>
     fb6: 28 00        	<unknown>
     fb8: 00 00        	<unknown>
     fba: 0d 18        	<unknown>
     fbc: 04 1b        	<unknown>
     fbe: 27 00 00 00  	fsb	ft0, 0(zero)
     fc2: 0b 07 15 04  	p.lb	a4, 65(a0!)
     fc6: 20 3b        	<unknown>
     fc8: 00 00        	<unknown>
     fca: 00 00        	<unknown>
     fcc: 00 07        	<unknown>
     fce: 06 1c        	<unknown>
     fd0: 00 00        	<unknown>
     fd2: 00 01        	<unknown>
     fd4: 52 0b        	<unknown>
     fd6: 04 2b        	<unknown>
     fd8: 37 00 00 00  	lui	zero, 0
     fdc: 09 08        	<unknown>
     fde: 16 04        	<unknown>
     fe0: 2b 37 02 00  	<unknown>
     fe4: 00 0b        	<unknown>
     fe6: 09 19        	<unknown>
     fe8: 04 2c        	<unknown>
     fea: 37 02 00 00  	lui	tp, 0
     fee: 00 07        	<unknown>
     ff0: 07 2c 00 00  	flw	fs8, 0(zero)
     ff4: 00 01        	<unknown>
     ff6: 52 0c        	<unknown>
     ff8: 04 32        	<unknown>
     ffa: 2f 02 00 00  	<unknown>
     ffe: 09 0a        	<unknown>
    1000: 1a 04        	<unknown>
    1002: 32 37        	<unknown>
    1004: 02 00        	<unknown>
    1006: 00 08        	<unknown>
    1008: 01 5b        	<unknown>
    100a: 1b 04 32 37  	<unknown>
    100e: 02 00        	<unknown>
    1010: 00 0b        	<unknown>
    1012: 0b 1c 04 33  	p.lh	s8, 816(s0!)
    1016: 61 00        	<unknown>
    1018: 00 00        	<unknown>
    101a: 0b 0c 1d 04  	p.lb	s8, 65(s10!)
    101e: 33 61 00 00  	or	sp, zero, zero
    1022: 00 00        	<unknown>
    1024: 07 08 74 00  	flb	fa6, 7(s0)
    1028: 00 00        	<unknown>
    102a: 01 52        	<unknown>
    102c: 0e 04        	<unknown>
    102e: 3d 2f        	<unknown>
    1030: 02 00        	<unknown>
    1032: 00 09        	<unknown>
    1034: 0d 1a        	<unknown>
    1036: 04 3d        	<unknown>
    1038: 51 00        	<unknown>
    103a: 00 00        	<unknown>
    103c: 09 0e        	<unknown>
    103e: 1b 04 3d 51  	<unknown>
    1042: 00 00        	<unknown>
    1044: 00 09        	<unknown>
    1046: 0f 1e 04 3d  	<unknown>
    104a: 49 00        	<unknown>
    104c: 00 00        	<unknown>
    104e: 0a 09        	<unknown>
    1050: 3c 00        	<unknown>
    1052: 00 00        	<unknown>
    1054: 0b 10 1f 04  	p.lh	zero, 65(t5!)
    1058: 3f 41 02 00  	<unknown>
    105c: 00 0c        	<unknown>
    105e: 01 5b        	<unknown>
    1060: 20 04        	<unknown>
    1062: 40 41        	<unknown>
    1064: 02 00        	<unknown>
    1066: 00 0b        	<unknown>
    1068: 11 21        	<unknown>
    106a: 04 41        	<unknown>
    106c: 41 02        	<unknown>
    106e: 00 00        	<unknown>
    1070: 00 0a        	<unknown>
    1072: 0a 18        	<unknown>
    1074: 00 00        	<unknown>
    1076: 00 0b        	<unknown>
    1078: 12 1c        	<unknown>
    107a: 04 4e        	<unknown>
    107c: 61 00        	<unknown>
    107e: 00 00        	<unknown>
    1080: 0b 13 1d 04  	p.lh	t1, 65(s10!)
    1084: 4f 61 00 00  	<unknown>
    1088: 00 00        	<unknown>
    108a: 00 07        	<unknown>
    108c: 0b 20 00 00  	p.lw	zero, 0(zero!)
    1090: 00 01        	<unknown>
    1092: 52 0f        	<unknown>
    1094: 04 57        	<unknown>
    1096: 40 00        	<unknown>
    1098: 00 00        	<unknown>
    109a: 08 01        	<unknown>
    109c: 5a 12        	<unknown>
    109e: 04 57        	<unknown>
    10a0: 40 00        	<unknown>
    10a2: 00 00        	<unknown>
    10a4: 09 14        	<unknown>
    10a6: 13 04 57 37  	addi	s0, a4, 885
    10aa: 02 00        	<unknown>
    10ac: 00 0b        	<unknown>
    10ae: 15 15        	<unknown>
    10b0: 04 58        	<unknown>
    10b2: 40 00        	<unknown>
    10b4: 00 00        	<unknown>
    10b6: 00 07        	<unknown>
    10b8: 0c 84        	<unknown>
    10ba: 00 00        	<unknown>
    10bc: 00 01        	<unknown>
    10be: 52 10        	<unknown>
    10c0: 04 5e        	<unknown>
    10c2: 33 02 00 00  	add	tp, zero, zero
    10c6: 09 16        	<unknown>
    10c8: 22 04        	<unknown>
    10ca: 5e 37        	<unknown>
    10cc: 02 00        	<unknown>
    10ce: 00 0b        	<unknown>
    10d0: 17 23 04 5f  	auipc	t1, 389186
    10d4: 33 02 00 00  	add	tp, zero, zero
    10d8: 0b 18 24 04  	p.lh	a6, 66(s0!)
    10dc: 60 2f        	<unknown>
    10de: 02 00        	<unknown>
    10e0: 00 00        	<unknown>
    10e2: 0e 03        	<unknown>
    10e4: 0d 05        	<unknown>
    10e6: 04 03        	<unknown>
    10e8: 11 05        	<unknown>
    10ea: 04 04        	<unknown>
    10ec: 3c 02        	<unknown>
    10ee: 00 00        	<unknown>
    10f0: 06 45        	<unknown>
    10f2: 00 00        	<unknown>
    10f4: 00 04        	<unknown>
    10f6: 46 02        	<unknown>
    10f8: 00 00        	<unknown>
    10fa: 06 27        	<unknown>
    10fc: 00 00        	<unknown>
    10fe: 00 00        	<unknown>
    1100: 87 01 00 00  	flb	ft3, 0(zero)
    1104: 05 00        	<unknown>
    1106: 01 04        	<unknown>
    1108: 89 06        	<unknown>
    110a: 00 00        	<unknown>
    110c: 01 00        	<unknown>
    110e: 0c 00        	<unknown>
    1110: 01 08        	<unknown>
    1112: 03 00 00 d4  	lb	zero, -704(zero)
    1116: 19 00        	<unknown>
    1118: 00 02        	<unknown>
    111a: 03 8c 00 00  	lb	s8, 0(ra)
    111e: 00 8c        	<unknown>
    1120: 01 00        	<unknown>
    1122: 00 e0        	<unknown>
    1124: 0e 00        	<unknown>
    1126: 00 02        	<unknown>
    1128: 03 32 00 00  	<unknown>
    112c: 00 03        	<unknown>
    112e: 0d 02        	<unknown>
    1130: a1 00        	<unknown>
    1132: 03 37 00 00  	<unknown>
    1136: 00 04        	<unknown>
    1138: 3f 00 00 00  	<unknown>
    113c: 06 02        	<unknown>
    113e: 30 04        	<unknown>
    1140: 47 00 00 00  	fmsub.s	zero, zero, zero, zero, rne
    1144: 05 01        	<unknown>
    1146: 4f 05 04 07  	fnmadd.b	a0, s0, a6, zero, rne
    114a: 04 06        	<unknown>
    114c: 07 58 00 00  	<unknown>
    1150: 00 03        	<unknown>
    1152: 0e 80        	<unknown>
    1154: 08 02        	<unknown>
    1156: a1 01        	<unknown>
    1158: 07 32 00 00  	<unknown>
    115c: 00 08        	<unknown>
    115e: 65 00        	<unknown>
    1160: 00 00        	<unknown>
    1162: 00 04        	<unknown>
    1164: 00 09        	<unknown>
    1166: 08 08        	<unknown>
    1168: 07 06 09 58  	flb	fa2, 1408(s2)
    116c: 00 00        	<unknown>
    116e: 00 03        	<unknown>
    1170: 10 80        	<unknown>
    1172: 08 02        	<unknown>
    1174: a1 02        	<unknown>
    1176: 0a 0a        	<unknown>
    1178: 04 7e        	<unknown>
    117a: 0b 0b 04 82  	p.lb	s6, -2016(s0!)
    117e: 0c 0c        	<unknown>
    1180: 04 82        	<unknown>
    1182: 37 00 00 00  	lui	zero, 0
    1186: 00 0a        	<unknown>
    1188: 0d 04        	<unknown>
    118a: 83 0d 0e 03  	lb	s11, 48(t3)
    118e: 24 0c        	<unknown>
    1190: 0f 03 24 37  	<unknown>
    1194: 00 00        	<unknown>
    1196: 00 00        	<unknown>
    1198: 0e 03        	<unknown>
    119a: 58 00        	<unknown>
    119c: 00 00        	<unknown>
    119e: 01 52        	<unknown>
    11a0: 10 03        	<unknown>
    11a2: 13 0f 00 0c  	li	t5, 192
    11a6: 03 13 37 00  	lh	t1, 3(a4)
    11aa: 00 00        	<unknown>
    11ac: 10 76        	<unknown>
    11ae: 00 00        	<unknown>
    11b0: 00 04        	<unknown>
    11b2: 08 00        	<unknown>
    11b4: 00 00        	<unknown>
    11b6: 03 1a 05 11  	lh	s4, 272(a0)
    11ba: 87 00 00 00  	flb	ft1, 0(zero)
    11be: 05 0c        	<unknown>
    11c0: 00 00        	<unknown>
    11c2: 00 03        	<unknown>
    11c4: 17 05 11 7a  	auipc	a0, 499984
    11c8: 00 00        	<unknown>
    11ca: 00 05        	<unknown>
    11cc: 0c 00        	<unknown>
    11ce: 00 00        	<unknown>
    11d0: 04 83        	<unknown>
    11d2: 24 12        	<unknown>
    11d4: ff ff ff ff  	<unknown>
    11d8: ff ff ff ff  	<unknown>
    11dc: ff 01 7e 00  	<unknown>
    11e0: 00 00        	<unknown>
    11e2: 00 00        	<unknown>
    11e4: 10 76        	<unknown>
    11e6: 00 00        	<unknown>
    11e8: 00 06        	<unknown>
    11ea: 04 00        	<unknown>
    11ec: 00 00        	<unknown>
    11ee: 03 18 05 11  	lh	a6, 272(a0)
    11f2: 8b 00 00 00  	p.lb	ra, 0(zero!)
    11f6: 07 30 00 00  	<unknown>
    11fa: 00 03        	<unknown>
    11fc: 21 03        	<unknown>
    11fe: 12 80        	<unknown>
    1200: 02 8f        	<unknown>
    1202: 00 00        	<unknown>
    1204: 00 11        	<unknown>
    1206: 87 00 00 00  	flb	ft1, 0(zero)
    120a: 08 0c        	<unknown>
    120c: 00 00        	<unknown>
    120e: 00 03        	<unknown>
    1210: 29 05        	<unknown>
    1212: 11 7a        	<unknown>
    1214: 00 00        	<unknown>
    1216: 00 08        	<unknown>
    1218: 0c 00        	<unknown>
    121a: 00 00        	<unknown>
    121c: 04 83        	<unknown>
    121e: 24 12        	<unknown>
    1220: ff ff ff ff  	<unknown>
    1224: ff ff ff ff  	<unknown>
    1228: ff 01 7e 00  	<unknown>
    122c: 00 00        	<unknown>
    122e: 00 00        	<unknown>
    1230: 10 76        	<unknown>
    1232: 00 00        	<unknown>
    1234: 00 09        	<unknown>
    1236: 04 00        	<unknown>
    1238: 00 00        	<unknown>
    123a: 03 2d 03 00  	lw	s10, 0(t1)
    123e: 00 13        	<unknown>
    1240: 0a 34        	<unknown>
    1242: 00 00        	<unknown>
    1244: 00 01        	<unknown>
    1246: 52 8b        	<unknown>
    1248: 00 00        	<unknown>
    124a: 00 14        	<unknown>
    124c: 01 8f        	<unknown>
    124e: 00 00        	<unknown>
    1250: 00 11        	<unknown>
    1252: 87 00 00 00  	flb	ft1, 0(zero)
    1256: 0b 0c 00 00  	p.lb	s8, 0(zero!)
    125a: 00 03        	<unknown>
    125c: 29 05        	<unknown>
    125e: 11 7a        	<unknown>
    1260: 00 00        	<unknown>
    1262: 00 0b        	<unknown>
    1264: 0c 00        	<unknown>
    1266: 00 00        	<unknown>
    1268: 04 83        	<unknown>
    126a: 24 12        	<unknown>
    126c: ff ff ff ff  	<unknown>
    1270: ff ff ff ff  	<unknown>
    1274: ff 01 7e 00  	<unknown>
    1278: 00 00        	<unknown>
    127a: 00 00        	<unknown>
    127c: 10 76        	<unknown>
    127e: 00 00        	<unknown>
    1280: 00 0c        	<unknown>
    1282: 04 00        	<unknown>
    1284: 00 00        	<unknown>
    1286: 03 2d 03 00  	lw	s10, 0(t1)
    128a: 00           	<unknown>

Disassembly of section .debug_str_offsets:

00000000 <.debug_str_offsets>:
       0: 60 00        	<unknown>
       2: 00 00        	<unknown>
       4: 05 00        	<unknown>
       6: 00 00        	<unknown>
       8: 00 00        	<unknown>
       a: 00 00        	<unknown>
       c: 71 00        	<unknown>
       e: 00 00        	<unknown>
      10: 8b 00 00 00  	p.lb	ra, 0(zero!)
      14: f3 00 00 00  	<unknown>
      18: fa 00        	<unknown>
      1a: 00 00        	<unknown>
      1c: 07 01 00 00  	flb	ft2, 0(zero)
      20: 09 01        	<unknown>
      22: 00 00        	<unknown>
      24: 12 01        	<unknown>
      26: 00 00        	<unknown>
      28: 26 01        	<unknown>
      2a: 00 00        	<unknown>
      2c: 3a 01        	<unknown>
      2e: 00 00        	<unknown>
      30: c0 02        	<unknown>
      32: 00 00        	<unknown>
      34: 47 01 00 00  	fmsub.s	sp, zero, zero, zero, rne
      38: 29 07        	<unknown>
      3a: 00 00        	<unknown>
      3c: 32 01        	<unknown>
      3e: 00 00        	<unknown>
      40: 5a 01        	<unknown>
      42: 00 00        	<unknown>
      44: 6f 01 00 00  	jal	sp, 0x44 <__l1_start+0x44>
      48: 7f 01 00 00  	<unknown>
      4c: 03 01 00 00  	lb	sp, 0(zero)
      50: 84 01        	<unknown>
      52: 00 00        	<unknown>
      54: 8a 01        	<unknown>
      56: 00 00        	<unknown>
      58: 8c 01        	<unknown>
      5a: 00 00        	<unknown>
      5c: 94 01        	<unknown>
      5e: 00 00        	<unknown>
      60: 9e 01        	<unknown>
      62: 00 00        	<unknown>
      64: c0 00        	<unknown>
      66: 00 00        	<unknown>
      68: 05 00        	<unknown>
      6a: 00 00        	<unknown>
      6c: 00 00        	<unknown>
      6e: 00 00        	<unknown>
      70: a7 01 00 00  	fsb	ft0, 3(zero)
      74: 8b 00 00 00  	p.lb	ra, 0(zero!)
      78: 3a 03        	<unknown>
      7a: 00 00        	<unknown>
      7c: 10 02        	<unknown>
      7e: 00 00        	<unknown>
      80: 8a 02        	<unknown>
      82: 00 00        	<unknown>
      84: fa 00        	<unknown>
      86: 00 00        	<unknown>
      88: 07 01 00 00  	flb	ft2, 0(zero)
      8c: 09 01        	<unknown>
      8e: 00 00        	<unknown>
      90: 1c 02        	<unknown>
      92: 00 00        	<unknown>
      94: 21 02        	<unknown>
      96: 00 00        	<unknown>
      98: 2f 02 00 00  	<unknown>
      9c: 3d 02        	<unknown>
      9e: 00 00        	<unknown>
      a0: 47 03 00 00  	fmsub.s	t1, zero, zero, zero, rne
      a4: 12 01        	<unknown>
      a6: 00 00        	<unknown>
      a8: bd 02        	<unknown>
      aa: 00 00        	<unknown>
      ac: 45 02        	<unknown>
      ae: 00 00        	<unknown>
      b0: 19 03        	<unknown>
      b2: 00 00        	<unknown>
      b4: 55 02        	<unknown>
      b6: 00 00        	<unknown>
      b8: 5a 02        	<unknown>
      ba: 00 00        	<unknown>
      bc: 5f 02 00 00  	<unknown>
      c0: 69 02        	<unknown>
      c2: 00 00        	<unknown>
      c4: a9 02        	<unknown>
      c6: 00 00        	<unknown>
      c8: de 04        	<unknown>
      ca: 00 00        	<unknown>
      cc: 03 01 00 00  	lb	sp, 0(zero)
      d0: 77 02 00 00  	<unknown>
      d4: 85 02        	<unknown>
      d6: 00 00        	<unknown>
      d8: 8f 02 00 00  	<unknown>
      dc: 9a 02        	<unknown>
      de: 00 00        	<unknown>
      e0: a4 02        	<unknown>
      e2: 00 00        	<unknown>
      e4: ad 02        	<unknown>
      e6: 00 00        	<unknown>
      e8: b4 02        	<unknown>
      ea: 00 00        	<unknown>
      ec: c2 02        	<unknown>
      ee: 00 00        	<unknown>
      f0: c4 02        	<unknown>
      f2: 00 00        	<unknown>
      f4: cc 02        	<unknown>
      f6: 00 00        	<unknown>
      f8: d8 02        	<unknown>
      fa: 00 00        	<unknown>
      fc: e4 02        	<unknown>
      fe: 00 00        	<unknown>
     100: f4 02        	<unknown>
     102: 00 00        	<unknown>
     104: 06 03        	<unknown>
     106: 00 00        	<unknown>
     108: 11 03        	<unknown>
     10a: 00 00        	<unknown>
     10c: 1f 03 00 00  	<unknown>
     110: 2b 03 00 00  	p.sb	zero, 6(zero!)
     114: 36 03        	<unknown>
     116: 00 00        	<unknown>
     118: 43 03 00 00  	fmadd.s	t1, zero, zero, zero, rne
     11c: 5a 03        	<unknown>
     11e: 00 00        	<unknown>
     120: 52 03        	<unknown>
     122: 00 00        	<unknown>
     124: 5f 03 00 00  	<unknown>
     128: 18 01        	<unknown>
     12a: 00 00        	<unknown>
     12c: 05 00        	<unknown>
     12e: 00 00        	<unknown>
     130: 00 00        	<unknown>
     132: 00 00        	<unknown>
     134: 67 03 00 00  	jalr	t1, zero
     138: 8b 00 00 00  	p.lb	ra, 0(zero!)
     13c: fa 00        	<unknown>
     13e: 00 00        	<unknown>
     140: ff 02 00 00  	<unknown>
     144: bd 02        	<unknown>
     146: 00 00        	<unknown>
     148: d1 03        	<unknown>
     14a: 00 00        	<unknown>
     14c: d3 03 00 00  	fadd.s	t2, zero, zero, rne
     150: 03 01 00 00  	lb	sp, 0(zero)
     154: dd 03        	<unknown>
     156: 00 00        	<unknown>
     158: f4 03        	<unknown>
     15a: 00 00        	<unknown>
     15c: b4 02        	<unknown>
     15e: 00 00        	<unknown>
     160: eb 03 00 00  	<unknown>
     164: f5 04        	<unknown>
     166: 00 00        	<unknown>
     168: fa 03        	<unknown>
     16a: 00 00        	<unknown>
     16c: fe 03        	<unknown>
     16e: 00 00        	<unknown>
     170: 10 04        	<unknown>
     172: 00 00        	<unknown>
     174: 1a 04        	<unknown>
     176: 00 00        	<unknown>
     178: 20 04        	<unknown>
     17a: 00 00        	<unknown>
     17c: 23 04 00 00  	sb	zero, 8(zero)
     180: 29 04        	<unknown>
     182: 00 00        	<unknown>
     184: 29 07        	<unknown>
     186: 00 00        	<unknown>
     188: 2d 04        	<unknown>
     18a: 00 00        	<unknown>
     18c: 38 04        	<unknown>
     18e: 00 00        	<unknown>
     190: 2d 02        	<unknown>
     192: 00 00        	<unknown>
     194: 40 04        	<unknown>
     196: 00 00        	<unknown>
     198: 4d 04        	<unknown>
     19a: 00 00        	<unknown>
     19c: 51 04        	<unknown>
     19e: 00 00        	<unknown>
     1a0: d4 04        	<unknown>
     1a2: 00 00        	<unknown>
     1a4: 89 04        	<unknown>
     1a6: 00 00        	<unknown>
     1a8: 5e 04        	<unknown>
     1aa: 00 00        	<unknown>
     1ac: 65 04        	<unknown>
     1ae: 00 00        	<unknown>
     1b0: 44 06        	<unknown>
     1b2: 00 00        	<unknown>
     1b4: 69 04        	<unknown>
     1b6: 00 00        	<unknown>
     1b8: 5a 03        	<unknown>
     1ba: 00 00        	<unknown>
     1bc: 72 04        	<unknown>
     1be: 00 00        	<unknown>
     1c0: 77 04 00 00  	<unknown>
     1c4: 7d 04        	<unknown>
     1c6: 00 00        	<unknown>
     1c8: 83 04 00 00  	lb	s1, 0(zero)
     1cc: 8d 04        	<unknown>
     1ce: 00 00        	<unknown>
     1d0: 9f 04 00 00  	<unknown>
     1d4: de 04        	<unknown>
     1d6: 00 00        	<unknown>
     1d8: b1 04        	<unknown>
     1da: 00 00        	<unknown>
     1dc: bc 04        	<unknown>
     1de: 00 00        	<unknown>
     1e0: c6 04        	<unknown>
     1e2: 00 00        	<unknown>
     1e4: cf 04 00 00  	fnmadd.s	s1, zero, zero, zero, rne
     1e8: dc 04        	<unknown>
     1ea: 00 00        	<unknown>
     1ec: db 04 00 00  	<unknown>
     1f0: e6 04        	<unknown>
     1f2: 00 00        	<unknown>
     1f4: f0 04        	<unknown>
     1f6: 00 00        	<unknown>
     1f8: f9 04        	<unknown>
     1fa: 00 00        	<unknown>
     1fc: 03 05 00 00  	lb	a0, 0(zero)
     200: 12 01        	<unknown>
     202: 00 00        	<unknown>
     204: 46 04        	<unknown>
     206: 00 00        	<unknown>
     208: 0e 05        	<unknown>
     20a: 00 00        	<unknown>
     20c: 11 05        	<unknown>
     20e: 00 00        	<unknown>
     210: 1b 05 00 00  	<unknown>
     214: 23 05 00 00  	sb	zero, 10(zero)
     218: 46 06        	<unknown>
     21a: 00 00        	<unknown>
     21c: 27 05 00 00  	fsb	ft0, 10(zero)
     220: 31 05        	<unknown>
     222: 00 00        	<unknown>
     224: 33 05 00 00  	add	a0, zero, zero
     228: e6 03        	<unknown>
     22a: 00 00        	<unknown>
     22c: f1 00        	<unknown>
     22e: 00 00        	<unknown>
     230: 54 05        	<unknown>
     232: 00 00        	<unknown>
     234: 39 05        	<unknown>
     236: 00 00        	<unknown>
     238: 43 05 00 00  	fmadd.s	a0, zero, zero, zero, rne
     23c: 49 05        	<unknown>
     23e: 00 00        	<unknown>
     240: 14 04        	<unknown>
     242: 00 00        	<unknown>
     244: 1c 00        	<unknown>
     246: 00 00        	<unknown>
     248: 05 00        	<unknown>
     24a: 00 00        	<unknown>
     24c: 00 00        	<unknown>
     24e: 00 00        	<unknown>
     250: 56 05        	<unknown>
     252: 00 00        	<unknown>
     254: 8b 00 00 00  	p.lb	ra, 0(zero!)
     258: c0 05        	<unknown>
     25a: 00 00        	<unknown>
     25c: 39 05        	<unknown>
     25e: 00 00        	<unknown>
     260: bd 02        	<unknown>
     262: 00 00        	<unknown>
     264: 98 00        	<unknown>
     266: 00 00        	<unknown>
     268: 05 00        	<unknown>
     26a: 00 00        	<unknown>
     26c: 00 00        	<unknown>
     26e: 00 00        	<unknown>
     270: c9 05        	<unknown>
     272: 00 00        	<unknown>
     274: 8b 00 00 00  	p.lb	ra, 0(zero!)
     278: fa 00        	<unknown>
     27a: 00 00        	<unknown>
     27c: d1 03        	<unknown>
     27e: 00 00        	<unknown>
     280: d3 03 00 00  	fadd.s	t2, zero, zero, rne
     284: bd 02        	<unknown>
     286: 00 00        	<unknown>
     288: ff 02 00 00  	<unknown>
     28c: b4 02        	<unknown>
     28e: 00 00        	<unknown>
     290: 33 06 00 00  	add	a2, zero, zero
     294: 3a 06        	<unknown>
     296: 00 00        	<unknown>
     298: 41 06        	<unknown>
     29a: 00 00        	<unknown>
     29c: 48 06        	<unknown>
     29e: 00 00        	<unknown>
     2a0: 03 01 00 00  	lb	sp, 0(zero)
     2a4: 4f 06 00 00  	fnmadd.s	a2, zero, zero, zero, rne
     2a8: 56 06        	<unknown>
     2aa: 00 00        	<unknown>
     2ac: 5d 06        	<unknown>
     2ae: 00 00        	<unknown>
     2b0: e6 03        	<unknown>
     2b2: 00 00        	<unknown>
     2b4: 62 06        	<unknown>
     2b6: 00 00        	<unknown>
     2b8: 67 06 00 00  	jalr	a2, zero
     2bc: 44 06        	<unknown>
     2be: 00 00        	<unknown>
     2c0: 65 03        	<unknown>
     2c2: 00 00        	<unknown>
     2c4: 2d 02        	<unknown>
     2c6: 00 00        	<unknown>
     2c8: 6b 06 00 00  	<unknown>
     2cc: 70 06        	<unknown>
     2ce: 00 00        	<unknown>
     2d0: 54 05        	<unknown>
     2d2: 00 00        	<unknown>
     2d4: 75 06        	<unknown>
     2d6: 00 00        	<unknown>
     2d8: 78 06        	<unknown>
     2da: 00 00        	<unknown>
     2dc: 7b 06 00 00  	<unknown>
     2e0: 7e 06        	<unknown>
     2e2: 00 00        	<unknown>
     2e4: 46 06        	<unknown>
     2e6: 00 00        	<unknown>
     2e8: 81 06        	<unknown>
     2ea: 00 00        	<unknown>
     2ec: 84 06        	<unknown>
     2ee: 00 00        	<unknown>
     2f0: 87 06 00 00  	flb	fa3, 0(zero)
     2f4: 29 04        	<unknown>
     2f6: 00 00        	<unknown>
     2f8: 9a 01        	<unknown>
     2fa: 00 00        	<unknown>
     2fc: 8b 06 00 00  	p.lb	a3, 0(zero!)
     300: 48 00        	<unknown>
     302: 00 00        	<unknown>
     304: 05 00        	<unknown>
     306: 00 00        	<unknown>
     308: 00 00        	<unknown>
     30a: 00 00        	<unknown>
     30c: 90 06        	<unknown>
     30e: 00 00        	<unknown>
     310: 8b 00 00 00  	p.lb	ra, 0(zero!)
     314: 07 07 00 00  	flb	fa4, 0(zero)
     318: fa 00        	<unknown>
     31a: 00 00        	<unknown>
     31c: 07 01 00 00  	flb	ft2, 0(zero)
     320: 09 01        	<unknown>
     322: 00 00        	<unknown>
     324: 03 07 00 00  	lb	a4, 0(zero)
     328: 12 01        	<unknown>
     32a: 00 00        	<unknown>
     32c: 0f 07 00 00  	<unknown>
     330: 1f 07 00 00  	<unknown>
     334: 2b 07 00 00  	p.sb	zero, 14(zero!)
     338: 32 01        	<unknown>
     33a: 00 00        	<unknown>
     33c: 33 07 00 00  	add	a4, zero, zero
     340: 6f 01 00 00  	jal	sp, 0x340 <__l1_start+0x340>
     344: 94 01        	<unknown>
     346: 00 00        	<unknown>
     348: 5a 01        	<unknown>
     34a: 00 00        	<unknown>

Disassembly of section .debug_str:

00000000 <.debug_str>:
       0: 63 6c 61 6e  	bltu	sp, t1, 0x6f8 <__l1_start+0x6f8>
       4: 67 20 76 65  	<unknown>
       8: 72 73        	<unknown>
       a: 69 6f        	<unknown>
       c: 6e 20        	<unknown>
       e: 31 34        	<unknown>
      10: 2e 30        	<unknown>
      12: 2e 36        	<unknown>
      14: 20 28        	<unknown>
      16: 68 74        	<unknown>
      18: 74 70        	<unknown>
      1a: 73 3a 2f 2f  	csrrc	s4, 754, t5
      1e: 67 69 74 68  	<unknown>
      22: 75 62        	<unknown>
      24: 2e 63        	<unknown>
      26: 6f 6d 2f 70  	jal	s10, 0xf6728 <__l1_alloc_base+0xd3e28>
      2a: 75 6c        	<unknown>
      2c: 70 2d        	<unknown>
      2e: 70 6c        	<unknown>
      30: 61 74        	<unknown>
      32: 66 6f        	<unknown>
      34: 72 6d        	<unknown>
      36: 2f 73 6e 69  	<unknown>
      3a: 74 63        	<unknown>
      3c: 68 2d        	<unknown>
      3e: 6c 6c        	<unknown>
      40: 76 6d        	<unknown>
      42: 2e 67        	<unknown>
      44: 69 74        	<unknown>
      46: 20 30        	<unknown>
      48: 31 63        	<unknown>
      4a: 35 39        	<unknown>
      4c: 38 30        	<unknown>
      4e: 31 35        	<unknown>
      50: 32 61        	<unknown>
      52: 33 65 39 38  	<unknown>
      56: 35 61        	<unknown>
      58: 65 32        	<unknown>
      5a: 62 31        	<unknown>
      5c: 39 66        	<unknown>
      5e: 66 61        	<unknown>
      60: 34 31        	<unknown>
      62: 64 34        	<unknown>
      64: 65 66        	<unknown>
      66: 37 63 36 38  	lui	t1, 230246
      6a: 37 36 66 63  	lui	a2, 407139
      6e: 31 29        	<unknown>
      70: 00 67        	<unknown>
      72: 76 73        	<unknown>
      74: 6f 63 5f 74  	jal	t1, 0xf6fb8 <__l1_alloc_base+0xd46b8>
      78: 65 73        	<unknown>
      7a: 74 5f        	<unknown>
      7c: 62 61        	<unknown>
      7e: 72 72        	<unknown>
      80: 69 65        	<unknown>
      82: 72 2f        	<unknown>
      84: 6d 61        	<unknown>
      86: 69 6e        	<unknown>
      88: 2e 63        	<unknown>
      8a: 00 2f        	<unknown>
      8c: 75 73        	<unknown>
      8e: 72 2f        	<unknown>
      90: 73 63 72 61  	csrrsi	t1, 1559, 4
      94: 74 63        	<unknown>
      96: 68 32        	<unknown>
      98: 2f 6c 61 72  	<unknown>
      9c: 61 69        	<unknown>
      9e: 6e 38        	<unknown>
      a0: 2f 79 69 63  	<unknown>
      a4: 7a 68        	<unknown>
      a6: 61 6e        	<unknown>
      a8: 67 2f 74 65  	<unknown>
      ac: 72 61        	<unknown>
      ae: 70 6f        	<unknown>
      b0: 6f 6c 5f 64  	jal	s8, 0xf6ef4 <__l1_alloc_base+0xd45f4>
      b4: 72 61        	<unknown>
      b6: 6d 5f        	<unknown>
      b8: 73 75 62 6d  	csrrci	a0, 1750, 4
      bc: 6f 64 75 6c  	jal	s0, 0x56f82 <__l1_alloc_base+0x34682>
      c0: 65 5f        	<unknown>
      c2: 72 65        	<unknown>
      c4: 62 61        	<unknown>
      c6: 73 65 5f 30  	csrrsi	a0, mtvec, 30
      ca: 35 30        	<unknown>
      cc: 32 5f        	<unknown>
      ce: 32 30        	<unknown>
      d0: 32 34        	<unknown>
      d2: 2f 6d 65 6d  	<unknown>
      d6: 70 6f        	<unknown>
      d8: 6f 6c 2f 73  	jal	s8, 0xf680a <__l1_alloc_base+0xd3f0a>
      dc: 6f 66 74 77  	jal	a2, 0x47052 <__l1_alloc_base+0x24752>
      e0: 61 72        	<unknown>
      e2: 65 2f        	<unknown>
      e4: 61 70        	<unknown>
      e6: 70 73        	<unknown>
      e8: 2f 62 61 72  	<unknown>
      ec: 65 6d        	<unknown>
      ee: 65 74        	<unknown>
      f0: 61 6c        	<unknown>
      f2: 00 72        	<unknown>
      f4: 65 73        	<unknown>
      f6: 75 6c        	<unknown>
      f8: 74 00        	<unknown>
      fa: 75 6e        	<unknown>
      fc: 73 69 67 6e  	csrrsi	s2, 1766, 14
     100: 65 64        	<unknown>
     102: 20 69        	<unknown>
     104: 6e 74        	<unknown>
     106: 00 5f        	<unknown>
     108: 5f 75 69 6e  	<unknown>
     10c: 74 33        	<unknown>
     10e: 32 5f        	<unknown>
     110: 74 00        	<unknown>
     112: 5f 5f 41 52  	<unknown>
     116: 52 41        	<unknown>
     118: 59 5f        	<unknown>
     11a: 53 49 5a 45  	<unknown>
     11e: 5f 54 59 50  	<unknown>
     122: 45 5f        	<unknown>
     124: 5f 00 6d 65  	<unknown>
     128: 6d 70        	<unknown>
     12a: 6f 6f 6c 5f  	jal	t5, 0xc6720 <__l1_alloc_base+0xa3e20>
     12e: 67 65 74 5f  	<unknown>
     132: 63 6f 72 65  	bltu	tp, s7, 0x790 <__l1_start+0x790>
     136: 5f 69 64 00  	<unknown>
     13a: 6d 65        	<unknown>
     13c: 6d 70        	<unknown>
     13e: 6f 6f 6c 5f  	jal	t5, 0xc6734 <__l1_alloc_base+0xa3e34>
     142: 69 64        	<unknown>
     144: 5f 74 00 73  	<unknown>
     148: 69 6d        	<unknown>
     14a: 70 6c        	<unknown>
     14c: 65 5f        	<unknown>
     14e: 63 61 6c 63  	bltu	s8, s6, 0x770 <__l1_start+0x770>
     152: 75 6c        	<unknown>
     154: 61 74        	<unknown>
     156: 69 6f        	<unknown>
     158: 6e 00        	<unknown>
     15a: 6d 65        	<unknown>
     15c: 6d 70        	<unknown>
     15e: 6f 6f 6c 5f  	jal	t5, 0xc6754 <__l1_alloc_base+0xa3e54>
     162: 62 61        	<unknown>
     164: 72 72        	<unknown>
     166: 69 65        	<unknown>
     168: 72 5f        	<unknown>
     16a: 69 6e        	<unknown>
     16c: 69 74        	<unknown>
     16e: 00 6d        	<unknown>
     170: 65 6d        	<unknown>
     172: 70 6f        	<unknown>
     174: 6f 6c 5f 62  	jal	s8, 0xf6f98 <__l1_alloc_base+0xd4698>
     178: 61 72        	<unknown>
     17a: 72 69        	<unknown>
     17c: 65 72        	<unknown>
     17e: 00 6d        	<unknown>
     180: 61 69        	<unknown>
     182: 6e 00        	<unknown>
     184: 65 72        	<unknown>
     186: 72 6f        	<unknown>
     188: 72 00        	<unknown>
     18a: 5f 5f 69 6e  	<unknown>
     18e: 74 33        	<unknown>
     190: 32 5f        	<unknown>
     192: 74 00        	<unknown>
     194: 6e 75        	<unknown>
     196: 6d 5f        	<unknown>
     198: 63 6f 72 65  	bltu	tp, s7, 0x7f6 <__l1_start+0x7f6>
     19c: 73 00 63 68  	<unknown>
     1a0: 65 63        	<unknown>
     1a2: 6b 5f 69 64  	<unknown>
     1a6: 00 2f        	<unknown>
     1a8: 75 73        	<unknown>
     1aa: 72 2f        	<unknown>
     1ac: 73 63 72 61  	csrrsi	t1, 1559, 4
     1b0: 74 63        	<unknown>
     1b2: 68 32        	<unknown>
     1b4: 2f 6c 61 72  	<unknown>
     1b8: 61 69        	<unknown>
     1ba: 6e 38        	<unknown>
     1bc: 2f 79 69 63  	<unknown>
     1c0: 7a 68        	<unknown>
     1c2: 61 6e        	<unknown>
     1c4: 67 2f 74 65  	<unknown>
     1c8: 72 61        	<unknown>
     1ca: 70 6f        	<unknown>
     1cc: 6f 6c 5f 64  	jal	s8, 0xf7010 <__l1_alloc_base+0xd4710>
     1d0: 72 61        	<unknown>
     1d2: 6d 5f        	<unknown>
     1d4: 73 75 62 6d  	csrrci	a0, 1750, 4
     1d8: 6f 64 75 6c  	jal	s0, 0x5709e <__l1_alloc_base+0x3479e>
     1dc: 65 5f        	<unknown>
     1de: 72 65        	<unknown>
     1e0: 62 61        	<unknown>
     1e2: 73 65 5f 30  	csrrsi	a0, mtvec, 30
     1e6: 35 30        	<unknown>
     1e8: 32 5f        	<unknown>
     1ea: 32 30        	<unknown>
     1ec: 32 34        	<unknown>
     1ee: 2f 6d 65 6d  	<unknown>
     1f2: 70 6f        	<unknown>
     1f4: 6f 6c 2f 73  	jal	s8, 0xf6926 <__l1_alloc_base+0xd4026>
     1f8: 6f 66 74 77  	jal	a2, 0x4716e <__l1_alloc_base+0x2486e>
     1fc: 61 72        	<unknown>
     1fe: 65 2f        	<unknown>
     200: 72 75        	<unknown>
     202: 6e 74        	<unknown>
     204: 69 6d        	<unknown>
     206: 65 2f        	<unknown>
     208: 61 6c        	<unknown>
     20a: 6c 6f        	<unknown>
     20c: 63 2e 63 00  	<unknown>
     210: 66 69        	<unknown>
     212: 72 73        	<unknown>
     214: 74 5f        	<unknown>
     216: 62 6c        	<unknown>
     218: 6f 63 6b 00  	jal	t1, 0xb621e <__l1_alloc_base+0x9391e>
     21c: 6e 65        	<unknown>
     21e: 78 74        	<unknown>
     220: 00 61        	<unknown>
     222: 6c 6c        	<unknown>
     224: 6f 63 5f 62  	jal	t1, 0xf7048 <__l1_alloc_base+0xd4748>
     228: 6c 6f        	<unknown>
     22a: 63 6b 5f 73  	bltu	t5, s5, 0x960 <__l1_start+0x960>
     22e: 00 61        	<unknown>
     230: 6c 6c        	<unknown>
     232: 6f 63 5f 62  	jal	t1, 0xf7056 <__l1_alloc_base+0xd4756>
     236: 6c 6f        	<unknown>
     238: 63 6b 5f 74  	bltu	t5, t0, 0x98e <__l1_start+0x98e>
     23c: 00 61        	<unknown>
     23e: 6c 6c        	<unknown>
     240: 6f 63 5f 74  	jal	t1, 0xf7184 <__l1_alloc_base+0xd4884>
     244: 00 61        	<unknown>
     246: 6c 6c        	<unknown>
     248: 6f 63 61 74  	jal	t1, 0x1698e <__l1_start+0x1698e>
     24c: 65 5f        	<unknown>
     24e: 6d 65        	<unknown>
     250: 6d 6f        	<unknown>
     252: 72 79        	<unknown>
     254: 00 63        	<unknown>
     256: 75 72        	<unknown>
     258: 72 00        	<unknown>
     25a: 70 72        	<unknown>
     25c: 65 76        	<unknown>
     25e: 00 6e        	<unknown>
     260: 65 77        	<unknown>
     262: 5f 62 6c 6f  	<unknown>
     266: 63 6b 00 63  	bltu	zero, a6, 0x89c <__l1_start+0x89c>
     26a: 61 6e        	<unknown>
     26c: 61 72        	<unknown>
     26e: 79 5f        	<unknown>
     270: 65 6e        	<unknown>
     272: 63 6f 64 65  	bltu	s0, s6, 0x8d0 <__l1_start+0x8d0>
     276: 00 64        	<unknown>
     278: 6f 6d 61 69  	jal	s10, 0x1690e <__l1_start+0x1690e>
     27c: 6e 5f        	<unknown>
     27e: 6d 61        	<unknown>
     280: 6c 6c        	<unknown>
     282: 6f 63 00 64  	jal	t1, 0x68c2 <__l1_start+0x68c2>
     286: 61 74        	<unknown>
     288: 61 5f        	<unknown>
     28a: 73 69 7a 65  	csrrsi	s2, 1623, 20
     28e: 00 62        	<unknown>
     290: 6c 6f        	<unknown>
     292: 63 6b 5f 73  	bltu	t5, s5, 0x9c8 <__l1_start+0x9c8>
     296: 69 7a        	<unknown>
     298: 65 00        	<unknown>
     29a: 62 6c        	<unknown>
     29c: 6f 63 6b 5f  	jal	t1, 0xb6892 <__l1_alloc_base+0x93f92>
     2a0: 70 74        	<unknown>
     2a2: 72 00        	<unknown>
     2a4: 64 61        	<unknown>
     2a6: 74 61        	<unknown>
     2a8: 5f 70 74 72  	<unknown>
     2ac: 00 63        	<unknown>
     2ae: 61 6e        	<unknown>
     2b0: 61 72        	<unknown>
     2b2: 79 00        	<unknown>
     2b4: 75 6e        	<unknown>
     2b6: 73 69 67 6e  	csrrsi	s2, 1766, 14
     2ba: 65 64        	<unknown>
     2bc: 20 63        	<unknown>
     2be: 68 61        	<unknown>
     2c0: 72 00        	<unknown>
     2c2: 5f 5f 75 69  	<unknown>
     2c6: 6e 74        	<unknown>
     2c8: 38 5f        	<unknown>
     2ca: 74 00        	<unknown>
     2cc: 66 72        	<unknown>
     2ce: 65 65        	<unknown>
     2d0: 5f 6d 65 6d  	<unknown>
     2d4: 6f 72 79 00  	jal	tp, 0x97ada <__l1_alloc_base+0x751da>
     2d8: 64 6f        	<unknown>
     2da: 6d 61        	<unknown>
     2dc: 69 6e        	<unknown>
     2de: 5f 66 72 65  	<unknown>
     2e2: 65 00        	<unknown>
     2e4: 63 61 6e 61  	bltu	t3, s6, 0x8e6 <__l1_start+0x8e6>
     2e8: 72 79        	<unknown>
     2ea: 5f 61 6e 64  	<unknown>
     2ee: 5f 73 69 7a  	<unknown>
     2f2: 65 00        	<unknown>
     2f4: 63 61 6e 61  	bltu	t3, s6, 0x8f6 <__l1_start+0x8f6>
     2f8: 72 79        	<unknown>
     2fa: 5f 61 6e 64  	<unknown>
     2fe: 5f 73 69 7a  	<unknown>
     302: 65 5f        	<unknown>
     304: 74 00        	<unknown>
     306: 61 6c        	<unknown>
     308: 6c 6f        	<unknown>
     30a: 63 5f 69 6e  	bge	s2, t1, 0xa08 <__l1_start+0xa08>
     30e: 69 74        	<unknown>
     310: 00 73        	<unknown>
     312: 69 6d        	<unknown>
     314: 70 6c        	<unknown>
     316: 65 5f        	<unknown>
     318: 6d 61        	<unknown>
     31a: 6c 6c        	<unknown>
     31c: 6f 63 00 73  	jal	t1, 0x6a4c <__l1_start+0x6a4c>
     320: 69 6d        	<unknown>
     322: 70 6c        	<unknown>
     324: 65 5f        	<unknown>
     326: 66 72        	<unknown>
     328: 65 65        	<unknown>
     32a: 00 61        	<unknown>
     32c: 6c 6c        	<unknown>
     32e: 6f 63 5f 64  	jal	t1, 0xf7172 <__l1_alloc_base+0xd4872>
     332: 75 6d        	<unknown>
     334: 70 00        	<unknown>
     336: 67 65 74 5f  	<unknown>
     33a: 61 6c        	<unknown>
     33c: 6c 6f        	<unknown>
     33e: 63 5f 6c 31  	bge	s8, s6, 0x65c <__l1_start+0x65c>
     342: 00 67        	<unknown>
     344: 65 74        	<unknown>
     346: 5f 61 6c 6c  	<unknown>
     34a: 6f 63 5f 74  	jal	t1, 0xf728e <__l1_alloc_base+0xd498e>
     34e: 69 6c        	<unknown>
     350: 65 00        	<unknown>
     352: 61 6c        	<unknown>
     354: 69 67        	<unknown>
     356: 6e 65        	<unknown>
     358: 64 5f        	<unknown>
     35a: 62 61        	<unknown>
     35c: 73 65 00 74  	csrrsi	a0, 1856, 0
     360: 69 6c        	<unknown>
     362: 65 5f        	<unknown>
     364: 69 64        	<unknown>
     366: 00 2f        	<unknown>
     368: 75 73        	<unknown>
     36a: 72 2f        	<unknown>
     36c: 73 63 72 61  	csrrsi	t1, 1559, 4
     370: 74 63        	<unknown>
     372: 68 32        	<unknown>
     374: 2f 6c 61 72  	<unknown>
     378: 61 69        	<unknown>
     37a: 6e 38        	<unknown>
     37c: 2f 79 69 63  	<unknown>
     380: 7a 68        	<unknown>
     382: 61 6e        	<unknown>
     384: 67 2f 74 65  	<unknown>
     388: 72 61        	<unknown>
     38a: 70 6f        	<unknown>
     38c: 6f 6c 5f 64  	jal	s8, 0xf71d0 <__l1_alloc_base+0xd48d0>
     390: 72 61        	<unknown>
     392: 6d 5f        	<unknown>
     394: 73 75 62 6d  	csrrci	a0, 1750, 4
     398: 6f 64 75 6c  	jal	s0, 0x5725e <__l1_alloc_base+0x3495e>
     39c: 65 5f        	<unknown>
     39e: 72 65        	<unknown>
     3a0: 62 61        	<unknown>
     3a2: 73 65 5f 30  	csrrsi	a0, mtvec, 30
     3a6: 35 30        	<unknown>
     3a8: 32 5f        	<unknown>
     3aa: 32 30        	<unknown>
     3ac: 32 34        	<unknown>
     3ae: 2f 6d 65 6d  	<unknown>
     3b2: 70 6f        	<unknown>
     3b4: 6f 6c 2f 73  	jal	s8, 0xf6ae6 <__l1_alloc_base+0xd41e6>
     3b8: 6f 66 74 77  	jal	a2, 0x4732e <__l1_alloc_base+0x24a2e>
     3bc: 61 72        	<unknown>
     3be: 65 2f        	<unknown>
     3c0: 72 75        	<unknown>
     3c2: 6e 74        	<unknown>
     3c4: 69 6d        	<unknown>
     3c6: 65 2f        	<unknown>
     3c8: 70 72        	<unknown>
     3ca: 69 6e        	<unknown>
     3cc: 74 66        	<unknown>
     3ce: 2e 63        	<unknown>
     3d0: 00 5f        	<unknown>
     3d2: 5f 75 69 6e  	<unknown>
     3d6: 74 70        	<unknown>
     3d8: 74 72        	<unknown>
     3da: 5f 74 00 75  	<unknown>
     3de: 6e 73        	<unknown>
     3e0: 69 67        	<unknown>
     3e2: 6e 65        	<unknown>
     3e4: 64 20        	<unknown>
     3e6: 6c 6f        	<unknown>
     3e8: 6e 67        	<unknown>
     3ea: 00 75        	<unknown>
     3ec: 6e 73        	<unknown>
     3ee: 69 67        	<unknown>
     3f0: 6e 65        	<unknown>
     3f2: 64 20        	<unknown>
     3f4: 73 68 6f 72  	csrrsi	a6, mhpmevent6h, 30
     3f8: 74 00        	<unknown>
     3fa: 61 72        	<unknown>
     3fc: 67 00 6f 75  	jr	1878(t5)
     400: 74 5f        	<unknown>
     402: 66 63        	<unknown>
     404: 74 5f        	<unknown>
     406: 77 72 61 70  	<unknown>
     40a: 5f 74 79 70  	<unknown>
     40e: 65 00        	<unknown>
     410: 5f 69 73 5f  	<unknown>
     414: 64 69        	<unknown>
     416: 67 69 74 00  	<unknown>
     41a: 5f 42 6f 6f  	<unknown>
     41e: 6c 00        	<unknown>
     420: 63 68 00 5f  	bltu	zero, a6, 0xa10 <__l1_start+0xa10>
     424: 61 74        	<unknown>
     426: 6f 69 00 73  	jal	s2, 0x6b56 <__l1_start+0x6b56>
     42a: 74 72        	<unknown>
     42c: 00 5f        	<unknown>
     42e: 73 74 72 6e  	csrrci	s0, 1767, 4
     432: 6c 65        	<unknown>
     434: 6e 5f        	<unknown>
     436: 73 00 6d 61  	<unknown>
     43a: 78 73        	<unknown>
     43c: 69 7a        	<unknown>
     43e: 65 00        	<unknown>
     440: 5f 6e 74 6f  	<unknown>
     444: 61 5f        	<unknown>
     446: 66 6f        	<unknown>
     448: 72 6d        	<unknown>
     44a: 61 74        	<unknown>
     44c: 00 6f        	<unknown>
     44e: 75 74        	<unknown>
     450: 00 6f        	<unknown>
     452: 75 74        	<unknown>
     454: 5f 66 63 74  	<unknown>
     458: 5f 74 79 70  	<unknown>
     45c: 65 00        	<unknown>
     45e: 6d 61        	<unknown>
     460: 78 6c        	<unknown>
     462: 65 6e        	<unknown>
     464: 00 62        	<unknown>
     466: 75 66        	<unknown>
     468: 00 6e        	<unknown>
     46a: 65 67        	<unknown>
     46c: 61 74        	<unknown>
     46e: 69 76        	<unknown>
     470: 65 00        	<unknown>
     472: 70 72        	<unknown>
     474: 65 63        	<unknown>
     476: 00 77        	<unknown>
     478: 69 64        	<unknown>
     47a: 74 68        	<unknown>
     47c: 00 66        	<unknown>
     47e: 6c 61        	<unknown>
     480: 67 73 00 73  	<unknown>
     484: 74 61        	<unknown>
     486: 72 74        	<unknown>
     488: 5f 69 64 78  	<unknown>
     48c: 00 44        	<unknown>
     48e: 57 5f 41 54  	<unknown>
     492: 45 5f        	<unknown>
     494: 75 6e        	<unknown>
     496: 73 69 67 6e  	csrrsi	s2, 1766, 14
     49a: 65 64        	<unknown>
     49c: 5f 38 00 44  	<unknown>
     4a0: 57 5f 41 54  	<unknown>
     4a4: 45 5f        	<unknown>
     4a6: 75 6e        	<unknown>
     4a8: 73 69 67 6e  	csrrsi	s2, 1766, 14
     4ac: 65 64        	<unknown>
     4ae: 5f 31 00 5f  	<unknown>
     4b2: 76 73        	<unknown>
     4b4: 6e 70        	<unknown>
     4b6: 72 69        	<unknown>
     4b8: 6e 74        	<unknown>
     4ba: 66 00        	<unknown>
     4bc: 5f 6f 75 74  	<unknown>
     4c0: 5f 63 68 61  	<unknown>
     4c4: 72 00        	<unknown>
     4c6: 73 70 72 69  	csrci	1687, 4
     4ca: 6e 74        	<unknown>
     4cc: 66 5f        	<unknown>
     4ce: 00 5f        	<unknown>
     4d0: 6f 75 74 5f  	jal	a0, 0x482c6 <__l1_alloc_base+0x259c6>
     4d4: 62 75        	<unknown>
     4d6: 66 66        	<unknown>
     4d8: 65 72        	<unknown>
     4da: 00 76        	<unknown>
     4dc: 73 6e 70 72  	csrrsi	t3, mhpmevent7h, 0
     4e0: 69 6e        	<unknown>
     4e2: 74 66        	<unknown>
     4e4: 5f 00 66 63  	<unknown>
     4e8: 74 70        	<unknown>
     4ea: 72 69        	<unknown>
     4ec: 6e 74        	<unknown>
     4ee: 66 00        	<unknown>
     4f0: 5f 6f 75 74  	<unknown>
     4f4: 5f 66 63 74  	<unknown>
     4f8: 00 5f        	<unknown>
     4fa: 6f 75 74 5f  	jal	a0, 0x482f0 <__l1_alloc_base+0x259f0>
     4fe: 6e 75        	<unknown>
     500: 6c 6c        	<unknown>
     502: 00 5f        	<unknown>
     504: 6e 74        	<unknown>
     506: 6f 61 5f 6c  	jal	sp, 0xf73ca <__l1_alloc_base+0xd4aca>
     50a: 6f 6e 67 00  	jal	t3, 0x76510 <__l1_alloc_base+0x53c10>
     50e: 76 61        	<unknown>
     510: 00 5f        	<unknown>
     512: 5f 62 75 69  	<unknown>
     516: 6c 74        	<unknown>
     518: 69 6e        	<unknown>
     51a: 5f 76 61 5f  	<unknown>
     51e: 6c 69        	<unknown>
     520: 73 74 00 72  	csrrci	s0, 1824, 0
     524: 65 74        	<unknown>
     526: 00 70        	<unknown>
     528: 72 65        	<unknown>
     52a: 63 69 73 69  	bltu	t1, s7, 0xbbc <__l1_start+0xbbc>
     52e: 6f 6e 00 77  	jal	t3, 0x6c9e <__l1_start+0x6c9e>
     532: 00 76        	<unknown>
     534: 61 6c        	<unknown>
     536: 75 65        	<unknown>
     538: 00 63        	<unknown>
     53a: 68 61        	<unknown>
     53c: 72 61        	<unknown>
     53e: 63 74 65 72  	bgeu	a0, t1, 0xc66 <__l1_start+0xc66>
     542: 00 63        	<unknown>
     544: 6f 75 6e 74  	jal	a0, 0xe7c8a <__l1_alloc_base+0xc538a>
     548: 00 6f        	<unknown>
     54a: 75 74        	<unknown>
     54c: 5f 66 63 74  	<unknown>
     550: 5f 77 72 61  	<unknown>
     554: 70 00        	<unknown>
     556: 2f 75 73 72  	<unknown>
     55a: 2f 73 63 72  	<unknown>
     55e: 61 74        	<unknown>
     560: 63 68 32 2f  	bltu	tp, s3, 0x850 <__l1_start+0x850>
     564: 6c 61        	<unknown>
     566: 72 61        	<unknown>
     568: 69 6e        	<unknown>
     56a: 38 2f        	<unknown>
     56c: 79 69        	<unknown>
     56e: 63 7a 68 61  	bgeu	a6, s6, 0xb82 <__l1_start+0xb82>
     572: 6e 67        	<unknown>
     574: 2f 74 65 72  	<unknown>
     578: 61 70        	<unknown>
     57a: 6f 6f 6c 5f  	jal	t5, 0xc6b70 <__l1_alloc_base+0xa4270>
     57e: 64 72        	<unknown>
     580: 61 6d        	<unknown>
     582: 5f 73 75 62  	<unknown>
     586: 6d 6f        	<unknown>
     588: 64 75        	<unknown>
     58a: 6c 65        	<unknown>
     58c: 5f 72 65 62  	<unknown>
     590: 61 73        	<unknown>
     592: 65 5f        	<unknown>
     594: 30 35        	<unknown>
     596: 30 32        	<unknown>
     598: 5f 32 30 32  	<unknown>
     59c: 34 2f        	<unknown>
     59e: 6d 65        	<unknown>
     5a0: 6d 70        	<unknown>
     5a2: 6f 6f 6c 2f  	jal	t5, 0xc6898 <__l1_alloc_base+0xa3f98>
     5a6: 73 6f 66 74  	csrrsi	t5, 1862, 12
     5aa: 77 61 72 65  	<unknown>
     5ae: 2f 72 75 6e  	<unknown>
     5b2: 74 69        	<unknown>
     5b4: 6d 65        	<unknown>
     5b6: 2f 73 65 72  	<unknown>
     5ba: 69 61        	<unknown>
     5bc: 6c 2e        	<unknown>
     5be: 63 00 5f 70  	beq	t5, t0, 0xcbe <__l1_start+0xcbe>
     5c2: 75 74        	<unknown>
     5c4: 63 68 61 72  	bltu	sp, t1, 0xcf4 <__l1_start+0xcf4>
     5c8: 00 2f        	<unknown>
     5ca: 75 73        	<unknown>
     5cc: 72 2f        	<unknown>
     5ce: 73 63 72 61  	csrrsi	t1, 1559, 4
     5d2: 74 63        	<unknown>
     5d4: 68 32        	<unknown>
     5d6: 2f 6c 61 72  	<unknown>
     5da: 61 69        	<unknown>
     5dc: 6e 38        	<unknown>
     5de: 2f 79 69 63  	<unknown>
     5e2: 7a 68        	<unknown>
     5e4: 61 6e        	<unknown>
     5e6: 67 2f 74 65  	<unknown>
     5ea: 72 61        	<unknown>
     5ec: 70 6f        	<unknown>
     5ee: 6f 6c 5f 64  	jal	s8, 0xf7432 <__l1_alloc_base+0xd4b32>
     5f2: 72 61        	<unknown>
     5f4: 6d 5f        	<unknown>
     5f6: 73 75 62 6d  	csrrci	a0, 1750, 4
     5fa: 6f 64 75 6c  	jal	s0, 0x574c0 <__l1_alloc_base+0x34bc0>
     5fe: 65 5f        	<unknown>
     600: 72 65        	<unknown>
     602: 62 61        	<unknown>
     604: 73 65 5f 30  	csrrsi	a0, mtvec, 30
     608: 35 30        	<unknown>
     60a: 32 5f        	<unknown>
     60c: 32 30        	<unknown>
     60e: 32 34        	<unknown>
     610: 2f 6d 65 6d  	<unknown>
     614: 70 6f        	<unknown>
     616: 6f 6c 2f 73  	jal	s8, 0xf6d48 <__l1_alloc_base+0xd4448>
     61a: 6f 66 74 77  	jal	a2, 0x47590 <__l1_alloc_base+0x24c90>
     61e: 61 72        	<unknown>
     620: 65 2f        	<unknown>
     622: 72 75        	<unknown>
     624: 6e 74        	<unknown>
     626: 69 6d        	<unknown>
     628: 65 2f        	<unknown>
     62a: 73 74 72 69  	csrrci	s0, 1687, 4
     62e: 6e 67        	<unknown>
     630: 2e 63        	<unknown>
     632: 00 6d        	<unknown>
     634: 65 6d        	<unknown>
     636: 63 70 79 00  	bgeu	s2, t2, 0x636 <__l1_start+0x636>
     63a: 6d 65        	<unknown>
     63c: 6d 73        	<unknown>
     63e: 65 74        	<unknown>
     640: 00 73        	<unknown>
     642: 74 72        	<unknown>
     644: 6c 65        	<unknown>
     646: 6e 00        	<unknown>
     648: 73 74 72 63  	csrrci	s0, 1591, 4
     64c: 6d 70        	<unknown>
     64e: 00 6d        	<unknown>
     650: 65 6d        	<unknown>
     652: 63 6d 70 00  	bltu	zero, t2, 0x66c <__l1_start+0x66c>
     656: 73 74 72 63  	csrrci	s0, 1591, 4
     65a: 70 79        	<unknown>
     65c: 00 61        	<unknown>
     65e: 74 6f        	<unknown>
     660: 6c 00        	<unknown>
     662: 64 65        	<unknown>
     664: 73 74 00 73  	csrrci	s0, mhpmevent16h, 0
     668: 72 63        	<unknown>
     66a: 00 62        	<unknown>
     66c: 79 74        	<unknown>
     66e: 65 00        	<unknown>
     670: 77 6f 72 64  	<unknown>
     674: 00 73        	<unknown>
     676: 31 00        	<unknown>
     678: 73 32 00 63  	csrrc	tp, 1584, zero
     67c: 31 00        	<unknown>
     67e: 63 32 00 75  	<unknown>
     682: 31 00        	<unknown>
     684: 75 32        	<unknown>
     686: 00 65        	<unknown>
     688: 6e 64        	<unknown>
     68a: 00 73        	<unknown>
     68c: 69 67        	<unknown>
     68e: 6e 00        	<unknown>
     690: 2f 75 73 72  	<unknown>
     694: 2f 73 63 72  	<unknown>
     698: 61 74        	<unknown>
     69a: 63 68 32 2f  	bltu	tp, s3, 0x98a <__l1_start+0x98a>
     69e: 6c 61        	<unknown>
     6a0: 72 61        	<unknown>
     6a2: 69 6e        	<unknown>
     6a4: 38 2f        	<unknown>
     6a6: 79 69        	<unknown>
     6a8: 63 7a 68 61  	bgeu	a6, s6, 0xcbc <__l1_start+0xcbc>
     6ac: 6e 67        	<unknown>
     6ae: 2f 74 65 72  	<unknown>
     6b2: 61 70        	<unknown>
     6b4: 6f 6f 6c 5f  	jal	t5, 0xc6caa <__l1_alloc_base+0xa43aa>
     6b8: 64 72        	<unknown>
     6ba: 61 6d        	<unknown>
     6bc: 5f 73 75 62  	<unknown>
     6c0: 6d 6f        	<unknown>
     6c2: 64 75        	<unknown>
     6c4: 6c 65        	<unknown>
     6c6: 5f 72 65 62  	<unknown>
     6ca: 61 73        	<unknown>
     6cc: 65 5f        	<unknown>
     6ce: 30 35        	<unknown>
     6d0: 30 32        	<unknown>
     6d2: 5f 32 30 32  	<unknown>
     6d6: 34 2f        	<unknown>
     6d8: 6d 65        	<unknown>
     6da: 6d 70        	<unknown>
     6dc: 6f 6f 6c 2f  	jal	t5, 0xc69d2 <__l1_alloc_base+0xa40d2>
     6e0: 73 6f 66 74  	csrrsi	t5, 1862, 12
     6e4: 77 61 72 65  	<unknown>
     6e8: 2f 72 75 6e  	<unknown>
     6ec: 74 69        	<unknown>
     6ee: 6d 65        	<unknown>
     6f0: 2f 73 79 6e  	<unknown>
     6f4: 63 68 72 6f  	bltu	tp, s7, 0xde4 <__l1_start+0xde4>
     6f8: 6e 69        	<unknown>
     6fa: 7a 61        	<unknown>
     6fc: 74 69        	<unknown>
     6fe: 6f 6e 2e 63  	jal	t3, 0xe6d30 <__l1_alloc_base+0xc4430>
     702: 00 6c        	<unknown>
     704: 6f 67 5f 62  	jal	a4, 0xf7528 <__l1_alloc_base+0xd4c28>
     708: 61 72        	<unknown>
     70a: 72 69        	<unknown>
     70c: 65 72        	<unknown>
     70e: 00 70        	<unknown>
     710: 61 72        	<unknown>
     712: 74 69        	<unknown>
     714: 61 6c        	<unknown>
     716: 5f 62 61 72  	<unknown>
     71a: 72 69        	<unknown>
     71c: 65 72        	<unknown>
     71e: 00 6d        	<unknown>
     720: 65 6d        	<unknown>
     722: 70 6f        	<unknown>
     724: 6f 6c 5f 77  	jal	s8, 0xf7698 <__l1_alloc_base+0xd4d98>
     728: 66 69        	<unknown>
     72a: 00 77        	<unknown>
     72c: 61 6b        	<unknown>
     72e: 65 5f        	<unknown>
     730: 75 70        	<unknown>
     732: 00 77        	<unknown>
     734: 61 6b        	<unknown>
     736: 65 5f        	<unknown>
     738: 75 70        	<unknown>
     73a: 5f 61 6c 6c  	<unknown>
     73e: 00           	<unknown>

Disassembly of section .debug_addr:

00000000 <.debug_addr>:
       0: 20 00        	<unknown>
       2: 00 00        	<unknown>
       4: 05 00        	<unknown>
       6: 04 00        	<unknown>
       8: 00 00        	<unknown>
       a: 02 00        	<unknown>
       c: 08 01        	<unknown>
       e: 00 80        	<unknown>
      10: 10 01        	<unknown>
      12: 00 80        	<unknown>
      14: 14 01        	<unknown>
      16: 00 80        	<unknown>
      18: 30 01        	<unknown>
      1a: 00 80        	<unknown>
      1c: 50 01        	<unknown>
      1e: 00 80        	<unknown>
      20: 78 01        	<unknown>
      22: 00 80        	<unknown>
      24: 68 00        	<unknown>
      26: 00 00        	<unknown>
      28: 05 00        	<unknown>
      2a: 04 00        	<unknown>
      2c: 00 20        	<unknown>
      2e: 00 80        	<unknown>
      30: 00 28        	<unknown>
      32: 02 00        	<unknown>
      34: 90 01        	<unknown>
      36: 00 80        	<unknown>
      38: b8 01        	<unknown>
      3a: 00 80        	<unknown>
      3c: 54 02        	<unknown>
      3e: 00 80        	<unknown>
      40: 88 02        	<unknown>
      42: 00 80        	<unknown>
      44: e0 01        	<unknown>
      46: 00 80        	<unknown>
      48: 34 02        	<unknown>
      4a: 00 80        	<unknown>
      4c: a8 02        	<unknown>
      4e: 00 80        	<unknown>
      50: 4c 03        	<unknown>
      52: 00 80        	<unknown>
      54: 84 03        	<unknown>
      56: 00 80        	<unknown>
      58: d0 02        	<unknown>
      5a: 00 80        	<unknown>
      5c: 28 03        	<unknown>
      5e: 00 80        	<unknown>
      60: a4 03        	<unknown>
      62: 00 80        	<unknown>
      64: b0 03        	<unknown>
      66: 00 80        	<unknown>
      68: 14 04        	<unknown>
      6a: 00 80        	<unknown>
      6c: 4c 04        	<unknown>
      6e: 00 80        	<unknown>
      70: 54 04        	<unknown>
      72: 00 80        	<unknown>
      74: bc 04        	<unknown>
      76: 00 80        	<unknown>
      78: f8 04        	<unknown>
      7a: 00 80        	<unknown>
      7c: 20 05        	<unknown>
      7e: 00 80        	<unknown>
      80: 44 05        	<unknown>
      82: 00 80        	<unknown>
      84: 68 05        	<unknown>
      86: 00 80        	<unknown>
      88: 88 05        	<unknown>
      8a: 00 80        	<unknown>
      8c: 94 05        	<unknown>
      8e: 00 80        	<unknown>
      90: a8 00        	<unknown>
      92: 00 00        	<unknown>
      94: 05 00        	<unknown>
      96: 04 00        	<unknown>
      98: a8 05        	<unknown>
      9a: 00 80        	<unknown>
      9c: f8 05        	<unknown>
      9e: 00 80        	<unknown>
      a0: 04 06        	<unknown>
      a2: 00 80        	<unknown>
      a4: 10 07        	<unknown>
      a6: 00 80        	<unknown>
      a8: 24 07        	<unknown>
      aa: 00 80        	<unknown>
      ac: 3c 07        	<unknown>
      ae: 00 80        	<unknown>
      b0: a4 07        	<unknown>
      b2: 00 80        	<unknown>
      b4: 60 07        	<unknown>
      b6: 00 80        	<unknown>
      b8: 74 07        	<unknown>
      ba: 00 80        	<unknown>
      bc: 8c 07        	<unknown>
      be: 00 80        	<unknown>
      c0: d8 09        	<unknown>
      c2: 00 80        	<unknown>
      c4: ac 06        	<unknown>
      c6: 00 80        	<unknown>
      c8: 34 09        	<unknown>
      ca: 00 80        	<unknown>
      cc: 2c 0a        	<unknown>
      ce: 00 80        	<unknown>
      d0: 18 0b        	<unknown>
      d2: 00 80        	<unknown>
      d4: 58 0b        	<unknown>
      d6: 00 80        	<unknown>
      d8: 84 0b        	<unknown>
      da: 00 80        	<unknown>
      dc: e8 0b        	<unknown>
      de: 00 80        	<unknown>
      e0: 3c 0c        	<unknown>
      e2: 00 80        	<unknown>
      e4: 74 0c        	<unknown>
      e6: 00 80        	<unknown>
      e8: dc 0c        	<unknown>
      ea: 00 80        	<unknown>
      ec: 20 0d        	<unknown>
      ee: 00 80        	<unknown>
      f0: 60 0d        	<unknown>
      f2: 00 80        	<unknown>
      f4: 70 0d        	<unknown>
      f6: 00 80        	<unknown>
      f8: bc 0d        	<unknown>
      fa: 00 80        	<unknown>
      fc: c8 0d        	<unknown>
      fe: 00 80        	<unknown>
     100: d8 0d        	<unknown>
     102: 00 80        	<unknown>
     104: 20 0e        	<unknown>
     106: 00 80        	<unknown>
     108: 2c 0e        	<unknown>
     10a: 00 80        	<unknown>
     10c: 44 0e        	<unknown>
     10e: 00 80        	<unknown>
     110: 4c 0e        	<unknown>
     112: 00 80        	<unknown>
     114: 9c 0e        	<unknown>
     116: 00 80        	<unknown>
     118: a8 0e        	<unknown>
     11a: 00 80        	<unknown>
     11c: b4 0e        	<unknown>
     11e: 00 80        	<unknown>
     120: bc 0e        	<unknown>
     122: 00 80        	<unknown>
     124: c0 0e        	<unknown>
     126: 00 80        	<unknown>
     128: 6c 11        	<unknown>
     12a: 00 80        	<unknown>
     12c: 94 11        	<unknown>
     12e: 00 80        	<unknown>
     130: 88 11        	<unknown>
     132: 00 80        	<unknown>
     134: b8 11        	<unknown>
     136: 00 80        	<unknown>
     138: fc 11        	<unknown>
     13a: 00 80        	<unknown>
     13c: 08 00        	<unknown>
     13e: 00 00        	<unknown>
     140: 05 00        	<unknown>
     142: 04 00        	<unknown>
     144: 48 12        	<unknown>
     146: 00 80        	<unknown>
     148: 38 00        	<unknown>
     14a: 00 00        	<unknown>
     14c: 05 00        	<unknown>
     14e: 04 00        	<unknown>
     150: 54 12        	<unknown>
     152: 00 80        	<unknown>
     154: 68 12        	<unknown>
     156: 00 80        	<unknown>
     158: 90 12        	<unknown>
     15a: 00 80        	<unknown>
     15c: b4 12        	<unknown>
     15e: 00 80        	<unknown>
     160: c4 12        	<unknown>
     162: 00 80        	<unknown>
     164: e4 12        	<unknown>
     166: 00 80        	<unknown>
     168: 10 13        	<unknown>
     16a: 00 80        	<unknown>
     16c: 2c 13        	<unknown>
     16e: 00 80        	<unknown>
     170: 58 13        	<unknown>
     172: 00 80        	<unknown>
     174: 64 13        	<unknown>
     176: 00 80        	<unknown>
     178: a8 13        	<unknown>
     17a: 00 80        	<unknown>
     17c: cc 13        	<unknown>
     17e: 00 80        	<unknown>
     180: ec 13        	<unknown>
     182: 00 80        	<unknown>
     184: 38 00        	<unknown>
     186: 00 00        	<unknown>
     188: 05 00        	<unknown>
     18a: 04 00        	<unknown>
     18c: 00 04        	<unknown>
     18e: 02 00        	<unknown>
     190: 00 08        	<unknown>
     192: 02 00        	<unknown>
     194: 00 18        	<unknown>
     196: 02 00        	<unknown>
     198: 70 14        	<unknown>
     19a: 00 80        	<unknown>
     19c: 74 14        	<unknown>
     19e: 00 80        	<unknown>
     1a0: 84 14        	<unknown>
     1a2: 00 80        	<unknown>
     1a4: 90 14        	<unknown>
     1a6: 00 80        	<unknown>
     1a8: 94 14        	<unknown>
     1aa: 00 80        	<unknown>
     1ac: b4 14        	<unknown>
     1ae: 00 80        	<unknown>
     1b0: c0 14        	<unknown>
     1b2: 00 80        	<unknown>
     1b4: c8 14        	<unknown>
     1b6: 00 80        	<unknown>
     1b8: e8 14        	<unknown>
     1ba: 00 80        	<unknown>
     1bc: f4 14        	<unknown>
     1be: 00 80        	<unknown>

Disassembly of section .debug_frame:

00000000 <.debug_frame>:
       0: 10 00        	<unknown>
       2: 00 00        	<unknown>
       4: ff ff ff ff  	<unknown>
       8: 04 00        	<unknown>
       a: 04 00        	<unknown>
       c: 01 7c        	<unknown>
       e: 01 0c        	<unknown>
      10: 02 00        	<unknown>
      12: 00 00        	<unknown>
      14: 0c 00        	<unknown>
      16: 00 00        	<unknown>
      18: 00 00        	<unknown>
      1a: 00 00        	<unknown>
      1c: 08 01        	<unknown>
      1e: 00 80        	<unknown>
      20: 08 00        	<unknown>
      22: 00 00        	<unknown>
      24: 18 00        	<unknown>
      26: 00 00        	<unknown>
      28: 00 00        	<unknown>
      2a: 00 00        	<unknown>
      2c: 10 01        	<unknown>
      2e: 00 80        	<unknown>
      30: 80 00        	<unknown>
      32: 00 00        	<unknown>
      34: 44 0e        	<unknown>
      36: 10 4c        	<unknown>
      38: 81 01        	<unknown>
      3a: 88 02        	<unknown>
      3c: 89 03        	<unknown>
      3e: 00 00        	<unknown>
      40: 10 00        	<unknown>
      42: 00 00        	<unknown>
      44: ff ff ff ff  	<unknown>
      48: 04 00        	<unknown>
      4a: 04 00        	<unknown>
      4c: 01 7c        	<unknown>
      4e: 01 0c        	<unknown>
      50: 02 00        	<unknown>
      52: 00 00        	<unknown>
      54: 0c 00        	<unknown>
      56: 00 00        	<unknown>
      58: 40 00        	<unknown>
      5a: 00 00        	<unknown>
      5c: 90 01        	<unknown>
      5e: 00 80        	<unknown>
      60: 28 00        	<unknown>
      62: 00 00        	<unknown>
      64: 14 00        	<unknown>
      66: 00 00        	<unknown>
      68: 40 00        	<unknown>
      6a: 00 00        	<unknown>
      6c: b8 01        	<unknown>
      6e: 00 80        	<unknown>
      70: f0 00        	<unknown>
      72: 00 00        	<unknown>
      74: 44 0e        	<unknown>
      76: 10 44        	<unknown>
      78: 81 01        	<unknown>
      7a: 00 00        	<unknown>
      7c: 14 00        	<unknown>
      7e: 00 00        	<unknown>
      80: 40 00        	<unknown>
      82: 00 00        	<unknown>
      84: a8 02        	<unknown>
      86: 00 80        	<unknown>
      88: fc 00        	<unknown>
      8a: 00 00        	<unknown>
      8c: 44 0e        	<unknown>
      8e: 10 44        	<unknown>
      90: 81 01        	<unknown>
      92: 00 00        	<unknown>
      94: 0c 00        	<unknown>
      96: 00 00        	<unknown>
      98: 40 00        	<unknown>
      9a: 00 00        	<unknown>
      9c: a4 03        	<unknown>
      9e: 00 80        	<unknown>
      a0: a8 00        	<unknown>
      a2: 00 00        	<unknown>
      a4: 0c 00        	<unknown>
      a6: 00 00        	<unknown>
      a8: 40 00        	<unknown>
      aa: 00 00        	<unknown>
      ac: 4c 04        	<unknown>
      ae: 00 80        	<unknown>
      b0: ac 00        	<unknown>
      b2: 00 00        	<unknown>
      b4: 18 00        	<unknown>
      b6: 00 00        	<unknown>
      b8: 40 00        	<unknown>
      ba: 00 00        	<unknown>
      bc: f8 04        	<unknown>
      be: 00 80        	<unknown>
      c0: 90 00        	<unknown>
      c2: 00 00        	<unknown>
      c4: 44 0e        	<unknown>
      c6: 10 50        	<unknown>
      c8: 81 01        	<unknown>
      ca: 88 02        	<unknown>
      cc: 89 03        	<unknown>
      ce: 92 04        	<unknown>
      d0: 0c 00        	<unknown>
      d2: 00 00        	<unknown>
      d4: 40 00        	<unknown>
      d6: 00 00        	<unknown>
      d8: 88 05        	<unknown>
      da: 00 80        	<unknown>
      dc: 0c 00        	<unknown>
      de: 00 00        	<unknown>
      e0: 0c 00        	<unknown>
      e2: 00 00        	<unknown>
      e4: 40 00        	<unknown>
      e6: 00 00        	<unknown>
      e8: 94 05        	<unknown>
      ea: 00 80        	<unknown>
      ec: 14 00        	<unknown>
      ee: 00 00        	<unknown>
      f0: 10 00        	<unknown>
      f2: 00 00        	<unknown>
      f4: ff ff ff ff  	<unknown>
      f8: 04 00        	<unknown>
      fa: 04 00        	<unknown>
      fc: 01 7c        	<unknown>
      fe: 01 0c        	<unknown>
     100: 02 00        	<unknown>
     102: 00 00        	<unknown>
     104: 14 00        	<unknown>
     106: 00 00        	<unknown>
     108: f0 00        	<unknown>
     10a: 00 00        	<unknown>
     10c: a8 05        	<unknown>
     10e: 00 80        	<unknown>
     110: 5c 00        	<unknown>
     112: 00 00        	<unknown>
     114: 44 0e        	<unknown>
     116: 30 44        	<unknown>
     118: 81 09        	<unknown>
     11a: 00 00        	<unknown>
     11c: 2c 00        	<unknown>
     11e: 00 00        	<unknown>
     120: f0 00        	<unknown>
     122: 00 00        	<unknown>
     124: 04 06        	<unknown>
     126: 00 80        	<unknown>
     128: 5c 07        	<unknown>
     12a: 00 00        	<unknown>
     12c: 44 0e        	<unknown>
     12e: 50 74        	<unknown>
     130: 81 01        	<unknown>
     132: 88 02        	<unknown>
     134: 89 03        	<unknown>
     136: 92 04        	<unknown>
     138: 93 05 94 06  	addi	a1, s0, 105
     13c: 95 07        	<unknown>
     13e: 96 08        	<unknown>
     140: 97 09 98 0a  	auipc	s3, 43392
     144: 99 0b        	<unknown>
     146: 9a 0c        	<unknown>
     148: 9b 0d 00 00  	<unknown>
     14c: 0c 00        	<unknown>
     14e: 00 00        	<unknown>
     150: f0 00        	<unknown>
     152: 00 00        	<unknown>
     154: 60 0d        	<unknown>
     156: 00 80        	<unknown>
     158: 10 00        	<unknown>
     15a: 00 00        	<unknown>
     15c: 14 00        	<unknown>
     15e: 00 00        	<unknown>
     160: f0 00        	<unknown>
     162: 00 00        	<unknown>
     164: 70 0d        	<unknown>
     166: 00 80        	<unknown>
     168: 58 00        	<unknown>
     16a: 00 00        	<unknown>
     16c: 44 0e        	<unknown>
     16e: 20 44        	<unknown>
     170: 81 07        	<unknown>
     172: 00 00        	<unknown>
     174: 0c 00        	<unknown>
     176: 00 00        	<unknown>
     178: f0 00        	<unknown>
     17a: 00 00        	<unknown>
     17c: c8 0d        	<unknown>
     17e: 00 80        	<unknown>
     180: 10 00        	<unknown>
     182: 00 00        	<unknown>
     184: 14 00        	<unknown>
     186: 00 00        	<unknown>
     188: f0 00        	<unknown>
     18a: 00 00        	<unknown>
     18c: d8 0d        	<unknown>
     18e: 00 80        	<unknown>
     190: 54 00        	<unknown>
     192: 00 00        	<unknown>
     194: 44 0e        	<unknown>
     196: 20 44        	<unknown>
     198: 81 07        	<unknown>
     19a: 00 00        	<unknown>
     19c: 0c 00        	<unknown>
     19e: 00 00        	<unknown>
     1a0: f0 00        	<unknown>
     1a2: 00 00        	<unknown>
     1a4: 2c 0e        	<unknown>
     1a6: 00 80        	<unknown>
     1a8: 20 00        	<unknown>
     1aa: 00 00        	<unknown>
     1ac: 14 00        	<unknown>
     1ae: 00 00        	<unknown>
     1b0: f0 00        	<unknown>
     1b2: 00 00        	<unknown>
     1b4: 4c 0e        	<unknown>
     1b6: 00 80        	<unknown>
     1b8: 5c 00        	<unknown>
     1ba: 00 00        	<unknown>
     1bc: 44 0e        	<unknown>
     1be: 30 44        	<unknown>
     1c0: 81 07        	<unknown>
     1c2: 00 00        	<unknown>
     1c4: 0c 00        	<unknown>
     1c6: 00 00        	<unknown>
     1c8: f0 00        	<unknown>
     1ca: 00 00        	<unknown>
     1cc: a8 0e        	<unknown>
     1ce: 00 80        	<unknown>
     1d0: 14 00        	<unknown>
     1d2: 00 00        	<unknown>
     1d4: 0c 00        	<unknown>
     1d6: 00 00        	<unknown>
     1d8: f0 00        	<unknown>
     1da: 00 00        	<unknown>
     1dc: bc 0e        	<unknown>
     1de: 00 80        	<unknown>
     1e0: 04 00        	<unknown>
     1e2: 00 00        	<unknown>
     1e4: 28 00        	<unknown>
     1e6: 00 00        	<unknown>
     1e8: f0 00        	<unknown>
     1ea: 00 00        	<unknown>
     1ec: c0 0e        	<unknown>
     1ee: 00 80        	<unknown>
     1f0: 88 03        	<unknown>
     1f2: 00 00        	<unknown>
     1f4: 44 0e        	<unknown>
     1f6: 50 6c        	<unknown>
     1f8: 81 01        	<unknown>
     1fa: 88 02        	<unknown>
     1fc: 89 03        	<unknown>
     1fe: 92 04        	<unknown>
     200: 93 05 94 06  	addi	a1, s0, 105
     204: 95 07        	<unknown>
     206: 96 08        	<unknown>
     208: 97 09 98 0a  	auipc	s3, 43392
     20c: 99 0b        	<unknown>
     20e: 00 00        	<unknown>
     210: 10 00        	<unknown>
     212: 00 00        	<unknown>
     214: ff ff ff ff  	<unknown>
     218: 04 00        	<unknown>
     21a: 04 00        	<unknown>
     21c: 01 7c        	<unknown>
     21e: 01 0c        	<unknown>
     220: 02 00        	<unknown>
     222: 00 00        	<unknown>
     224: 0c 00        	<unknown>
     226: 00 00        	<unknown>
     228: 10 02        	<unknown>
     22a: 00 00        	<unknown>
     22c: 48 12        	<unknown>
     22e: 00 80        	<unknown>
     230: 0c 00        	<unknown>
     232: 00 00        	<unknown>
     234: 10 00        	<unknown>
     236: 00 00        	<unknown>
     238: ff ff ff ff  	<unknown>
     23c: 04 00        	<unknown>
     23e: 04 00        	<unknown>
     240: 01 7c        	<unknown>
     242: 01 0c        	<unknown>
     244: 02 00        	<unknown>
     246: 00 00        	<unknown>
     248: 0c 00        	<unknown>
     24a: 00 00        	<unknown>
     24c: 34 02        	<unknown>
     24e: 00 00        	<unknown>
     250: 54 12        	<unknown>
     252: 00 80        	<unknown>
     254: 60 00        	<unknown>
     256: 00 00        	<unknown>
     258: 0c 00        	<unknown>
     25a: 00 00        	<unknown>
     25c: 34 02        	<unknown>
     25e: 00 00        	<unknown>
     260: b4 12        	<unknown>
     262: 00 80        	<unknown>
     264: 5c 00        	<unknown>
     266: 00 00        	<unknown>
     268: 0c 00        	<unknown>
     26a: 00 00        	<unknown>
     26c: 34 02        	<unknown>
     26e: 00 00        	<unknown>
     270: 10 13        	<unknown>
     272: 00 80        	<unknown>
     274: 1c 00        	<unknown>
     276: 00 00        	<unknown>
     278: 0c 00        	<unknown>
     27a: 00 00        	<unknown>
     27c: 34 02        	<unknown>
     27e: 00 00        	<unknown>
     280: 2c 13        	<unknown>
     282: 00 80        	<unknown>
     284: 2c 00        	<unknown>
     286: 00 00        	<unknown>
     288: 0c 00        	<unknown>
     28a: 00 00        	<unknown>
     28c: 34 02        	<unknown>
     28e: 00 00        	<unknown>
     290: 58 13        	<unknown>
     292: 00 80        	<unknown>
     294: 74 00        	<unknown>
     296: 00 00        	<unknown>
     298: 0c 00        	<unknown>
     29a: 00 00        	<unknown>
     29c: 34 02        	<unknown>
     29e: 00 00        	<unknown>
     2a0: cc 13        	<unknown>
     2a2: 00 80        	<unknown>
     2a4: 20 00        	<unknown>
     2a6: 00 00        	<unknown>
     2a8: 0c 00        	<unknown>
     2aa: 00 00        	<unknown>
     2ac: 34 02        	<unknown>
     2ae: 00 00        	<unknown>
     2b0: ec 13        	<unknown>
     2b2: 00 80        	<unknown>
     2b4: 84 00        	<unknown>
     2b6: 00 00        	<unknown>
     2b8: 10 00        	<unknown>
     2ba: 00 00        	<unknown>
     2bc: ff ff ff ff  	<unknown>
     2c0: 04 00        	<unknown>
     2c2: 04 00        	<unknown>
     2c4: 01 7c        	<unknown>
     2c6: 01 0c        	<unknown>
     2c8: 02 00        	<unknown>
     2ca: 00 00        	<unknown>
     2cc: 0c 00        	<unknown>
     2ce: 00 00        	<unknown>
     2d0: b8 02        	<unknown>
     2d2: 00 00        	<unknown>
     2d4: 70 14        	<unknown>
     2d6: 00 80        	<unknown>
     2d8: 58 00        	<unknown>
     2da: 00 00        	<unknown>
     2dc: 0c 00        	<unknown>
     2de: 00 00        	<unknown>
     2e0: b8 02        	<unknown>
     2e2: 00 00        	<unknown>
     2e4: c8 14        	<unknown>
     2e6: 00 80        	<unknown>
     2e8: 34 00        	<unknown>
     2ea: 00 00        	<unknown>

Disassembly of section .debug_line:

00000000 <.debug_line>:
       0: 2d 01        	<unknown>
       2: 00 00        	<unknown>
       4: 05 00        	<unknown>
       6: 04 00        	<unknown>
       8: 93 00 00 00  	li	ra, 0
       c: 01 01        	<unknown>
       e: 01 fb        	<unknown>
      10: 0e 0d        	<unknown>
      12: 00 01        	<unknown>
      14: 01 01        	<unknown>
      16: 01 00        	<unknown>
      18: 00 00        	<unknown>
      1a: 01 00        	<unknown>
      1c: 00 01        	<unknown>
      1e: 01 01        	<unknown>
      20: 1f 03 00 00  	<unknown>
      24: 00 00        	<unknown>
      26: 68 00        	<unknown>
      28: 00 00        	<unknown>
      2a: b8 00        	<unknown>
      2c: 00 00        	<unknown>
      2e: 03 01 1f 02  	lb	sp, 33(t5)
      32: 0f 05 1e 05  	<unknown>
      36: 11 01        	<unknown>
      38: 00 00        	<unknown>
      3a: 00 0f        	<unknown>
      3c: f9 0b        	<unknown>
      3e: 49 c2        	<unknown>
      40: c5 14        	<unknown>
      42: e7 97 fa 8f  	<unknown>
      46: 6e ce        	<unknown>
      48: 03 1b 3a 2b  	lh	s6, 691(s4)
      4c: 01 00        	<unknown>
      4e: 00 01        	<unknown>
      50: f7 02 4d 06  	<unknown>
      54: 82 a9        	<unknown>
      56: 18 b4        	<unknown>
      58: 1f 94 e8 be  	<unknown>
      5c: 9c d9        	<unknown>
      5e: 04 61        	<unknown>
      60: 72 01        	<unknown>
      62: 00 00        	<unknown>
      64: 01 ab        	<unknown>
      66: 91 4e        	<unknown>
      68: 28 76        	<unknown>
      6a: 01 b2        	<unknown>
      6c: 38 5e        	<unknown>
      6e: 57 88 0e 65  	<unknown>
      72: 99 aa        	<unknown>
      74: 6b ae 01 00  	<unknown>
      78: 00 02        	<unknown>
      7a: 54 e2        	<unknown>
      7c: 7b 38 e5 d5  	<unknown>
      80: de cf        	<unknown>
      82: dc bd        	<unknown>
      84: 4c 9d        	<unknown>
      86: 62 b6        	<unknown>
      88: 1f 65 c0 01  	<unknown>
      8c: 00 00        	<unknown>
      8e: 02 72        	<unknown>
      90: 4e 98        	<unknown>
      92: 8c 16        	<unknown>
      94: 50 e3        	<unknown>
      96: 59 1c        	<unknown>
      98: 48 35        	<unknown>
      9a: 4f 08 5e aa  	<unknown>
      9e: 36 04        	<unknown>
      a0: 00 00        	<unknown>
      a2: 05 02        	<unknown>
      a4: 08 01        	<unknown>
      a6: 00 80        	<unknown>
      a8: 03 0e 01 05  	lb	t3, 80(sp)
      ac: 0e 0a        	<unknown>
      ae: 03 01 09 00  	lb	sp, 0(s2)
      b2: 00 01        	<unknown>
      b4: 05 05        	<unknown>
      b6: 06 03        	<unknown>
      b8: 00 09        	<unknown>
      ba: 04 00        	<unknown>
      bc: 01 05        	<unknown>
      be: 00 06        	<unknown>
      c0: 03 03 09 04  	lb	t1, 64(s2)
      c4: 00 01        	<unknown>
      c6: 04 03        	<unknown>
      c8: 05 03        	<unknown>
      ca: 0a 03        	<unknown>
      cc: 14 09        	<unknown>
      ce: 04 00        	<unknown>
      d0: 01 04        	<unknown>
      d2: 00 03        	<unknown>
      d4: 73 09 10 00  	<unknown>
      d8: 01 05        	<unknown>
      da: 0e 03        	<unknown>
      dc: 76 09        	<unknown>
      de: 0c 00        	<unknown>
      e0: 01 05        	<unknown>
      e2: 03 03 0d 09  	lb	t1, 144(s10)
      e6: 04 00        	<unknown>
      e8: 01 05        	<unknown>
      ea: 13 06 03 00  	mv	a2, t1
      ee: 09 0c        	<unknown>
      f0: 00 01        	<unknown>
      f2: 05 03        	<unknown>
      f4: 06 03        	<unknown>
      f6: 03 09 04 00  	lb	s2, 0(s0)
      fa: 01 06        	<unknown>
      fc: 03 60 09 0c  	<unknown>
     100: 00 01        	<unknown>
     102: 05 25        	<unknown>
     104: 06 03        	<unknown>
     106: 23 09 04 00  	sb	zero, 18(s0)
     10a: 01 05        	<unknown>
     10c: 07 03 01 09  	flb	ft6, 144(sp)
     110: 04 00        	<unknown>
     112: 01 05        	<unknown>
     114: 18 06        	<unknown>
     116: 03 00 09 0c  	lb	zero, 192(s2)
     11a: 00 01        	<unknown>
     11c: 05 03        	<unknown>
     11e: 06 03        	<unknown>
     120: 05 09        	<unknown>
     122: 08 00        	<unknown>
     124: 01 03        	<unknown>
     126: 01 09        	<unknown>
     128: 0c 00        	<unknown>
     12a: 01 09        	<unknown>
     12c: 18 00        	<unknown>
     12e: 00 01        	<unknown>
     130: 01 d3        	<unknown>
     132: 06 00        	<unknown>
     134: 00 05        	<unknown>
     136: 00 04        	<unknown>
     138: 00 a8        	<unknown>
     13a: 00 00        	<unknown>
     13c: 00 01        	<unknown>
     13e: 01 01        	<unknown>
     140: fb 0e 0d 00  	<unknown>
     144: 01 01        	<unknown>
     146: 01 01        	<unknown>
     148: 00 00        	<unknown>
     14a: 00 01        	<unknown>
     14c: 00 00        	<unknown>
     14e: 01 01        	<unknown>
     150: 01 1f        	<unknown>
     152: 03 00 00 00  	lb	zero, 0(zero)
     156: 00 68        	<unknown>
     158: 00 00        	<unknown>
     15a: 00 b8        	<unknown>
     15c: 00 00        	<unknown>
     15e: 00 03        	<unknown>
     160: 01 1f        	<unknown>
     162: 02 0f        	<unknown>
     164: 05 1e        	<unknown>
     166: 06 da        	<unknown>
     168: 01 00        	<unknown>
     16a: 00 00        	<unknown>
     16c: b6 27        	<unknown>
     16e: 75 98        	<unknown>
     170: 69 0f        	<unknown>
     172: 63 4d 61 80  	blt	sp, t1, 0xfffff18c <.comment+0xffffffff7fffd17c>
     176: 41 4c        	<unknown>
     178: 10 c7        	<unknown>
     17a: d9 6c        	<unknown>
     17c: 2b 01 00 00  	p.sb	zero, 2(zero!)
     180: 01 f7        	<unknown>
     182: 02 4d        	<unknown>
     184: 06 82        	<unknown>
     186: a9 18        	<unknown>
     188: b4 1f        	<unknown>
     18a: 94 e8        	<unknown>
     18c: be 9c        	<unknown>
     18e: d9 04        	<unknown>
     190: 61 72        	<unknown>
     192: 01 00        	<unknown>
     194: 00 01        	<unknown>
     196: ab 91 4e 28  	p.sh	tp, 643(t4!)
     19a: 76 01        	<unknown>
     19c: b2 38        	<unknown>
     19e: 5e 57        	<unknown>
     1a0: 88 0e        	<unknown>
     1a2: 65 99        	<unknown>
     1a4: aa 6b        	<unknown>
     1a6: 43 02 00 00  	fmadd.s	tp, zero, zero, zero, rne
     1aa: 02 e9        	<unknown>
     1ac: c0 83        	<unknown>
     1ae: 40 08        	<unknown>
     1b0: ad cc        	<unknown>
     1b2: a9 8d        	<unknown>
     1b4: 0c 85        	<unknown>
     1b6: 62 29        	<unknown>
     1b8: 40 e8        	<unknown>
     1ba: 72 33        	<unknown>
     1bc: 02 00        	<unknown>
     1be: 00 02        	<unknown>
     1c0: b6 27        	<unknown>
     1c2: 75 98        	<unknown>
     1c4: 69 0f        	<unknown>
     1c6: 63 4d 61 80  	blt	sp, t1, 0xfffff1e0 <.comment+0xffffffff7fffd1d0>
     1ca: 41 4c        	<unknown>
     1cc: 10 c7        	<unknown>
     1ce: d9 6c        	<unknown>
     1d0: 53 02 00 00  	fadd.s	tp, zero, zero, rne
     1d4: 02 fd        	<unknown>
     1d6: 23 51 8b f9  	<unknown>
     1da: d9 82        	<unknown>
     1dc: 39 38        	<unknown>
     1de: 21 d0        	<unknown>
     1e0: bf 57 5b ba  	<unknown>
     1e4: 4d 04        	<unknown>
     1e6: 04 00        	<unknown>
     1e8: 05 02        	<unknown>
     1ea: 90 01        	<unknown>
     1ec: 00 80        	<unknown>
     1ee: 03 3c 01 05  	<unknown>
     1f2: 1b 0a 03 02  	<unknown>
     1f6: 09 00        	<unknown>
     1f8: 00 01        	<unknown>
     1fa: 05 35        	<unknown>
     1fc: 03 04 09 08  	lb	s0, 128(s2)
     200: 00 01        	<unknown>
     202: 05 1e        	<unknown>
     204: 06 03        	<unknown>
     206: 00 09        	<unknown>
     208: 04 00        	<unknown>
     20a: 01 05        	<unknown>
     20c: 10 06        	<unknown>
     20e: 03 01 09 04  	lb	sp, 64(s2)
     212: 00 01        	<unknown>
     214: 05 13        	<unknown>
     216: 03 03 09 04  	lb	t1, 64(s2)
     21a: 00 01        	<unknown>
     21c: 05 0e        	<unknown>
     21e: 03 01 09 04  	lb	sp, 64(s2)
     222: 00 01        	<unknown>
     224: 05 13        	<unknown>
     226: 06 03        	<unknown>
     228: 00 09        	<unknown>
     22a: 04 00        	<unknown>
     22c: 01 05        	<unknown>
     22e: 16 06        	<unknown>
     230: 03 01 09 04  	lb	sp, 64(s2)
     234: 00 01        	<unknown>
     236: 05 01        	<unknown>
     238: 03 01 09 04  	lb	sp, 64(s2)
     23c: 00 01        	<unknown>
     23e: 05 00        	<unknown>
     240: 03 2d 09 04  	lw	s10, 64(s2)
     244: 00 01        	<unknown>
     246: 06 03        	<unknown>
     248: 89 7f        	<unknown>
     24a: 09 04        	<unknown>
     24c: 00 01        	<unknown>
     24e: 05 19        	<unknown>
     250: 06 0a        	<unknown>
     252: 03 fa 00 09  	<unknown>
     256: 04 00        	<unknown>
     258: 01 05        	<unknown>
     25a: 12 03        	<unknown>
     25c: 04 09        	<unknown>
     25e: 08 00        	<unknown>
     260: 01 05        	<unknown>
     262: 07 06 03 00  	flb	fa2, 0(t1)
     266: 09 04        	<unknown>
     268: 00 01        	<unknown>
     26a: 05 05        	<unknown>
     26c: 06 03        	<unknown>
     26e: 01 09        	<unknown>
     270: 04 00        	<unknown>
     272: 01 06        	<unknown>
     274: 03 81 7f 09  	lb	sp, 151(t6)
     278: 10 00        	<unknown>
     27a: 01 05        	<unknown>
     27c: 01 06        	<unknown>
     27e: 03 90 01 09  	lh	zero, 144(gp)
     282: 04 00        	<unknown>
     284: 01 05        	<unknown>
     286: 00 06        	<unknown>
     288: 03 f0 7e 09  	<unknown>
     28c: 0c 00        	<unknown>
     28e: 01 05        	<unknown>
     290: 0f 06 03 d5  	<unknown>
     294: 00 09        	<unknown>
     296: 04 00        	<unknown>
     298: 01 05        	<unknown>
     29a: 19 06        	<unknown>
     29c: 03 00 09 04  	lb	zero, 64(s2)
     2a0: 00 01        	<unknown>
     2a2: 05 03        	<unknown>
     2a4: 03 00 09 04  	lb	zero, 64(s2)
     2a8: 00 01        	<unknown>
     2aa: 03 ab 7f 09  	lw	s6, 151(t6)
     2ae: 04 00        	<unknown>
     2b0: 01 05        	<unknown>
     2b2: 0f 03 d5 00  	<unknown>
     2b6: 09 08        	<unknown>
     2b8: 00 01        	<unknown>
     2ba: 05 19        	<unknown>
     2bc: 03 00 09 04  	lb	zero, 64(s2)
     2c0: 00 01        	<unknown>
     2c2: 05 03        	<unknown>
     2c4: 03 00 09 04  	lb	zero, 64(s2)
     2c8: 00 01        	<unknown>
     2ca: 05 09        	<unknown>
     2cc: 06 03        	<unknown>
     2ce: 07 09 04 00  	flb	fs2, 0(s0)
     2d2: 01 05        	<unknown>
     2d4: 00 06        	<unknown>
     2d6: 03 a4 7f 09  	lw	s0, 151(t6)
     2da: 04 00        	<unknown>
     2dc: 01 05        	<unknown>
     2de: 14 06        	<unknown>
     2e0: 03 df 00 09  	lhu	t5, 144(ra)
     2e4: 04 00        	<unknown>
     2e6: 01 05        	<unknown>
     2e8: 05 03        	<unknown>
     2ea: 27 09 08 00  	fsb	ft0, 18(a6)
     2ee: 01 06        	<unknown>
     2f0: 03 fa 7e 09  	<unknown>
     2f4: 10 00        	<unknown>
     2f6: 01 05        	<unknown>
     2f8: 01 06        	<unknown>
     2fa: 03 90 01 09  	lh	zero, 144(gp)
     2fe: 04 00        	<unknown>
     300: 01 05        	<unknown>
     302: 09 03        	<unknown>
     304: 4c 09        	<unknown>
     306: 0c 00        	<unknown>
     308: 01 05        	<unknown>
     30a: 00 06        	<unknown>
     30c: 03 a4 7f 09  	lw	s0, 151(t6)
     310: 04 00        	<unknown>
     312: 01 05        	<unknown>
     314: 1c 06        	<unknown>
     316: 03 e1 00 09  	<unknown>
     31a: 04 00        	<unknown>
     31c: 01 05        	<unknown>
     31e: 41 03        	<unknown>
     320: 04 09        	<unknown>
     322: 08 00        	<unknown>
     324: 01 05        	<unknown>
     326: 24 03        	<unknown>
     328: 01 09        	<unknown>
     32a: 04 00        	<unknown>
     32c: 01 05        	<unknown>
     32e: 17 06 03 00  	auipc	a2, 48
     332: 09 04        	<unknown>
     334: 00 01        	<unknown>
     336: 05 1f        	<unknown>
     338: 06 03        	<unknown>
     33a: 01 09        	<unknown>
     33c: 04 00        	<unknown>
     33e: 01 05        	<unknown>
     340: 17 06 03 00  	auipc	a2, 48
     344: 09 04        	<unknown>
     346: 00 01        	<unknown>
     348: 05 1c        	<unknown>
     34a: 06 03        	<unknown>
     34c: 04 09        	<unknown>
     34e: 04 00        	<unknown>
     350: 01 05        	<unknown>
     352: 41 03        	<unknown>
     354: 7a 09        	<unknown>
     356: 08 00        	<unknown>
     358: 01 05        	<unknown>
     35a: 24 03        	<unknown>
     35c: 01 09        	<unknown>
     35e: 04 00        	<unknown>
     360: 01 05        	<unknown>
     362: 17 06 03 00  	auipc	a2, 48
     366: 09 04        	<unknown>
     368: 00 01        	<unknown>
     36a: 05 1f        	<unknown>
     36c: 06 03        	<unknown>
     36e: 01 09        	<unknown>
     370: 04 00        	<unknown>
     372: 01 05        	<unknown>
     374: 17 06 03 00  	auipc	a2, 48
     378: 09 04        	<unknown>
     37a: 00 01        	<unknown>
     37c: 05 14        	<unknown>
     37e: 06 03        	<unknown>
     380: 02 09        	<unknown>
     382: 04 00        	<unknown>
     384: 01 05        	<unknown>
     386: 10 03        	<unknown>
     388: 4a 09        	<unknown>
     38a: 04 00        	<unknown>
     38c: 01 05        	<unknown>
     38e: 18 06        	<unknown>
     390: 03 00 09 04  	lb	zero, 64(s2)
     394: 00 01        	<unknown>
     396: 05 16        	<unknown>
     398: 03 00 09 04  	lb	zero, 64(s2)
     39c: 00 01        	<unknown>
     39e: 05 1c        	<unknown>
     3a0: 06 03        	<unknown>
     3a2: d8 00        	<unknown>
     3a4: 09 04        	<unknown>
     3a6: 00 01        	<unknown>
     3a8: 05 33        	<unknown>
     3aa: 03 03 09 04  	lb	t1, 64(s2)
     3ae: 00 01        	<unknown>
     3b0: 05 01        	<unknown>
     3b2: 03 02 09 04  	lb	tp, 64(s2)
     3b6: 00 01        	<unknown>
     3b8: 05 00        	<unknown>
     3ba: 03 02 09 0c  	lb	tp, 192(s2)
     3be: 00 01        	<unknown>
     3c0: 06 03        	<unknown>
     3c2: ee 7e        	<unknown>
     3c4: 09 04        	<unknown>
     3c6: 00 01        	<unknown>
     3c8: 05 19        	<unknown>
     3ca: 06 0a        	<unknown>
     3cc: 03 fa 00 09  	<unknown>
     3d0: 04 00        	<unknown>
     3d2: 01 05        	<unknown>
     3d4: 12 03        	<unknown>
     3d6: 04 09        	<unknown>
     3d8: 08 00        	<unknown>
     3da: 01 05        	<unknown>
     3dc: 07 06 03 00  	flb	fa2, 0(t1)
     3e0: 09 04        	<unknown>
     3e2: 00 01        	<unknown>
     3e4: 05 05        	<unknown>
     3e6: 06 03        	<unknown>
     3e8: 01 09        	<unknown>
     3ea: 04 00        	<unknown>
     3ec: 01 06        	<unknown>
     3ee: 03 81 7f 09  	lb	sp, 151(t6)
     3f2: 10 00        	<unknown>
     3f4: 01 05        	<unknown>
     3f6: 03 06 03 93  	lb	a2, -1744(t1)
     3fa: 01 09        	<unknown>
     3fc: 04 00        	<unknown>
     3fe: 01 05        	<unknown>
     400: 00 06        	<unknown>
     402: 03 ed 7e 09  	<unknown>
     406: 0c 00        	<unknown>
     408: 01 05        	<unknown>
     40a: 0f 06 03 d5  	<unknown>
     40e: 00 09        	<unknown>
     410: 08 00        	<unknown>
     412: 01 05        	<unknown>
     414: 19 06        	<unknown>
     416: 03 00 09 04  	lb	zero, 64(s2)
     41a: 00 01        	<unknown>
     41c: 05 03        	<unknown>
     41e: 03 00 09 04  	lb	zero, 64(s2)
     422: 00 01        	<unknown>
     424: 03 ab 7f 09  	lw	s6, 151(t6)
     428: 04 00        	<unknown>
     42a: 01 05        	<unknown>
     42c: 0f 03 d5 00  	<unknown>
     430: 09 08        	<unknown>
     432: 00 01        	<unknown>
     434: 05 19        	<unknown>
     436: 03 00 09 04  	lb	zero, 64(s2)
     43a: 00 01        	<unknown>
     43c: 05 03        	<unknown>
     43e: 03 00 09 04  	lb	zero, 64(s2)
     442: 00 01        	<unknown>
     444: 05 09        	<unknown>
     446: 06 03        	<unknown>
     448: 07 09 04 00  	flb	fs2, 0(s0)
     44c: 01 05        	<unknown>
     44e: 00 06        	<unknown>
     450: 03 a4 7f 09  	lw	s0, 151(t6)
     454: 04 00        	<unknown>
     456: 01 05        	<unknown>
     458: 14 06        	<unknown>
     45a: 03 df 00 09  	lhu	t5, 144(ra)
     45e: 04 00        	<unknown>
     460: 01 05        	<unknown>
     462: 05 03        	<unknown>
     464: 27 09 08 00  	fsb	ft0, 18(a6)
     468: 01 06        	<unknown>
     46a: 03 fa 7e 09  	<unknown>
     46e: 10 00        	<unknown>
     470: 01 05        	<unknown>
     472: 03 06 03 93  	lb	a2, -1744(t1)
     476: 01 09        	<unknown>
     478: 04 00        	<unknown>
     47a: 01 05        	<unknown>
     47c: 09 03        	<unknown>
     47e: 49 09        	<unknown>
     480: 0c 00        	<unknown>
     482: 01 05        	<unknown>
     484: 00 06        	<unknown>
     486: 03 a4 7f 09  	lw	s0, 151(t6)
     48a: 04 00        	<unknown>
     48c: 01 05        	<unknown>
     48e: 1c 06        	<unknown>
     490: 03 e1 00 09  	<unknown>
     494: 04 00        	<unknown>
     496: 01 05        	<unknown>
     498: 41 03        	<unknown>
     49a: 04 09        	<unknown>
     49c: 0c 00        	<unknown>
     49e: 01 05        	<unknown>
     4a0: 24 03        	<unknown>
     4a2: 01 09        	<unknown>
     4a4: 04 00        	<unknown>
     4a6: 01 05        	<unknown>
     4a8: 17 06 03 00  	auipc	a2, 48
     4ac: 09 04        	<unknown>
     4ae: 00 01        	<unknown>
     4b0: 05 1f        	<unknown>
     4b2: 06 03        	<unknown>
     4b4: 01 09        	<unknown>
     4b6: 04 00        	<unknown>
     4b8: 01 05        	<unknown>
     4ba: 1c 03        	<unknown>
     4bc: 04 09        	<unknown>
     4be: 04 00        	<unknown>
     4c0: 01 05        	<unknown>
     4c2: 17 03 7c 09  	auipc	t1, 38848
     4c6: 04 00        	<unknown>
     4c8: 01 05        	<unknown>
     4ca: 1c 03        	<unknown>
     4cc: 04 09        	<unknown>
     4ce: 04 00        	<unknown>
     4d0: 01 05        	<unknown>
     4d2: 41 03        	<unknown>
     4d4: 7a 09        	<unknown>
     4d6: 08 00        	<unknown>
     4d8: 01 05        	<unknown>
     4da: 24 03        	<unknown>
     4dc: 01 09        	<unknown>
     4de: 04 00        	<unknown>
     4e0: 01 05        	<unknown>
     4e2: 17 06 03 00  	auipc	a2, 48
     4e6: 09 04        	<unknown>
     4e8: 00 01        	<unknown>
     4ea: 05 1f        	<unknown>
     4ec: 06 03        	<unknown>
     4ee: 01 09        	<unknown>
     4f0: 04 00        	<unknown>
     4f2: 01 05        	<unknown>
     4f4: 17 06 03 00  	auipc	a2, 48
     4f8: 09 04        	<unknown>
     4fa: 00 01        	<unknown>
     4fc: 05 14        	<unknown>
     4fe: 06 03        	<unknown>
     500: 02 09        	<unknown>
     502: 04 00        	<unknown>
     504: 01 05        	<unknown>
     506: 10 03        	<unknown>
     508: 4a 09        	<unknown>
     50a: 04 00        	<unknown>
     50c: 01 05        	<unknown>
     50e: 18 06        	<unknown>
     510: 03 00 09 04  	lb	zero, 64(s2)
     514: 00 01        	<unknown>
     516: 05 16        	<unknown>
     518: 03 00 09 04  	lb	zero, 64(s2)
     51c: 00 01        	<unknown>
     51e: 05 1c        	<unknown>
     520: 06 03        	<unknown>
     522: d8 00        	<unknown>
     524: 09 04        	<unknown>
     526: 00 01        	<unknown>
     528: 05 33        	<unknown>
     52a: 03 03 09 04  	lb	t1, 64(s2)
     52e: 00 01        	<unknown>
     530: 05 03        	<unknown>
     532: 03 05 09 04  	lb	a0, 64(s2)
     536: 00 01        	<unknown>
     538: 05 00        	<unknown>
     53a: 03 2c 09 0c  	lw	s8, 192(s2)
     53e: 00 01        	<unknown>
     540: 05 2e        	<unknown>
     542: 0a 03        	<unknown>
     544: 02 09        	<unknown>
     546: 04 00        	<unknown>
     548: 01 05        	<unknown>
     54a: 15 03        	<unknown>
     54c: 04 09        	<unknown>
     54e: 04 00        	<unknown>
     550: 01 05        	<unknown>
     552: 0a 03        	<unknown>
     554: e9 7e        	<unknown>
     556: 09 04        	<unknown>
     558: 00 01        	<unknown>
     55a: 05 1e        	<unknown>
     55c: 03 9a 01 09  	lh	s4, 144(gp)
     560: 04 00        	<unknown>
     562: 01 05        	<unknown>
     564: 07 06 03 00  	flb	fa2, 0(t1)
     568: 09 04        	<unknown>
     56a: 00 01        	<unknown>
     56c: 03 b8 7e 09  	<unknown>
     570: 04 00        	<unknown>
     572: 01 05        	<unknown>
     574: 0a 06        	<unknown>
     576: 03 a0 01 09  	lw	zero, 144(gp)
     57a: 14 00        	<unknown>
     57c: 01 05        	<unknown>
     57e: 0f 06 03 00  	<unknown>
     582: 09 04        	<unknown>
     584: 00 01        	<unknown>
     586: 05 12        	<unknown>
     588: 06 03        	<unknown>
     58a: 02 09        	<unknown>
     58c: 08 00        	<unknown>
     58e: 01 05        	<unknown>
     590: 03 03 7e 09  	lb	t1, 151(t3)
     594: 04 00        	<unknown>
     596: 01 05        	<unknown>
     598: 1a 03        	<unknown>
     59a: 06 09        	<unknown>
     59c: 04 00        	<unknown>
     59e: 01 05        	<unknown>
     5a0: 07 06 03 00  	flb	fa2, 0(t1)
     5a4: 09 04        	<unknown>
     5a6: 00 01        	<unknown>
     5a8: 05 15        	<unknown>
     5aa: 06 03        	<unknown>
     5ac: 06 09        	<unknown>
     5ae: 04 00        	<unknown>
     5b0: 01 05        	<unknown>
     5b2: 00 06        	<unknown>
     5b4: 03 d4 7e 09  	lhu	s0, 151(t4)
     5b8: 04 00        	<unknown>
     5ba: 01 05        	<unknown>
     5bc: 07 06 03 b0  	flb	fa2, -1280(t1)
     5c0: 01 09        	<unknown>
     5c2: 04 00        	<unknown>
     5c4: 01 05        	<unknown>
     5c6: 1f 03 02 09  	<unknown>
     5ca: 04 00        	<unknown>
     5cc: 01 05        	<unknown>
     5ce: 17 06 03 00  	auipc	a2, 48
     5d2: 09 04        	<unknown>
     5d4: 00 01        	<unknown>
     5d6: 05 09        	<unknown>
     5d8: 03 00 09 04  	lb	zero, 64(s2)
     5dc: 00 01        	<unknown>
     5de: 05 12        	<unknown>
     5e0: 06 03        	<unknown>
     5e2: 06 09        	<unknown>
     5e4: 04 00        	<unknown>
     5e6: 01 05        	<unknown>
     5e8: 01 03        	<unknown>
     5ea: 17 09 04 00  	auipc	s2, 64
     5ee: 01 05        	<unknown>
     5f0: 05 03        	<unknown>
     5f2: 7a 09        	<unknown>
     5f4: 04 00        	<unknown>
     5f6: 01 05        	<unknown>
     5f8: 24 03        	<unknown>
     5fa: 5f 09 10 00  	<unknown>
     5fe: 01 05        	<unknown>
     600: 1c 06        	<unknown>
     602: 03 00 09 04  	lb	zero, 64(s2)
     606: 00 01        	<unknown>
     608: 05 15        	<unknown>
     60a: 03 00 09 04  	lb	zero, 64(s2)
     60e: 00 01        	<unknown>
     610: 05 1d        	<unknown>
     612: 06 03        	<unknown>
     614: 01 09        	<unknown>
     616: 04 00        	<unknown>
     618: 01 05        	<unknown>
     61a: 00 06        	<unknown>
     61c: 03 d7 7e 09  	lhu	a4, 151(t4)
     620: 04 00        	<unknown>
     622: 01 05        	<unknown>
     624: 07 06 03 b0  	flb	fa2, -1280(t1)
     628: 01 09        	<unknown>
     62a: 04 00        	<unknown>
     62c: 01 05        	<unknown>
     62e: 18 03        	<unknown>
     630: 0b 09 04 00  	p.lb	s2, 0(s0!)
     634: 01 05        	<unknown>
     636: 01 03        	<unknown>
     638: 14 09        	<unknown>
     63a: 04 00        	<unknown>
     63c: 01 05        	<unknown>
     63e: 12 03        	<unknown>
     640: 65 09        	<unknown>
     642: 04 00        	<unknown>
     644: 01 03        	<unknown>
     646: 01 09        	<unknown>
     648: 08 00        	<unknown>
     64a: 01 05        	<unknown>
     64c: 01 03        	<unknown>
     64e: 1a 09        	<unknown>
     650: 04 00        	<unknown>
     652: 01 05        	<unknown>
     654: 00 03        	<unknown>
     656: 02 09        	<unknown>
     658: 04 00        	<unknown>
     65a: 01 05        	<unknown>
     65c: 2e 0a        	<unknown>
     65e: 03 70 09 00  	p.lb	zero, zero(s2)
     662: 00 01        	<unknown>
     664: 05 15        	<unknown>
     666: 03 04 09 04  	lb	s0, 64(s2)
     66a: 00 01        	<unknown>
     66c: 05 0a        	<unknown>
     66e: 03 e9 7e 09  	<unknown>
     672: 04 00        	<unknown>
     674: 01 05        	<unknown>
     676: 1e 03        	<unknown>
     678: 9a 01        	<unknown>
     67a: 09 04        	<unknown>
     67c: 00 01        	<unknown>
     67e: 05 07        	<unknown>
     680: 06 03        	<unknown>
     682: 00 09        	<unknown>
     684: 04 00        	<unknown>
     686: 01 03        	<unknown>
     688: b8 7e        	<unknown>
     68a: 09 04        	<unknown>
     68c: 00 01        	<unknown>
     68e: 05 0a        	<unknown>
     690: 06 03        	<unknown>
     692: a0 01        	<unknown>
     694: 09 18        	<unknown>
     696: 00 01        	<unknown>
     698: 05 0f        	<unknown>
     69a: 06 03        	<unknown>
     69c: 00 09        	<unknown>
     69e: 04 00        	<unknown>
     6a0: 01 05        	<unknown>
     6a2: 12 06        	<unknown>
     6a4: 03 02 09 08  	lb	tp, 128(s2)
     6a8: 00 01        	<unknown>
     6aa: 05 03        	<unknown>
     6ac: 03 7e 09 04  	<unknown>
     6b0: 00 01        	<unknown>
     6b2: 05 1a        	<unknown>
     6b4: 03 06 09 04  	lb	a2, 64(s2)
     6b8: 00 01        	<unknown>
     6ba: 05 07        	<unknown>
     6bc: 06 03        	<unknown>
     6be: 00 09        	<unknown>
     6c0: 04 00        	<unknown>
     6c2: 01 05        	<unknown>
     6c4: 15 06        	<unknown>
     6c6: 03 06 09 04  	lb	a2, 64(s2)
     6ca: 00 01        	<unknown>
     6cc: 05 00        	<unknown>
     6ce: 06 03        	<unknown>
     6d0: d4 7e        	<unknown>
     6d2: 09 04        	<unknown>
     6d4: 00 01        	<unknown>
     6d6: 05 07        	<unknown>
     6d8: 06 03        	<unknown>
     6da: b0 01        	<unknown>
     6dc: 09 04        	<unknown>
     6de: 00 01        	<unknown>
     6e0: 05 1f        	<unknown>
     6e2: 03 02 09 04  	lb	tp, 64(s2)
     6e6: 00 01        	<unknown>
     6e8: 05 17        	<unknown>
     6ea: 06 03        	<unknown>
     6ec: 00 09        	<unknown>
     6ee: 04 00        	<unknown>
     6f0: 01 05        	<unknown>
     6f2: 09 03        	<unknown>
     6f4: 00 09        	<unknown>
     6f6: 04 00        	<unknown>
     6f8: 01 05        	<unknown>
     6fa: 12 06        	<unknown>
     6fc: 03 06 09 04  	lb	a2, 64(s2)
     700: 00 01        	<unknown>
     702: 05 42        	<unknown>
     704: 03 19 09 04  	lh	s2, 64(s2)
     708: 00 01        	<unknown>
     70a: 05 05        	<unknown>
     70c: 03 78 09 04  	<unknown>
     710: 00 01        	<unknown>
     712: 05 24        	<unknown>
     714: 03 5f 09 10  	lhu	t5, 256(s2)
     718: 00 01        	<unknown>
     71a: 05 1c        	<unknown>
     71c: 06 03        	<unknown>
     71e: 00 09        	<unknown>
     720: 04 00        	<unknown>
     722: 01 05        	<unknown>
     724: 15 03        	<unknown>
     726: 00 09        	<unknown>
     728: 04 00        	<unknown>
     72a: 01 05        	<unknown>
     72c: 1d 06        	<unknown>
     72e: 03 01 09 04  	lb	sp, 64(s2)
     732: 00 01        	<unknown>
     734: 05 00        	<unknown>
     736: 06 03        	<unknown>
     738: d7 7e 09 04  	pv.cmpeq.sci.b	t4, s2, 0
     73c: 00 01        	<unknown>
     73e: 05 07        	<unknown>
     740: 06 03        	<unknown>
     742: b0 01        	<unknown>
     744: 09 04        	<unknown>
     746: 00 01        	<unknown>
     748: 05 18        	<unknown>
     74a: 03 0b 09 04  	lb	s6, 64(s2)
     74e: 00 01        	<unknown>
     750: 05 42        	<unknown>
     752: 03 16 09 08  	lh	a2, 128(s2)
     756: 00 01        	<unknown>
     758: 05 12        	<unknown>
     75a: 03 63 09 04  	<unknown>
     75e: 00 01        	<unknown>
     760: 03 01 09 08  	lb	sp, 128(s2)
     764: 00 01        	<unknown>
     766: 05 42        	<unknown>
     768: 03 1c 09 04  	lh	s8, 64(s2)
     76c: 00 01        	<unknown>
     76e: 05 00        	<unknown>
     770: 03 05 09 04  	lb	a0, 64(s2)
     774: 00 01        	<unknown>
     776: 05 20        	<unknown>
     778: 0a 03        	<unknown>
     77a: 02 09        	<unknown>
     77c: 04 00        	<unknown>
     77e: 01 05        	<unknown>
     780: 03 03 02 09  	lb	t1, 144(tp)
     784: 14 00        	<unknown>
     786: 01 06        	<unknown>
     788: 03 a6 7e 09  	lw	a2, 151(t4)
     78c: 10 00        	<unknown>
     78e: 01 06        	<unknown>
     790: 03 dd 01 09  	lhu	s10, 144(gp)
     794: 08 00        	<unknown>
     796: 01 05        	<unknown>
     798: 00 06        	<unknown>
     79a: 03 a3 7e 09  	lw	t1, 151(t4)
     79e: 04 00        	<unknown>
     7a0: 01 05        	<unknown>
     7a2: 48 06        	<unknown>
     7a4: 03 df 01 09  	lhu	t5, 144(gp)
     7a8: 04 00        	<unknown>
     7aa: 01 05        	<unknown>
     7ac: 05 06        	<unknown>
     7ae: 03 00 09 04  	lb	zero, 64(s2)
     7b2: 00 01        	<unknown>
     7b4: 05 0f        	<unknown>
     7b6: 06 03        	<unknown>
     7b8: 03 09 10 00  	lb	s2, 1(zero)
     7bc: 01 05        	<unknown>
     7be: 09 06        	<unknown>
     7c0: 03 00 09 04  	lb	zero, 64(s2)
     7c4: 00 01        	<unknown>
     7c6: 05 07        	<unknown>
     7c8: 06 03        	<unknown>
     7ca: 01 09        	<unknown>
     7cc: 04 00        	<unknown>
     7ce: 01 05        	<unknown>
     7d0: 01 03        	<unknown>
     7d2: 07 09 24 00  	flb	fs2, 2(s0)
     7d6: 01 05        	<unknown>
     7d8: 00 03        	<unknown>
     7da: 05 09        	<unknown>
     7dc: 18 00        	<unknown>
     7de: 01 05        	<unknown>
     7e0: 1b 0a 03 00  	<unknown>
     7e4: 09 00        	<unknown>
     7e6: 00 01        	<unknown>
     7e8: 05 00        	<unknown>
     7ea: 03 02 09 0c  	lb	tp, 192(s2)
     7ee: 00 01        	<unknown>
     7f0: 05 3b        	<unknown>
     7f2: 0a 03        	<unknown>
     7f4: 00 09        	<unknown>
     7f6: 00 00        	<unknown>
     7f8: 01 05        	<unknown>
     7fa: 33 06 03 00  	add	a2, t1, zero
     7fe: 09 10        	<unknown>
     800: 00 01        	<unknown>
     802: 09 04        	<unknown>
     804: 00 00        	<unknown>
     806: 01 01        	<unknown>
     808: 7a 00        	<unknown>
     80a: 00 00        	<unknown>
     80c: 05 00        	<unknown>
     80e: 04 00        	<unknown>
     810: 25 00        	<unknown>
     812: 00 00        	<unknown>
     814: 01 01        	<unknown>
     816: 01 fb        	<unknown>
     818: 0e 0d        	<unknown>
     81a: 00 01        	<unknown>
     81c: 01 01        	<unknown>
     81e: 01 00        	<unknown>
     820: 00 00        	<unknown>
     822: 01 00        	<unknown>
     824: 00 01        	<unknown>
     826: 01 01        	<unknown>
     828: 1f 01 00 00  	<unknown>
     82c: 00 00        	<unknown>
     82e: 02 01        	<unknown>
     830: 1f 02 0f 01  	<unknown>
     834: 64 02        	<unknown>
     836: 00 00        	<unknown>
     838: 00 04        	<unknown>
     83a: 00 00        	<unknown>
     83c: 05 02        	<unknown>
     83e: 00 00        	<unknown>
     840: 00 80        	<unknown>
     842: 03 12 01 4b  	lh	tp, 1200(sp)
     846: 4e 4c        	<unknown>
     848: 4b 4b 4b 4b  	<unknown>
     84c: 4b 4b 4b 4b  	<unknown>
     850: 4b 4b 4b 4b  	<unknown>
     854: 4b 4b 4b 4b  	<unknown>
     858: 4b 4b 4b 4b  	<unknown>
     85c: 4b 4b 4b 4b  	<unknown>
     860: 4b 4b 4b 4b  	<unknown>
     864: 4b 4b 83 4c  	fnmsub.h	s6, t1, s0, s1, rmm
     868: 4b 4c 4b 4b  	<unknown>
     86c: 4b 4b 4b 4c  	fnmsub.h	s6, s6, tp, s1, rmm
     870: 4b 4c 4b 4b  	<unknown>
     874: 4c 4b        	<unknown>
     876: 4c 4b        	<unknown>
     878: 83 83 4c 85  	lb	t2, -1964(s9)
     87c: 83 4b 4b 4b  	lbu	s7, 1204(s6)
     880: 83 02 04 00  	lb	t0, 0(s0)
     884: 01 01        	<unknown>
     886: 60 0c        	<unknown>
     888: 00 00        	<unknown>
     88a: 05 00        	<unknown>
     88c: 04 00        	<unknown>
     88e: a8 00        	<unknown>
     890: 00 00        	<unknown>
     892: 01 01        	<unknown>
     894: 01 fb        	<unknown>
     896: 0e 0d        	<unknown>
     898: 00 01        	<unknown>
     89a: 01 01        	<unknown>
     89c: 01 00        	<unknown>
     89e: 00 00        	<unknown>
     8a0: 01 00        	<unknown>
     8a2: 00 01        	<unknown>
     8a4: 01 01        	<unknown>
     8a6: 1f 03 00 00  	<unknown>
     8aa: 00 00        	<unknown>
     8ac: 68 00        	<unknown>
     8ae: 00 00        	<unknown>
     8b0: b8 00        	<unknown>
     8b2: 00 00        	<unknown>
     8b4: 03 01 1f 02  	lb	sp, 33(t5)
     8b8: 0f 05 1e 06  	<unknown>
     8bc: cc 02        	<unknown>
     8be: 00 00        	<unknown>
     8c0: 00 ae        	<unknown>
     8c2: 94 f7        	<unknown>
     8c4: 9e 11        	<unknown>
     8c6: c5 99        	<unknown>
     8c8: c1 04        	<unknown>
     8ca: 4f 50 17 ef  	<unknown>
     8ce: 94 80        	<unknown>
     8d0: 74 36        	<unknown>
     8d2: 03 00 00 01  	lb	zero, 16(zero)
     8d6: 24 99        	<unknown>
     8d8: dd 23        	<unknown>
     8da: 61 b9        	<unknown>
     8dc: 15 72        	<unknown>
     8de: 4b 07 32 82  	<unknown>
     8e2: be a3        	<unknown>
     8e4: a7 bc 2b 01  	<unknown>
     8e8: 00 00        	<unknown>
     8ea: 01 f7        	<unknown>
     8ec: 02 4d        	<unknown>
     8ee: 06 82        	<unknown>
     8f0: a9 18        	<unknown>
     8f2: b4 1f        	<unknown>
     8f4: 94 e8        	<unknown>
     8f6: be 9c        	<unknown>
     8f8: d9 04        	<unknown>
     8fa: 61 72        	<unknown>
     8fc: 01 00        	<unknown>
     8fe: 00 01        	<unknown>
     900: ab 91 4e 28  	p.sh	tp, 643(t4!)
     904: 76 01        	<unknown>
     906: b2 38        	<unknown>
     908: 5e 57        	<unknown>
     90a: 88 0e        	<unknown>
     90c: 65 99        	<unknown>
     90e: aa 6b        	<unknown>
     910: 25 03        	<unknown>
     912: 00 00        	<unknown>
     914: 02 ae        	<unknown>
     916: 94 f7        	<unknown>
     918: 9e 11        	<unknown>
     91a: c5 99        	<unknown>
     91c: c1 04        	<unknown>
     91e: 4f 50 17 ef  	<unknown>
     922: 94 80        	<unknown>
     924: 74 65        	<unknown>
     926: 03 00 00 01  	lb	zero, 16(zero)
     92a: 4d e3        	<unknown>
     92c: cb d9 31 b5  	<unknown>
     930: 89 d2        	<unknown>
     932: 91 e5        	<unknown>
     934: c3 93 87 ae  	fmadd.b	t2, a5, s0, s5, rtz
     938: cf 82 04 04  	fnmadd.h	t0, s1, zero, zero, rne
     93c: 00 05        	<unknown>
     93e: 02 a8        	<unknown>
     940: 05 00        	<unknown>
     942: 80 03        	<unknown>
     944: f1 05        	<unknown>
     946: 01 05        	<unknown>
     948: 03 0a 03 02  	lb	s4, 32(t1)
     94c: 09 2c        	<unknown>
     94e: 00 01        	<unknown>
     950: 05 13        	<unknown>
     952: 03 02 09 04  	lb	tp, 64(s2)
     956: 00 01        	<unknown>
     958: 05 03        	<unknown>
     95a: 03 02 09 20  	lb	tp, 512(s2)
     95e: 00 01        	<unknown>
     960: 05 00        	<unknown>
     962: 03 cb 7d 09  	lbu	s6, 151(s11)
     966: 0c 00        	<unknown>
     968: 01 05        	<unknown>
     96a: 07 0a 03 04  	flb	fs4, 64(t1)
     96e: 09 48        	<unknown>
     970: 00 01        	<unknown>
     972: 06 03        	<unknown>
     974: b9 7c        	<unknown>
     976: 09 04        	<unknown>
     978: 00 01        	<unknown>
     97a: 05 03        	<unknown>
     97c: 06 03        	<unknown>
     97e: cc 03        	<unknown>
     980: 09 38        	<unknown>
     982: 00 01        	<unknown>
     984: 05 0a        	<unknown>
     986: 06 03        	<unknown>
     988: 00 09        	<unknown>
     98a: 04 00        	<unknown>
     98c: 01 05        	<unknown>
     98e: 03 03 00 09  	lb	t1, 144(zero)
     992: 04 00        	<unknown>
     994: 01 05        	<unknown>
     996: 1f 06 03 04  	<unknown>
     99a: 09 08        	<unknown>
     99c: 00 01        	<unknown>
     99e: 05 07        	<unknown>
     9a0: 06 03        	<unknown>
     9a2: 00 09        	<unknown>
     9a4: 04 00        	<unknown>
     9a6: 01 05        	<unknown>
     9a8: 0d 06        	<unknown>
     9aa: 03 01 09 10  	lb	sp, 256(s2)
     9ae: 00 01        	<unknown>
     9b0: 05 07        	<unknown>
     9b2: 03 01 09 04  	lb	sp, 64(s2)
     9b6: 00 01        	<unknown>
     9b8: 05 0a        	<unknown>
     9ba: 03 7a 09 08  	<unknown>
     9be: 00 01        	<unknown>
     9c0: 05 03        	<unknown>
     9c2: 06 03        	<unknown>
     9c4: 00 09        	<unknown>
     9c6: 04 00        	<unknown>
     9c8: 01 03        	<unknown>
     9ca: b4 7c        	<unknown>
     9cc: 09 08        	<unknown>
     9ce: 00 01        	<unknown>
     9d0: 05 05        	<unknown>
     9d2: 06 03        	<unknown>
     9d4: f9 03        	<unknown>
     9d6: 09 10        	<unknown>
     9d8: 00 01        	<unknown>
     9da: 05 0f        	<unknown>
     9dc: 03 62 09 04  	<unknown>
     9e0: 00 01        	<unknown>
     9e2: 05 07        	<unknown>
     9e4: 06 03        	<unknown>
     9e6: 00 09        	<unknown>
     9e8: 04 00        	<unknown>
     9ea: 01 03        	<unknown>
     9ec: a5 7c        	<unknown>
     9ee: 09 08        	<unknown>
     9f0: 00 01        	<unknown>
     9f2: 05 3c        	<unknown>
     9f4: 06 03        	<unknown>
     9f6: 9b 01 09 2c  	<unknown>
     9fa: 00 01        	<unknown>
     9fc: 05 09        	<unknown>
     9fe: 03 e2 02 09  	<unknown>
     a02: 08 00        	<unknown>
     a04: 01 06        	<unknown>
     a06: 03 83 7c 09  	lb	t1, 151(s9)
     a0a: 08 00        	<unknown>
     a0c: 01 05        	<unknown>
     a0e: 0b 06 03 a1  	p.lb	a2, -1520(t1!)
     a12: 01 09        	<unknown>
     a14: 04 00        	<unknown>
     a16: 01 05        	<unknown>
     a18: 22 06        	<unknown>
     a1a: 03 00 09 04  	lb	zero, 64(s2)
     a1e: 00 01        	<unknown>
     a20: 05 14        	<unknown>
     a22: 06 03        	<unknown>
     a24: 7f 09 04 00  	<unknown>
     a28: 01 05        	<unknown>
     a2a: 2a 03        	<unknown>
     a2c: 01 09        	<unknown>
     a2e: 04 00        	<unknown>
     a30: 01 05        	<unknown>
     a32: 2e 06        	<unknown>
     a34: 03 00 09 04  	lb	zero, 64(s2)
     a38: 00 01        	<unknown>
     a3a: 05 11        	<unknown>
     a3c: 03 00 09 04  	lb	zero, 64(s2)
     a40: 00 01        	<unknown>
     a42: 05 3c        	<unknown>
     a44: 06 03        	<unknown>
     a46: 7a 09        	<unknown>
     a48: 04 00        	<unknown>
     a4a: 01 05        	<unknown>
     a4c: 03 03 05 09  	lb	t1, 144(a0)
     a50: 08 00        	<unknown>
     a52: 01 06        	<unknown>
     a54: 03 e0 7e 09  	<unknown>
     a58: 04 00        	<unknown>
     a5a: 01 05        	<unknown>
     a5c: 09 06        	<unknown>
     a5e: 03 8c 04 09  	lb	s8, 144(s1)
     a62: 04 00        	<unknown>
     a64: 01 05        	<unknown>
     a66: 0d 03        	<unknown>
     a68: 01 09        	<unknown>
     a6a: 08 00        	<unknown>
     a6c: 01 03        	<unknown>
     a6e: 01 09        	<unknown>
     a70: 04 00        	<unknown>
     a72: 01 05        	<unknown>
     a74: 15 03        	<unknown>
     a76: 01 09        	<unknown>
     a78: 04 00        	<unknown>
     a7a: 01 05        	<unknown>
     a7c: 3c 03        	<unknown>
     a7e: 8c 7d        	<unknown>
     a80: 09 04        	<unknown>
     a82: 00 01        	<unknown>
     a84: 05 0b        	<unknown>
     a86: 03 f4 02 09  	<unknown>
     a8a: 0c 00        	<unknown>
     a8c: 01 06        	<unknown>
     a8e: 03 f1 7b 09  	<unknown>
     a92: 04 00        	<unknown>
     a94: 01 06        	<unknown>
     a96: 03 a1 01 09  	lw	sp, 144(gp)
     a9a: 04 00        	<unknown>
     a9c: 01 05        	<unknown>
     a9e: 22 06        	<unknown>
     aa0: 03 00 09 04  	lb	zero, 64(s2)
     aa4: 00 01        	<unknown>
     aa6: 05 14        	<unknown>
     aa8: 06 03        	<unknown>
     aaa: 7f 09 04 00  	<unknown>
     aae: 01 05        	<unknown>
     ab0: 2a 03        	<unknown>
     ab2: 01 09        	<unknown>
     ab4: 04 00        	<unknown>
     ab6: 01 05        	<unknown>
     ab8: 2e 06        	<unknown>
     aba: 03 00 09 04  	lb	zero, 64(s2)
     abe: 00 01        	<unknown>
     ac0: 05 11        	<unknown>
     ac2: 03 00 09 04  	lb	zero, 64(s2)
     ac6: 00 01        	<unknown>
     ac8: 05 3c        	<unknown>
     aca: 06 03        	<unknown>
     acc: 7a 09        	<unknown>
     ace: 04 00        	<unknown>
     ad0: 01 05        	<unknown>
     ad2: 03 03 05 09  	lb	t1, 144(a0)
     ad6: 08 00        	<unknown>
     ad8: 01 05        	<unknown>
     ada: 10 03        	<unknown>
     adc: df 02 09 08  	<unknown>
     ae0: 00 01        	<unknown>
     ae2: 05 15        	<unknown>
     ae4: 03 01 09 08  	lb	sp, 128(s2)
     ae8: 00 01        	<unknown>
     aea: 05 0b        	<unknown>
     aec: 03 01 09 08  	lb	sp, 128(s2)
     af0: 00 01        	<unknown>
     af2: 06 03        	<unknown>
     af4: ff 7b 09 04  	<unknown>
     af8: 00 01        	<unknown>
     afa: 05 09        	<unknown>
     afc: 06 03        	<unknown>
     afe: 8c 04        	<unknown>
     b00: 09 1c        	<unknown>
     b02: 00 01        	<unknown>
     b04: 06 03        	<unknown>
     b06: 00 09        	<unknown>
     b08: 04 00        	<unknown>
     b0a: 01 05        	<unknown>
     b0c: 12 06        	<unknown>
     b0e: 03 05 09 0c  	lb	a0, 192(s2)
     b12: 00 01        	<unknown>
     b14: 06 03        	<unknown>
     b16: ef 7b 09 08  	jal	s7, 0x97b96 <__l1_alloc_base+0x75296>
     b1a: 00 01        	<unknown>
     b1c: 05 1f        	<unknown>
     b1e: 06 03        	<unknown>
     b20: 92 04        	<unknown>
     b22: 09 04        	<unknown>
     b24: 00 01        	<unknown>
     b26: 05 15        	<unknown>
     b28: 03 01 09 04  	lb	sp, 64(s2)
     b2c: 00 01        	<unknown>
     b2e: 06 03        	<unknown>
     b30: ed 7b        	<unknown>
     b32: 09 04        	<unknown>
     b34: 00 01        	<unknown>
     b36: 05 0d        	<unknown>
     b38: 06 03        	<unknown>
     b3a: 99 04        	<unknown>
     b3c: 09 0c        	<unknown>
     b3e: 00 01        	<unknown>
     b40: 05 0f        	<unknown>
     b42: 03 7b 09 04  	<unknown>
     b46: 00 01        	<unknown>
     b48: 06 03        	<unknown>
     b4a: ec 7b        	<unknown>
     b4c: 09 04        	<unknown>
     b4e: 00 01        	<unknown>
     b50: 05 09        	<unknown>
     b52: 06 03        	<unknown>
     b54: 8c 04        	<unknown>
     b56: 09 0c        	<unknown>
     b58: 00 01        	<unknown>
     b5a: 06 03        	<unknown>
     b5c: f4 7b        	<unknown>
     b5e: 09 08        	<unknown>
     b60: 00 01        	<unknown>
     b62: 05 05        	<unknown>
     b64: 06 03        	<unknown>
     b66: 99 04        	<unknown>
     b68: 09 14        	<unknown>
     b6a: 00 01        	<unknown>
     b6c: 06 03        	<unknown>
     b6e: e7 7b 09 1c  	<unknown>
     b72: 00 01        	<unknown>
     b74: 03 99 04 09  	lh	s2, 144(s1)
     b78: 04 00        	<unknown>
     b7a: 01 05        	<unknown>
     b7c: 0b 06 03 04  	p.lb	a2, 64(t1!)
     b80: 09 18        	<unknown>
     b82: 00 01        	<unknown>
     b84: 06 03        	<unknown>
     b86: 00 09        	<unknown>
     b88: 04 00        	<unknown>
     b8a: 01 03        	<unknown>
     b8c: e3 7b 09 08  	bgeu	s2, zero, 0x1422 <__l1_start+0x1422>
     b90: 00 01        	<unknown>
     b92: 06 03        	<unknown>
     b94: a5 04        	<unknown>
     b96: 09 0c        	<unknown>
     b98: 00 01        	<unknown>
     b9a: 06 03        	<unknown>
     b9c: 00 09        	<unknown>
     b9e: 04 00        	<unknown>
     ba0: 01 03        	<unknown>
     ba2: db 7b 09 08  	<unknown>
     ba6: 00 01        	<unknown>
     ba8: 05 0d        	<unknown>
     baa: 06 03        	<unknown>
     bac: bf 04 09 1c  	<unknown>
     bb0: 00 01        	<unknown>
     bb2: 05 05        	<unknown>
     bb4: 06 03        	<unknown>
     bb6: 00 09        	<unknown>
     bb8: 04 00        	<unknown>
     bba: 01 03        	<unknown>
     bbc: c1 7b        	<unknown>
     bbe: 09 0c        	<unknown>
     bc0: 00 01        	<unknown>
     bc2: 05 0f        	<unknown>
     bc4: 06 03        	<unknown>
     bc6: d1 04        	<unknown>
     bc8: 09 1c        	<unknown>
     bca: 00 01        	<unknown>
     bcc: 06 03        	<unknown>
     bce: af 7b 09 04  	<unknown>
     bd2: 00 01        	<unknown>
     bd4: 05 0b        	<unknown>
     bd6: 06 03        	<unknown>
     bd8: d4 04        	<unknown>
     bda: 09 04        	<unknown>
     bdc: 00 01        	<unknown>
     bde: 06 03        	<unknown>
     be0: ac 7b        	<unknown>
     be2: 09 08        	<unknown>
     be4: 00 01        	<unknown>
     be6: 05 1c        	<unknown>
     be8: 06 03        	<unknown>
     bea: d9 04        	<unknown>
     bec: 09 04        	<unknown>
     bee: 00 01        	<unknown>
     bf0: 06 03        	<unknown>
     bf2: a7 7b 09 08  	<unknown>
     bf6: 00 01        	<unknown>
     bf8: 03 d9 04 09  	lhu	s2, 144(s1)
     bfc: 04 00        	<unknown>
     bfe: 01 03        	<unknown>
     c00: a7 7b 09 0c  	<unknown>
     c04: 00 01        	<unknown>
     c06: 05 1b        	<unknown>
     c08: 06 03        	<unknown>
     c0a: de 05        	<unknown>
     c0c: 09 18        	<unknown>
     c0e: 00 01        	<unknown>
     c10: 05 07        	<unknown>
     c12: 06 03        	<unknown>
     c14: 00 09        	<unknown>
     c16: 04 00        	<unknown>
     c18: 01 05        	<unknown>
     c1a: 1f 06 03 05  	<unknown>
     c1e: 09 08        	<unknown>
     c20: 00 01        	<unknown>
     c22: 05 00        	<unknown>
     c24: 06 03        	<unknown>
     c26: 9d 7a        	<unknown>
     c28: 09 04        	<unknown>
     c2a: 00 01        	<unknown>
     c2c: 05 0f        	<unknown>
     c2e: 06 03        	<unknown>
     c30: da 04        	<unknown>
     c32: 09 1c        	<unknown>
     c34: 00 01        	<unknown>
     c36: 06 03        	<unknown>
     c38: a6 7b        	<unknown>
     c3a: 09 04        	<unknown>
     c3c: 00 01        	<unknown>
     c3e: 05 11        	<unknown>
     c40: 06 03        	<unknown>
     c42: de 04        	<unknown>
     c44: 09 04        	<unknown>
     c46: 00 01        	<unknown>
     c48: 05 0b        	<unknown>
     c4a: 06 03        	<unknown>
     c4c: 00 09        	<unknown>
     c4e: 04 00        	<unknown>
     c50: 01 03        	<unknown>
     c52: a2 7b        	<unknown>
     c54: 09 04        	<unknown>
     c56: 00 01        	<unknown>
     c58: 05 1c        	<unknown>
     c5a: 06 03        	<unknown>
     c5c: e3 04 09 04  	beqz	s2, 0x14a4 <__l1_start+0x14a4>
     c60: 00 01        	<unknown>
     c62: 05 13        	<unknown>
     c64: 03 02 09 10  	lb	tp, 256(s2)
     c68: 00 01        	<unknown>
     c6a: 05 0d        	<unknown>
     c6c: 06 03        	<unknown>
     c6e: 00 09        	<unknown>
     c70: 04 00        	<unknown>
     c72: 01 05        	<unknown>
     c74: 1a 06        	<unknown>
     c76: 03 08 09 04  	lb	a6, 64(s2)
     c7a: 00 01        	<unknown>
     c7c: 05 14        	<unknown>
     c7e: 06 03        	<unknown>
     c80: 00 09        	<unknown>
     c82: 04 00        	<unknown>
     c84: 01 05        	<unknown>
     c86: 24 06        	<unknown>
     c88: 03 06 09 04  	lb	a2, 64(s2)
     c8c: 00 01        	<unknown>
     c8e: 05 1d        	<unknown>
     c90: 06 03        	<unknown>
     c92: 00 09        	<unknown>
     c94: 04 00        	<unknown>
     c96: 01 05        	<unknown>
     c98: 26 06        	<unknown>
     c9a: 03 01 09 04  	lb	sp, 64(s2)
     c9e: 00 01        	<unknown>
     ca0: 05 00        	<unknown>
     ca2: 06 03        	<unknown>
     ca4: 8c 7b        	<unknown>
     ca6: 09 04        	<unknown>
     ca8: 00 01        	<unknown>
     caa: 05 1f        	<unknown>
     cac: 03 f4 04 09  	<unknown>
     cb0: 08 00        	<unknown>
     cb2: 01 05        	<unknown>
     cb4: 37 03 00 09  	lui	t1, 36864
     cb8: 04 00        	<unknown>
     cba: 01 03        	<unknown>
     cbc: 8c 7b        	<unknown>
     cbe: 09 08        	<unknown>
     cc0: 00 01        	<unknown>
     cc2: 05 13        	<unknown>
     cc4: 06 03        	<unknown>
     cc6: fc 04        	<unknown>
     cc8: 09 08        	<unknown>
     cca: 00 01        	<unknown>
     ccc: 05 0d        	<unknown>
     cce: 06 03        	<unknown>
     cd0: 00 09        	<unknown>
     cd2: 04 00        	<unknown>
     cd4: 01 05        	<unknown>
     cd6: 1a 06        	<unknown>
     cd8: 03 06 09 04  	lb	a2, 64(s2)
     cdc: 00 01        	<unknown>
     cde: 05 14        	<unknown>
     ce0: 06 03        	<unknown>
     ce2: 00 09        	<unknown>
     ce4: 04 00        	<unknown>
     ce6: 01 05        	<unknown>
     ce8: 16 06        	<unknown>
     cea: 03 05 09 04  	lb	a0, 64(s2)
     cee: 00 01        	<unknown>
     cf0: 05 0f        	<unknown>
     cf2: 06 03        	<unknown>
     cf4: 00 09        	<unknown>
     cf6: 04 00        	<unknown>
     cf8: 01 05        	<unknown>
     cfa: 18 06        	<unknown>
     cfc: 03 01 09 04  	lb	sp, 64(s2)
     d00: 00 01        	<unknown>
     d02: 05 00        	<unknown>
     d04: 06 03        	<unknown>
     d06: f8 7a        	<unknown>
     d08: 09 04        	<unknown>
     d0a: 00 01        	<unknown>
     d0c: 05 11        	<unknown>
     d0e: 03 88 05 09  	lb	a6, 144(a1)
     d12: 08 00        	<unknown>
     d14: 01 03        	<unknown>
     d16: f8 7a        	<unknown>
     d18: 09 04        	<unknown>
     d1a: 00 01        	<unknown>
     d1c: 05 1e        	<unknown>
     d1e: 06 03        	<unknown>
     d20: ee 04        	<unknown>
     d22: 09 14        	<unknown>
     d24: 00 01        	<unknown>
     d26: 05 2c        	<unknown>
     d28: 03 02 09 08  	lb	tp, 128(s2)
     d2c: 00 01        	<unknown>
     d2e: 05 11        	<unknown>
     d30: 03 7f 09 0c  	<unknown>
     d34: 00 01        	<unknown>
     d36: 05 13        	<unknown>
     d38: 03 2e 09 08  	lw	t3, 128(s2)
     d3c: 00 01        	<unknown>
     d3e: 05 0b        	<unknown>
     d40: 06 03        	<unknown>
     d42: 00 09        	<unknown>
     d44: 08 00        	<unknown>
     d46: 01 03        	<unknown>
     d48: e3 7a 09 04  	bgeu	s2, zero, 0x159c <__l1_start+0x159c>
     d4c: 00 01        	<unknown>
     d4e: 05 09        	<unknown>
     d50: 06 03        	<unknown>
     d52: 9e 05        	<unknown>
     d54: 09 04        	<unknown>
     d56: 00 01        	<unknown>
     d58: 06 03        	<unknown>
     d5a: e2 7a        	<unknown>
     d5c: 09 04        	<unknown>
     d5e: 00 01        	<unknown>
     d60: 03 9e 05 09  	lh	t3, 144(a1)
     d64: 08 00        	<unknown>
     d66: 01 05        	<unknown>
     d68: 1f 06 03 01  	<unknown>
     d6c: 09 08        	<unknown>
     d6e: 00 01        	<unknown>
     d70: 05 0b        	<unknown>
     d72: 06 03        	<unknown>
     d74: 00 09        	<unknown>
     d76: 04 00        	<unknown>
     d78: 01 05        	<unknown>
     d7a: 14 06        	<unknown>
     d7c: 03 7f 09 10  	p.lh	t5, zero(s2)
     d80: 00 01        	<unknown>
     d82: 05 09        	<unknown>
     d84: 06 03        	<unknown>
     d86: 00 09        	<unknown>
     d88: 04 00        	<unknown>
     d8a: 01 05        	<unknown>
     d8c: 11 06        	<unknown>
     d8e: 03 05 09 04  	lb	a0, 64(s2)
     d92: 00 01        	<unknown>
     d94: 05 0d        	<unknown>
     d96: 03 27 09 10  	lw	a4, 256(s2)
     d9a: 00 01        	<unknown>
     d9c: 06 03        	<unknown>
     d9e: b6 7a        	<unknown>
     da0: 09 04        	<unknown>
     da2: 00 01        	<unknown>
     da4: 05 35        	<unknown>
     da6: 06 03        	<unknown>
     da8: d4 05        	<unknown>
     daa: 09 04        	<unknown>
     dac: 00 01        	<unknown>
     dae: 05 0f        	<unknown>
     db0: 03 7f 09 08  	<unknown>
     db4: 00 01        	<unknown>
     db6: 05 17        	<unknown>
     db8: 03 5c 09 24  	lhu	s8, 576(s2)
     dbc: 00 01        	<unknown>
     dbe: 05 11        	<unknown>
     dc0: 03 e5 7b 09  	<unknown>
     dc4: 08 00        	<unknown>
     dc6: 01 06        	<unknown>
     dc8: 03 ec 7e 09  	<unknown>
     dcc: 04 00        	<unknown>
     dce: 01 05        	<unknown>
     dd0: 14 03        	<unknown>
     dd2: 94 01        	<unknown>
     dd4: 09 04        	<unknown>
     dd6: 00 01        	<unknown>
     dd8: 03 ec 7e 09  	<unknown>
     ddc: 04 00        	<unknown>
     dde: 01 05        	<unknown>
     de0: 26 06        	<unknown>
     de2: 03 b0 05 09  	<unknown>
     de6: 04 00        	<unknown>
     de8: 01 06        	<unknown>
     dea: 03 d0 7a 09  	lhu	zero, 151(s5)
     dee: 04 00        	<unknown>
     df0: 01 05        	<unknown>
     df2: 03 06 03 94  	lb	a2, -1728(t1)
     df6: 01 09        	<unknown>
     df8: 04 00        	<unknown>
     dfa: 01 06        	<unknown>
     dfc: 03 ec 7e 09  	<unknown>
     e00: 04 00        	<unknown>
     e02: 01 05        	<unknown>
     e04: 22 03        	<unknown>
     e06: 94 01        	<unknown>
     e08: 09 04        	<unknown>
     e0a: 00 01        	<unknown>
     e0c: 05 11        	<unknown>
     e0e: 03 00 09 04  	lb	zero, 64(s2)
     e12: 00 01        	<unknown>
     e14: 05 14        	<unknown>
     e16: 03 00 09 04  	lb	zero, 64(s2)
     e1a: 00 01        	<unknown>
     e1c: 03 ec 7e 09  	<unknown>
     e20: 08 00        	<unknown>
     e22: 01 05        	<unknown>
     e24: 11 03        	<unknown>
     e26: 94 01        	<unknown>
     e28: 09 04        	<unknown>
     e2a: 00 01        	<unknown>
     e2c: 05 14        	<unknown>
     e2e: 03 00 09 04  	lb	zero, 64(s2)
     e32: 00 01        	<unknown>
     e34: 05 1b        	<unknown>
     e36: 06 03        	<unknown>
     e38: 02 09        	<unknown>
     e3a: 08 00        	<unknown>
     e3c: 01 05        	<unknown>
     e3e: 11 03        	<unknown>
     e40: 9c 04        	<unknown>
     e42: 09 04        	<unknown>
     e44: 00 01        	<unknown>
     e46: 05 0b        	<unknown>
     e48: 06 03        	<unknown>
     e4a: 00 09        	<unknown>
     e4c: 0c 00        	<unknown>
     e4e: 01 03        	<unknown>
     e50: ce 7a        	<unknown>
     e52: 09 0c        	<unknown>
     e54: 00 01        	<unknown>
     e56: 05 13        	<unknown>
     e58: 06 03        	<unknown>
     e5a: b5 05        	<unknown>
     e5c: 09 04        	<unknown>
     e5e: 00 01        	<unknown>
     e60: 05 0b        	<unknown>
     e62: 06 03        	<unknown>
     e64: 00 09        	<unknown>
     e66: 08 00        	<unknown>
     e68: 01 05        	<unknown>
     e6a: 09 06        	<unknown>
     e6c: 03 01 09 04  	lb	sp, 64(s2)
     e70: 00 01        	<unknown>
     e72: 06 03        	<unknown>
     e74: ca 7a        	<unknown>
     e76: 09 04        	<unknown>
     e78: 00 01        	<unknown>
     e7a: 03 b6 05 09  	<unknown>
     e7e: 08 00        	<unknown>
     e80: 01 05        	<unknown>
     e82: 1f 06 03 01  	<unknown>
     e86: 09 0c        	<unknown>
     e88: 00 01        	<unknown>
     e8a: 05 0b        	<unknown>
     e8c: 06 03        	<unknown>
     e8e: 00 09        	<unknown>
     e90: 04 00        	<unknown>
     e92: 01 05        	<unknown>
     e94: 14 06        	<unknown>
     e96: 03 7f 09 10  	p.lh	t5, zero(s2)
     e9a: 00 01        	<unknown>
     e9c: 05 09        	<unknown>
     e9e: 06 03        	<unknown>
     ea0: 00 09        	<unknown>
     ea2: 04 00        	<unknown>
     ea4: 01 03        	<unknown>
     ea6: ca 7a        	<unknown>
     ea8: 09 04        	<unknown>
     eaa: 00 01        	<unknown>
     eac: 05 0f        	<unknown>
     eae: 06 03        	<unknown>
     eb0: bb 05 09 04  	<unknown>
     eb4: 00 01        	<unknown>
     eb6: 05 18        	<unknown>
     eb8: 06 03        	<unknown>
     eba: 00 09        	<unknown>
     ebc: 08 00        	<unknown>
     ebe: 01 03        	<unknown>
     ec0: c5 7a        	<unknown>
     ec2: 09 08        	<unknown>
     ec4: 00 01        	<unknown>
     ec6: 05 0a        	<unknown>
     ec8: 06 03        	<unknown>
     eca: c5 03        	<unknown>
     ecc: 09 04        	<unknown>
     ece: 00 01        	<unknown>
     ed0: 05 13        	<unknown>
     ed2: 03 d8 01 09  	lhu	a6, 144(gp)
     ed6: 04 00        	<unknown>
     ed8: 01 05        	<unknown>
     eda: 11 03        	<unknown>
     edc: 06 09        	<unknown>
     ede: 04 00        	<unknown>
     ee0: 01 05        	<unknown>
     ee2: 2d 06        	<unknown>
     ee4: 03 00 09 08  	lb	zero, 128(s2)
     ee8: 00 01        	<unknown>
     eea: 05 07        	<unknown>
     eec: 03 00 09 04  	lb	zero, 64(s2)
     ef0: 00 01        	<unknown>
     ef2: 03 dd 7a 09  	lhu	s10, 151(s5)
     ef6: 0c 00        	<unknown>
     ef8: 01 05        	<unknown>
     efa: 0b 06 03 a5  	p.lb	a2, -1456(t1!)
     efe: 05 09        	<unknown>
     f00: 04 00        	<unknown>
     f02: 01 05        	<unknown>
     f04: 09 03        	<unknown>
     f06: 01 09        	<unknown>
     f08: 08 00        	<unknown>
     f0a: 01 06        	<unknown>
     f0c: 03 da 7a 09  	lhu	s4, 151(s5)
     f10: 04 00        	<unknown>
     f12: 01 05        	<unknown>
     f14: 1f 06 03 a7  	<unknown>
     f18: 05 09        	<unknown>
     f1a: 08 00        	<unknown>
     f1c: 01 05        	<unknown>
     f1e: 0b 06 03 00  	p.lb	a2, 0(t1!)
     f22: 09 04        	<unknown>
     f24: 00 01        	<unknown>
     f26: 05 14        	<unknown>
     f28: 06 03        	<unknown>
     f2a: 7f 09 10 00  	<unknown>
     f2e: 01 05        	<unknown>
     f30: 09 06        	<unknown>
     f32: 03 00 09 04  	lb	zero, 64(s2)
     f36: 00 01        	<unknown>
     f38: 03 da 7a 09  	lhu	s4, 151(s5)
     f3c: 04 00        	<unknown>
     f3e: 01 05        	<unknown>
     f40: 3d 06        	<unknown>
     f42: 03 f3 04 09  	<unknown>
     f46: 0c 00        	<unknown>
     f48: 01 05        	<unknown>
     f4a: 00 06        	<unknown>
     f4c: 03 8d 7b 09  	lb	s10, 151(s7)
     f50: 04 00        	<unknown>
     f52: 01 05        	<unknown>
     f54: 2b 06 03 f7  	p.sb	a6, -148(t1!)
     f58: 04 09        	<unknown>
     f5a: 08 00        	<unknown>
     f5c: 01 05        	<unknown>
     f5e: 11 03        	<unknown>
     f60: 7f 09 0c 00  	<unknown>
     f64: 01 06        	<unknown>
     f66: 03 8a 7b 09  	lb	s4, 151(s7)
     f6a: 08 00        	<unknown>
     f6c: 01 05        	<unknown>
     f6e: 36 06        	<unknown>
     f70: 03 83 05 09  	lb	t1, 144(a1)
     f74: 04 00        	<unknown>
     f76: 01 05        	<unknown>
     f78: 11 06        	<unknown>
     f7a: 03 00 09 08  	lb	zero, 128(s2)
     f7e: 00 01        	<unknown>
     f80: 05 00        	<unknown>
     f82: 03 fd 7a 09  	<unknown>
     f86: 04 00        	<unknown>
     f88: 01 05        	<unknown>
     f8a: 35 06        	<unknown>
     f8c: 03 87 05 09  	lb	a4, 144(a1)
     f90: 44 00        	<unknown>
     f92: 01 05        	<unknown>
     f94: 00 06        	<unknown>
     f96: 03 f9 7a 09  	<unknown>
     f9a: 04 00        	<unknown>
     f9c: 01 05        	<unknown>
     f9e: 11 06        	<unknown>
     fa0: 03 8b 05 09  	lb	s6, 144(a1)
     fa4: 08 00        	<unknown>
     fa6: 01 05        	<unknown>
     fa8: 00 06        	<unknown>
     faa: 03 f5 7a 09  	<unknown>
     fae: 04 00        	<unknown>
     fb0: 01 05        	<unknown>
     fb2: 18 06        	<unknown>
     fb4: 03 bb 05 09  	<unknown>
     fb8: 30 00        	<unknown>
     fba: 01 05        	<unknown>
     fbc: 07 06 03 00  	flb	fa2, 0(t1)
     fc0: 09 04        	<unknown>
     fc2: 00 01        	<unknown>
     fc4: 03 c5 7a 09  	lbu	a0, 151(s5)
     fc8: 08 00        	<unknown>
     fca: 01 05        	<unknown>
     fcc: 20 06        	<unknown>
     fce: 03 bc 05 09  	<unknown>
     fd2: 04 00        	<unknown>
     fd4: 01 05        	<unknown>
     fd6: 09 06        	<unknown>
     fd8: 03 00 09 04  	lb	zero, 64(s2)
     fdc: 00 01        	<unknown>
     fde: 05 0f        	<unknown>
     fe0: 06 03        	<unknown>
     fe2: 7f 09 14 00  	<unknown>
     fe6: 01 05        	<unknown>
     fe8: 18 06        	<unknown>
     fea: 03 00 09 04  	lb	zero, 64(s2)
     fee: 00 01        	<unknown>
     ff0: 03 c5 7a 09  	lbu	a0, 151(s5)
     ff4: 04 00        	<unknown>
     ff6: 01 03        	<unknown>
     ff8: bb 05 09 04  	<unknown>
     ffc: 00 01        	<unknown>
     ffe: 05 37        	<unknown>
    1000: 03 00 09 04  	lb	zero, 64(s2)
    1004: 00 01        	<unknown>
    1006: 05 07        	<unknown>
    1008: 03 00 09 08  	lb	zero, 128(s2)
    100c: 00 01        	<unknown>
    100e: 03 c5 7a 09  	lbu	a0, 151(s5)
    1012: 04 00        	<unknown>
    1014: 01 05        	<unknown>
    1016: 13 06 03 b5  	addi	a2, t1, -1200
    101a: 05 09        	<unknown>
    101c: 0c 00        	<unknown>
    101e: 01 05        	<unknown>
    1020: 0b 03 0a 09  	p.lb	t1, 144(s4!)
    1024: 14 00        	<unknown>
    1026: 01 05        	<unknown>
    1028: 09 03        	<unknown>
    102a: 01 09        	<unknown>
    102c: 08 00        	<unknown>
    102e: 01 06        	<unknown>
    1030: 03 c0 7a 09  	lbu	zero, 151(s5)
    1034: 0c 00        	<unknown>
    1036: 01 05        	<unknown>
    1038: 1f 06 03 c1  	<unknown>
    103c: 05 09        	<unknown>
    103e: 04 00        	<unknown>
    1040: 01 05        	<unknown>
    1042: 0b 06 03 00  	p.lb	a2, 0(t1!)
    1046: 09 04        	<unknown>
    1048: 00 01        	<unknown>
    104a: 05 14        	<unknown>
    104c: 06 03        	<unknown>
    104e: 7f 09 10 00  	<unknown>
    1052: 01 05        	<unknown>
    1054: 09 06        	<unknown>
    1056: 03 00 09 04  	lb	zero, 64(s2)
    105a: 00 01        	<unknown>
    105c: 03 c0 7a 09  	lbu	zero, 151(s5)
    1060: 04 00        	<unknown>
    1062: 01 05        	<unknown>
    1064: 03 06 03 ea  	lb	a2, -352(t1)
    1068: 05 09        	<unknown>
    106a: 2c 00        	<unknown>
    106c: 01 03        	<unknown>
    106e: 03 09 10 00  	lb	s2, 1(zero)
    1072: 01 05        	<unknown>
    1074: 00 03        	<unknown>
    1076: 8d 7b        	<unknown>
    1078: 09 40        	<unknown>
    107a: 00 01        	<unknown>
    107c: 05 07        	<unknown>
    107e: 0a 03        	<unknown>
    1080: 04 09        	<unknown>
    1082: 00 00        	<unknown>
    1084: 01 05        	<unknown>
    1086: 05 03        	<unknown>
    1088: 01 09        	<unknown>
    108a: 04 00        	<unknown>
    108c: 01 05        	<unknown>
    108e: 01 03        	<unknown>
    1090: 02 09        	<unknown>
    1092: 08 00        	<unknown>
    1094: 01 05        	<unknown>
    1096: 00 03        	<unknown>
    1098: fa 04        	<unknown>
    109a: 09 04        	<unknown>
    109c: 00 01        	<unknown>
    109e: 05 03        	<unknown>
    10a0: 0a 03        	<unknown>
    10a2: 02 09        	<unknown>
    10a4: 2c 00        	<unknown>
    10a6: 01 05        	<unknown>
    10a8: 13 03 01 09  	addi	t1, sp, 144
    10ac: 04 00        	<unknown>
    10ae: 01 05        	<unknown>
    10b0: 03 03 02 09  	lb	t1, 144(tp)
    10b4: 1c 00        	<unknown>
    10b6: 01 05        	<unknown>
    10b8: 00 03        	<unknown>
    10ba: e9 7a        	<unknown>
    10bc: 09 0c        	<unknown>
    10be: 00 01        	<unknown>
    10c0: 05 07        	<unknown>
    10c2: 0a 03        	<unknown>
    10c4: 01 09        	<unknown>
    10c6: 00 00        	<unknown>
    10c8: 01 05        	<unknown>
    10ca: 05 03        	<unknown>
    10cc: 01 09        	<unknown>
    10ce: 04 00        	<unknown>
    10d0: 01 05        	<unknown>
    10d2: 1b 06 03 00  	<unknown>
    10d6: 09 04        	<unknown>
    10d8: 00 01        	<unknown>
    10da: 05 01        	<unknown>
    10dc: 06 03        	<unknown>
    10de: 02 09        	<unknown>
    10e0: 04 00        	<unknown>
    10e2: 01 05        	<unknown>
    10e4: 00 03        	<unknown>
    10e6: 96 05        	<unknown>
    10e8: 09 04        	<unknown>
    10ea: 00 01        	<unknown>
    10ec: 05 03        	<unknown>
    10ee: 0a 03        	<unknown>
    10f0: 02 09        	<unknown>
    10f2: 2c 00        	<unknown>
    10f4: 01 05        	<unknown>
    10f6: 13 03 01 09  	addi	t1, sp, 144
    10fa: 04 00        	<unknown>
    10fc: 01 05        	<unknown>
    10fe: 03 03 02 09  	lb	t1, 144(tp)
    1102: 18 00        	<unknown>
    1104: 01 05        	<unknown>
    1106: 00 03        	<unknown>
    1108: 03 09 0c 00  	lb	s2, 0(s8)
    110c: 01 05        	<unknown>
    110e: 0a 0a        	<unknown>
    1110: 03 01 09 10  	lb	sp, 256(s2)
    1114: 00 01        	<unknown>
    1116: 05 00        	<unknown>
    1118: 03 04 09 10  	lb	s0, 256(s2)
    111c: 00 01        	<unknown>
    111e: 05 03        	<unknown>
    1120: 0a 03        	<unknown>
    1122: 02 09        	<unknown>
    1124: 24 00        	<unknown>
    1126: 01 05        	<unknown>
    1128: 2a 03        	<unknown>
    112a: 01 09        	<unknown>
    112c: 04 00        	<unknown>
    112e: 01 05        	<unknown>
    1130: 13 03 01 09  	addi	t1, sp, 144
    1134: 08 00        	<unknown>
    1136: 01 05        	<unknown>
    1138: 03 03 03 09  	lb	t1, 144(t1)
    113c: 20 00        	<unknown>
    113e: 01 05        	<unknown>
    1140: 00 03        	<unknown>
    1142: ee 7a        	<unknown>
    1144: 09 0c        	<unknown>
    1146: 00 01        	<unknown>
    1148: 05 07        	<unknown>
    114a: 0a 03        	<unknown>
    114c: 03 09 00 00  	lb	s2, 0(zero)
    1150: 01 05        	<unknown>
    1152: 0b 03 03 09  	p.lb	t1, 144(t1!)
    1156: 04 00        	<unknown>
    1158: 01 05        	<unknown>
    115a: 39 06        	<unknown>
    115c: 03 00 09 04  	lb	zero, 64(s2)
    1160: 00 01        	<unknown>
    1162: 05 05        	<unknown>
    1164: 06 03        	<unknown>
    1166: 7f 09 04 00  	<unknown>
    116a: 01 05        	<unknown>
    116c: 01 03        	<unknown>
    116e: 03 09 04 00  	lb	s2, 0(s0)
    1172: 01 05        	<unknown>
    1174: 00 03        	<unknown>
    1176: 64 09        	<unknown>
    1178: 04 00        	<unknown>
    117a: 01 05        	<unknown>
    117c: 01 0a        	<unknown>
    117e: 03 05 09 00  	lb	a0, 0(s2)
    1182: 00 01        	<unknown>
    1184: 05 00        	<unknown>
    1186: 03 81 01 09  	lb	sp, 144(gp)
    118a: 04 00        	<unknown>
    118c: 01 05        	<unknown>
    118e: 08 0a        	<unknown>
    1190: 03 05 09 44  	lb	a0, 1088(s2)
    1194: 00 01        	<unknown>
    1196: 05 07        	<unknown>
    1198: 06 03        	<unknown>
    119a: 00 09        	<unknown>
    119c: 04 00        	<unknown>
    119e: 01 03        	<unknown>
    11a0: 84 7e        	<unknown>
    11a2: 09 04        	<unknown>
    11a4: 00 01        	<unknown>
    11a6: 05 0f        	<unknown>
    11a8: 06 03        	<unknown>
    11aa: 81 02        	<unknown>
    11ac: 09 08        	<unknown>
    11ae: 00 01        	<unknown>
    11b0: 05 22        	<unknown>
    11b2: 06 03        	<unknown>
    11b4: 00 09        	<unknown>
    11b6: 08 00        	<unknown>
    11b8: 01 03        	<unknown>
    11ba: ff 7d 09 08  	<unknown>
    11be: 00 01        	<unknown>
    11c0: 05 1b        	<unknown>
    11c2: 06 03        	<unknown>
    11c4: 84 02        	<unknown>
    11c6: 09 1c        	<unknown>
    11c8: 00 01        	<unknown>
    11ca: 05 0e        	<unknown>
    11cc: 06 03        	<unknown>
    11ce: 00 09        	<unknown>
    11d0: 04 00        	<unknown>
    11d2: 01 05        	<unknown>
    11d4: 12 03        	<unknown>
    11d6: 00 09        	<unknown>
    11d8: 04 00        	<unknown>
    11da: 01 05        	<unknown>
    11dc: 0e 06        	<unknown>
    11de: 03 04 09 08  	lb	s0, 128(s2)
    11e2: 00 01        	<unknown>
    11e4: 05 14        	<unknown>
    11e6: 06 03        	<unknown>
    11e8: 00 09        	<unknown>
    11ea: 08 00        	<unknown>
    11ec: 01 05        	<unknown>
    11ee: 05 03        	<unknown>
    11f0: 00 09        	<unknown>
    11f2: 10 00        	<unknown>
    11f4: 01 05        	<unknown>
    11f6: 0d 06        	<unknown>
    11f8: 03 7f 09 04  	<unknown>
    11fc: 00 01        	<unknown>
    11fe: 06 03        	<unknown>
    1200: f9 7d        	<unknown>
    1202: 09 08        	<unknown>
    1204: 00 01        	<unknown>
    1206: 05 1b        	<unknown>
    1208: 06 03        	<unknown>
    120a: 84 02        	<unknown>
    120c: 09 08        	<unknown>
    120e: 00 01        	<unknown>
    1210: 06 03        	<unknown>
    1212: fc 7d        	<unknown>
    1214: 09 08        	<unknown>
    1216: 00 01        	<unknown>
    1218: 05 0f        	<unknown>
    121a: 06 03        	<unknown>
    121c: ae 01        	<unknown>
    121e: 09 08        	<unknown>
    1220: 00 01        	<unknown>
    1222: 05 07        	<unknown>
    1224: 06 03        	<unknown>
    1226: 00 09        	<unknown>
    1228: 04 00        	<unknown>
    122a: 01 03        	<unknown>
    122c: d2 7e        	<unknown>
    122e: 09 04        	<unknown>
    1230: 00 01        	<unknown>
    1232: 05 0f        	<unknown>
    1234: 06 03        	<unknown>
    1236: af 01 09 04  	<unknown>
    123a: 00 01        	<unknown>
    123c: 05 2a        	<unknown>
    123e: 06 03        	<unknown>
    1240: 00 09        	<unknown>
    1242: 04 00        	<unknown>
    1244: 01 03        	<unknown>
    1246: d1 7e        	<unknown>
    1248: 09 04        	<unknown>
    124a: 00 01        	<unknown>
    124c: 05 13        	<unknown>
    124e: 06 03        	<unknown>
    1250: b0 01        	<unknown>
    1252: 09 08        	<unknown>
    1254: 00 01        	<unknown>
    1256: 06 03        	<unknown>
    1258: d0 7e        	<unknown>
    125a: 09 08        	<unknown>
    125c: 00 01        	<unknown>
    125e: 05 11        	<unknown>
    1260: 06 03        	<unknown>
    1262: b3 01 09 08  	<unknown>
    1266: 00 01        	<unknown>
    1268: 05 19        	<unknown>
    126a: 06 03        	<unknown>
    126c: 00 09        	<unknown>
    126e: 0c 00        	<unknown>
    1270: 01 05        	<unknown>
    1272: 05 03        	<unknown>
    1274: 00 09        	<unknown>
    1276: 04 00        	<unknown>
    1278: 01 03        	<unknown>
    127a: cd 7e        	<unknown>
    127c: 09 08        	<unknown>
    127e: 00 01        	<unknown>
    1280: 05 0e        	<unknown>
    1282: 06 03        	<unknown>
    1284: b4 01        	<unknown>
    1286: 09 08        	<unknown>
    1288: 00 01        	<unknown>
    128a: 05 12        	<unknown>
    128c: 06 03        	<unknown>
    128e: 00 09        	<unknown>
    1290: 04 00        	<unknown>
    1292: 01 05        	<unknown>
    1294: 11 06        	<unknown>
    1296: 03 7f 09 08  	<unknown>
    129a: 00 01        	<unknown>
    129c: 05 19        	<unknown>
    129e: 06 03        	<unknown>
    12a0: 00 09        	<unknown>
    12a2: 04 00        	<unknown>
    12a4: 01 05        	<unknown>
    12a6: 05 03        	<unknown>
    12a8: 00 09        	<unknown>
    12aa: 0c 00        	<unknown>
    12ac: 01 05        	<unknown>
    12ae: 24 06        	<unknown>
    12b0: 03 03 09 04  	lb	t1, 64(s2)
    12b4: 00 01        	<unknown>
    12b6: 06 03        	<unknown>
    12b8: ca 7e        	<unknown>
    12ba: 09 08        	<unknown>
    12bc: 00 01        	<unknown>
    12be: 03 b6 01 09  	<unknown>
    12c2: 04 00        	<unknown>
    12c4: 01 05        	<unknown>
    12c6: 2c 03        	<unknown>
    12c8: 00 09        	<unknown>
    12ca: 04 00        	<unknown>
    12cc: 01 05        	<unknown>
    12ce: 35 03        	<unknown>
    12d0: 00 09        	<unknown>
    12d2: 10 00        	<unknown>
    12d4: 01 03        	<unknown>
    12d6: ca 7e        	<unknown>
    12d8: 09 08        	<unknown>
    12da: 00 01        	<unknown>
    12dc: 05 12        	<unknown>
    12de: 06 03        	<unknown>
    12e0: b8 01        	<unknown>
    12e2: 09 08        	<unknown>
    12e4: 00 01        	<unknown>
    12e6: 05 0e        	<unknown>
    12e8: 06 03        	<unknown>
    12ea: 00 09        	<unknown>
    12ec: 0c 00        	<unknown>
    12ee: 01 05        	<unknown>
    12f0: 2c 06        	<unknown>
    12f2: 03 7e 09 04  	<unknown>
    12f6: 00 01        	<unknown>
    12f8: 05 35        	<unknown>
    12fa: 06 03        	<unknown>
    12fc: 00 09        	<unknown>
    12fe: 04 00        	<unknown>
    1300: 01 03        	<unknown>
    1302: ca 7e        	<unknown>
    1304: 09 08        	<unknown>
    1306: 00 01        	<unknown>
    1308: 05 0d        	<unknown>
    130a: 06 03        	<unknown>
    130c: bd 01        	<unknown>
    130e: 09 04        	<unknown>
    1310: 00 01        	<unknown>
    1312: 05 0f        	<unknown>
    1314: 03 c4 00 09  	lbu	s0, 144(ra)
    1318: 08 00        	<unknown>
    131a: 01 05        	<unknown>
    131c: 24 03        	<unknown>
    131e: bd 7f        	<unknown>
    1320: 09 08        	<unknown>
    1322: 00 01        	<unknown>
    1324: 05 0f        	<unknown>
    1326: 03 01 09 08  	lb	sp, 128(s2)
    132a: 00 01        	<unknown>
    132c: 05 18        	<unknown>
    132e: 06 03        	<unknown>
    1330: 00 09        	<unknown>
    1332: 10 00        	<unknown>
    1334: 01 05        	<unknown>
    1336: 0a 06        	<unknown>
    1338: 03 01 09 08  	lb	sp, 128(s2)
    133c: 00 01        	<unknown>
    133e: 05 0b        	<unknown>
    1340: 03 01 09 04  	lb	sp, 64(s2)
    1344: 00 01        	<unknown>
    1346: 05 0f        	<unknown>
    1348: 06 03        	<unknown>
    134a: 00 09        	<unknown>
    134c: 0c 00        	<unknown>
    134e: 01 03        	<unknown>
    1350: bf 7e 09 08  	<unknown>
    1354: 00 01        	<unknown>
    1356: 05 22        	<unknown>
    1358: 06 03        	<unknown>
    135a: c5 01        	<unknown>
    135c: 09 10        	<unknown>
    135e: 00 01        	<unknown>
    1360: 05 35        	<unknown>
    1362: 06 03        	<unknown>
    1364: 00 09        	<unknown>
    1366: 0c 00        	<unknown>
    1368: 01 05        	<unknown>
    136a: 28 06        	<unknown>
    136c: 03 03 09 0c  	lb	t1, 192(s2)
    1370: 00 01        	<unknown>
    1372: 05 3b        	<unknown>
    1374: 06 03        	<unknown>
    1376: 00 09        	<unknown>
    1378: 04 00        	<unknown>
    137a: 01 05        	<unknown>
    137c: 16 06        	<unknown>
    137e: 03 03 09 10  	lb	t1, 256(s2)
    1382: 00 01        	<unknown>
    1384: 05 1d        	<unknown>
    1386: 06 03        	<unknown>
    1388: 00 09        	<unknown>
    138a: 0c 00        	<unknown>
    138c: 01 03        	<unknown>
    138e: b5 7e        	<unknown>
    1390: 09 0c        	<unknown>
    1392: 00 01        	<unknown>
    1394: 05 09        	<unknown>
    1396: 06 03        	<unknown>
    1398: ce 01        	<unknown>
    139a: 09 14        	<unknown>
    139c: 00 01        	<unknown>
    139e: 06 03        	<unknown>
    13a0: b2 7e        	<unknown>
    13a2: 09 04        	<unknown>
    13a4: 00 01        	<unknown>
    13a6: 05 07        	<unknown>
    13a8: 06 03        	<unknown>
    13aa: cf 01 09 04  	fnmadd.h	gp, s2, zero, zero, rne
    13ae: 00 01        	<unknown>
    13b0: 05 0e        	<unknown>
    13b2: 06 03        	<unknown>
    13b4: 00 09        	<unknown>
    13b6: 04 00        	<unknown>
    13b8: 01 03        	<unknown>
    13ba: b1 7e        	<unknown>
    13bc: 09 04        	<unknown>
    13be: 00 01        	<unknown>
    13c0: 05 12        	<unknown>
    13c2: 03 cf 01 09  	lbu	t5, 144(gp)
    13c6: 04 00        	<unknown>
    13c8: 01 03        	<unknown>
    13ca: b1 7e        	<unknown>
    13cc: 09 04        	<unknown>
    13ce: 00 01        	<unknown>
    13d0: 05 07        	<unknown>
    13d2: 06 03        	<unknown>
    13d4: d3 01 09 08  	fsub.s	gp, s2, zero, rne
    13d8: 00 01        	<unknown>
    13da: 06 03        	<unknown>
    13dc: ad 7e        	<unknown>
    13de: 09 04        	<unknown>
    13e0: 00 01        	<unknown>
    13e2: 05 09        	<unknown>
    13e4: 06 03        	<unknown>
    13e6: d4 01        	<unknown>
    13e8: 09 04        	<unknown>
    13ea: 00 01        	<unknown>
    13ec: 05 16        	<unknown>
    13ee: 03 02 09 04  	lb	tp, 64(s2)
    13f2: 00 01        	<unknown>
    13f4: 05 10        	<unknown>
    13f6: 06 03        	<unknown>
    13f8: 00 09        	<unknown>
    13fa: 08 00        	<unknown>
    13fc: 01 05        	<unknown>
    13fe: 16 06        	<unknown>
    1400: 03 02 09 04  	lb	tp, 64(s2)
    1404: 00 01        	<unknown>
    1406: 05 10        	<unknown>
    1408: 06 03        	<unknown>
    140a: 00 09        	<unknown>
    140c: 08 00        	<unknown>
    140e: 01 03        	<unknown>
    1410: a8 7e        	<unknown>
    1412: 09 04        	<unknown>
    1414: 00 01        	<unknown>
    1416: 05 1d        	<unknown>
    1418: 06 03        	<unknown>
    141a: de 01        	<unknown>
    141c: 09 18        	<unknown>
    141e: 00 01        	<unknown>
    1420: 05 05        	<unknown>
    1422: 03 01 09 18  	lb	sp, 384(s2)
    1426: 00 01        	<unknown>
    1428: 05 1b        	<unknown>
    142a: 03 01 09 08  	lb	sp, 128(s2)
    142e: 00 01        	<unknown>
    1430: 05 07        	<unknown>
    1432: 06 03        	<unknown>
    1434: 00 09        	<unknown>
    1436: 04 00        	<unknown>
    1438: 01 05        	<unknown>
    143a: 1c 06        	<unknown>
    143c: 03 7f 09 10  	p.lh	t5, zero(s2)
    1440: 00 01        	<unknown>
    1442: 06 03        	<unknown>
    1444: a1 7e        	<unknown>
    1446: 09 04        	<unknown>
    1448: 00 01        	<unknown>
    144a: 05 05        	<unknown>
    144c: 03 df 01 09  	lhu	t5, 144(gp)
    1450: 04 00        	<unknown>
    1452: 01 05        	<unknown>
    1454: 03 06 03 06  	lb	a2, 96(t1)
    1458: 09 04        	<unknown>
    145a: 00 01        	<unknown>
    145c: 05 09        	<unknown>
    145e: 03 01 09 08  	lb	sp, 128(s2)
    1462: 00 01        	<unknown>
    1464: 05 27        	<unknown>
    1466: 06 03        	<unknown>
    1468: 00 09        	<unknown>
    146a: 08 00        	<unknown>
    146c: 01 05        	<unknown>
    146e: 05 03        	<unknown>
    1470: 00 09        	<unknown>
    1472: 04 00        	<unknown>
    1474: 01 05        	<unknown>
    1476: 19 06        	<unknown>
    1478: 03 7f 09 10  	p.lh	t5, zero(s2)
    147c: 00 01        	<unknown>
    147e: 06 03        	<unknown>
    1480: 9b 7e 09 04  	<unknown>
    1484: 00 01        	<unknown>
    1486: 05 03        	<unknown>
    1488: 03 e5 01 09  	<unknown>
    148c: 04 00        	<unknown>
    148e: 01 03        	<unknown>
    1490: 9b 7e 09 08  	<unknown>
    1494: 00 01        	<unknown>
    1496: 05 0f        	<unknown>
    1498: 06 03        	<unknown>
    149a: ae 01        	<unknown>
    149c: 09 04        	<unknown>
    149e: 00 01        	<unknown>
    14a0: 05 07        	<unknown>
    14a2: 03 3c 09 0c  	<unknown>
    14a6: 00 01        	<unknown>
    14a8: 05 05        	<unknown>
    14aa: 03 01 09 08  	lb	sp, 128(s2)
    14ae: 00 01        	<unknown>
    14b0: 05 1b        	<unknown>
    14b2: 03 01 09 04  	lb	sp, 64(s2)
    14b6: 00 01        	<unknown>
    14b8: 05 07        	<unknown>
    14ba: 06 03        	<unknown>
    14bc: 00 09        	<unknown>
    14be: 04 00        	<unknown>
    14c0: 01 05        	<unknown>
    14c2: 1c 06        	<unknown>
    14c4: 03 7f 09 14  	<unknown>
    14c8: 00 01        	<unknown>
    14ca: 05 05        	<unknown>
    14cc: 06 03        	<unknown>
    14ce: 00 09        	<unknown>
    14d0: 08 00        	<unknown>
    14d2: 01 03        	<unknown>
    14d4: 95 7e        	<unknown>
    14d6: 09 08        	<unknown>
    14d8: 00 01        	<unknown>
    14da: 05 03        	<unknown>
    14dc: 06 03        	<unknown>
    14de: 8b 02 09 04  	p.lb	t0, 64(s2!)
    14e2: 00 01        	<unknown>
    14e4: 09 38        	<unknown>
    14e6: 00 00        	<unknown>
    14e8: 01 01        	<unknown>
    14ea: 77 00 00 00  	<unknown>
    14ee: 05 00        	<unknown>
    14f0: 04 00        	<unknown>
    14f2: 50 00        	<unknown>
    14f4: 00 00        	<unknown>
    14f6: 01 01        	<unknown>
    14f8: 01 fb        	<unknown>
    14fa: 0e 0d        	<unknown>
    14fc: 00 01        	<unknown>
    14fe: 01 01        	<unknown>
    1500: 01 00        	<unknown>
    1502: 00 00        	<unknown>
    1504: 01 00        	<unknown>
    1506: 00 01        	<unknown>
    1508: 01 01        	<unknown>
    150a: 1f 02 00 00  	<unknown>
    150e: 00 00        	<unknown>
    1510: b8 00        	<unknown>
    1512: 00 00        	<unknown>
    1514: 03 01 1f 02  	lb	sp, 33(t5)
    1518: 0f 05 1e 02  	<unknown>
    151c: 94 03        	<unknown>
    151e: 00 00        	<unknown>
    1520: 00 e4        	<unknown>
    1522: 6e 97        	<unknown>
    1524: 34 01        	<unknown>
    1526: 6c b9        	<unknown>
    1528: 89 9c        	<unknown>
    152a: 2f 8b a8 0d  	<unknown>
    152e: a3 18 f5 ed  	sh	t6, -303(a0)
    1532: 03 00 00 01  	lb	zero, 16(zero)
    1536: e4 6e        	<unknown>
    1538: 97 34 01 6c  	auipc	s1, 442387
    153c: b9 89        	<unknown>
    153e: 9c 2f        	<unknown>
    1540: 8b a8 0d a3  	p.lw	a7, -1488(s11!)
    1544: 18 f5        	<unknown>
    1546: 00 05        	<unknown>
    1548: 02 48        	<unknown>
    154a: 12 00        	<unknown>
    154c: 80 1a        	<unknown>
    154e: 05 0d        	<unknown>
    1550: 0a 03        	<unknown>
    1552: 02 09        	<unknown>
    1554: 00 00        	<unknown>
    1556: 01 05        	<unknown>
    1558: 01 03        	<unknown>
    155a: 01 09        	<unknown>
    155c: 08 00        	<unknown>
    155e: 01 09        	<unknown>
    1560: 04 00        	<unknown>
    1562: 00 01        	<unknown>
    1564: 01 6b        	<unknown>
    1566: 04 00        	<unknown>
    1568: 00 05        	<unknown>
    156a: 00 04        	<unknown>
    156c: 00 93        	<unknown>
    156e: 00 00        	<unknown>
    1570: 00 01        	<unknown>
    1572: 01 01        	<unknown>
    1574: fb 0e 0d 00  	<unknown>
    1578: 01 01        	<unknown>
    157a: 01 01        	<unknown>
    157c: 00 00        	<unknown>
    157e: 00 01        	<unknown>
    1580: 00 00        	<unknown>
    1582: 01 01        	<unknown>
    1584: 01 1f        	<unknown>
    1586: 03 00 00 00  	lb	zero, 0(zero)
    158a: 00 68        	<unknown>
    158c: 00 00        	<unknown>
    158e: 00 b8        	<unknown>
    1590: 00 00        	<unknown>
    1592: 00 03        	<unknown>
    1594: 01 1f        	<unknown>
    1596: 02 0f        	<unknown>
    1598: 05 1e        	<unknown>
    159a: 05 fe        	<unknown>
    159c: 03 00 00 00  	lb	zero, 0(zero)
    15a0: 9d 72        	<unknown>
    15a2: 74 e4        	<unknown>
    15a4: 42 cb        	<unknown>
    15a6: 57 63 ce 4b  	pv.sra.sci.h	t1, t3, 57
    15aa: 25 00        	<unknown>
    15ac: 41 ef        	<unknown>
    15ae: 46 77        	<unknown>
    15b0: 2b 01 00 00  	p.sb	zero, 2(zero!)
    15b4: 01 f7        	<unknown>
    15b6: 02 4d        	<unknown>
    15b8: 06 82        	<unknown>
    15ba: a9 18        	<unknown>
    15bc: b4 1f        	<unknown>
    15be: 94 e8        	<unknown>
    15c0: be 9c        	<unknown>
    15c2: d9 04        	<unknown>
    15c4: 61 72        	<unknown>
    15c6: 01 00        	<unknown>
    15c8: 00 01        	<unknown>
    15ca: ab 91 4e 28  	p.sh	tp, 643(t4!)
    15ce: 76 01        	<unknown>
    15d0: b2 38        	<unknown>
    15d2: 5e 57        	<unknown>
    15d4: 88 0e        	<unknown>
    15d6: 65 99        	<unknown>
    15d8: aa 6b        	<unknown>
    15da: 36 03        	<unknown>
    15dc: 00 00        	<unknown>
    15de: 01 24        	<unknown>
    15e0: 99 dd        	<unknown>
    15e2: 23 61 b9 15  	<unknown>
    15e6: 72 4b        	<unknown>
    15e8: 07 32 82 be  	<unknown>
    15ec: a3 a7 bc 57  	sw	s11, 1391(s9)
    15f0: 04 00        	<unknown>
    15f2: 00 02        	<unknown>
    15f4: 9d 72        	<unknown>
    15f6: 74 e4        	<unknown>
    15f8: 42 cb        	<unknown>
    15fa: 57 63 ce 4b  	pv.sra.sci.h	t1, t3, 57
    15fe: 25 00        	<unknown>
    1600: 41 ef        	<unknown>
    1602: 46 77        	<unknown>
    1604: 04 04        	<unknown>
    1606: 00 05        	<unknown>
    1608: 02 54        	<unknown>
    160a: 12 00        	<unknown>
    160c: 80 1a        	<unknown>
    160e: 05 19        	<unknown>
    1610: 0a 03        	<unknown>
    1612: 01 09        	<unknown>
    1614: 00 00        	<unknown>
    1616: 01 05        	<unknown>
    1618: 2a 06        	<unknown>
    161a: 03 00 09 04  	lb	zero, 64(s2)
    161e: 00 01        	<unknown>
    1620: 05 31        	<unknown>
    1622: 03 00 09 04  	lb	zero, 64(s2)
    1626: 00 01        	<unknown>
    1628: 05 07        	<unknown>
    162a: 03 00 09 08  	lb	zero, 128(s2)
    162e: 00 01        	<unknown>
    1630: 05 05        	<unknown>
    1632: 06 03        	<unknown>
    1634: 09 09        	<unknown>
    1636: 04 00        	<unknown>
    1638: 01 06        	<unknown>
    163a: 03 6d 09 04  	<unknown>
    163e: 00 01        	<unknown>
    1640: 05 0e        	<unknown>
    1642: 06 03        	<unknown>
    1644: 14 09        	<unknown>
    1646: 04 00        	<unknown>
    1648: 01 05        	<unknown>
    164a: 10 06        	<unknown>
    164c: 03 00 09 04  	lb	zero, 64(s2)
    1650: 00 01        	<unknown>
    1652: 05 0e        	<unknown>
    1654: 06 03        	<unknown>
    1656: 7f 09 04 00  	<unknown>
    165a: 01 05        	<unknown>
    165c: 09 03        	<unknown>
    165e: 01 09        	<unknown>
    1660: 04 00        	<unknown>
    1662: 01 05        	<unknown>
    1664: 0c 06        	<unknown>
    1666: 03 00 09 04  	lb	zero, 64(s2)
    166a: 00 01        	<unknown>
    166c: 03 6c 09 08  	<unknown>
    1670: 00 01        	<unknown>
    1672: 05 05        	<unknown>
    1674: 06 03        	<unknown>
    1676: 0e 09        	<unknown>
    1678: 08 00        	<unknown>
    167a: 01 06        	<unknown>
    167c: 03 72 09 04  	<unknown>
    1680: 00 01        	<unknown>
    1682: 05 0e        	<unknown>
    1684: 06 03        	<unknown>
    1686: 0f 09 04 00  	<unknown>
    168a: 01 05        	<unknown>
    168c: 10 06        	<unknown>
    168e: 03 00 09 04  	lb	zero, 64(s2)
    1692: 00 01        	<unknown>
    1694: 05 09        	<unknown>
    1696: 03 00 09 04  	lb	zero, 64(s2)
    169a: 00 01        	<unknown>
    169c: 05 0c        	<unknown>
    169e: 03 00 09 04  	lb	zero, 64(s2)
    16a2: 00 01        	<unknown>
    16a4: 05 05        	<unknown>
    16a6: 06 03        	<unknown>
    16a8: 7f 09 08 00  	<unknown>
    16ac: 01 05        	<unknown>
    16ae: 03 03 08 09  	lb	t1, 144(a6)
    16b2: 04 00        	<unknown>
    16b4: 01 05        	<unknown>
    16b6: 00 03        	<unknown>
    16b8: 03 09 04 00  	lb	s2, 0(s0)
    16bc: 01 05        	<unknown>
    16be: 19 0a        	<unknown>
    16c0: 03 01 09 00  	lb	sp, 0(s2)
    16c4: 00 01        	<unknown>
    16c6: 05 20        	<unknown>
    16c8: 06 03        	<unknown>
    16ca: 00 09        	<unknown>
    16cc: 04 00        	<unknown>
    16ce: 01 05        	<unknown>
    16d0: 07 03 00 09  	flb	ft6, 144(zero)
    16d4: 04 00        	<unknown>
    16d6: 01 03        	<unknown>
    16d8: 66 09        	<unknown>
    16da: 04 00        	<unknown>
    16dc: 01 05        	<unknown>
    16de: 05 06        	<unknown>
    16e0: 03 25 09 04  	lw	a0, 64(s2)
    16e4: 00 01        	<unknown>
    16e6: 06 03        	<unknown>
    16e8: 5b 09 04 00  	<unknown>
    16ec: 01 05        	<unknown>
    16ee: 0c 06        	<unknown>
    16f0: 03 26 09 04  	lw	a2, 64(s2)
    16f4: 00 01        	<unknown>
    16f6: 05 09        	<unknown>
    16f8: 06 03        	<unknown>
    16fa: 00 09        	<unknown>
    16fc: 04 00        	<unknown>
    16fe: 01 05        	<unknown>
    1700: 0e 06        	<unknown>
    1702: 03 7f 09 04  	<unknown>
    1706: 00 01        	<unknown>
    1708: 06 03        	<unknown>
    170a: 5b 09 0c 00  	<unknown>
    170e: 01 05        	<unknown>
    1710: 05 06        	<unknown>
    1712: 03 21 09 04  	lw	sp, 64(s2)
    1716: 00 01        	<unknown>
    1718: 06 03        	<unknown>
    171a: 5f 09 04 00  	<unknown>
    171e: 01 05        	<unknown>
    1720: 09 06        	<unknown>
    1722: 03 22 09 14  	lw	tp, 320(s2)
    1726: 00 01        	<unknown>
    1728: 05 0c        	<unknown>
    172a: 06 03        	<unknown>
    172c: 00 09        	<unknown>
    172e: 04 00        	<unknown>
    1730: 01 05        	<unknown>
    1732: 05 06        	<unknown>
    1734: 03 7f 09 08  	<unknown>
    1738: 00 01        	<unknown>
    173a: 05 03        	<unknown>
    173c: 03 07 09 04  	lb	a4, 64(s2)
    1740: 00 01        	<unknown>
    1742: 05 00        	<unknown>
    1744: 03 03 09 04  	lb	t1, 64(s2)
    1748: 00 01        	<unknown>
    174a: 05 0a        	<unknown>
    174c: 0a 03        	<unknown>
    174e: 02 09        	<unknown>
    1750: 04 00        	<unknown>
    1752: 01 05        	<unknown>
    1754: 03 06 03 00  	lb	a2, 0(t1)
    1758: 09 08        	<unknown>
    175a: 00 01        	<unknown>
    175c: 06 03        	<unknown>
    175e: 02 09        	<unknown>
    1760: 08 00        	<unknown>
    1762: 01 05        	<unknown>
    1764: 00 03        	<unknown>
    1766: 03 09 08 00  	lb	s2, 0(a6)
    176a: 01 05        	<unknown>
    176c: 0a 0a        	<unknown>
    176e: 03 04 09 00  	lb	s0, 0(s2)
    1772: 00 01        	<unknown>
    1774: 05 0d        	<unknown>
    1776: 06 03        	<unknown>
    1778: 00 09        	<unknown>
    177a: 04 00        	<unknown>
    177c: 01 05        	<unknown>
    177e: 0a 06        	<unknown>
    1780: 03 01 09 04  	lb	sp, 64(s2)
    1784: 00 01        	<unknown>
    1786: 05 0d        	<unknown>
    1788: 06 03        	<unknown>
    178a: 00 09        	<unknown>
    178c: 04 00        	<unknown>
    178e: 01 05        	<unknown>
    1790: 0f 06 03 01  	<unknown>
    1794: 09 04        	<unknown>
    1796: 00 01        	<unknown>
    1798: 05 14        	<unknown>
    179a: 06 03        	<unknown>
    179c: 00 09        	<unknown>
    179e: 04 00        	<unknown>
    17a0: 01 05        	<unknown>
    17a2: 03 03 00 09  	lb	t1, 144(zero)
    17a6: 0c 00        	<unknown>
    17a8: 01 05        	<unknown>
    17aa: 0d 06        	<unknown>
    17ac: 03 02 09 04  	lb	tp, 64(s2)
    17b0: 00 01        	<unknown>
    17b2: 05 03        	<unknown>
    17b4: 06 03        	<unknown>
    17b6: 00 09        	<unknown>
    17b8: 04 00        	<unknown>
    17ba: 01 05        	<unknown>
    17bc: 00 06        	<unknown>
    17be: 03 03 09 04  	lb	t1, 64(s2)
    17c2: 00 01        	<unknown>
    17c4: 05 17        	<unknown>
    17c6: 0a 03        	<unknown>
    17c8: 01 09        	<unknown>
    17ca: 00 00        	<unknown>
    17cc: 01 05        	<unknown>
    17ce: 28 06        	<unknown>
    17d0: 03 00 09 04  	lb	zero, 64(s2)
    17d4: 00 01        	<unknown>
    17d6: 05 07        	<unknown>
    17d8: 03 00 09 04  	lb	zero, 64(s2)
    17dc: 00 01        	<unknown>
    17de: 05 24        	<unknown>
    17e0: 06 03        	<unknown>
    17e2: 03 09 04 00  	lb	s2, 0(s0)
    17e6: 01 05        	<unknown>
    17e8: 1f 06 03 00  	<unknown>
    17ec: 09 04        	<unknown>
    17ee: 00 01        	<unknown>
    17f0: 05 05        	<unknown>
    17f2: 06 03        	<unknown>
    17f4: 01 09        	<unknown>
    17f6: 04 00        	<unknown>
    17f8: 01 06        	<unknown>
    17fa: 03 be 7f 09  	<unknown>
    17fe: 04 00        	<unknown>
    1800: 01 05        	<unknown>
    1802: 0b 06 03 c3  	p.lb	a2, -976(t1!)
    1806: 00 09        	<unknown>
    1808: 04 00        	<unknown>
    180a: 01 05        	<unknown>
    180c: 12 06        	<unknown>
    180e: 03 00 09 04  	lb	zero, 64(s2)
    1812: 00 01        	<unknown>
    1814: 05 0b        	<unknown>
    1816: 03 00 09 04  	lb	zero, 64(s2)
    181a: 00 01        	<unknown>
    181c: 05 09        	<unknown>
    181e: 06 03        	<unknown>
    1820: 02 09        	<unknown>
    1822: 04 00        	<unknown>
    1824: 01 03        	<unknown>
    1826: 01 09        	<unknown>
    1828: 04 00        	<unknown>
    182a: 01 05        	<unknown>
    182c: 05 03        	<unknown>
    182e: 7c 09        	<unknown>
    1830: 04 00        	<unknown>
    1832: 01 06        	<unknown>
    1834: 03 be 7f 09  	<unknown>
    1838: 08 00        	<unknown>
    183a: 01 05        	<unknown>
    183c: 24 06        	<unknown>
    183e: 03 c8 00 09  	lbu	a6, 144(ra)
    1842: 04 00        	<unknown>
    1844: 01 05        	<unknown>
    1846: 07 06 03 00  	flb	fa2, 0(t1)
    184a: 09 04        	<unknown>
    184c: 00 01        	<unknown>
    184e: 03 b8 7f 09  	<unknown>
    1852: 04 00        	<unknown>
    1854: 01 05        	<unknown>
    1856: 03 06 03 cd  	lb	a2, -816(t1)
    185a: 00 09        	<unknown>
    185c: 04 00        	<unknown>
    185e: 01 05        	<unknown>
    1860: 0b 06 03 00  	p.lb	a2, 0(t1!)
    1864: 09 04        	<unknown>
    1866: 00 01        	<unknown>
    1868: 05 18        	<unknown>
    186a: 06 03        	<unknown>
    186c: 01 09        	<unknown>
    186e: 04 00        	<unknown>
    1870: 01 05        	<unknown>
    1872: 32 06        	<unknown>
    1874: 03 00 09 04  	lb	zero, 64(s2)
    1878: 00 01        	<unknown>
    187a: 05 18        	<unknown>
    187c: 06 03        	<unknown>
    187e: 01 09        	<unknown>
    1880: 04 00        	<unknown>
    1882: 01 05        	<unknown>
    1884: 32 06        	<unknown>
    1886: 03 00 09 04  	lb	zero, 64(s2)
    188a: 00 01        	<unknown>
    188c: 03 b1 7f 09  	<unknown>
    1890: 04 00        	<unknown>
    1892: 01 05        	<unknown>
    1894: 09 06        	<unknown>
    1896: 03 d0 00 09  	lhu	zero, 144(ra)
    189a: 04 00        	<unknown>
    189c: 01 05        	<unknown>
    189e: 01 03        	<unknown>
    18a0: 05 09        	<unknown>
    18a2: 04 00        	<unknown>
    18a4: 01 06        	<unknown>
    18a6: 03 ab 7f 09  	lw	s6, 151(t6)
    18aa: 04 00        	<unknown>
    18ac: 01 03        	<unknown>
    18ae: d5 00        	<unknown>
    18b0: 09 04        	<unknown>
    18b2: 00 01        	<unknown>
    18b4: 05 00        	<unknown>
    18b6: 06 03        	<unknown>
    18b8: 02 09        	<unknown>
    18ba: 04 00        	<unknown>
    18bc: 01 05        	<unknown>
    18be: 16 0a        	<unknown>
    18c0: 03 02 09 04  	lb	tp, 64(s2)
    18c4: 00 01        	<unknown>
    18c6: 05 12        	<unknown>
    18c8: 06 03        	<unknown>
    18ca: 00 09        	<unknown>
    18cc: 08 00        	<unknown>
    18ce: 01 05        	<unknown>
    18d0: 03 03 00 09  	lb	t1, 144(zero)
    18d4: 04 00        	<unknown>
    18d6: 01 05        	<unknown>
    18d8: 10 03        	<unknown>
    18da: 00 09        	<unknown>
    18dc: 04 00        	<unknown>
    18de: 01 05        	<unknown>
    18e0: 03 03 00 09  	lb	t1, 144(zero)
    18e4: 04 00        	<unknown>
    18e6: 01 06        	<unknown>
    18e8: 03 02 09 04  	lb	tp, 64(s2)
    18ec: 00 01        	<unknown>
    18ee: 05 00        	<unknown>
    18f0: 03 03 09 04  	lb	t1, 64(s2)
    18f4: 00 01        	<unknown>
    18f6: 05 03        	<unknown>
    18f8: 0a 03        	<unknown>
    18fa: 04 09        	<unknown>
    18fc: 00 00        	<unknown>
    18fe: 01 05        	<unknown>
    1900: 0a 06        	<unknown>
    1902: 03 00 09 08  	lb	zero, 128(s2)
    1906: 00 01        	<unknown>
    1908: 05 03        	<unknown>
    190a: 03 00 09 04  	lb	zero, 64(s2)
    190e: 00 01        	<unknown>
    1910: 05 0a        	<unknown>
    1912: 03 00 09 08  	lb	zero, 128(s2)
    1916: 00 01        	<unknown>
    1918: 05 03        	<unknown>
    191a: 03 00 09 04  	lb	zero, 64(s2)
    191e: 00 01        	<unknown>
    1920: 03 9e 7f 09  	lh	t3, 151(t6)
    1924: 04 00        	<unknown>
    1926: 01 03        	<unknown>
    1928: e2 00        	<unknown>
    192a: 09 04        	<unknown>
    192c: 00 01        	<unknown>
    192e: 03 9e 7f 09  	lh	t3, 151(t6)
    1932: 04 00        	<unknown>
    1934: 01 03        	<unknown>
    1936: e2 00        	<unknown>
    1938: 09 04        	<unknown>
    193a: 00 01        	<unknown>
    193c: 05 11        	<unknown>
    193e: 06 03        	<unknown>
    1940: 04 09        	<unknown>
    1942: 04 00        	<unknown>
    1944: 01 05        	<unknown>
    1946: 0a 03        	<unknown>
    1948: 04 09        	<unknown>
    194a: 08 00        	<unknown>
    194c: 01 06        	<unknown>
    194e: 03 96 7f 09  	lh	a2, 151(t6)
    1952: 04 00        	<unknown>
    1954: 01 05        	<unknown>
    1956: 03 03 ea 00  	lb	t1, 14(s4)
    195a: 09 04        	<unknown>
    195c: 00 01        	<unknown>
    195e: 03 96 7f 09  	lh	a2, 151(t6)
    1962: 08 00        	<unknown>
    1964: 01 03        	<unknown>
    1966: ea 00        	<unknown>
    1968: 09 04        	<unknown>
    196a: 00 01        	<unknown>
    196c: 03 96 7f 09  	lh	a2, 151(t6)
    1970: 04 00        	<unknown>
    1972: 01 03        	<unknown>
    1974: ea 00        	<unknown>
    1976: 09 04        	<unknown>
    1978: 00 01        	<unknown>
    197a: 03 96 7f 09  	lh	a2, 151(t6)
    197e: 08 00        	<unknown>
    1980: 01 05        	<unknown>
    1982: 09 06        	<unknown>
    1984: 03 eb 00 09  	<unknown>
    1988: 04 00        	<unknown>
    198a: 01 05        	<unknown>
    198c: 0c 03        	<unknown>
    198e: 01 09        	<unknown>
    1990: 04 00        	<unknown>
    1992: 01 05        	<unknown>
    1994: 0a 03        	<unknown>
    1996: 7e 09        	<unknown>
    1998: 04 00        	<unknown>
    199a: 01 05        	<unknown>
    199c: 13 03 02 09  	addi	t1, tp, 144
    19a0: 04 00        	<unknown>
    19a2: 01 05        	<unknown>
    19a4: 09 06        	<unknown>
    19a6: 03 00 09 04  	lb	zero, 64(s2)
    19aa: 00 01        	<unknown>
    19ac: 05 03        	<unknown>
    19ae: 06 03        	<unknown>
    19b0: 7e 09        	<unknown>
    19b2: 04 00        	<unknown>
    19b4: 01 05        	<unknown>
    19b6: 0a 03        	<unknown>
    19b8: 05 09        	<unknown>
    19ba: 08 00        	<unknown>
    19bc: 01 06        	<unknown>
    19be: 03 91 7f 09  	lh	sp, 151(t6)
    19c2: 04 00        	<unknown>
    19c4: 01 05        	<unknown>
    19c6: 03 03 ef 00  	lb	t1, 14(t5)
    19ca: 09 04        	<unknown>
    19cc: 00 01        	<unknown>
    19ce: 09 04        	<unknown>
    19d0: 00 00        	<unknown>
    19d2: 01 01        	<unknown>
    19d4: 6f 01 00 00  	jal	sp, 0x19d4 <__l1_start+0x19d4>
    19d8: 05 00        	<unknown>
    19da: 04 00        	<unknown>
    19dc: 93 00 00 00  	li	ra, 0
    19e0: 01 01        	<unknown>
    19e2: 01 fb        	<unknown>
    19e4: 0e 0d        	<unknown>
    19e6: 00 01        	<unknown>
    19e8: 01 01        	<unknown>
    19ea: 01 00        	<unknown>
    19ec: 00 00        	<unknown>
    19ee: 01 00        	<unknown>
    19f0: 00 01        	<unknown>
    19f2: 01 01        	<unknown>
    19f4: 1f 03 00 00  	<unknown>
    19f8: 00 00        	<unknown>
    19fa: 68 00        	<unknown>
    19fc: 00 00        	<unknown>
    19fe: b8 00        	<unknown>
    1a00: 00 00        	<unknown>
    1a02: 03 01 1f 02  	lb	sp, 33(t5)
    1a06: 0f 05 1e 05  	<unknown>
    1a0a: 68 04        	<unknown>
    1a0c: 00 00        	<unknown>
    1a0e: 00 44        	<unknown>
    1a10: 3e 1d        	<unknown>
    1a12: d5 a0        	<unknown>
    1a14: 12 d9        	<unknown>
    1a16: f8 b3        	<unknown>
    1a18: 5a 61        	<unknown>
    1a1a: 7a 38        	<unknown>
    1a1c: 43 bf d8 2b  	<unknown>
    1a20: 01 00        	<unknown>
    1a22: 00 01        	<unknown>
    1a24: f7 02 4d 06  	<unknown>
    1a28: 82 a9        	<unknown>
    1a2a: 18 b4        	<unknown>
    1a2c: 1f 94 e8 be  	<unknown>
    1a30: 9c d9        	<unknown>
    1a32: 04 61        	<unknown>
    1a34: 72 01        	<unknown>
    1a36: 00 00        	<unknown>
    1a38: 01 ab        	<unknown>
    1a3a: 91 4e        	<unknown>
    1a3c: 28 76        	<unknown>
    1a3e: 01 b2        	<unknown>
    1a40: 38 5e        	<unknown>
    1a42: 57 88 0e 65  	<unknown>
    1a46: 99 aa        	<unknown>
    1a48: 6b c1 04 00  	<unknown>
    1a4c: 00 02        	<unknown>
    1a4e: 44 3e        	<unknown>
    1a50: 1d d5        	<unknown>
    1a52: a0 12        	<unknown>
    1a54: d9 f8        	<unknown>
    1a56: b3 5a 61 7a  	<unknown>
    1a5a: 38 43        	<unknown>
    1a5c: bf d8 ae 01  	<unknown>
    1a60: 00 00        	<unknown>
    1a62: 02 54        	<unknown>
    1a64: e2 7b        	<unknown>
    1a66: 38 e5        	<unknown>
    1a68: d5 de        	<unknown>
    1a6a: cf dc bd 4c  	<unknown>
    1a6e: 9d 62        	<unknown>
    1a70: b6 1f        	<unknown>
    1a72: 65 04        	<unknown>
    1a74: 03 00 05 02  	lb	zero, 32(a0)
    1a78: 70 14        	<unknown>
    1a7a: 00 80        	<unknown>
    1a7c: 03 12 01 05  	lh	tp, 80(sp)
    1a80: 07 0a 03 01  	flb	fs4, 16(t1)
    1a84: 09 00        	<unknown>
    1a86: 00 01        	<unknown>
    1a88: 04 04        	<unknown>
    1a8a: 05 24        	<unknown>
    1a8c: 03 ea 00 09  	<unknown>
    1a90: 04 00        	<unknown>
    1a92: 01 04        	<unknown>
    1a94: 03 05 0d 03  	lb	a0, 48(s10)
    1a98: 98 7f        	<unknown>
    1a9a: 09 08        	<unknown>
    1a9c: 00 01        	<unknown>
    1a9e: 04 04        	<unknown>
    1aa0: 05 3c        	<unknown>
    1aa2: 03 ec 00 09  	<unknown>
    1aa6: 08 00        	<unknown>
    1aa8: 01 05        	<unknown>
    1aaa: 24 03        	<unknown>
    1aac: 7c 09        	<unknown>
    1aae: 0c 00        	<unknown>
    1ab0: 01 04        	<unknown>
    1ab2: 03 05 1a 03  	lb	a0, 49(s4)
    1ab6: a8 7f        	<unknown>
    1ab8: 09 04        	<unknown>
    1aba: 00 01        	<unknown>
    1abc: 05 07        	<unknown>
    1abe: 06 03        	<unknown>
    1ac0: 00 09        	<unknown>
    1ac2: 14 00        	<unknown>
    1ac4: 01 05        	<unknown>
    1ac6: 05 06        	<unknown>
    1ac8: 03 01 09 04  	lb	sp, 64(s2)
    1acc: 00 01        	<unknown>
    1ace: 03 01 09 04  	lb	sp, 64(s2)
    1ad2: 00 01        	<unknown>
    1ad4: 04 04        	<unknown>
    1ad6: 05 3c        	<unknown>
    1ad8: 03 da 00 09  	lhu	s4, 144(ra)
    1adc: 04 00        	<unknown>
    1ade: 01 05        	<unknown>
    1ae0: 24 03        	<unknown>
    1ae2: 7c 09        	<unknown>
    1ae4: 0c 00        	<unknown>
    1ae6: 01 04        	<unknown>
    1ae8: 03 05 01 03  	lb	a0, 48(sp)
    1aec: a4 7f        	<unknown>
    1aee: 09 04        	<unknown>
    1af0: 00 01        	<unknown>
    1af2: 05 00        	<unknown>
    1af4: 03 02 09 04  	lb	tp, 64(s2)
    1af8: 00 01        	<unknown>
    1afa: 05 12        	<unknown>
    1afc: 0a 03        	<unknown>
    1afe: 02 09        	<unknown>
    1b00: 00 00        	<unknown>
    1b02: 01 05        	<unknown>
    1b04: 1a 06        	<unknown>
    1b06: 03 00 09 04  	lb	zero, 64(s2)
    1b0a: 00 01        	<unknown>
    1b0c: 05 07        	<unknown>
    1b0e: 03 00 09 10  	lb	zero, 256(s2)
    1b12: 00 01        	<unknown>
    1b14: 05 05        	<unknown>
    1b16: 06 03        	<unknown>
    1b18: 01 09        	<unknown>
    1b1a: 04 00        	<unknown>
    1b1c: 01 03        	<unknown>
    1b1e: 01 09        	<unknown>
    1b20: 04 00        	<unknown>
    1b22: 01 04        	<unknown>
    1b24: 04 05        	<unknown>
    1b26: 3c 03        	<unknown>
    1b28: da 00        	<unknown>
    1b2a: 09 04        	<unknown>
    1b2c: 00 01        	<unknown>
    1b2e: 05 24        	<unknown>
    1b30: 03 7c 09 0c  	<unknown>
    1b34: 00 01        	<unknown>
    1b36: 04 03        	<unknown>
    1b38: 05 01        	<unknown>
    1b3a: 03 b0 7f 09  	<unknown>
    1b3e: 04 00        	<unknown>
    1b40: 01 09        	<unknown>
    1b42: 04 00        	<unknown>
    1b44: 00 01        	<unknown>
    1b46: 01           	<unknown>

Disassembly of section .debug_line_str:

00000000 <.debug_line_str>:
       0: 2f 75 73 72  	<unknown>
       4: 2f 73 63 72  	<unknown>
       8: 61 74        	<unknown>
       a: 63 68 32 2f  	bltu	tp, s3, 0x2fa <__l1_start+0x2fa>
       e: 6c 61        	<unknown>
      10: 72 61        	<unknown>
      12: 69 6e        	<unknown>
      14: 38 2f        	<unknown>
      16: 79 69        	<unknown>
      18: 63 7a 68 61  	bgeu	a6, s6, 0x62c <__l1_start+0x62c>
      1c: 6e 67        	<unknown>
      1e: 2f 74 65 72  	<unknown>
      22: 61 70        	<unknown>
      24: 6f 6f 6c 5f  	jal	t5, 0xc661a <__l1_alloc_base+0xa3d1a>
      28: 64 72        	<unknown>
      2a: 61 6d        	<unknown>
      2c: 5f 73 75 62  	<unknown>
      30: 6d 6f        	<unknown>
      32: 64 75        	<unknown>
      34: 6c 65        	<unknown>
      36: 5f 72 65 62  	<unknown>
      3a: 61 73        	<unknown>
      3c: 65 5f        	<unknown>
      3e: 30 35        	<unknown>
      40: 30 32        	<unknown>
      42: 5f 32 30 32  	<unknown>
      46: 34 2f        	<unknown>
      48: 6d 65        	<unknown>
      4a: 6d 70        	<unknown>
      4c: 6f 6f 6c 2f  	jal	t5, 0xc6342 <__l1_alloc_base+0xa3a42>
      50: 73 6f 66 74  	csrrsi	t5, 1862, 12
      54: 77 61 72 65  	<unknown>
      58: 2f 61 70 70  	<unknown>
      5c: 73 2f 62 61  	csrrs	t5, 1558, tp
      60: 72 65        	<unknown>
      62: 6d 65        	<unknown>
      64: 74 61        	<unknown>
      66: 6c 00        	<unknown>
      68: 2f 75 73 72  	<unknown>
      6c: 2f 73 63 72  	<unknown>
      70: 61 74        	<unknown>
      72: 63 68 32 2f  	bltu	tp, s3, 0x362 <__l1_start+0x362>
      76: 6c 61        	<unknown>
      78: 72 61        	<unknown>
      7a: 69 6e        	<unknown>
      7c: 38 2f        	<unknown>
      7e: 79 69        	<unknown>
      80: 63 7a 68 61  	bgeu	a6, s6, 0x694 <__l1_start+0x694>
      84: 6e 67        	<unknown>
      86: 2f 74 65 72  	<unknown>
      8a: 61 70        	<unknown>
      8c: 6f 6f 6c 5f  	jal	t5, 0xc6682 <__l1_alloc_base+0xa3d82>
      90: 64 72        	<unknown>
      92: 61 6d        	<unknown>
      94: 5f 73 75 62  	<unknown>
      98: 6d 6f        	<unknown>
      9a: 64 75        	<unknown>
      9c: 6c 65        	<unknown>
      9e: 5f 72 65 62  	<unknown>
      a2: 61 73        	<unknown>
      a4: 65 5f        	<unknown>
      a6: 30 35        	<unknown>
      a8: 30 32        	<unknown>
      aa: 5f 32 30 32  	<unknown>
      ae: 34 2f        	<unknown>
      b0: 6d 65        	<unknown>
      b2: 6d 70        	<unknown>
      b4: 6f 6f 6c 00  	jal	t5, 0xc60ba <__l1_alloc_base+0xa37ba>
      b8: 2f 75 73 72  	<unknown>
      bc: 2f 73 63 72  	<unknown>
      c0: 61 74        	<unknown>
      c2: 63 68 32 2f  	bltu	tp, s3, 0x3b2 <__l1_start+0x3b2>
      c6: 6c 61        	<unknown>
      c8: 72 61        	<unknown>
      ca: 69 6e        	<unknown>
      cc: 38 2f        	<unknown>
      ce: 79 69        	<unknown>
      d0: 63 7a 68 61  	bgeu	a6, s6, 0x6e4 <__l1_start+0x6e4>
      d4: 6e 67        	<unknown>
      d6: 2f 74 65 72  	<unknown>
      da: 61 70        	<unknown>
      dc: 6f 6f 6c 5f  	jal	t5, 0xc66d2 <__l1_alloc_base+0xa3dd2>
      e0: 64 72        	<unknown>
      e2: 61 6d        	<unknown>
      e4: 5f 73 75 62  	<unknown>
      e8: 6d 6f        	<unknown>
      ea: 64 75        	<unknown>
      ec: 6c 65        	<unknown>
      ee: 5f 72 65 62  	<unknown>
      f2: 61 73        	<unknown>
      f4: 65 5f        	<unknown>
      f6: 30 35        	<unknown>
      f8: 30 32        	<unknown>
      fa: 5f 32 30 32  	<unknown>
      fe: 34 2f        	<unknown>
     100: 6d 65        	<unknown>
     102: 6d 70        	<unknown>
     104: 6f 6f 6c 2f  	jal	t5, 0xc63fa <__l1_alloc_base+0xa3afa>
     108: 73 6f 66 74  	csrrsi	t5, 1862, 12
     10c: 77 61 72 65  	<unknown>
     110: 00 67        	<unknown>
     112: 76 73        	<unknown>
     114: 6f 63 5f 74  	jal	t1, 0xf7058 <__l1_alloc_base+0xd4758>
     118: 65 73        	<unknown>
     11a: 74 5f        	<unknown>
     11c: 62 61        	<unknown>
     11e: 72 72        	<unknown>
     120: 69 65        	<unknown>
     122: 72 2f        	<unknown>
     124: 6d 61        	<unknown>
     126: 69 6e        	<unknown>
     128: 2e 63        	<unknown>
     12a: 00 69        	<unknown>
     12c: 6e 73        	<unknown>
     12e: 74 61        	<unknown>
     130: 6c 6c        	<unknown>
     132: 2f 72 69 73  	<unknown>
     136: 63 76 2d 67  	bgeu	s10, s2, 0x7a2 <__l1_start+0x7a2>
     13a: 63 63 2f 72  	bltu	t5, sp, 0x860 <__l1_start+0x860>
     13e: 69 73        	<unknown>
     140: 63 76 33 32  	bgeu	t1, gp, 0x46c <__l1_start+0x46c>
     144: 2d 75        	<unknown>
     146: 6e 6b        	<unknown>
     148: 6e 6f        	<unknown>
     14a: 77 6e 2d 65  	<unknown>
     14e: 6c 66        	<unknown>
     150: 2f 69 6e 63  	<unknown>
     154: 6c 75        	<unknown>
     156: 64 65        	<unknown>
     158: 2f 6d 61 63  	<unknown>
     15c: 68 69        	<unknown>
     15e: 6e 65        	<unknown>
     160: 2f 5f 64 65  	<unknown>
     164: 66 61        	<unknown>
     166: 75 6c        	<unknown>
     168: 74 5f        	<unknown>
     16a: 74 79        	<unknown>
     16c: 70 65        	<unknown>
     16e: 73 2e 68 00  	csrrs	t3, 6, a6
     172: 69 6e        	<unknown>
     174: 73 74 61 6c  	csrrci	s0, 1734, 2
     178: 6c 2f        	<unknown>
     17a: 72 69        	<unknown>
     17c: 73 63 76 2d  	csrrsi	t1, 727, 12
     180: 67 63 63 2f  	<unknown>
     184: 72 69        	<unknown>
     186: 73 63 76 33  	csrrsi	t1, mhpmevent23, 12
     18a: 32 2d        	<unknown>
     18c: 75 6e        	<unknown>
     18e: 6b 6e 6f 77  	<unknown>
     192: 6e 2d        	<unknown>
     194: 65 6c        	<unknown>
     196: 66 2f        	<unknown>
     198: 69 6e        	<unknown>
     19a: 63 6c 75 64  	bltu	a0, t2, 0x7f2 <__l1_start+0x7f2>
     19e: 65 2f        	<unknown>
     1a0: 73 79 73 2f  	csrrci	s2, 759, 6
     1a4: 5f 73 74 64  	<unknown>
     1a8: 69 6e        	<unknown>
     1aa: 74 2e        	<unknown>
     1ac: 68 00        	<unknown>
     1ae: 72 75        	<unknown>
     1b0: 6e 74        	<unknown>
     1b2: 69 6d        	<unknown>
     1b4: 65 2f        	<unknown>
     1b6: 72 75        	<unknown>
     1b8: 6e 74        	<unknown>
     1ba: 69 6d        	<unknown>
     1bc: 65 2e        	<unknown>
     1be: 68 00        	<unknown>
     1c0: 72 75        	<unknown>
     1c2: 6e 74        	<unknown>
     1c4: 69 6d        	<unknown>
     1c6: 65 2f        	<unknown>
     1c8: 73 79 6e 63  	csrrci	s2, 1590, 28
     1cc: 68 72        	<unknown>
     1ce: 6f 6e 69 7a  	jal	t3, 0x96974 <__l1_alloc_base+0x74074>
     1d2: 61 74        	<unknown>
     1d4: 69 6f        	<unknown>
     1d6: 6e 2e        	<unknown>
     1d8: 68 00        	<unknown>
     1da: 2f 75 73 72  	<unknown>
     1de: 2f 73 63 72  	<unknown>
     1e2: 61 74        	<unknown>
     1e4: 63 68 32 2f  	bltu	tp, s3, 0x4d4 <__l1_start+0x4d4>
     1e8: 6c 61        	<unknown>
     1ea: 72 61        	<unknown>
     1ec: 69 6e        	<unknown>
     1ee: 38 2f        	<unknown>
     1f0: 79 69        	<unknown>
     1f2: 63 7a 68 61  	bgeu	a6, s6, 0x806 <__l1_start+0x806>
     1f6: 6e 67        	<unknown>
     1f8: 2f 74 65 72  	<unknown>
     1fc: 61 70        	<unknown>
     1fe: 6f 6f 6c 5f  	jal	t5, 0xc67f4 <__l1_alloc_base+0xa3ef4>
     202: 64 72        	<unknown>
     204: 61 6d        	<unknown>
     206: 5f 73 75 62  	<unknown>
     20a: 6d 6f        	<unknown>
     20c: 64 75        	<unknown>
     20e: 6c 65        	<unknown>
     210: 5f 72 65 62  	<unknown>
     214: 61 73        	<unknown>
     216: 65 5f        	<unknown>
     218: 30 35        	<unknown>
     21a: 30 32        	<unknown>
     21c: 5f 32 30 32  	<unknown>
     220: 34 2f        	<unknown>
     222: 6d 65        	<unknown>
     224: 6d 70        	<unknown>
     226: 6f 6f 6c 2f  	jal	t5, 0xc651c <__l1_alloc_base+0xa3c1c>
     22a: 73 6f 66 74  	csrrsi	t5, 1862, 12
     22e: 77 61 72 65  	<unknown>
     232: 2f 72 75 6e  	<unknown>
     236: 74 69        	<unknown>
     238: 6d 65        	<unknown>
     23a: 2f 61 6c 6c  	<unknown>
     23e: 6f 63 2e 63  	jal	t1, 0xe6870 <__l1_alloc_base+0xc3f70>
     242: 00 72        	<unknown>
     244: 75 6e        	<unknown>
     246: 74 69        	<unknown>
     248: 6d 65        	<unknown>
     24a: 2f 61 6c 6c  	<unknown>
     24e: 6f 63 2e 68  	jal	t1, 0xe68d0 <__l1_alloc_base+0xc3fd0>
     252: 00 72        	<unknown>
     254: 75 6e        	<unknown>
     256: 74 69        	<unknown>
     258: 6d 65        	<unknown>
     25a: 2f 70 72 69  	<unknown>
     25e: 6e 74        	<unknown>
     260: 66 2e        	<unknown>
     262: 68 00        	<unknown>
     264: 2f 75 73 72  	<unknown>
     268: 2f 73 63 72  	<unknown>
     26c: 61 74        	<unknown>
     26e: 63 68 32 2f  	bltu	tp, s3, 0x55e <__l1_start+0x55e>
     272: 6c 61        	<unknown>
     274: 72 61        	<unknown>
     276: 69 6e        	<unknown>
     278: 38 2f        	<unknown>
     27a: 79 69        	<unknown>
     27c: 63 7a 68 61  	bgeu	a6, s6, 0x890 <__l1_start+0x890>
     280: 6e 67        	<unknown>
     282: 2f 74 65 72  	<unknown>
     286: 61 70        	<unknown>
     288: 6f 6f 6c 5f  	jal	t5, 0xc687e <__l1_alloc_base+0xa3f7e>
     28c: 64 72        	<unknown>
     28e: 61 6d        	<unknown>
     290: 5f 73 75 62  	<unknown>
     294: 6d 6f        	<unknown>
     296: 64 75        	<unknown>
     298: 6c 65        	<unknown>
     29a: 5f 72 65 62  	<unknown>
     29e: 61 73        	<unknown>
     2a0: 65 5f        	<unknown>
     2a2: 30 35        	<unknown>
     2a4: 30 32        	<unknown>
     2a6: 5f 32 30 32  	<unknown>
     2aa: 34 2f        	<unknown>
     2ac: 6d 65        	<unknown>
     2ae: 6d 70        	<unknown>
     2b0: 6f 6f 6c 2f  	jal	t5, 0xc65a6 <__l1_alloc_base+0xa3ca6>
     2b4: 73 6f 66 74  	csrrsi	t5, 1862, 12
     2b8: 77 61 72 65  	<unknown>
     2bc: 2f 72 75 6e  	<unknown>
     2c0: 74 69        	<unknown>
     2c2: 6d 65        	<unknown>
     2c4: 2f 63 72 74  	<unknown>
     2c8: 30 2e        	<unknown>
     2ca: 53 00 2f 75  	<unknown>
     2ce: 73 72 2f 73  	csrrci	tp, mhpmevent18h, 30
     2d2: 63 72 61 74  	bgeu	sp, t1, 0xa16 <__l1_start+0xa16>
     2d6: 63 68 32 2f  	bltu	tp, s3, 0x5c6 <__l1_start+0x5c6>
     2da: 6c 61        	<unknown>
     2dc: 72 61        	<unknown>
     2de: 69 6e        	<unknown>
     2e0: 38 2f        	<unknown>
     2e2: 79 69        	<unknown>
     2e4: 63 7a 68 61  	bgeu	a6, s6, 0x8f8 <__l1_start+0x8f8>
     2e8: 6e 67        	<unknown>
     2ea: 2f 74 65 72  	<unknown>
     2ee: 61 70        	<unknown>
     2f0: 6f 6f 6c 5f  	jal	t5, 0xc68e6 <__l1_alloc_base+0xa3fe6>
     2f4: 64 72        	<unknown>
     2f6: 61 6d        	<unknown>
     2f8: 5f 73 75 62  	<unknown>
     2fc: 6d 6f        	<unknown>
     2fe: 64 75        	<unknown>
     300: 6c 65        	<unknown>
     302: 5f 72 65 62  	<unknown>
     306: 61 73        	<unknown>
     308: 65 5f        	<unknown>
     30a: 30 35        	<unknown>
     30c: 30 32        	<unknown>
     30e: 5f 32 30 32  	<unknown>
     312: 34 2f        	<unknown>
     314: 6d 65        	<unknown>
     316: 6d 70        	<unknown>
     318: 6f 6f 6c 2f  	jal	t5, 0xc660e <__l1_alloc_base+0xa3d0e>
     31c: 73 6f 66 74  	csrrsi	t5, 1862, 12
     320: 77 61 72 65  	<unknown>
     324: 2f 72 75 6e  	<unknown>
     328: 74 69        	<unknown>
     32a: 6d 65        	<unknown>
     32c: 2f 70 72 69  	<unknown>
     330: 6e 74        	<unknown>
     332: 66 2e        	<unknown>
     334: 63 00 69 6e  	beq	s2, t1, 0xa14 <__l1_start+0xa14>
     338: 73 74 61 6c  	csrrci	s0, 1734, 2
     33c: 6c 2f        	<unknown>
     33e: 6c 6c        	<unknown>
     340: 76 6d        	<unknown>
     342: 2f 6c 69 62  	<unknown>
     346: 2f 63 6c 61  	<unknown>
     34a: 6e 67        	<unknown>
     34c: 2f 31 34 2e  	<unknown>
     350: 30 2e        	<unknown>
     352: 36 2f        	<unknown>
     354: 69 6e        	<unknown>
     356: 63 6c 75 64  	bltu	a0, t2, 0x9ae <__l1_start+0x9ae>
     35a: 65 2f        	<unknown>
     35c: 73 74 64 64  	csrrci	s0, 1606, 8
     360: 65 66        	<unknown>
     362: 2e 68        	<unknown>
     364: 00 69        	<unknown>
     366: 6e 73        	<unknown>
     368: 74 61        	<unknown>
     36a: 6c 6c        	<unknown>
     36c: 2f 6c 6c 76  	<unknown>
     370: 6d 2f        	<unknown>
     372: 6c 69        	<unknown>
     374: 62 2f        	<unknown>
     376: 63 6c 61 6e  	bltu	sp, t1, 0xa6e <__l1_start+0xa6e>
     37a: 67 2f 31 34  	<unknown>
     37e: 2e 30        	<unknown>
     380: 2e 36        	<unknown>
     382: 2f 69 6e 63  	<unknown>
     386: 6c 75        	<unknown>
     388: 64 65        	<unknown>
     38a: 2f 73 74 64  	<unknown>
     38e: 61 72        	<unknown>
     390: 67 2e 68 00  	<unknown>
     394: 2f 75 73 72  	<unknown>
     398: 2f 73 63 72  	<unknown>
     39c: 61 74        	<unknown>
     39e: 63 68 32 2f  	bltu	tp, s3, 0x68e <__l1_start+0x68e>
     3a2: 6c 61        	<unknown>
     3a4: 72 61        	<unknown>
     3a6: 69 6e        	<unknown>
     3a8: 38 2f        	<unknown>
     3aa: 79 69        	<unknown>
     3ac: 63 7a 68 61  	bgeu	a6, s6, 0x9c0 <__l1_start+0x9c0>
     3b0: 6e 67        	<unknown>
     3b2: 2f 74 65 72  	<unknown>
     3b6: 61 70        	<unknown>
     3b8: 6f 6f 6c 5f  	jal	t5, 0xc69ae <__l1_alloc_base+0xa40ae>
     3bc: 64 72        	<unknown>
     3be: 61 6d        	<unknown>
     3c0: 5f 73 75 62  	<unknown>
     3c4: 6d 6f        	<unknown>
     3c6: 64 75        	<unknown>
     3c8: 6c 65        	<unknown>
     3ca: 5f 72 65 62  	<unknown>
     3ce: 61 73        	<unknown>
     3d0: 65 5f        	<unknown>
     3d2: 30 35        	<unknown>
     3d4: 30 32        	<unknown>
     3d6: 5f 32 30 32  	<unknown>
     3da: 34 2f        	<unknown>
     3dc: 6d 65        	<unknown>
     3de: 6d 70        	<unknown>
     3e0: 6f 6f 6c 2f  	jal	t5, 0xc66d6 <__l1_alloc_base+0xa3dd6>
     3e4: 73 6f 66 74  	csrrsi	t5, 1862, 12
     3e8: 77 61 72 65  	<unknown>
     3ec: 2f 72 75 6e  	<unknown>
     3f0: 74 69        	<unknown>
     3f2: 6d 65        	<unknown>
     3f4: 2f 73 65 72  	<unknown>
     3f8: 69 61        	<unknown>
     3fa: 6c 2e        	<unknown>
     3fc: 63 00 2f 75  	beq	t5, s2, 0xb3c <__l1_start+0xb3c>
     400: 73 72 2f 73  	csrrci	tp, mhpmevent18h, 30
     404: 63 72 61 74  	bgeu	sp, t1, 0xb48 <__l1_start+0xb48>
     408: 63 68 32 2f  	bltu	tp, s3, 0x6f8 <__l1_start+0x6f8>
     40c: 6c 61        	<unknown>
     40e: 72 61        	<unknown>
     410: 69 6e        	<unknown>
     412: 38 2f        	<unknown>
     414: 79 69        	<unknown>
     416: 63 7a 68 61  	bgeu	a6, s6, 0xa2a <__l1_start+0xa2a>
     41a: 6e 67        	<unknown>
     41c: 2f 74 65 72  	<unknown>
     420: 61 70        	<unknown>
     422: 6f 6f 6c 5f  	jal	t5, 0xc6a18 <__l1_alloc_base+0xa4118>
     426: 64 72        	<unknown>
     428: 61 6d        	<unknown>
     42a: 5f 73 75 62  	<unknown>
     42e: 6d 6f        	<unknown>
     430: 64 75        	<unknown>
     432: 6c 65        	<unknown>
     434: 5f 72 65 62  	<unknown>
     438: 61 73        	<unknown>
     43a: 65 5f        	<unknown>
     43c: 30 35        	<unknown>
     43e: 30 32        	<unknown>
     440: 5f 32 30 32  	<unknown>
     444: 34 2f        	<unknown>
     446: 6d 65        	<unknown>
     448: 6d 70        	<unknown>
     44a: 6f 6f 6c 2f  	jal	t5, 0xc6740 <__l1_alloc_base+0xa3e40>
     44e: 73 6f 66 74  	csrrsi	t5, 1862, 12
     452: 77 61 72 65  	<unknown>
     456: 2f 72 75 6e  	<unknown>
     45a: 74 69        	<unknown>
     45c: 6d 65        	<unknown>
     45e: 2f 73 74 72  	<unknown>
     462: 69 6e        	<unknown>
     464: 67 2e 63 00  	<unknown>
     468: 2f 75 73 72  	<unknown>
     46c: 2f 73 63 72  	<unknown>
     470: 61 74        	<unknown>
     472: 63 68 32 2f  	bltu	tp, s3, 0x762 <__l1_start+0x762>
     476: 6c 61        	<unknown>
     478: 72 61        	<unknown>
     47a: 69 6e        	<unknown>
     47c: 38 2f        	<unknown>
     47e: 79 69        	<unknown>
     480: 63 7a 68 61  	bgeu	a6, s6, 0xa94 <__l1_start+0xa94>
     484: 6e 67        	<unknown>
     486: 2f 74 65 72  	<unknown>
     48a: 61 70        	<unknown>
     48c: 6f 6f 6c 5f  	jal	t5, 0xc6a82 <__l1_alloc_base+0xa4182>
     490: 64 72        	<unknown>
     492: 61 6d        	<unknown>
     494: 5f 73 75 62  	<unknown>
     498: 6d 6f        	<unknown>
     49a: 64 75        	<unknown>
     49c: 6c 65        	<unknown>
     49e: 5f 72 65 62  	<unknown>
     4a2: 61 73        	<unknown>
     4a4: 65 5f        	<unknown>
     4a6: 30 35        	<unknown>
     4a8: 30 32        	<unknown>
     4aa: 5f 32 30 32  	<unknown>
     4ae: 34 2f        	<unknown>
     4b0: 6d 65        	<unknown>
     4b2: 6d 70        	<unknown>
     4b4: 6f 6f 6c 2f  	jal	t5, 0xc67aa <__l1_alloc_base+0xa3eaa>
     4b8: 73 6f 66 74  	csrrsi	t5, 1862, 12
     4bc: 77 61 72 65  	<unknown>
     4c0: 2f 72 75 6e  	<unknown>
     4c4: 74 69        	<unknown>
     4c6: 6d 65        	<unknown>
     4c8: 2f 73 79 6e  	<unknown>
     4cc: 63 68 72 6f  	bltu	tp, s7, 0xbbc <__l1_start+0xbbc>
     4d0: 6e 69        	<unknown>
     4d2: 7a 61        	<unknown>
     4d4: 74 69        	<unknown>
     4d6: 6f 6e 2e 63  	jal	t3, 0xe6b08 <__l1_alloc_base+0xc4208>
     4da: 00           	<unknown>

Disassembly of section .debug_rnglists:

00000000 <.debug_rnglists>:
       0: 75 00        	<unknown>
       2: 00 00        	<unknown>
       4: 05 00        	<unknown>
       6: 04 00        	<unknown>
       8: 06 00        	<unknown>
       a: 00 00        	<unknown>
       c: 18 00        	<unknown>
       e: 00 00        	<unknown>
      10: 22 00        	<unknown>
      12: 00 00        	<unknown>
      14: 32 00        	<unknown>
      16: 00 00        	<unknown>
      18: 3d 00        	<unknown>
      1a: 00 00        	<unknown>
      1c: 4d 00        	<unknown>
      1e: 00 00        	<unknown>
      20: 5d 00        	<unknown>
      22: 00 00        	<unknown>
      24: 04 60        	<unknown>
      26: 94 01        	<unknown>
      28: 04 b4        	<unknown>
      2a: 01 f8        	<unknown>
      2c: 01 00        	<unknown>
      2e: 04 9c        	<unknown>
      30: 02 c4        	<unknown>
      32: 02 04        	<unknown>
      34: d0 02        	<unknown>
      36: 9c 03        	<unknown>
      38: 04 a8        	<unknown>
      3a: 03 88 04 00  	lb	a6, 0(s1)
      3e: 04 d0        	<unknown>
      40: 02 88        	<unknown>
      42: 03 04 a8 03  	lb	s0, 58(a6)
      46: f4 03        	<unknown>
      48: 00 04        	<unknown>
      4a: b8 04        	<unknown>
      4c: f8 04        	<unknown>
      4e: 04 8c        	<unknown>
      50: 05 a8        	<unknown>
      52: 05 04        	<unknown>
      54: ac 05        	<unknown>
      56: b8 05        	<unknown>
      58: 00 04        	<unknown>
      5a: bc 05        	<unknown>
      5c: a0 06        	<unknown>
      5e: 04 a4        	<unknown>
      60: 06 d4        	<unknown>
      62: 06 04        	<unknown>
      64: d8 06        	<unknown>
      66: e4 06        	<unknown>
      68: 00 04        	<unknown>
      6a: e0 05        	<unknown>
      6c: a0 06        	<unknown>
      6e: 04 b4        	<unknown>
      70: 06 d4        	<unknown>
      72: 06 04        	<unknown>
      74: d8 06        	<unknown>
      76: e4 06        	<unknown>
      78: 00 99        	<unknown>
      7a: 00 00        	<unknown>
      7c: 00 05        	<unknown>
      7e: 00 04        	<unknown>
      80: 00 09        	<unknown>
      82: 00 00        	<unknown>
      84: 00 24        	<unknown>
      86: 00 00        	<unknown>
      88: 00 2f        	<unknown>
      8a: 00 00        	<unknown>
      8c: 00 44        	<unknown>
      8e: 00 00        	<unknown>
      90: 00 4f        	<unknown>
      92: 00 00        	<unknown>
      94: 00 5a        	<unknown>
      96: 00 00        	<unknown>
      98: 00 65        	<unknown>
      9a: 00 00        	<unknown>
      9c: 00 70        	<unknown>
      9e: 00 00        	<unknown>
      a0: 00 7b        	<unknown>
      a2: 00 00        	<unknown>
      a4: 00 86        	<unknown>
      a6: 00 00        	<unknown>
      a8: 00 04        	<unknown>
      aa: c0 04        	<unknown>
      ac: c8 04        	<unknown>
      ae: 04 d8        	<unknown>
      b0: 04 e0        	<unknown>
      b2: 04 00        	<unknown>
      b4: 04 a8        	<unknown>
      b6: 06 d4        	<unknown>
      b8: 06 04        	<unknown>
      ba: 98 07        	<unknown>
      bc: cc 08        	<unknown>
      be: 04 f0        	<unknown>
      c0: 0b b8 0c 04  	<unknown>
      c4: e4 0c        	<unknown>
      c6: 9c 0d        	<unknown>
      c8: 00 04        	<unknown>
      ca: cc 07        	<unknown>
      cc: ec 07        	<unknown>
      ce: 04 f0        	<unknown>
      d0: 0b 90 0c 00  	p.lh	zero, 0(s9!)
      d4: 04 84        	<unknown>
      d6: 08 9c        	<unknown>
      d8: 08 04        	<unknown>
      da: e4 0c        	<unknown>
      dc: f4 0c        	<unknown>
      de: 00 04        	<unknown>
      e0: cc 08        	<unknown>
      e2: 9c 09        	<unknown>
      e4: 04 94        	<unknown>
      e6: 0b e4 0b 00  	<unknown>
      ea: 04 d0        	<unknown>
      ec: 09 8c        	<unknown>
      ee: 0b 04 a4 0d  	p.lb	s0, 218(s0!)
      f2: bc 0e        	<unknown>
      f4: 00 04        	<unknown>
      f6: d8 09        	<unknown>
      f8: e4 09        	<unknown>
      fa: 04 f0        	<unknown>
      fc: 09 9c        	<unknown>
      fe: 0a 00        	<unknown>
     100: 04 98        	<unknown>
     102: 13 a8 13 04  	slti	a6, t2, 65
     106: c0 13        	<unknown>
     108: dc 13        	<unknown>
     10a: 00 04        	<unknown>
     10c: e4 13        	<unknown>
     10e: a8 15        	<unknown>
     110: 04 b0        	<unknown>
     112: 15 e4        	<unknown>
     114: 18 00        	<unknown>

Disassembly of section .debug_aranges:

00000000 <.debug_aranges>:
       0: 1c 00        	<unknown>
       2: 00 00        	<unknown>
       4: 02 00        	<unknown>
       6: dd 05        	<unknown>
       8: 00 00        	<unknown>
       a: 04 00        	<unknown>
       c: 00 00        	<unknown>
       e: 00 00        	<unknown>
      10: 00 00        	<unknown>
      12: 00 80        	<unknown>
      14: 08 01        	<unknown>
		...
      1e: 00 00        	<unknown>

Disassembly of section .symtab:

00000000 <.symtab>:
		...
      1c: 03 00 01 00  	lb	zero, 0(sp)
      20: 00 00        	<unknown>
      22: 00 00        	<unknown>
      24: 00 00        	<unknown>
      26: 02 00        	<unknown>
      28: 00 00        	<unknown>
      2a: 00 00        	<unknown>
      2c: 03 00 02 00  	lb	zero, 0(tp)
      30: 00 00        	<unknown>
      32: 00 00        	<unknown>
      34: 00 00        	<unknown>
      36: 00 80        	<unknown>
      38: 00 00        	<unknown>
      3a: 00 00        	<unknown>
      3c: 03 00 03 00  	lb	zero, 0(t1)
      40: 00 00        	<unknown>
      42: 00 00        	<unknown>
      44: 00 15        	<unknown>
      46: 00 80        	<unknown>
      48: 00 00        	<unknown>
      4a: 00 00        	<unknown>
      4c: 03 00 04 00  	lb	zero, 0(s0)
      50: 00 00        	<unknown>
      52: 00 00        	<unknown>
      54: 70 17        	<unknown>
      56: 00 80        	<unknown>
      58: 00 00        	<unknown>
      5a: 00 00        	<unknown>
      5c: 03 00 05 00  	lb	zero, 0(a0)
      60: 00 00        	<unknown>
      62: 00 00        	<unknown>
      64: 00 20        	<unknown>
      66: 00 80        	<unknown>
      68: 00 00        	<unknown>
      6a: 00 00        	<unknown>
      6c: 03 00 06 00  	lb	zero, 0(a2)
      70: 00 00        	<unknown>
      72: 00 00        	<unknown>
      74: 00 20        	<unknown>
      76: 00 80        	<unknown>
      78: 00 00        	<unknown>
      7a: 00 00        	<unknown>
      7c: 03 00 07 00  	lb	zero, 0(a4)
      80: 00 00        	<unknown>
      82: 00 00        	<unknown>
      84: 04 20        	<unknown>
      86: 00 80        	<unknown>
      88: 00 00        	<unknown>
      8a: 00 00        	<unknown>
      8c: 03 00 08 00  	lb	zero, 0(a6)
      90: 00 00        	<unknown>
      92: 00 00        	<unknown>
      94: 10 20        	<unknown>
      96: 00 80        	<unknown>
      98: 00 00        	<unknown>
      9a: 00 00        	<unknown>
      9c: 03 00 09 00  	lb	zero, 0(s2)
		...
      ac: 03 00 0a 00  	lb	zero, 0(s4)
		...
      bc: 03 00 0b 00  	lb	zero, 0(s6)
		...
      cc: 03 00 0c 00  	lb	zero, 0(s8)
		...
      dc: 03 00 0d 00  	lb	zero, 0(s10)
		...
      ec: 03 00 0e 00  	lb	zero, 0(t3)
		...
      fc: 03 00 0f 00  	lb	zero, 0(t5)
		...
     10c: 03 00 10 00  	lb	zero, 1(zero)
		...
     11c: 03 00 11 00  	lb	zero, 1(sp)
		...
     12c: 03 00 12 00  	lb	zero, 1(tp)
		...
     13c: 03 00 13 00  	lb	zero, 1(t1)
		...
     14c: 03 00 14 00  	lb	zero, 1(s0)
		...
     15c: 03 00 15 00  	lb	zero, 1(a0)
     160: 01 00        	<unknown>
		...
     16a: 00 00        	<unknown>
     16c: 04 00        	<unknown>
     16e: f1 ff        	<unknown>
     170: 00 00        	<unknown>
     172: 00 00        	<unknown>
     174: 00 00        	<unknown>
     176: 00 80        	<unknown>
     178: 00 00        	<unknown>
     17a: 00 00        	<unknown>
     17c: 00 00        	<unknown>
     17e: 03 00 00 00  	lb	zero, 0(zero)
     182: 00 00        	<unknown>
     184: 00 00        	<unknown>
     186: 00 80        	<unknown>
     188: 00 00        	<unknown>
     18a: 00 00        	<unknown>
     18c: 00 00        	<unknown>
     18e: 03 00 6b 00  	lb	zero, 6(s6)
     192: 00 00        	<unknown>
     194: 0c 00        	<unknown>
     196: 00 80        	<unknown>
     198: 00 00        	<unknown>
     19a: 00 00        	<unknown>
     19c: 00 00        	<unknown>
     19e: 03 00 00 00  	lb	zero, 0(zero)
     1a2: 00 00        	<unknown>
     1a4: 0c 00        	<unknown>
     1a6: 00 80        	<unknown>
     1a8: 00 00        	<unknown>
     1aa: 00 00        	<unknown>
     1ac: 00 00        	<unknown>
     1ae: 03 00 79 00  	lb	zero, 7(s2)
     1b2: 00 00        	<unknown>
     1b4: e4 00        	<unknown>
     1b6: 00 80        	<unknown>
     1b8: 00 00        	<unknown>
     1ba: 00 00        	<unknown>
     1bc: 00 00        	<unknown>
     1be: 03 00 00 00  	lb	zero, 0(zero)
     1c2: 00 00        	<unknown>
     1c4: e4 00        	<unknown>
     1c6: 00 80        	<unknown>
     1c8: 00 00        	<unknown>
     1ca: 00 00        	<unknown>
     1cc: 00 00        	<unknown>
     1ce: 03 00 00 00  	lb	zero, 0(zero)
     1d2: 00 00        	<unknown>
     1d4: e8 00        	<unknown>
     1d6: 00 80        	<unknown>
     1d8: 00 00        	<unknown>
     1da: 00 00        	<unknown>
     1dc: 00 00        	<unknown>
     1de: 03 00 00 00  	lb	zero, 0(zero)
     1e2: 00 00        	<unknown>
     1e4: dd 05        	<unknown>
		...
     1ee: 0d 00        	<unknown>
     1f0: 00 00        	<unknown>
     1f2: 00 00        	<unknown>
     1f4: 3a 03        	<unknown>
		...
     1fe: 0c 00        	<unknown>
     200: 00 00        	<unknown>
     202: 00 00        	<unknown>
     204: 08 01        	<unknown>
     206: 00 80        	<unknown>
     208: 00 00        	<unknown>
     20a: 00 00        	<unknown>
     20c: 00 00        	<unknown>
     20e: 03 00 84 00  	lb	zero, 8(s0)
		...
     21a: 00 00        	<unknown>
     21c: 04 00        	<unknown>
     21e: f1 ff        	<unknown>
     220: 00 00        	<unknown>
     222: 00 00        	<unknown>
     224: 08 01        	<unknown>
     226: 00 80        	<unknown>
     228: 00 00        	<unknown>
     22a: 00 00        	<unknown>
     22c: 00 00        	<unknown>
     22e: 03 00 00 00  	lb	zero, 0(zero)
     232: 00 00        	<unknown>
     234: 08 01        	<unknown>
     236: 00 80        	<unknown>
     238: 00 00        	<unknown>
     23a: 00 00        	<unknown>
     23c: 00 00        	<unknown>
     23e: 03 00 00 00  	lb	zero, 0(zero)
     242: 00 00        	<unknown>
     244: 08 01        	<unknown>
     246: 00 80        	<unknown>
     248: 00 00        	<unknown>
     24a: 00 00        	<unknown>
     24c: 00 00        	<unknown>
     24e: 03 00 00 00  	lb	zero, 0(zero)
     252: 00 00        	<unknown>
     254: 08 01        	<unknown>
     256: 00 80        	<unknown>
     258: 00 00        	<unknown>
     25a: 00 00        	<unknown>
     25c: 00 00        	<unknown>
     25e: 03 00 00 00  	lb	zero, 0(zero)
     262: 00 00        	<unknown>
     264: 0c 01        	<unknown>
     266: 00 80        	<unknown>
     268: 00 00        	<unknown>
     26a: 00 00        	<unknown>
     26c: 00 00        	<unknown>
     26e: 03 00 00 00  	lb	zero, 0(zero)
     272: 00 00        	<unknown>
     274: 10 01        	<unknown>
     276: 00 80        	<unknown>
     278: 00 00        	<unknown>
     27a: 00 00        	<unknown>
     27c: 00 00        	<unknown>
     27e: 03 00 00 00  	lb	zero, 0(zero)
     282: 00 00        	<unknown>
     284: 10 01        	<unknown>
     286: 00 80        	<unknown>
     288: 00 00        	<unknown>
     28a: 00 00        	<unknown>
     28c: 00 00        	<unknown>
     28e: 03 00 00 00  	lb	zero, 0(zero)
     292: 00 00        	<unknown>
     294: 10 01        	<unknown>
     296: 00 80        	<unknown>
     298: 00 00        	<unknown>
     29a: 00 00        	<unknown>
     29c: 00 00        	<unknown>
     29e: 03 00 00 00  	lb	zero, 0(zero)
     2a2: 00 00        	<unknown>
     2a4: 10 01        	<unknown>
     2a6: 00 80        	<unknown>
     2a8: 00 00        	<unknown>
     2aa: 00 00        	<unknown>
     2ac: 00 00        	<unknown>
     2ae: 03 00 00 00  	lb	zero, 0(zero)
     2b2: 00 00        	<unknown>
     2b4: 10 01        	<unknown>
     2b6: 00 80        	<unknown>
     2b8: 00 00        	<unknown>
     2ba: 00 00        	<unknown>
     2bc: 00 00        	<unknown>
     2be: 03 00 00 00  	lb	zero, 0(zero)
     2c2: 00 00        	<unknown>
     2c4: 14 01        	<unknown>
     2c6: 00 80        	<unknown>
     2c8: 00 00        	<unknown>
     2ca: 00 00        	<unknown>
     2cc: 00 00        	<unknown>
     2ce: 03 00 00 00  	lb	zero, 0(zero)
     2d2: 00 00        	<unknown>
     2d4: 14 01        	<unknown>
     2d6: 00 80        	<unknown>
     2d8: 00 00        	<unknown>
     2da: 00 00        	<unknown>
     2dc: 00 00        	<unknown>
     2de: 03 00 00 00  	lb	zero, 0(zero)
     2e2: 00 00        	<unknown>
     2e4: 14 01        	<unknown>
     2e6: 00 80        	<unknown>
     2e8: 00 00        	<unknown>
     2ea: 00 00        	<unknown>
     2ec: 00 00        	<unknown>
     2ee: 03 00 00 00  	lb	zero, 0(zero)
     2f2: 00 00        	<unknown>
     2f4: 20 01        	<unknown>
     2f6: 00 80        	<unknown>
     2f8: 00 00        	<unknown>
     2fa: 00 00        	<unknown>
     2fc: 00 00        	<unknown>
     2fe: 03 00 00 00  	lb	zero, 0(zero)
     302: 00 00        	<unknown>
     304: 24 01        	<unknown>
     306: 00 80        	<unknown>
     308: 00 00        	<unknown>
     30a: 00 00        	<unknown>
     30c: 00 00        	<unknown>
     30e: 03 00 00 00  	lb	zero, 0(zero)
     312: 00 00        	<unknown>
     314: 24 01        	<unknown>
     316: 00 80        	<unknown>
     318: 00 00        	<unknown>
     31a: 00 00        	<unknown>
     31c: 00 00        	<unknown>
     31e: 03 00 00 00  	lb	zero, 0(zero)
     322: 00 00        	<unknown>
     324: 30 01        	<unknown>
     326: 00 80        	<unknown>
     328: 00 00        	<unknown>
     32a: 00 00        	<unknown>
     32c: 00 00        	<unknown>
     32e: 03 00 00 00  	lb	zero, 0(zero)
     332: 00 00        	<unknown>
     334: 30 01        	<unknown>
     336: 00 80        	<unknown>
     338: 00 00        	<unknown>
     33a: 00 00        	<unknown>
     33c: 00 00        	<unknown>
     33e: 03 00 00 00  	lb	zero, 0(zero)
     342: 00 00        	<unknown>
     344: 34 01        	<unknown>
     346: 00 80        	<unknown>
     348: 00 00        	<unknown>
     34a: 00 00        	<unknown>
     34c: 00 00        	<unknown>
     34e: 03 00 00 00  	lb	zero, 0(zero)
     352: 00 00        	<unknown>
     354: 34 01        	<unknown>
     356: 00 80        	<unknown>
     358: 00 00        	<unknown>
     35a: 00 00        	<unknown>
     35c: 00 00        	<unknown>
     35e: 03 00 00 00  	lb	zero, 0(zero)
     362: 00 00        	<unknown>
     364: 40 01        	<unknown>
     366: 00 80        	<unknown>
     368: 00 00        	<unknown>
     36a: 00 00        	<unknown>
     36c: 00 00        	<unknown>
     36e: 03 00 00 00  	lb	zero, 0(zero)
     372: 00 00        	<unknown>
     374: 44 01        	<unknown>
     376: 00 80        	<unknown>
     378: 00 00        	<unknown>
     37a: 00 00        	<unknown>
     37c: 00 00        	<unknown>
     37e: 03 00 00 00  	lb	zero, 0(zero)
     382: 00 00        	<unknown>
     384: 50 01        	<unknown>
     386: 00 80        	<unknown>
     388: 00 00        	<unknown>
     38a: 00 00        	<unknown>
     38c: 00 00        	<unknown>
     38e: 03 00 00 00  	lb	zero, 0(zero)
     392: 00 00        	<unknown>
     394: 50 01        	<unknown>
     396: 00 80        	<unknown>
     398: 00 00        	<unknown>
     39a: 00 00        	<unknown>
     39c: 00 00        	<unknown>
     39e: 03 00 00 00  	lb	zero, 0(zero)
     3a2: 00 00        	<unknown>
     3a4: 54 01        	<unknown>
     3a6: 00 80        	<unknown>
     3a8: 00 00        	<unknown>
     3aa: 00 00        	<unknown>
     3ac: 00 00        	<unknown>
     3ae: 03 00 00 00  	lb	zero, 0(zero)
     3b2: 00 00        	<unknown>
     3b4: 58 01        	<unknown>
     3b6: 00 80        	<unknown>
     3b8: 00 00        	<unknown>
     3ba: 00 00        	<unknown>
     3bc: 00 00        	<unknown>
     3be: 03 00 00 00  	lb	zero, 0(zero)
     3c2: 00 00        	<unknown>
     3c4: 64 01        	<unknown>
     3c6: 00 80        	<unknown>
     3c8: 00 00        	<unknown>
     3ca: 00 00        	<unknown>
     3cc: 00 00        	<unknown>
     3ce: 03 00 00 00  	lb	zero, 0(zero)
     3d2: 00 00        	<unknown>
     3d4: 6c 01        	<unknown>
     3d6: 00 80        	<unknown>
     3d8: 00 00        	<unknown>
     3da: 00 00        	<unknown>
     3dc: 00 00        	<unknown>
     3de: 03 00 00 00  	lb	zero, 0(zero)
     3e2: 00 00        	<unknown>
     3e4: 78 01        	<unknown>
     3e6: 00 80        	<unknown>
     3e8: 00 00        	<unknown>
     3ea: 00 00        	<unknown>
     3ec: 00 00        	<unknown>
     3ee: 03 00 00 00  	lb	zero, 0(zero)
     3f2: 00 00        	<unknown>
     3f4: 78 01        	<unknown>
     3f6: 00 80        	<unknown>
     3f8: 00 00        	<unknown>
     3fa: 00 00        	<unknown>
     3fc: 00 00        	<unknown>
     3fe: 03 00 00 00  	lb	zero, 0(zero)
     402: 00 00        	<unknown>
     404: 90 01        	<unknown>
     406: 00 80        	<unknown>
     408: 00 00        	<unknown>
     40a: 00 00        	<unknown>
     40c: 00 00        	<unknown>
     40e: 03 00 00 00  	lb	zero, 0(zero)
     412: 00 00        	<unknown>
     414: 90 01        	<unknown>
     416: 00 80        	<unknown>
     418: 00 00        	<unknown>
     41a: 00 00        	<unknown>
     41c: 00 00        	<unknown>
     41e: 03 00 00 00  	lb	zero, 0(zero)
     422: 00 00        	<unknown>
     424: 0c 00        	<unknown>
		...
     42e: 0b 00 00 00  	p.lb	zero, 0(zero!)
     432: 00 00        	<unknown>
     434: 08 00        	<unknown>
		...
     43e: 0e 00        	<unknown>
     440: 00 00        	<unknown>
     442: 00 00        	<unknown>
     444: 08 00        	<unknown>
		...
     44e: 10 00        	<unknown>
		...
     45c: 00 00        	<unknown>
     45e: 0f 00 00 00  	fence	unknown, unknown
     462: 00 00        	<unknown>
     464: 71 00        	<unknown>
		...
     46e: 0f 00 00 00  	fence	unknown, unknown
     472: 00 00        	<unknown>
     474: 8b 00 00 00  	p.lb	ra, 0(zero!)
     478: 00 00        	<unknown>
     47a: 00 00        	<unknown>
     47c: 00 00        	<unknown>
     47e: 0f 00 00 00  	fence	unknown, unknown
     482: 00 00        	<unknown>
     484: f3 00 00 00  	<unknown>
     488: 00 00        	<unknown>
     48a: 00 00        	<unknown>
     48c: 00 00        	<unknown>
     48e: 0f 00 00 00  	fence	unknown, unknown
     492: 00 00        	<unknown>
     494: fa 00        	<unknown>
		...
     49e: 0f 00 00 00  	fence	unknown, unknown
     4a2: 00 00        	<unknown>
     4a4: 07 01 00 00  	flb	ft2, 0(zero)
     4a8: 00 00        	<unknown>
     4aa: 00 00        	<unknown>
     4ac: 00 00        	<unknown>
     4ae: 0f 00 00 00  	fence	unknown, unknown
     4b2: 00 00        	<unknown>
     4b4: 09 01        	<unknown>
		...
     4be: 0f 00 00 00  	fence	unknown, unknown
     4c2: 00 00        	<unknown>
     4c4: 12 01        	<unknown>
		...
     4ce: 0f 00 00 00  	fence	unknown, unknown
     4d2: 00 00        	<unknown>
     4d4: 26 01        	<unknown>
		...
     4de: 0f 00 00 00  	fence	unknown, unknown
     4e2: 00 00        	<unknown>
     4e4: 3a 01        	<unknown>
		...
     4ee: 0f 00 00 00  	fence	unknown, unknown
     4f2: 00 00        	<unknown>
     4f4: c0 02        	<unknown>
		...
     4fe: 0f 00 00 00  	fence	unknown, unknown
     502: 00 00        	<unknown>
     504: 47 01 00 00  	fmsub.s	sp, zero, zero, zero, rne
     508: 00 00        	<unknown>
     50a: 00 00        	<unknown>
     50c: 00 00        	<unknown>
     50e: 0f 00 00 00  	fence	unknown, unknown
     512: 00 00        	<unknown>
     514: 29 07        	<unknown>
		...
     51e: 0f 00 00 00  	fence	unknown, unknown
     522: 00 00        	<unknown>
     524: 32 01        	<unknown>
		...
     52e: 0f 00 00 00  	fence	unknown, unknown
     532: 00 00        	<unknown>
     534: 5a 01        	<unknown>
		...
     53e: 0f 00 00 00  	fence	unknown, unknown
     542: 00 00        	<unknown>
     544: 6f 01 00 00  	jal	sp, 0x544 <__l1_start+0x544>
     548: 00 00        	<unknown>
     54a: 00 00        	<unknown>
     54c: 00 00        	<unknown>
     54e: 0f 00 00 00  	fence	unknown, unknown
     552: 00 00        	<unknown>
     554: 7f 01 00 00  	<unknown>
     558: 00 00        	<unknown>
     55a: 00 00        	<unknown>
     55c: 00 00        	<unknown>
     55e: 0f 00 00 00  	fence	unknown, unknown
     562: 00 00        	<unknown>
     564: 03 01 00 00  	lb	sp, 0(zero)
     568: 00 00        	<unknown>
     56a: 00 00        	<unknown>
     56c: 00 00        	<unknown>
     56e: 0f 00 00 00  	fence	unknown, unknown
     572: 00 00        	<unknown>
     574: 84 01        	<unknown>
		...
     57e: 0f 00 00 00  	fence	unknown, unknown
     582: 00 00        	<unknown>
     584: 8a 01        	<unknown>
		...
     58e: 0f 00 00 00  	fence	unknown, unknown
     592: 00 00        	<unknown>
     594: 8c 01        	<unknown>
		...
     59e: 0f 00 00 00  	fence	unknown, unknown
     5a2: 00 00        	<unknown>
     5a4: 94 01        	<unknown>
		...
     5ae: 0f 00 00 00  	fence	unknown, unknown
     5b2: 00 00        	<unknown>
     5b4: 9e 01        	<unknown>
		...
     5be: 0f 00 00 00  	fence	unknown, unknown
		...
     5ce: 11 00        	<unknown>
     5d0: 8b 00 00 00  	p.lb	ra, 0(zero!)
		...
     5dc: 04 00        	<unknown>
     5de: f1 ff        	<unknown>
     5e0: 00 00        	<unknown>
     5e2: 00 00        	<unknown>
     5e4: 90 01        	<unknown>
     5e6: 00 80        	<unknown>
     5e8: 00 00        	<unknown>
     5ea: 00 00        	<unknown>
     5ec: 00 00        	<unknown>
     5ee: 03 00 00 00  	lb	zero, 0(zero)
     5f2: 00 00        	<unknown>
     5f4: 90 01        	<unknown>
     5f6: 00 80        	<unknown>
     5f8: 00 00        	<unknown>
     5fa: 00 00        	<unknown>
     5fc: 00 00        	<unknown>
     5fe: 03 00 00 00  	lb	zero, 0(zero)
     602: 00 00        	<unknown>
     604: 90 01        	<unknown>
     606: 00 80        	<unknown>
     608: 00 00        	<unknown>
     60a: 00 00        	<unknown>
     60c: 00 00        	<unknown>
     60e: 03 00 00 00  	lb	zero, 0(zero)
     612: 00 00        	<unknown>
     614: 90 01        	<unknown>
     616: 00 80        	<unknown>
     618: 00 00        	<unknown>
     61a: 00 00        	<unknown>
     61c: 00 00        	<unknown>
     61e: 03 00 00 00  	lb	zero, 0(zero)
     622: 00 00        	<unknown>
     624: 98 01        	<unknown>
     626: 00 80        	<unknown>
     628: 00 00        	<unknown>
     62a: 00 00        	<unknown>
     62c: 00 00        	<unknown>
     62e: 03 00 00 00  	lb	zero, 0(zero)
     632: 00 00        	<unknown>
     634: 9c 01        	<unknown>
     636: 00 80        	<unknown>
     638: 00 00        	<unknown>
     63a: 00 00        	<unknown>
     63c: 00 00        	<unknown>
     63e: 03 00 00 00  	lb	zero, 0(zero)
     642: 00 00        	<unknown>
     644: a0 01        	<unknown>
     646: 00 80        	<unknown>
     648: 00 00        	<unknown>
     64a: 00 00        	<unknown>
     64c: 00 00        	<unknown>
     64e: 03 00 00 00  	lb	zero, 0(zero)
     652: 00 00        	<unknown>
     654: a4 01        	<unknown>
     656: 00 80        	<unknown>
     658: 00 00        	<unknown>
     65a: 00 00        	<unknown>
     65c: 00 00        	<unknown>
     65e: 03 00 00 00  	lb	zero, 0(zero)
     662: 00 00        	<unknown>
     664: a8 01        	<unknown>
     666: 00 80        	<unknown>
     668: 00 00        	<unknown>
     66a: 00 00        	<unknown>
     66c: 00 00        	<unknown>
     66e: 03 00 00 00  	lb	zero, 0(zero)
     672: 00 00        	<unknown>
     674: ac 01        	<unknown>
     676: 00 80        	<unknown>
     678: 00 00        	<unknown>
     67a: 00 00        	<unknown>
     67c: 00 00        	<unknown>
     67e: 03 00 00 00  	lb	zero, 0(zero)
     682: 00 00        	<unknown>
     684: b0 01        	<unknown>
     686: 00 80        	<unknown>
     688: 00 00        	<unknown>
     68a: 00 00        	<unknown>
     68c: 00 00        	<unknown>
     68e: 03 00 00 00  	lb	zero, 0(zero)
     692: 00 00        	<unknown>
     694: b4 01        	<unknown>
     696: 00 80        	<unknown>
     698: 00 00        	<unknown>
     69a: 00 00        	<unknown>
     69c: 00 00        	<unknown>
     69e: 03 00 00 00  	lb	zero, 0(zero)
     6a2: 00 00        	<unknown>
     6a4: b8 01        	<unknown>
     6a6: 00 80        	<unknown>
     6a8: 00 00        	<unknown>
     6aa: 00 00        	<unknown>
     6ac: 00 00        	<unknown>
     6ae: 03 00 00 00  	lb	zero, 0(zero)
     6b2: 00 00        	<unknown>
     6b4: b8 01        	<unknown>
     6b6: 00 80        	<unknown>
     6b8: 00 00        	<unknown>
     6ba: 00 00        	<unknown>
     6bc: 00 00        	<unknown>
     6be: 03 00 00 00  	lb	zero, 0(zero)
     6c2: 00 00        	<unknown>
     6c4: b8 01        	<unknown>
     6c6: 00 80        	<unknown>
     6c8: 00 00        	<unknown>
     6ca: 00 00        	<unknown>
     6cc: 00 00        	<unknown>
     6ce: 03 00 00 00  	lb	zero, 0(zero)
     6d2: 00 00        	<unknown>
     6d4: b8 01        	<unknown>
     6d6: 00 80        	<unknown>
     6d8: 00 00        	<unknown>
     6da: 00 00        	<unknown>
     6dc: 00 00        	<unknown>
     6de: 03 00 00 00  	lb	zero, 0(zero)
     6e2: 00 00        	<unknown>
     6e4: b8 01        	<unknown>
     6e6: 00 80        	<unknown>
     6e8: 00 00        	<unknown>
     6ea: 00 00        	<unknown>
     6ec: 00 00        	<unknown>
     6ee: 03 00 00 00  	lb	zero, 0(zero)
     6f2: 00 00        	<unknown>
     6f4: bc 01        	<unknown>
     6f6: 00 80        	<unknown>
     6f8: 00 00        	<unknown>
     6fa: 00 00        	<unknown>
     6fc: 00 00        	<unknown>
     6fe: 03 00 00 00  	lb	zero, 0(zero)
     702: 00 00        	<unknown>
     704: bc 01        	<unknown>
     706: 00 80        	<unknown>
     708: 00 00        	<unknown>
     70a: 00 00        	<unknown>
     70c: 00 00        	<unknown>
     70e: 03 00 00 00  	lb	zero, 0(zero)
     712: 00 00        	<unknown>
     714: c0 01        	<unknown>
     716: 00 80        	<unknown>
     718: 00 00        	<unknown>
     71a: 00 00        	<unknown>
     71c: 00 00        	<unknown>
     71e: 03 00 00 00  	lb	zero, 0(zero)
     722: 00 00        	<unknown>
     724: c0 01        	<unknown>
     726: 00 80        	<unknown>
     728: 00 00        	<unknown>
     72a: 00 00        	<unknown>
     72c: 00 00        	<unknown>
     72e: 03 00 00 00  	lb	zero, 0(zero)
     732: 00 00        	<unknown>
     734: c8 01        	<unknown>
     736: 00 80        	<unknown>
     738: 00 00        	<unknown>
     73a: 00 00        	<unknown>
     73c: 00 00        	<unknown>
     73e: 03 00 00 00  	lb	zero, 0(zero)
     742: 00 00        	<unknown>
     744: cc 01        	<unknown>
     746: 00 80        	<unknown>
     748: 00 00        	<unknown>
     74a: 00 00        	<unknown>
     74c: 00 00        	<unknown>
     74e: 03 00 00 00  	lb	zero, 0(zero)
     752: 00 00        	<unknown>
     754: d0 01        	<unknown>
     756: 00 80        	<unknown>
     758: 00 00        	<unknown>
     75a: 00 00        	<unknown>
     75c: 00 00        	<unknown>
     75e: 03 00 00 00  	lb	zero, 0(zero)
     762: 00 00        	<unknown>
     764: e0 01        	<unknown>
     766: 00 80        	<unknown>
     768: 00 00        	<unknown>
     76a: 00 00        	<unknown>
     76c: 00 00        	<unknown>
     76e: 03 00 00 00  	lb	zero, 0(zero)
     772: 00 00        	<unknown>
     774: e0 01        	<unknown>
     776: 00 80        	<unknown>
     778: 00 00        	<unknown>
     77a: 00 00        	<unknown>
     77c: 00 00        	<unknown>
     77e: 03 00 00 00  	lb	zero, 0(zero)
     782: 00 00        	<unknown>
     784: e4 01        	<unknown>
     786: 00 80        	<unknown>
     788: 00 00        	<unknown>
     78a: 00 00        	<unknown>
     78c: 00 00        	<unknown>
     78e: 03 00 00 00  	lb	zero, 0(zero)
     792: 00 00        	<unknown>
     794: f0 01        	<unknown>
     796: 00 80        	<unknown>
     798: 00 00        	<unknown>
     79a: 00 00        	<unknown>
     79c: 00 00        	<unknown>
     79e: 03 00 00 00  	lb	zero, 0(zero)
     7a2: 00 00        	<unknown>
     7a4: f4 01        	<unknown>
     7a6: 00 80        	<unknown>
     7a8: 00 00        	<unknown>
     7aa: 00 00        	<unknown>
     7ac: 00 00        	<unknown>
     7ae: 03 00 00 00  	lb	zero, 0(zero)
     7b2: 00 00        	<unknown>
     7b4: f8 01        	<unknown>
     7b6: 00 80        	<unknown>
     7b8: 00 00        	<unknown>
     7ba: 00 00        	<unknown>
     7bc: 00 00        	<unknown>
     7be: 03 00 00 00  	lb	zero, 0(zero)
     7c2: 00 00        	<unknown>
     7c4: fc 01        	<unknown>
     7c6: 00 80        	<unknown>
     7c8: 00 00        	<unknown>
     7ca: 00 00        	<unknown>
     7cc: 00 00        	<unknown>
     7ce: 03 00 00 00  	lb	zero, 0(zero)
     7d2: 00 00        	<unknown>
     7d4: 00 02        	<unknown>
     7d6: 00 80        	<unknown>
     7d8: 00 00        	<unknown>
     7da: 00 00        	<unknown>
     7dc: 00 00        	<unknown>
     7de: 03 00 00 00  	lb	zero, 0(zero)
     7e2: 00 00        	<unknown>
     7e4: 08 02        	<unknown>
     7e6: 00 80        	<unknown>
     7e8: 00 00        	<unknown>
     7ea: 00 00        	<unknown>
     7ec: 00 00        	<unknown>
     7ee: 03 00 00 00  	lb	zero, 0(zero)
     7f2: 00 00        	<unknown>
     7f4: 0c 02        	<unknown>
     7f6: 00 80        	<unknown>
     7f8: 00 00        	<unknown>
     7fa: 00 00        	<unknown>
     7fc: 00 00        	<unknown>
     7fe: 03 00 00 00  	lb	zero, 0(zero)
     802: 00 00        	<unknown>
     804: 10 02        	<unknown>
     806: 00 80        	<unknown>
     808: 00 00        	<unknown>
     80a: 00 00        	<unknown>
     80c: 00 00        	<unknown>
     80e: 03 00 00 00  	lb	zero, 0(zero)
     812: 00 00        	<unknown>
     814: 14 02        	<unknown>
     816: 00 80        	<unknown>
     818: 00 00        	<unknown>
     81a: 00 00        	<unknown>
     81c: 00 00        	<unknown>
     81e: 03 00 00 00  	lb	zero, 0(zero)
     822: 00 00        	<unknown>
     824: 18 02        	<unknown>
     826: 00 80        	<unknown>
     828: 00 00        	<unknown>
     82a: 00 00        	<unknown>
     82c: 00 00        	<unknown>
     82e: 03 00 00 00  	lb	zero, 0(zero)
     832: 00 00        	<unknown>
     834: 1c 02        	<unknown>
     836: 00 80        	<unknown>
     838: 00 00        	<unknown>
     83a: 00 00        	<unknown>
     83c: 00 00        	<unknown>
     83e: 03 00 00 00  	lb	zero, 0(zero)
     842: 00 00        	<unknown>
     844: 24 02        	<unknown>
     846: 00 80        	<unknown>
     848: 00 00        	<unknown>
     84a: 00 00        	<unknown>
     84c: 00 00        	<unknown>
     84e: 03 00 00 00  	lb	zero, 0(zero)
     852: 00 00        	<unknown>
     854: 34 02        	<unknown>
     856: 00 80        	<unknown>
     858: 00 00        	<unknown>
     85a: 00 00        	<unknown>
     85c: 00 00        	<unknown>
     85e: 03 00 00 00  	lb	zero, 0(zero)
     862: 00 00        	<unknown>
     864: 34 02        	<unknown>
     866: 00 80        	<unknown>
     868: 00 00        	<unknown>
     86a: 00 00        	<unknown>
     86c: 00 00        	<unknown>
     86e: 03 00 00 00  	lb	zero, 0(zero)
     872: 00 00        	<unknown>
     874: 38 02        	<unknown>
     876: 00 80        	<unknown>
     878: 00 00        	<unknown>
     87a: 00 00        	<unknown>
     87c: 00 00        	<unknown>
     87e: 03 00 00 00  	lb	zero, 0(zero)
     882: 00 00        	<unknown>
     884: 44 02        	<unknown>
     886: 00 80        	<unknown>
     888: 00 00        	<unknown>
     88a: 00 00        	<unknown>
     88c: 00 00        	<unknown>
     88e: 03 00 00 00  	lb	zero, 0(zero)
     892: 00 00        	<unknown>
     894: 48 02        	<unknown>
     896: 00 80        	<unknown>
     898: 00 00        	<unknown>
     89a: 00 00        	<unknown>
     89c: 00 00        	<unknown>
     89e: 03 00 00 00  	lb	zero, 0(zero)
     8a2: 00 00        	<unknown>
     8a4: 4c 02        	<unknown>
     8a6: 00 80        	<unknown>
     8a8: 00 00        	<unknown>
     8aa: 00 00        	<unknown>
     8ac: 00 00        	<unknown>
     8ae: 03 00 00 00  	lb	zero, 0(zero)
     8b2: 00 00        	<unknown>
     8b4: 54 02        	<unknown>
     8b6: 00 80        	<unknown>
     8b8: 00 00        	<unknown>
     8ba: 00 00        	<unknown>
     8bc: 00 00        	<unknown>
     8be: 03 00 00 00  	lb	zero, 0(zero)
     8c2: 00 00        	<unknown>
     8c4: 54 02        	<unknown>
     8c6: 00 80        	<unknown>
     8c8: 00 00        	<unknown>
     8ca: 00 00        	<unknown>
     8cc: 00 00        	<unknown>
     8ce: 03 00 00 00  	lb	zero, 0(zero)
     8d2: 00 00        	<unknown>
     8d4: 58 02        	<unknown>
     8d6: 00 80        	<unknown>
     8d8: 00 00        	<unknown>
     8da: 00 00        	<unknown>
     8dc: 00 00        	<unknown>
     8de: 03 00 00 00  	lb	zero, 0(zero)
     8e2: 00 00        	<unknown>
     8e4: 5c 02        	<unknown>
     8e6: 00 80        	<unknown>
     8e8: 00 00        	<unknown>
     8ea: 00 00        	<unknown>
     8ec: 00 00        	<unknown>
     8ee: 03 00 00 00  	lb	zero, 0(zero)
     8f2: 00 00        	<unknown>
     8f4: 60 02        	<unknown>
     8f6: 00 80        	<unknown>
     8f8: 00 00        	<unknown>
     8fa: 00 00        	<unknown>
     8fc: 00 00        	<unknown>
     8fe: 03 00 00 00  	lb	zero, 0(zero)
     902: 00 00        	<unknown>
     904: 64 02        	<unknown>
     906: 00 80        	<unknown>
     908: 00 00        	<unknown>
     90a: 00 00        	<unknown>
     90c: 00 00        	<unknown>
     90e: 03 00 00 00  	lb	zero, 0(zero)
     912: 00 00        	<unknown>
     914: 68 02        	<unknown>
     916: 00 80        	<unknown>
     918: 00 00        	<unknown>
     91a: 00 00        	<unknown>
     91c: 00 00        	<unknown>
     91e: 03 00 00 00  	lb	zero, 0(zero)
     922: 00 00        	<unknown>
     924: 70 02        	<unknown>
     926: 00 80        	<unknown>
     928: 00 00        	<unknown>
     92a: 00 00        	<unknown>
     92c: 00 00        	<unknown>
     92e: 03 00 00 00  	lb	zero, 0(zero)
     932: 00 00        	<unknown>
     934: 74 02        	<unknown>
     936: 00 80        	<unknown>
     938: 00 00        	<unknown>
     93a: 00 00        	<unknown>
     93c: 00 00        	<unknown>
     93e: 03 00 00 00  	lb	zero, 0(zero)
     942: 00 00        	<unknown>
     944: 78 02        	<unknown>
     946: 00 80        	<unknown>
     948: 00 00        	<unknown>
     94a: 00 00        	<unknown>
     94c: 00 00        	<unknown>
     94e: 03 00 00 00  	lb	zero, 0(zero)
     952: 00 00        	<unknown>
     954: 7c 02        	<unknown>
     956: 00 80        	<unknown>
     958: 00 00        	<unknown>
     95a: 00 00        	<unknown>
     95c: 00 00        	<unknown>
     95e: 03 00 00 00  	lb	zero, 0(zero)
     962: 00 00        	<unknown>
     964: 80 02        	<unknown>
     966: 00 80        	<unknown>
     968: 00 00        	<unknown>
     96a: 00 00        	<unknown>
     96c: 00 00        	<unknown>
     96e: 03 00 00 00  	lb	zero, 0(zero)
     972: 00 00        	<unknown>
     974: 84 02        	<unknown>
     976: 00 80        	<unknown>
     978: 00 00        	<unknown>
     97a: 00 00        	<unknown>
     97c: 00 00        	<unknown>
     97e: 03 00 00 00  	lb	zero, 0(zero)
     982: 00 00        	<unknown>
     984: 88 02        	<unknown>
     986: 00 80        	<unknown>
     988: 00 00        	<unknown>
     98a: 00 00        	<unknown>
     98c: 00 00        	<unknown>
     98e: 03 00 00 00  	lb	zero, 0(zero)
     992: 00 00        	<unknown>
     994: 88 02        	<unknown>
     996: 00 80        	<unknown>
     998: 00 00        	<unknown>
     99a: 00 00        	<unknown>
     99c: 00 00        	<unknown>
     99e: 03 00 00 00  	lb	zero, 0(zero)
     9a2: 00 00        	<unknown>
     9a4: 8c 02        	<unknown>
     9a6: 00 80        	<unknown>
     9a8: 00 00        	<unknown>
     9aa: 00 00        	<unknown>
     9ac: 00 00        	<unknown>
     9ae: 03 00 00 00  	lb	zero, 0(zero)
     9b2: 00 00        	<unknown>
     9b4: 90 02        	<unknown>
     9b6: 00 80        	<unknown>
     9b8: 00 00        	<unknown>
     9ba: 00 00        	<unknown>
     9bc: 00 00        	<unknown>
     9be: 03 00 00 00  	lb	zero, 0(zero)
     9c2: 00 00        	<unknown>
     9c4: 94 02        	<unknown>
     9c6: 00 80        	<unknown>
     9c8: 00 00        	<unknown>
     9ca: 00 00        	<unknown>
     9cc: 00 00        	<unknown>
     9ce: 03 00 00 00  	lb	zero, 0(zero)
     9d2: 00 00        	<unknown>
     9d4: 94 02        	<unknown>
     9d6: 00 80        	<unknown>
     9d8: 00 00        	<unknown>
     9da: 00 00        	<unknown>
     9dc: 00 00        	<unknown>
     9de: 03 00 00 00  	lb	zero, 0(zero)
     9e2: 00 00        	<unknown>
     9e4: 98 02        	<unknown>
     9e6: 00 80        	<unknown>
     9e8: 00 00        	<unknown>
     9ea: 00 00        	<unknown>
     9ec: 00 00        	<unknown>
     9ee: 03 00 00 00  	lb	zero, 0(zero)
     9f2: 00 00        	<unknown>
     9f4: 9c 02        	<unknown>
     9f6: 00 80        	<unknown>
     9f8: 00 00        	<unknown>
     9fa: 00 00        	<unknown>
     9fc: 00 00        	<unknown>
     9fe: 03 00 00 00  	lb	zero, 0(zero)
     a02: 00 00        	<unknown>
     a04: a8 02        	<unknown>
     a06: 00 80        	<unknown>
     a08: 00 00        	<unknown>
     a0a: 00 00        	<unknown>
     a0c: 00 00        	<unknown>
     a0e: 03 00 00 00  	lb	zero, 0(zero)
     a12: 00 00        	<unknown>
     a14: a8 02        	<unknown>
     a16: 00 80        	<unknown>
     a18: 00 00        	<unknown>
     a1a: 00 00        	<unknown>
     a1c: 00 00        	<unknown>
     a1e: 03 00 00 00  	lb	zero, 0(zero)
     a22: 00 00        	<unknown>
     a24: a8 02        	<unknown>
     a26: 00 80        	<unknown>
     a28: 00 00        	<unknown>
     a2a: 00 00        	<unknown>
     a2c: 00 00        	<unknown>
     a2e: 03 00 00 00  	lb	zero, 0(zero)
     a32: 00 00        	<unknown>
     a34: a8 02        	<unknown>
     a36: 00 80        	<unknown>
     a38: 00 00        	<unknown>
     a3a: 00 00        	<unknown>
     a3c: 00 00        	<unknown>
     a3e: 03 00 00 00  	lb	zero, 0(zero)
     a42: 00 00        	<unknown>
     a44: a8 02        	<unknown>
     a46: 00 80        	<unknown>
     a48: 00 00        	<unknown>
     a4a: 00 00        	<unknown>
     a4c: 00 00        	<unknown>
     a4e: 03 00 00 00  	lb	zero, 0(zero)
     a52: 00 00        	<unknown>
     a54: ac 02        	<unknown>
     a56: 00 80        	<unknown>
     a58: 00 00        	<unknown>
     a5a: 00 00        	<unknown>
     a5c: 00 00        	<unknown>
     a5e: 03 00 00 00  	lb	zero, 0(zero)
     a62: 00 00        	<unknown>
     a64: ac 02        	<unknown>
     a66: 00 80        	<unknown>
     a68: 00 00        	<unknown>
     a6a: 00 00        	<unknown>
     a6c: 00 00        	<unknown>
     a6e: 03 00 00 00  	lb	zero, 0(zero)
     a72: 00 00        	<unknown>
     a74: b0 02        	<unknown>
     a76: 00 80        	<unknown>
     a78: 00 00        	<unknown>
     a7a: 00 00        	<unknown>
     a7c: 00 00        	<unknown>
     a7e: 03 00 00 00  	lb	zero, 0(zero)
     a82: 00 00        	<unknown>
     a84: b0 02        	<unknown>
     a86: 00 80        	<unknown>
     a88: 00 00        	<unknown>
     a8a: 00 00        	<unknown>
     a8c: 00 00        	<unknown>
     a8e: 03 00 00 00  	lb	zero, 0(zero)
     a92: 00 00        	<unknown>
     a94: b8 02        	<unknown>
     a96: 00 80        	<unknown>
     a98: 00 00        	<unknown>
     a9a: 00 00        	<unknown>
     a9c: 00 00        	<unknown>
     a9e: 03 00 00 00  	lb	zero, 0(zero)
     aa2: 00 00        	<unknown>
     aa4: bc 02        	<unknown>
     aa6: 00 80        	<unknown>
     aa8: 00 00        	<unknown>
     aaa: 00 00        	<unknown>
     aac: 00 00        	<unknown>
     aae: 03 00 00 00  	lb	zero, 0(zero)
     ab2: 00 00        	<unknown>
     ab4: c0 02        	<unknown>
     ab6: 00 80        	<unknown>
     ab8: 00 00        	<unknown>
     aba: 00 00        	<unknown>
     abc: 00 00        	<unknown>
     abe: 03 00 00 00  	lb	zero, 0(zero)
     ac2: 00 00        	<unknown>
     ac4: d0 02        	<unknown>
     ac6: 00 80        	<unknown>
     ac8: 00 00        	<unknown>
     aca: 00 00        	<unknown>
     acc: 00 00        	<unknown>
     ace: 03 00 00 00  	lb	zero, 0(zero)
     ad2: 00 00        	<unknown>
     ad4: d0 02        	<unknown>
     ad6: 00 80        	<unknown>
     ad8: 00 00        	<unknown>
     ada: 00 00        	<unknown>
     adc: 00 00        	<unknown>
     ade: 03 00 00 00  	lb	zero, 0(zero)
     ae2: 00 00        	<unknown>
     ae4: d4 02        	<unknown>
     ae6: 00 80        	<unknown>
     ae8: 00 00        	<unknown>
     aea: 00 00        	<unknown>
     aec: 00 00        	<unknown>
     aee: 03 00 00 00  	lb	zero, 0(zero)
     af2: 00 00        	<unknown>
     af4: e0 02        	<unknown>
     af6: 00 80        	<unknown>
     af8: 00 00        	<unknown>
     afa: 00 00        	<unknown>
     afc: 00 00        	<unknown>
     afe: 03 00 00 00  	lb	zero, 0(zero)
     b02: 00 00        	<unknown>
     b04: e8 02        	<unknown>
     b06: 00 80        	<unknown>
     b08: 00 00        	<unknown>
     b0a: 00 00        	<unknown>
     b0c: 00 00        	<unknown>
     b0e: 03 00 00 00  	lb	zero, 0(zero)
     b12: 00 00        	<unknown>
     b14: ec 02        	<unknown>
     b16: 00 80        	<unknown>
     b18: 00 00        	<unknown>
     b1a: 00 00        	<unknown>
     b1c: 00 00        	<unknown>
     b1e: 03 00 00 00  	lb	zero, 0(zero)
     b22: 00 00        	<unknown>
     b24: f0 02        	<unknown>
     b26: 00 80        	<unknown>
     b28: 00 00        	<unknown>
     b2a: 00 00        	<unknown>
     b2c: 00 00        	<unknown>
     b2e: 03 00 00 00  	lb	zero, 0(zero)
     b32: 00 00        	<unknown>
     b34: f4 02        	<unknown>
     b36: 00 80        	<unknown>
     b38: 00 00        	<unknown>
     b3a: 00 00        	<unknown>
     b3c: 00 00        	<unknown>
     b3e: 03 00 00 00  	lb	zero, 0(zero)
     b42: 00 00        	<unknown>
     b44: fc 02        	<unknown>
     b46: 00 80        	<unknown>
     b48: 00 00        	<unknown>
     b4a: 00 00        	<unknown>
     b4c: 00 00        	<unknown>
     b4e: 03 00 00 00  	lb	zero, 0(zero)
     b52: 00 00        	<unknown>
     b54: 00 03        	<unknown>
     b56: 00 80        	<unknown>
     b58: 00 00        	<unknown>
     b5a: 00 00        	<unknown>
     b5c: 00 00        	<unknown>
     b5e: 03 00 00 00  	lb	zero, 0(zero)
     b62: 00 00        	<unknown>
     b64: 04 03        	<unknown>
     b66: 00 80        	<unknown>
     b68: 00 00        	<unknown>
     b6a: 00 00        	<unknown>
     b6c: 00 00        	<unknown>
     b6e: 03 00 00 00  	lb	zero, 0(zero)
     b72: 00 00        	<unknown>
     b74: 08 03        	<unknown>
     b76: 00 80        	<unknown>
     b78: 00 00        	<unknown>
     b7a: 00 00        	<unknown>
     b7c: 00 00        	<unknown>
     b7e: 03 00 00 00  	lb	zero, 0(zero)
     b82: 00 00        	<unknown>
     b84: 0c 03        	<unknown>
     b86: 00 80        	<unknown>
     b88: 00 00        	<unknown>
     b8a: 00 00        	<unknown>
     b8c: 00 00        	<unknown>
     b8e: 03 00 00 00  	lb	zero, 0(zero)
     b92: 00 00        	<unknown>
     b94: 10 03        	<unknown>
     b96: 00 80        	<unknown>
     b98: 00 00        	<unknown>
     b9a: 00 00        	<unknown>
     b9c: 00 00        	<unknown>
     b9e: 03 00 00 00  	lb	zero, 0(zero)
     ba2: 00 00        	<unknown>
     ba4: 18 03        	<unknown>
     ba6: 00 80        	<unknown>
     ba8: 00 00        	<unknown>
     baa: 00 00        	<unknown>
     bac: 00 00        	<unknown>
     bae: 03 00 00 00  	lb	zero, 0(zero)
     bb2: 00 00        	<unknown>
     bb4: 28 03        	<unknown>
     bb6: 00 80        	<unknown>
     bb8: 00 00        	<unknown>
     bba: 00 00        	<unknown>
     bbc: 00 00        	<unknown>
     bbe: 03 00 00 00  	lb	zero, 0(zero)
     bc2: 00 00        	<unknown>
     bc4: 28 03        	<unknown>
     bc6: 00 80        	<unknown>
     bc8: 00 00        	<unknown>
     bca: 00 00        	<unknown>
     bcc: 00 00        	<unknown>
     bce: 03 00 00 00  	lb	zero, 0(zero)
     bd2: 00 00        	<unknown>
     bd4: 2c 03        	<unknown>
     bd6: 00 80        	<unknown>
     bd8: 00 00        	<unknown>
     bda: 00 00        	<unknown>
     bdc: 00 00        	<unknown>
     bde: 03 00 00 00  	lb	zero, 0(zero)
     be2: 00 00        	<unknown>
     be4: 38 03        	<unknown>
     be6: 00 80        	<unknown>
     be8: 00 00        	<unknown>
     bea: 00 00        	<unknown>
     bec: 00 00        	<unknown>
     bee: 03 00 00 00  	lb	zero, 0(zero)
     bf2: 00 00        	<unknown>
     bf4: 3c 03        	<unknown>
     bf6: 00 80        	<unknown>
     bf8: 00 00        	<unknown>
     bfa: 00 00        	<unknown>
     bfc: 00 00        	<unknown>
     bfe: 03 00 00 00  	lb	zero, 0(zero)
     c02: 00 00        	<unknown>
     c04: 40 03        	<unknown>
     c06: 00 80        	<unknown>
     c08: 00 00        	<unknown>
     c0a: 00 00        	<unknown>
     c0c: 00 00        	<unknown>
     c0e: 03 00 00 00  	lb	zero, 0(zero)
     c12: 00 00        	<unknown>
     c14: 4c 03        	<unknown>
     c16: 00 80        	<unknown>
     c18: 00 00        	<unknown>
     c1a: 00 00        	<unknown>
     c1c: 00 00        	<unknown>
     c1e: 03 00 00 00  	lb	zero, 0(zero)
     c22: 00 00        	<unknown>
     c24: 4c 03        	<unknown>
     c26: 00 80        	<unknown>
     c28: 00 00        	<unknown>
     c2a: 00 00        	<unknown>
     c2c: 00 00        	<unknown>
     c2e: 03 00 00 00  	lb	zero, 0(zero)
     c32: 00 00        	<unknown>
     c34: 50 03        	<unknown>
     c36: 00 80        	<unknown>
     c38: 00 00        	<unknown>
     c3a: 00 00        	<unknown>
     c3c: 00 00        	<unknown>
     c3e: 03 00 00 00  	lb	zero, 0(zero)
     c42: 00 00        	<unknown>
     c44: 54 03        	<unknown>
     c46: 00 80        	<unknown>
     c48: 00 00        	<unknown>
     c4a: 00 00        	<unknown>
     c4c: 00 00        	<unknown>
     c4e: 03 00 00 00  	lb	zero, 0(zero)
     c52: 00 00        	<unknown>
     c54: 58 03        	<unknown>
     c56: 00 80        	<unknown>
     c58: 00 00        	<unknown>
     c5a: 00 00        	<unknown>
     c5c: 00 00        	<unknown>
     c5e: 03 00 00 00  	lb	zero, 0(zero)
     c62: 00 00        	<unknown>
     c64: 5c 03        	<unknown>
     c66: 00 80        	<unknown>
     c68: 00 00        	<unknown>
     c6a: 00 00        	<unknown>
     c6c: 00 00        	<unknown>
     c6e: 03 00 00 00  	lb	zero, 0(zero)
     c72: 00 00        	<unknown>
     c74: 60 03        	<unknown>
     c76: 00 80        	<unknown>
     c78: 00 00        	<unknown>
     c7a: 00 00        	<unknown>
     c7c: 00 00        	<unknown>
     c7e: 03 00 00 00  	lb	zero, 0(zero)
     c82: 00 00        	<unknown>
     c84: 64 03        	<unknown>
     c86: 00 80        	<unknown>
     c88: 00 00        	<unknown>
     c8a: 00 00        	<unknown>
     c8c: 00 00        	<unknown>
     c8e: 03 00 00 00  	lb	zero, 0(zero)
     c92: 00 00        	<unknown>
     c94: 6c 03        	<unknown>
     c96: 00 80        	<unknown>
     c98: 00 00        	<unknown>
     c9a: 00 00        	<unknown>
     c9c: 00 00        	<unknown>
     c9e: 03 00 00 00  	lb	zero, 0(zero)
     ca2: 00 00        	<unknown>
     ca4: 70 03        	<unknown>
     ca6: 00 80        	<unknown>
     ca8: 00 00        	<unknown>
     caa: 00 00        	<unknown>
     cac: 00 00        	<unknown>
     cae: 03 00 00 00  	lb	zero, 0(zero)
     cb2: 00 00        	<unknown>
     cb4: 74 03        	<unknown>
     cb6: 00 80        	<unknown>
     cb8: 00 00        	<unknown>
     cba: 00 00        	<unknown>
     cbc: 00 00        	<unknown>
     cbe: 03 00 00 00  	lb	zero, 0(zero)
     cc2: 00 00        	<unknown>
     cc4: 78 03        	<unknown>
     cc6: 00 80        	<unknown>
     cc8: 00 00        	<unknown>
     cca: 00 00        	<unknown>
     ccc: 00 00        	<unknown>
     cce: 03 00 00 00  	lb	zero, 0(zero)
     cd2: 00 00        	<unknown>
     cd4: 7c 03        	<unknown>
     cd6: 00 80        	<unknown>
     cd8: 00 00        	<unknown>
     cda: 00 00        	<unknown>
     cdc: 00 00        	<unknown>
     cde: 03 00 00 00  	lb	zero, 0(zero)
     ce2: 00 00        	<unknown>
     ce4: 80 03        	<unknown>
     ce6: 00 80        	<unknown>
     ce8: 00 00        	<unknown>
     cea: 00 00        	<unknown>
     cec: 00 00        	<unknown>
     cee: 03 00 00 00  	lb	zero, 0(zero)
     cf2: 00 00        	<unknown>
     cf4: 84 03        	<unknown>
     cf6: 00 80        	<unknown>
     cf8: 00 00        	<unknown>
     cfa: 00 00        	<unknown>
     cfc: 00 00        	<unknown>
     cfe: 03 00 00 00  	lb	zero, 0(zero)
     d02: 00 00        	<unknown>
     d04: 84 03        	<unknown>
     d06: 00 80        	<unknown>
     d08: 00 00        	<unknown>
     d0a: 00 00        	<unknown>
     d0c: 00 00        	<unknown>
     d0e: 03 00 00 00  	lb	zero, 0(zero)
     d12: 00 00        	<unknown>
     d14: 88 03        	<unknown>
     d16: 00 80        	<unknown>
     d18: 00 00        	<unknown>
     d1a: 00 00        	<unknown>
     d1c: 00 00        	<unknown>
     d1e: 03 00 00 00  	lb	zero, 0(zero)
     d22: 00 00        	<unknown>
     d24: 8c 03        	<unknown>
     d26: 00 80        	<unknown>
     d28: 00 00        	<unknown>
     d2a: 00 00        	<unknown>
     d2c: 00 00        	<unknown>
     d2e: 03 00 00 00  	lb	zero, 0(zero)
     d32: 00 00        	<unknown>
     d34: 90 03        	<unknown>
     d36: 00 80        	<unknown>
     d38: 00 00        	<unknown>
     d3a: 00 00        	<unknown>
     d3c: 00 00        	<unknown>
     d3e: 03 00 00 00  	lb	zero, 0(zero)
     d42: 00 00        	<unknown>
     d44: 90 03        	<unknown>
     d46: 00 80        	<unknown>
     d48: 00 00        	<unknown>
     d4a: 00 00        	<unknown>
     d4c: 00 00        	<unknown>
     d4e: 03 00 00 00  	lb	zero, 0(zero)
     d52: 00 00        	<unknown>
     d54: 94 03        	<unknown>
     d56: 00 80        	<unknown>
     d58: 00 00        	<unknown>
     d5a: 00 00        	<unknown>
     d5c: 00 00        	<unknown>
     d5e: 03 00 00 00  	lb	zero, 0(zero)
     d62: 00 00        	<unknown>
     d64: 98 03        	<unknown>
     d66: 00 80        	<unknown>
     d68: 00 00        	<unknown>
     d6a: 00 00        	<unknown>
     d6c: 00 00        	<unknown>
     d6e: 03 00 00 00  	lb	zero, 0(zero)
     d72: 00 00        	<unknown>
     d74: a4 03        	<unknown>
     d76: 00 80        	<unknown>
     d78: 00 00        	<unknown>
     d7a: 00 00        	<unknown>
     d7c: 00 00        	<unknown>
     d7e: 03 00 00 00  	lb	zero, 0(zero)
     d82: 00 00        	<unknown>
     d84: a4 03        	<unknown>
     d86: 00 80        	<unknown>
     d88: 00 00        	<unknown>
     d8a: 00 00        	<unknown>
     d8c: 00 00        	<unknown>
     d8e: 03 00 00 00  	lb	zero, 0(zero)
     d92: 00 00        	<unknown>
     d94: a4 03        	<unknown>
     d96: 00 80        	<unknown>
     d98: 00 00        	<unknown>
     d9a: 00 00        	<unknown>
     d9c: 00 00        	<unknown>
     d9e: 03 00 00 00  	lb	zero, 0(zero)
     da2: 00 00        	<unknown>
     da4: a4 03        	<unknown>
     da6: 00 80        	<unknown>
     da8: 00 00        	<unknown>
     daa: 00 00        	<unknown>
     dac: 00 00        	<unknown>
     dae: 03 00 00 00  	lb	zero, 0(zero)
     db2: 00 00        	<unknown>
     db4: a4 03        	<unknown>
     db6: 00 80        	<unknown>
     db8: 00 00        	<unknown>
     dba: 00 00        	<unknown>
     dbc: 00 00        	<unknown>
     dbe: 03 00 00 00  	lb	zero, 0(zero)
     dc2: 00 00        	<unknown>
     dc4: a8 03        	<unknown>
     dc6: 00 80        	<unknown>
     dc8: 00 00        	<unknown>
     dca: 00 00        	<unknown>
     dcc: 00 00        	<unknown>
     dce: 03 00 00 00  	lb	zero, 0(zero)
     dd2: 00 00        	<unknown>
     dd4: ac 03        	<unknown>
     dd6: 00 80        	<unknown>
     dd8: 00 00        	<unknown>
     dda: 00 00        	<unknown>
     ddc: 00 00        	<unknown>
     dde: 03 00 00 00  	lb	zero, 0(zero)
     de2: 00 00        	<unknown>
     de4: b0 03        	<unknown>
     de6: 00 80        	<unknown>
     de8: 00 00        	<unknown>
     dea: 00 00        	<unknown>
     dec: 00 00        	<unknown>
     dee: 03 00 00 00  	lb	zero, 0(zero)
     df2: 00 00        	<unknown>
     df4: b0 03        	<unknown>
     df6: 00 80        	<unknown>
     df8: 00 00        	<unknown>
     dfa: 00 00        	<unknown>
     dfc: 00 00        	<unknown>
     dfe: 03 00 00 00  	lb	zero, 0(zero)
     e02: 00 00        	<unknown>
     e04: b4 03        	<unknown>
     e06: 00 80        	<unknown>
     e08: 00 00        	<unknown>
     e0a: 00 00        	<unknown>
     e0c: 00 00        	<unknown>
     e0e: 03 00 00 00  	lb	zero, 0(zero)
     e12: 00 00        	<unknown>
     e14: b4 03        	<unknown>
     e16: 00 80        	<unknown>
     e18: 00 00        	<unknown>
     e1a: 00 00        	<unknown>
     e1c: 00 00        	<unknown>
     e1e: 03 00 00 00  	lb	zero, 0(zero)
     e22: 00 00        	<unknown>
     e24: b8 03        	<unknown>
     e26: 00 80        	<unknown>
     e28: 00 00        	<unknown>
     e2a: 00 00        	<unknown>
     e2c: 00 00        	<unknown>
     e2e: 03 00 00 00  	lb	zero, 0(zero)
     e32: 00 00        	<unknown>
     e34: bc 03        	<unknown>
     e36: 00 80        	<unknown>
     e38: 00 00        	<unknown>
     e3a: 00 00        	<unknown>
     e3c: 00 00        	<unknown>
     e3e: 03 00 00 00  	lb	zero, 0(zero)
     e42: 00 00        	<unknown>
     e44: d0 03        	<unknown>
     e46: 00 80        	<unknown>
     e48: 00 00        	<unknown>
     e4a: 00 00        	<unknown>
     e4c: 00 00        	<unknown>
     e4e: 03 00 00 00  	lb	zero, 0(zero)
     e52: 00 00        	<unknown>
     e54: d4 03        	<unknown>
     e56: 00 80        	<unknown>
     e58: 00 00        	<unknown>
     e5a: 00 00        	<unknown>
     e5c: 00 00        	<unknown>
     e5e: 03 00 00 00  	lb	zero, 0(zero)
     e62: 00 00        	<unknown>
     e64: dc 03        	<unknown>
     e66: 00 80        	<unknown>
     e68: 00 00        	<unknown>
     e6a: 00 00        	<unknown>
     e6c: 00 00        	<unknown>
     e6e: 03 00 00 00  	lb	zero, 0(zero)
     e72: 00 00        	<unknown>
     e74: e0 03        	<unknown>
     e76: 00 80        	<unknown>
     e78: 00 00        	<unknown>
     e7a: 00 00        	<unknown>
     e7c: 00 00        	<unknown>
     e7e: 03 00 00 00  	lb	zero, 0(zero)
     e82: 00 00        	<unknown>
     e84: e4 03        	<unknown>
     e86: 00 80        	<unknown>
     e88: 00 00        	<unknown>
     e8a: 00 00        	<unknown>
     e8c: 00 00        	<unknown>
     e8e: 03 00 00 00  	lb	zero, 0(zero)
     e92: 00 00        	<unknown>
     e94: e8 03        	<unknown>
     e96: 00 80        	<unknown>
     e98: 00 00        	<unknown>
     e9a: 00 00        	<unknown>
     e9c: 00 00        	<unknown>
     e9e: 03 00 00 00  	lb	zero, 0(zero)
     ea2: 00 00        	<unknown>
     ea4: ec 03        	<unknown>
     ea6: 00 80        	<unknown>
     ea8: 00 00        	<unknown>
     eaa: 00 00        	<unknown>
     eac: 00 00        	<unknown>
     eae: 03 00 00 00  	lb	zero, 0(zero)
     eb2: 00 00        	<unknown>
     eb4: f0 03        	<unknown>
     eb6: 00 80        	<unknown>
     eb8: 00 00        	<unknown>
     eba: 00 00        	<unknown>
     ebc: 00 00        	<unknown>
     ebe: 03 00 00 00  	lb	zero, 0(zero)
     ec2: 00 00        	<unknown>
     ec4: f4 03        	<unknown>
     ec6: 00 80        	<unknown>
     ec8: 00 00        	<unknown>
     eca: 00 00        	<unknown>
     ecc: 00 00        	<unknown>
     ece: 03 00 00 00  	lb	zero, 0(zero)
     ed2: 00 00        	<unknown>
     ed4: f8 03        	<unknown>
     ed6: 00 80        	<unknown>
     ed8: 00 00        	<unknown>
     eda: 00 00        	<unknown>
     edc: 00 00        	<unknown>
     ede: 03 00 00 00  	lb	zero, 0(zero)
     ee2: 00 00        	<unknown>
     ee4: fc 03        	<unknown>
     ee6: 00 80        	<unknown>
     ee8: 00 00        	<unknown>
     eea: 00 00        	<unknown>
     eec: 00 00        	<unknown>
     eee: 03 00 00 00  	lb	zero, 0(zero)
     ef2: 00 00        	<unknown>
     ef4: 00 04        	<unknown>
     ef6: 00 80        	<unknown>
     ef8: 00 00        	<unknown>
     efa: 00 00        	<unknown>
     efc: 00 00        	<unknown>
     efe: 03 00 00 00  	lb	zero, 0(zero)
     f02: 00 00        	<unknown>
     f04: 04 04        	<unknown>
     f06: 00 80        	<unknown>
     f08: 00 00        	<unknown>
     f0a: 00 00        	<unknown>
     f0c: 00 00        	<unknown>
     f0e: 03 00 00 00  	lb	zero, 0(zero)
     f12: 00 00        	<unknown>
     f14: 08 04        	<unknown>
     f16: 00 80        	<unknown>
     f18: 00 00        	<unknown>
     f1a: 00 00        	<unknown>
     f1c: 00 00        	<unknown>
     f1e: 03 00 00 00  	lb	zero, 0(zero)
     f22: 00 00        	<unknown>
     f24: 0c 04        	<unknown>
     f26: 00 80        	<unknown>
     f28: 00 00        	<unknown>
     f2a: 00 00        	<unknown>
     f2c: 00 00        	<unknown>
     f2e: 03 00 00 00  	lb	zero, 0(zero)
     f32: 00 00        	<unknown>
     f34: 14 04        	<unknown>
     f36: 00 80        	<unknown>
     f38: 00 00        	<unknown>
     f3a: 00 00        	<unknown>
     f3c: 00 00        	<unknown>
     f3e: 03 00 00 00  	lb	zero, 0(zero)
     f42: 00 00        	<unknown>
     f44: 1c 04        	<unknown>
     f46: 00 80        	<unknown>
     f48: 00 00        	<unknown>
     f4a: 00 00        	<unknown>
     f4c: 00 00        	<unknown>
     f4e: 03 00 00 00  	lb	zero, 0(zero)
     f52: 00 00        	<unknown>
     f54: 20 04        	<unknown>
     f56: 00 80        	<unknown>
     f58: 00 00        	<unknown>
     f5a: 00 00        	<unknown>
     f5c: 00 00        	<unknown>
     f5e: 03 00 00 00  	lb	zero, 0(zero)
     f62: 00 00        	<unknown>
     f64: 24 04        	<unknown>
     f66: 00 80        	<unknown>
     f68: 00 00        	<unknown>
     f6a: 00 00        	<unknown>
     f6c: 00 00        	<unknown>
     f6e: 03 00 00 00  	lb	zero, 0(zero)
     f72: 00 00        	<unknown>
     f74: 28 04        	<unknown>
     f76: 00 80        	<unknown>
     f78: 00 00        	<unknown>
     f7a: 00 00        	<unknown>
     f7c: 00 00        	<unknown>
     f7e: 03 00 00 00  	lb	zero, 0(zero)
     f82: 00 00        	<unknown>
     f84: 2c 04        	<unknown>
     f86: 00 80        	<unknown>
     f88: 00 00        	<unknown>
     f8a: 00 00        	<unknown>
     f8c: 00 00        	<unknown>
     f8e: 03 00 00 00  	lb	zero, 0(zero)
     f92: 00 00        	<unknown>
     f94: 30 04        	<unknown>
     f96: 00 80        	<unknown>
     f98: 00 00        	<unknown>
     f9a: 00 00        	<unknown>
     f9c: 00 00        	<unknown>
     f9e: 03 00 00 00  	lb	zero, 0(zero)
     fa2: 00 00        	<unknown>
     fa4: 34 04        	<unknown>
     fa6: 00 80        	<unknown>
     fa8: 00 00        	<unknown>
     faa: 00 00        	<unknown>
     fac: 00 00        	<unknown>
     fae: 03 00 00 00  	lb	zero, 0(zero)
     fb2: 00 00        	<unknown>
     fb4: 38 04        	<unknown>
     fb6: 00 80        	<unknown>
     fb8: 00 00        	<unknown>
     fba: 00 00        	<unknown>
     fbc: 00 00        	<unknown>
     fbe: 03 00 00 00  	lb	zero, 0(zero)
     fc2: 00 00        	<unknown>
     fc4: 3c 04        	<unknown>
     fc6: 00 80        	<unknown>
     fc8: 00 00        	<unknown>
     fca: 00 00        	<unknown>
     fcc: 00 00        	<unknown>
     fce: 03 00 00 00  	lb	zero, 0(zero)
     fd2: 00 00        	<unknown>
     fd4: 44 04        	<unknown>
     fd6: 00 80        	<unknown>
     fd8: 00 00        	<unknown>
     fda: 00 00        	<unknown>
     fdc: 00 00        	<unknown>
     fde: 03 00 00 00  	lb	zero, 0(zero)
     fe2: 00 00        	<unknown>
     fe4: 48 04        	<unknown>
     fe6: 00 80        	<unknown>
     fe8: 00 00        	<unknown>
     fea: 00 00        	<unknown>
     fec: 00 00        	<unknown>
     fee: 03 00 00 00  	lb	zero, 0(zero)
     ff2: 00 00        	<unknown>
     ff4: 4c 04        	<unknown>
     ff6: 00 80        	<unknown>
     ff8: 00 00        	<unknown>
     ffa: 00 00        	<unknown>
     ffc: 00 00        	<unknown>
     ffe: 03 00 00 00  	lb	zero, 0(zero)
    1002: 00 00        	<unknown>
    1004: 4c 04        	<unknown>
    1006: 00 80        	<unknown>
    1008: 00 00        	<unknown>
    100a: 00 00        	<unknown>
    100c: 00 00        	<unknown>
    100e: 03 00 00 00  	lb	zero, 0(zero)
    1012: 00 00        	<unknown>
    1014: 4c 04        	<unknown>
    1016: 00 80        	<unknown>
    1018: 00 00        	<unknown>
    101a: 00 00        	<unknown>
    101c: 00 00        	<unknown>
    101e: 03 00 00 00  	lb	zero, 0(zero)
    1022: 00 00        	<unknown>
    1024: 4c 04        	<unknown>
    1026: 00 80        	<unknown>
    1028: 00 00        	<unknown>
    102a: 00 00        	<unknown>
    102c: 00 00        	<unknown>
    102e: 03 00 00 00  	lb	zero, 0(zero)
    1032: 00 00        	<unknown>
    1034: 4c 04        	<unknown>
    1036: 00 80        	<unknown>
    1038: 00 00        	<unknown>
    103a: 00 00        	<unknown>
    103c: 00 00        	<unknown>
    103e: 03 00 00 00  	lb	zero, 0(zero)
    1042: 00 00        	<unknown>
    1044: 4c 04        	<unknown>
    1046: 00 80        	<unknown>
    1048: 00 00        	<unknown>
    104a: 00 00        	<unknown>
    104c: 00 00        	<unknown>
    104e: 03 00 00 00  	lb	zero, 0(zero)
    1052: 00 00        	<unknown>
    1054: 50 04        	<unknown>
    1056: 00 80        	<unknown>
    1058: 00 00        	<unknown>
    105a: 00 00        	<unknown>
    105c: 00 00        	<unknown>
    105e: 03 00 00 00  	lb	zero, 0(zero)
    1062: 00 00        	<unknown>
    1064: 54 04        	<unknown>
    1066: 00 80        	<unknown>
    1068: 00 00        	<unknown>
    106a: 00 00        	<unknown>
    106c: 00 00        	<unknown>
    106e: 03 00 00 00  	lb	zero, 0(zero)
    1072: 00 00        	<unknown>
    1074: 54 04        	<unknown>
    1076: 00 80        	<unknown>
    1078: 00 00        	<unknown>
    107a: 00 00        	<unknown>
    107c: 00 00        	<unknown>
    107e: 03 00 00 00  	lb	zero, 0(zero)
    1082: 00 00        	<unknown>
    1084: 58 04        	<unknown>
    1086: 00 80        	<unknown>
    1088: 00 00        	<unknown>
    108a: 00 00        	<unknown>
    108c: 00 00        	<unknown>
    108e: 03 00 00 00  	lb	zero, 0(zero)
    1092: 00 00        	<unknown>
    1094: 58 04        	<unknown>
    1096: 00 80        	<unknown>
    1098: 00 00        	<unknown>
    109a: 00 00        	<unknown>
    109c: 00 00        	<unknown>
    109e: 03 00 00 00  	lb	zero, 0(zero)
    10a2: 00 00        	<unknown>
    10a4: 5c 04        	<unknown>
    10a6: 00 80        	<unknown>
    10a8: 00 00        	<unknown>
    10aa: 00 00        	<unknown>
    10ac: 00 00        	<unknown>
    10ae: 03 00 00 00  	lb	zero, 0(zero)
    10b2: 00 00        	<unknown>
    10b4: 60 04        	<unknown>
    10b6: 00 80        	<unknown>
    10b8: 00 00        	<unknown>
    10ba: 00 00        	<unknown>
    10bc: 00 00        	<unknown>
    10be: 03 00 00 00  	lb	zero, 0(zero)
    10c2: 00 00        	<unknown>
    10c4: 78 04        	<unknown>
    10c6: 00 80        	<unknown>
    10c8: 00 00        	<unknown>
    10ca: 00 00        	<unknown>
    10cc: 00 00        	<unknown>
    10ce: 03 00 00 00  	lb	zero, 0(zero)
    10d2: 00 00        	<unknown>
    10d4: 7c 04        	<unknown>
    10d6: 00 80        	<unknown>
    10d8: 00 00        	<unknown>
    10da: 00 00        	<unknown>
    10dc: 00 00        	<unknown>
    10de: 03 00 00 00  	lb	zero, 0(zero)
    10e2: 00 00        	<unknown>
    10e4: 84 04        	<unknown>
    10e6: 00 80        	<unknown>
    10e8: 00 00        	<unknown>
    10ea: 00 00        	<unknown>
    10ec: 00 00        	<unknown>
    10ee: 03 00 00 00  	lb	zero, 0(zero)
    10f2: 00 00        	<unknown>
    10f4: 88 04        	<unknown>
    10f6: 00 80        	<unknown>
    10f8: 00 00        	<unknown>
    10fa: 00 00        	<unknown>
    10fc: 00 00        	<unknown>
    10fe: 03 00 00 00  	lb	zero, 0(zero)
    1102: 00 00        	<unknown>
    1104: 8c 04        	<unknown>
    1106: 00 80        	<unknown>
    1108: 00 00        	<unknown>
    110a: 00 00        	<unknown>
    110c: 00 00        	<unknown>
    110e: 03 00 00 00  	lb	zero, 0(zero)
    1112: 00 00        	<unknown>
    1114: 90 04        	<unknown>
    1116: 00 80        	<unknown>
    1118: 00 00        	<unknown>
    111a: 00 00        	<unknown>
    111c: 00 00        	<unknown>
    111e: 03 00 00 00  	lb	zero, 0(zero)
    1122: 00 00        	<unknown>
    1124: 94 04        	<unknown>
    1126: 00 80        	<unknown>
    1128: 00 00        	<unknown>
    112a: 00 00        	<unknown>
    112c: 00 00        	<unknown>
    112e: 03 00 00 00  	lb	zero, 0(zero)
    1132: 00 00        	<unknown>
    1134: 98 04        	<unknown>
    1136: 00 80        	<unknown>
    1138: 00 00        	<unknown>
    113a: 00 00        	<unknown>
    113c: 00 00        	<unknown>
    113e: 03 00 00 00  	lb	zero, 0(zero)
    1142: 00 00        	<unknown>
    1144: 9c 04        	<unknown>
    1146: 00 80        	<unknown>
    1148: 00 00        	<unknown>
    114a: 00 00        	<unknown>
    114c: 00 00        	<unknown>
    114e: 03 00 00 00  	lb	zero, 0(zero)
    1152: 00 00        	<unknown>
    1154: a0 04        	<unknown>
    1156: 00 80        	<unknown>
    1158: 00 00        	<unknown>
    115a: 00 00        	<unknown>
    115c: 00 00        	<unknown>
    115e: 03 00 00 00  	lb	zero, 0(zero)
    1162: 00 00        	<unknown>
    1164: a4 04        	<unknown>
    1166: 00 80        	<unknown>
    1168: 00 00        	<unknown>
    116a: 00 00        	<unknown>
    116c: 00 00        	<unknown>
    116e: 03 00 00 00  	lb	zero, 0(zero)
    1172: 00 00        	<unknown>
    1174: a8 04        	<unknown>
    1176: 00 80        	<unknown>
    1178: 00 00        	<unknown>
    117a: 00 00        	<unknown>
    117c: 00 00        	<unknown>
    117e: 03 00 00 00  	lb	zero, 0(zero)
    1182: 00 00        	<unknown>
    1184: ac 04        	<unknown>
    1186: 00 80        	<unknown>
    1188: 00 00        	<unknown>
    118a: 00 00        	<unknown>
    118c: 00 00        	<unknown>
    118e: 03 00 00 00  	lb	zero, 0(zero)
    1192: 00 00        	<unknown>
    1194: b0 04        	<unknown>
    1196: 00 80        	<unknown>
    1198: 00 00        	<unknown>
    119a: 00 00        	<unknown>
    119c: 00 00        	<unknown>
    119e: 03 00 00 00  	lb	zero, 0(zero)
    11a2: 00 00        	<unknown>
    11a4: b4 04        	<unknown>
    11a6: 00 80        	<unknown>
    11a8: 00 00        	<unknown>
    11aa: 00 00        	<unknown>
    11ac: 00 00        	<unknown>
    11ae: 03 00 00 00  	lb	zero, 0(zero)
    11b2: 00 00        	<unknown>
    11b4: bc 04        	<unknown>
    11b6: 00 80        	<unknown>
    11b8: 00 00        	<unknown>
    11ba: 00 00        	<unknown>
    11bc: 00 00        	<unknown>
    11be: 03 00 00 00  	lb	zero, 0(zero)
    11c2: 00 00        	<unknown>
    11c4: c4 04        	<unknown>
    11c6: 00 80        	<unknown>
    11c8: 00 00        	<unknown>
    11ca: 00 00        	<unknown>
    11cc: 00 00        	<unknown>
    11ce: 03 00 00 00  	lb	zero, 0(zero)
    11d2: 00 00        	<unknown>
    11d4: c8 04        	<unknown>
    11d6: 00 80        	<unknown>
    11d8: 00 00        	<unknown>
    11da: 00 00        	<unknown>
    11dc: 00 00        	<unknown>
    11de: 03 00 00 00  	lb	zero, 0(zero)
    11e2: 00 00        	<unknown>
    11e4: cc 04        	<unknown>
    11e6: 00 80        	<unknown>
    11e8: 00 00        	<unknown>
    11ea: 00 00        	<unknown>
    11ec: 00 00        	<unknown>
    11ee: 03 00 00 00  	lb	zero, 0(zero)
    11f2: 00 00        	<unknown>
    11f4: d0 04        	<unknown>
    11f6: 00 80        	<unknown>
    11f8: 00 00        	<unknown>
    11fa: 00 00        	<unknown>
    11fc: 00 00        	<unknown>
    11fe: 03 00 00 00  	lb	zero, 0(zero)
    1202: 00 00        	<unknown>
    1204: d4 04        	<unknown>
    1206: 00 80        	<unknown>
    1208: 00 00        	<unknown>
    120a: 00 00        	<unknown>
    120c: 00 00        	<unknown>
    120e: 03 00 00 00  	lb	zero, 0(zero)
    1212: 00 00        	<unknown>
    1214: d8 04        	<unknown>
    1216: 00 80        	<unknown>
    1218: 00 00        	<unknown>
    121a: 00 00        	<unknown>
    121c: 00 00        	<unknown>
    121e: 03 00 00 00  	lb	zero, 0(zero)
    1222: 00 00        	<unknown>
    1224: dc 04        	<unknown>
    1226: 00 80        	<unknown>
    1228: 00 00        	<unknown>
    122a: 00 00        	<unknown>
    122c: 00 00        	<unknown>
    122e: 03 00 00 00  	lb	zero, 0(zero)
    1232: 00 00        	<unknown>
    1234: e4 04        	<unknown>
    1236: 00 80        	<unknown>
    1238: 00 00        	<unknown>
    123a: 00 00        	<unknown>
    123c: 00 00        	<unknown>
    123e: 03 00 00 00  	lb	zero, 0(zero)
    1242: 00 00        	<unknown>
    1244: e8 04        	<unknown>
    1246: 00 80        	<unknown>
    1248: 00 00        	<unknown>
    124a: 00 00        	<unknown>
    124c: 00 00        	<unknown>
    124e: 03 00 00 00  	lb	zero, 0(zero)
    1252: 00 00        	<unknown>
    1254: f0 04        	<unknown>
    1256: 00 80        	<unknown>
    1258: 00 00        	<unknown>
    125a: 00 00        	<unknown>
    125c: 00 00        	<unknown>
    125e: 03 00 00 00  	lb	zero, 0(zero)
    1262: 00 00        	<unknown>
    1264: f4 04        	<unknown>
    1266: 00 80        	<unknown>
    1268: 00 00        	<unknown>
    126a: 00 00        	<unknown>
    126c: 00 00        	<unknown>
    126e: 03 00 00 00  	lb	zero, 0(zero)
    1272: 00 00        	<unknown>
    1274: f8 04        	<unknown>
    1276: 00 80        	<unknown>
    1278: 00 00        	<unknown>
    127a: 00 00        	<unknown>
    127c: 00 00        	<unknown>
    127e: 03 00 00 00  	lb	zero, 0(zero)
    1282: 00 00        	<unknown>
    1284: f8 04        	<unknown>
    1286: 00 80        	<unknown>
    1288: 00 00        	<unknown>
    128a: 00 00        	<unknown>
    128c: 00 00        	<unknown>
    128e: 03 00 00 00  	lb	zero, 0(zero)
    1292: 00 00        	<unknown>
    1294: f8 04        	<unknown>
    1296: 00 80        	<unknown>
    1298: 00 00        	<unknown>
    129a: 00 00        	<unknown>
    129c: 00 00        	<unknown>
    129e: 03 00 00 00  	lb	zero, 0(zero)
    12a2: 00 00        	<unknown>
    12a4: f8 04        	<unknown>
    12a6: 00 80        	<unknown>
    12a8: 00 00        	<unknown>
    12aa: 00 00        	<unknown>
    12ac: 00 00        	<unknown>
    12ae: 03 00 00 00  	lb	zero, 0(zero)
    12b2: 00 00        	<unknown>
    12b4: f8 04        	<unknown>
    12b6: 00 80        	<unknown>
    12b8: 00 00        	<unknown>
    12ba: 00 00        	<unknown>
    12bc: 00 00        	<unknown>
    12be: 03 00 00 00  	lb	zero, 0(zero)
    12c2: 00 00        	<unknown>
    12c4: fc 04        	<unknown>
    12c6: 00 80        	<unknown>
    12c8: 00 00        	<unknown>
    12ca: 00 00        	<unknown>
    12cc: 00 00        	<unknown>
    12ce: 03 00 00 00  	lb	zero, 0(zero)
    12d2: 00 00        	<unknown>
    12d4: fc 04        	<unknown>
    12d6: 00 80        	<unknown>
    12d8: 00 00        	<unknown>
    12da: 00 00        	<unknown>
    12dc: 00 00        	<unknown>
    12de: 03 00 00 00  	lb	zero, 0(zero)
    12e2: 00 00        	<unknown>
    12e4: 0c 05        	<unknown>
    12e6: 00 80        	<unknown>
    12e8: 00 00        	<unknown>
    12ea: 00 00        	<unknown>
    12ec: 00 00        	<unknown>
    12ee: 03 00 00 00  	lb	zero, 0(zero)
    12f2: 00 00        	<unknown>
    12f4: 10 05        	<unknown>
    12f6: 00 80        	<unknown>
    12f8: 00 00        	<unknown>
    12fa: 00 00        	<unknown>
    12fc: 00 00        	<unknown>
    12fe: 03 00 00 00  	lb	zero, 0(zero)
    1302: 00 00        	<unknown>
    1304: 20 05        	<unknown>
    1306: 00 80        	<unknown>
    1308: 00 00        	<unknown>
    130a: 00 00        	<unknown>
    130c: 00 00        	<unknown>
    130e: 03 00 00 00  	lb	zero, 0(zero)
    1312: 00 00        	<unknown>
    1314: 20 05        	<unknown>
    1316: 00 80        	<unknown>
    1318: 00 00        	<unknown>
    131a: 00 00        	<unknown>
    131c: 00 00        	<unknown>
    131e: 03 00 00 00  	lb	zero, 0(zero)
    1322: 00 00        	<unknown>
    1324: 28 05        	<unknown>
    1326: 00 80        	<unknown>
    1328: 00 00        	<unknown>
    132a: 00 00        	<unknown>
    132c: 00 00        	<unknown>
    132e: 03 00 00 00  	lb	zero, 0(zero)
    1332: 00 00        	<unknown>
    1334: 2c 05        	<unknown>
    1336: 00 80        	<unknown>
    1338: 00 00        	<unknown>
    133a: 00 00        	<unknown>
    133c: 00 00        	<unknown>
    133e: 03 00 00 00  	lb	zero, 0(zero)
    1342: 00 00        	<unknown>
    1344: 30 05        	<unknown>
    1346: 00 80        	<unknown>
    1348: 00 00        	<unknown>
    134a: 00 00        	<unknown>
    134c: 00 00        	<unknown>
    134e: 03 00 00 00  	lb	zero, 0(zero)
    1352: 00 00        	<unknown>
    1354: 34 05        	<unknown>
    1356: 00 80        	<unknown>
    1358: 00 00        	<unknown>
    135a: 00 00        	<unknown>
    135c: 00 00        	<unknown>
    135e: 03 00 00 00  	lb	zero, 0(zero)
    1362: 00 00        	<unknown>
    1364: 44 05        	<unknown>
    1366: 00 80        	<unknown>
    1368: 00 00        	<unknown>
    136a: 00 00        	<unknown>
    136c: 00 00        	<unknown>
    136e: 03 00 00 00  	lb	zero, 0(zero)
    1372: 00 00        	<unknown>
    1374: 44 05        	<unknown>
    1376: 00 80        	<unknown>
    1378: 00 00        	<unknown>
    137a: 00 00        	<unknown>
    137c: 00 00        	<unknown>
    137e: 03 00 00 00  	lb	zero, 0(zero)
    1382: 00 00        	<unknown>
    1384: 48 05        	<unknown>
    1386: 00 80        	<unknown>
    1388: 00 00        	<unknown>
    138a: 00 00        	<unknown>
    138c: 00 00        	<unknown>
    138e: 03 00 00 00  	lb	zero, 0(zero)
    1392: 00 00        	<unknown>
    1394: 4c 05        	<unknown>
    1396: 00 80        	<unknown>
    1398: 00 00        	<unknown>
    139a: 00 00        	<unknown>
    139c: 00 00        	<unknown>
    139e: 03 00 00 00  	lb	zero, 0(zero)
    13a2: 00 00        	<unknown>
    13a4: 68 05        	<unknown>
    13a6: 00 80        	<unknown>
    13a8: 00 00        	<unknown>
    13aa: 00 00        	<unknown>
    13ac: 00 00        	<unknown>
    13ae: 03 00 00 00  	lb	zero, 0(zero)
    13b2: 00 00        	<unknown>
    13b4: 70 05        	<unknown>
    13b6: 00 80        	<unknown>
    13b8: 00 00        	<unknown>
    13ba: 00 00        	<unknown>
    13bc: 00 00        	<unknown>
    13be: 03 00 00 00  	lb	zero, 0(zero)
    13c2: 00 00        	<unknown>
    13c4: 88 05        	<unknown>
    13c6: 00 80        	<unknown>
    13c8: 00 00        	<unknown>
    13ca: 00 00        	<unknown>
    13cc: 00 00        	<unknown>
    13ce: 03 00 00 00  	lb	zero, 0(zero)
    13d2: 00 00        	<unknown>
    13d4: 88 05        	<unknown>
    13d6: 00 80        	<unknown>
    13d8: 00 00        	<unknown>
    13da: 00 00        	<unknown>
    13dc: 00 00        	<unknown>
    13de: 03 00 00 00  	lb	zero, 0(zero)
    13e2: 00 00        	<unknown>
    13e4: 88 05        	<unknown>
    13e6: 00 80        	<unknown>
    13e8: 00 00        	<unknown>
    13ea: 00 00        	<unknown>
    13ec: 00 00        	<unknown>
    13ee: 03 00 00 00  	lb	zero, 0(zero)
    13f2: 00 00        	<unknown>
    13f4: 88 05        	<unknown>
    13f6: 00 80        	<unknown>
    13f8: 00 00        	<unknown>
    13fa: 00 00        	<unknown>
    13fc: 00 00        	<unknown>
    13fe: 03 00 00 00  	lb	zero, 0(zero)
    1402: 00 00        	<unknown>
    1404: 88 05        	<unknown>
    1406: 00 80        	<unknown>
    1408: 00 00        	<unknown>
    140a: 00 00        	<unknown>
    140c: 00 00        	<unknown>
    140e: 03 00 00 00  	lb	zero, 0(zero)
    1412: 00 00        	<unknown>
    1414: 88 05        	<unknown>
    1416: 00 80        	<unknown>
    1418: 00 00        	<unknown>
    141a: 00 00        	<unknown>
    141c: 00 00        	<unknown>
    141e: 03 00 00 00  	lb	zero, 0(zero)
    1422: 00 00        	<unknown>
    1424: 94 05        	<unknown>
    1426: 00 80        	<unknown>
    1428: 00 00        	<unknown>
    142a: 00 00        	<unknown>
    142c: 00 00        	<unknown>
    142e: 03 00 00 00  	lb	zero, 0(zero)
    1432: 00 00        	<unknown>
    1434: 94 05        	<unknown>
    1436: 00 80        	<unknown>
    1438: 00 00        	<unknown>
    143a: 00 00        	<unknown>
    143c: 00 00        	<unknown>
    143e: 03 00 00 00  	lb	zero, 0(zero)
    1442: 00 00        	<unknown>
    1444: 94 05        	<unknown>
    1446: 00 80        	<unknown>
    1448: 00 00        	<unknown>
    144a: 00 00        	<unknown>
    144c: 00 00        	<unknown>
    144e: 03 00 00 00  	lb	zero, 0(zero)
    1452: 00 00        	<unknown>
    1454: 94 05        	<unknown>
    1456: 00 80        	<unknown>
    1458: 00 00        	<unknown>
    145a: 00 00        	<unknown>
    145c: 00 00        	<unknown>
    145e: 03 00 00 00  	lb	zero, 0(zero)
    1462: 00 00        	<unknown>
    1464: 94 05        	<unknown>
    1466: 00 80        	<unknown>
    1468: 00 00        	<unknown>
    146a: 00 00        	<unknown>
    146c: 00 00        	<unknown>
    146e: 03 00 00 00  	lb	zero, 0(zero)
    1472: 00 00        	<unknown>
    1474: 94 05        	<unknown>
    1476: 00 80        	<unknown>
    1478: 00 00        	<unknown>
    147a: 00 00        	<unknown>
    147c: 00 00        	<unknown>
    147e: 03 00 00 00  	lb	zero, 0(zero)
    1482: 00 00        	<unknown>
    1484: a4 05        	<unknown>
    1486: 00 80        	<unknown>
    1488: 00 00        	<unknown>
    148a: 00 00        	<unknown>
    148c: 00 00        	<unknown>
    148e: 03 00 00 00  	lb	zero, 0(zero)
    1492: 00 00        	<unknown>
    1494: a8 05        	<unknown>
    1496: 00 80        	<unknown>
    1498: 00 00        	<unknown>
    149a: 00 00        	<unknown>
    149c: 00 00        	<unknown>
    149e: 03 00 00 00  	lb	zero, 0(zero)
    14a2: 00 00        	<unknown>
    14a4: a8 05        	<unknown>
    14a6: 00 80        	<unknown>
    14a8: 00 00        	<unknown>
    14aa: 00 00        	<unknown>
    14ac: 00 00        	<unknown>
    14ae: 03 00 00 00  	lb	zero, 0(zero)
    14b2: 00 00        	<unknown>
    14b4: 60 00        	<unknown>
		...
    14be: 0b 00 00 00  	p.lb	zero, 0(zero!)
    14c2: 00 00        	<unknown>
    14c4: 6c 00        	<unknown>
		...
    14ce: 0e 00        	<unknown>
    14d0: 00 00        	<unknown>
    14d2: 00 00        	<unknown>
    14d4: 2c 00        	<unknown>
		...
    14de: 10 00        	<unknown>
    14e0: 00 00        	<unknown>
    14e2: 00 00        	<unknown>
    14e4: 0c 00        	<unknown>
		...
    14ee: 14 00        	<unknown>
		...
    14fc: 00 00        	<unknown>
    14fe: 0f 00 00 00  	fence	unknown, unknown
    1502: 00 00        	<unknown>
    1504: a7 01 00 00  	fsb	ft0, 3(zero)
    1508: 00 00        	<unknown>
    150a: 00 00        	<unknown>
    150c: 00 00        	<unknown>
    150e: 0f 00 00 00  	fence	unknown, unknown
    1512: 00 00        	<unknown>
    1514: 8b 00 00 00  	p.lb	ra, 0(zero!)
    1518: 00 00        	<unknown>
    151a: 00 00        	<unknown>
    151c: 00 00        	<unknown>
    151e: 0f 00 00 00  	fence	unknown, unknown
    1522: 00 00        	<unknown>
    1524: 3a 03        	<unknown>
		...
    152e: 0f 00 00 00  	fence	unknown, unknown
    1532: 00 00        	<unknown>
    1534: 10 02        	<unknown>
		...
    153e: 0f 00 00 00  	fence	unknown, unknown
    1542: 00 00        	<unknown>
    1544: 8a 02        	<unknown>
		...
    154e: 0f 00 00 00  	fence	unknown, unknown
    1552: 00 00        	<unknown>
    1554: fa 00        	<unknown>
		...
    155e: 0f 00 00 00  	fence	unknown, unknown
    1562: 00 00        	<unknown>
    1564: 07 01 00 00  	flb	ft2, 0(zero)
    1568: 00 00        	<unknown>
    156a: 00 00        	<unknown>
    156c: 00 00        	<unknown>
    156e: 0f 00 00 00  	fence	unknown, unknown
    1572: 00 00        	<unknown>
    1574: 09 01        	<unknown>
		...
    157e: 0f 00 00 00  	fence	unknown, unknown
    1582: 00 00        	<unknown>
    1584: 1c 02        	<unknown>
		...
    158e: 0f 00 00 00  	fence	unknown, unknown
    1592: 00 00        	<unknown>
    1594: 21 02        	<unknown>
		...
    159e: 0f 00 00 00  	fence	unknown, unknown
    15a2: 00 00        	<unknown>
    15a4: 2f 02 00 00  	<unknown>
    15a8: 00 00        	<unknown>
    15aa: 00 00        	<unknown>
    15ac: 00 00        	<unknown>
    15ae: 0f 00 00 00  	fence	unknown, unknown
    15b2: 00 00        	<unknown>
    15b4: 3d 02        	<unknown>
		...
    15be: 0f 00 00 00  	fence	unknown, unknown
    15c2: 00 00        	<unknown>
    15c4: 47 03 00 00  	fmsub.s	t1, zero, zero, zero, rne
    15c8: 00 00        	<unknown>
    15ca: 00 00        	<unknown>
    15cc: 00 00        	<unknown>
    15ce: 0f 00 00 00  	fence	unknown, unknown
    15d2: 00 00        	<unknown>
    15d4: 12 01        	<unknown>
		...
    15de: 0f 00 00 00  	fence	unknown, unknown
    15e2: 00 00        	<unknown>
    15e4: bd 02        	<unknown>
		...
    15ee: 0f 00 00 00  	fence	unknown, unknown
    15f2: 00 00        	<unknown>
    15f4: 45 02        	<unknown>
		...
    15fe: 0f 00 00 00  	fence	unknown, unknown
    1602: 00 00        	<unknown>
    1604: 19 03        	<unknown>
		...
    160e: 0f 00 00 00  	fence	unknown, unknown
    1612: 00 00        	<unknown>
    1614: 55 02        	<unknown>
		...
    161e: 0f 00 00 00  	fence	unknown, unknown
    1622: 00 00        	<unknown>
    1624: 5a 02        	<unknown>
		...
    162e: 0f 00 00 00  	fence	unknown, unknown
    1632: 00 00        	<unknown>
    1634: 5f 02 00 00  	<unknown>
    1638: 00 00        	<unknown>
    163a: 00 00        	<unknown>
    163c: 00 00        	<unknown>
    163e: 0f 00 00 00  	fence	unknown, unknown
    1642: 00 00        	<unknown>
    1644: 69 02        	<unknown>
		...
    164e: 0f 00 00 00  	fence	unknown, unknown
    1652: 00 00        	<unknown>
    1654: a9 02        	<unknown>
		...
    165e: 0f 00 00 00  	fence	unknown, unknown
    1662: 00 00        	<unknown>
    1664: de 04        	<unknown>
		...
    166e: 0f 00 00 00  	fence	unknown, unknown
    1672: 00 00        	<unknown>
    1674: 03 01 00 00  	lb	sp, 0(zero)
    1678: 00 00        	<unknown>
    167a: 00 00        	<unknown>
    167c: 00 00        	<unknown>
    167e: 0f 00 00 00  	fence	unknown, unknown
    1682: 00 00        	<unknown>
    1684: 77 02 00 00  	<unknown>
    1688: 00 00        	<unknown>
    168a: 00 00        	<unknown>
    168c: 00 00        	<unknown>
    168e: 0f 00 00 00  	fence	unknown, unknown
    1692: 00 00        	<unknown>
    1694: 85 02        	<unknown>
		...
    169e: 0f 00 00 00  	fence	unknown, unknown
    16a2: 00 00        	<unknown>
    16a4: 8f 02 00 00  	<unknown>
    16a8: 00 00        	<unknown>
    16aa: 00 00        	<unknown>
    16ac: 00 00        	<unknown>
    16ae: 0f 00 00 00  	fence	unknown, unknown
    16b2: 00 00        	<unknown>
    16b4: 9a 02        	<unknown>
		...
    16be: 0f 00 00 00  	fence	unknown, unknown
    16c2: 00 00        	<unknown>
    16c4: a4 02        	<unknown>
		...
    16ce: 0f 00 00 00  	fence	unknown, unknown
    16d2: 00 00        	<unknown>
    16d4: ad 02        	<unknown>
		...
    16de: 0f 00 00 00  	fence	unknown, unknown
    16e2: 00 00        	<unknown>
    16e4: b4 02        	<unknown>
		...
    16ee: 0f 00 00 00  	fence	unknown, unknown
    16f2: 00 00        	<unknown>
    16f4: c2 02        	<unknown>
		...
    16fe: 0f 00 00 00  	fence	unknown, unknown
    1702: 00 00        	<unknown>
    1704: c4 02        	<unknown>
		...
    170e: 0f 00 00 00  	fence	unknown, unknown
    1712: 00 00        	<unknown>
    1714: cc 02        	<unknown>
		...
    171e: 0f 00 00 00  	fence	unknown, unknown
    1722: 00 00        	<unknown>
    1724: d8 02        	<unknown>
		...
    172e: 0f 00 00 00  	fence	unknown, unknown
    1732: 00 00        	<unknown>
    1734: e4 02        	<unknown>
		...
    173e: 0f 00 00 00  	fence	unknown, unknown
    1742: 00 00        	<unknown>
    1744: f4 02        	<unknown>
		...
    174e: 0f 00 00 00  	fence	unknown, unknown
    1752: 00 00        	<unknown>
    1754: 06 03        	<unknown>
		...
    175e: 0f 00 00 00  	fence	unknown, unknown
    1762: 00 00        	<unknown>
    1764: 11 03        	<unknown>
		...
    176e: 0f 00 00 00  	fence	unknown, unknown
    1772: 00 00        	<unknown>
    1774: 1f 03 00 00  	<unknown>
    1778: 00 00        	<unknown>
    177a: 00 00        	<unknown>
    177c: 00 00        	<unknown>
    177e: 0f 00 00 00  	fence	unknown, unknown
    1782: 00 00        	<unknown>
    1784: 2b 03 00 00  	p.sb	zero, 6(zero!)
    1788: 00 00        	<unknown>
    178a: 00 00        	<unknown>
    178c: 00 00        	<unknown>
    178e: 0f 00 00 00  	fence	unknown, unknown
    1792: 00 00        	<unknown>
    1794: 36 03        	<unknown>
		...
    179e: 0f 00 00 00  	fence	unknown, unknown
    17a2: 00 00        	<unknown>
    17a4: 43 03 00 00  	fmadd.s	t1, zero, zero, zero, rne
    17a8: 00 00        	<unknown>
    17aa: 00 00        	<unknown>
    17ac: 00 00        	<unknown>
    17ae: 0f 00 00 00  	fence	unknown, unknown
    17b2: 00 00        	<unknown>
    17b4: 5a 03        	<unknown>
		...
    17be: 0f 00 00 00  	fence	unknown, unknown
    17c2: 00 00        	<unknown>
    17c4: 52 03        	<unknown>
		...
    17ce: 0f 00 00 00  	fence	unknown, unknown
    17d2: 00 00        	<unknown>
    17d4: 5f 03 00 00  	<unknown>
    17d8: 00 00        	<unknown>
    17da: 00 00        	<unknown>
    17dc: 00 00        	<unknown>
    17de: 0f 00 00 00  	fence	unknown, unknown
    17e2: 00 00        	<unknown>
    17e4: 40 00        	<unknown>
		...
    17ee: 11 00        	<unknown>
    17f0: 93 00 00 00  	li	ra, 0
		...
    17fc: 04 00        	<unknown>
    17fe: f1 ff        	<unknown>
    1800: 00 00        	<unknown>
    1802: 00 00        	<unknown>
    1804: a8 05        	<unknown>
    1806: 00 80        	<unknown>
    1808: 00 00        	<unknown>
    180a: 00 00        	<unknown>
    180c: 00 00        	<unknown>
    180e: 03 00 00 00  	lb	zero, 0(zero)
    1812: 00 00        	<unknown>
    1814: a8 05        	<unknown>
    1816: 00 80        	<unknown>
    1818: 00 00        	<unknown>
    181a: 00 00        	<unknown>
    181c: 00 00        	<unknown>
    181e: 03 00 00 00  	lb	zero, 0(zero)
    1822: 00 00        	<unknown>
    1824: a8 05        	<unknown>
    1826: 00 80        	<unknown>
    1828: 00 00        	<unknown>
    182a: 00 00        	<unknown>
    182c: 00 00        	<unknown>
    182e: 03 00 00 00  	lb	zero, 0(zero)
    1832: 00 00        	<unknown>
    1834: ac 05        	<unknown>
    1836: 00 80        	<unknown>
    1838: 00 00        	<unknown>
    183a: 00 00        	<unknown>
    183c: 00 00        	<unknown>
    183e: 03 00 00 00  	lb	zero, 0(zero)
    1842: 00 00        	<unknown>
    1844: b0 05        	<unknown>
    1846: 00 80        	<unknown>
    1848: 00 00        	<unknown>
    184a: 00 00        	<unknown>
    184c: 00 00        	<unknown>
    184e: 03 00 00 00  	lb	zero, 0(zero)
    1852: 00 00        	<unknown>
    1854: d4 05        	<unknown>
    1856: 00 80        	<unknown>
    1858: 00 00        	<unknown>
    185a: 00 00        	<unknown>
    185c: 00 00        	<unknown>
    185e: 03 00 9c 00  	lb	zero, 9(s8)
    1862: 00 00        	<unknown>
    1864: 60 0d        	<unknown>
    1866: 00 80        	<unknown>
    1868: 10 00        	<unknown>
    186a: 00 00        	<unknown>
    186c: 02 00        	<unknown>
    186e: 03 00 00 00  	lb	zero, 0(zero)
    1872: 00 00        	<unknown>
    1874: d8 05        	<unknown>
    1876: 00 80        	<unknown>
    1878: 00 00        	<unknown>
    187a: 00 00        	<unknown>
    187c: 00 00        	<unknown>
    187e: 03 00 a6 00  	lb	zero, 10(a2)
    1882: 00 00        	<unknown>
    1884: 04 06        	<unknown>
    1886: 00 80        	<unknown>
    1888: 5c 07        	<unknown>
    188a: 00 00        	<unknown>
    188c: 02 00        	<unknown>
    188e: 03 00 00 00  	lb	zero, 0(zero)
    1892: 00 00        	<unknown>
    1894: f8 05        	<unknown>
    1896: 00 80        	<unknown>
    1898: 00 00        	<unknown>
    189a: 00 00        	<unknown>
    189c: 00 00        	<unknown>
    189e: 03 00 00 00  	lb	zero, 0(zero)
    18a2: 00 00        	<unknown>
    18a4: f8 05        	<unknown>
    18a6: 00 80        	<unknown>
    18a8: 00 00        	<unknown>
    18aa: 00 00        	<unknown>
    18ac: 00 00        	<unknown>
    18ae: 03 00 00 00  	lb	zero, 0(zero)
    18b2: 00 00        	<unknown>
    18b4: 04 06        	<unknown>
    18b6: 00 80        	<unknown>
    18b8: 00 00        	<unknown>
    18ba: 00 00        	<unknown>
    18bc: 00 00        	<unknown>
    18be: 03 00 00 00  	lb	zero, 0(zero)
    18c2: 00 00        	<unknown>
    18c4: 04 06        	<unknown>
    18c6: 00 80        	<unknown>
    18c8: 00 00        	<unknown>
    18ca: 00 00        	<unknown>
    18cc: 00 00        	<unknown>
    18ce: 03 00 00 00  	lb	zero, 0(zero)
    18d2: 00 00        	<unknown>
    18d4: 04 06        	<unknown>
    18d6: 00 80        	<unknown>
    18d8: 00 00        	<unknown>
    18da: 00 00        	<unknown>
    18dc: 00 00        	<unknown>
    18de: 03 00 00 00  	lb	zero, 0(zero)
    18e2: 00 00        	<unknown>
    18e4: 04 06        	<unknown>
    18e6: 00 80        	<unknown>
    18e8: 00 00        	<unknown>
    18ea: 00 00        	<unknown>
    18ec: 00 00        	<unknown>
    18ee: 03 00 00 00  	lb	zero, 0(zero)
    18f2: 00 00        	<unknown>
    18f4: 04 06        	<unknown>
    18f6: 00 80        	<unknown>
    18f8: 00 00        	<unknown>
    18fa: 00 00        	<unknown>
    18fc: 00 00        	<unknown>
    18fe: 03 00 00 00  	lb	zero, 0(zero)
    1902: 00 00        	<unknown>
    1904: 08 06        	<unknown>
    1906: 00 80        	<unknown>
    1908: 00 00        	<unknown>
    190a: 00 00        	<unknown>
    190c: 00 00        	<unknown>
    190e: 03 00 00 00  	lb	zero, 0(zero)
    1912: 00 00        	<unknown>
    1914: 3c 06        	<unknown>
    1916: 00 80        	<unknown>
    1918: 00 00        	<unknown>
    191a: 00 00        	<unknown>
    191c: 00 00        	<unknown>
    191e: 03 00 00 00  	lb	zero, 0(zero)
    1922: 00 00        	<unknown>
    1924: 4c 06        	<unknown>
    1926: 00 80        	<unknown>
    1928: 00 00        	<unknown>
    192a: 00 00        	<unknown>
    192c: 00 00        	<unknown>
    192e: 03 00 00 00  	lb	zero, 0(zero)
    1932: 00 00        	<unknown>
    1934: 50 06        	<unknown>
    1936: 00 80        	<unknown>
    1938: 00 00        	<unknown>
    193a: 00 00        	<unknown>
    193c: 00 00        	<unknown>
    193e: 03 00 b1 00  	lb	zero, 11(sp)
    1942: 00 00        	<unknown>
    1944: bc 0e        	<unknown>
    1946: 00 80        	<unknown>
    1948: 04 00        	<unknown>
    194a: 00 00        	<unknown>
    194c: 02 00        	<unknown>
    194e: 03 00 00 00  	lb	zero, 0(zero)
    1952: 00 00        	<unknown>
    1954: 88 06        	<unknown>
    1956: 00 80        	<unknown>
    1958: 00 00        	<unknown>
    195a: 00 00        	<unknown>
    195c: 00 00        	<unknown>
    195e: 03 00 00 00  	lb	zero, 0(zero)
    1962: 00 00        	<unknown>
    1964: 8c 06        	<unknown>
    1966: 00 80        	<unknown>
    1968: 00 00        	<unknown>
    196a: 00 00        	<unknown>
    196c: 00 00        	<unknown>
    196e: 03 00 00 00  	lb	zero, 0(zero)
    1972: 00 00        	<unknown>
    1974: 90 06        	<unknown>
    1976: 00 80        	<unknown>
    1978: 00 00        	<unknown>
    197a: 00 00        	<unknown>
    197c: 00 00        	<unknown>
    197e: 03 00 00 00  	lb	zero, 0(zero)
    1982: 00 00        	<unknown>
    1984: 98 06        	<unknown>
    1986: 00 80        	<unknown>
    1988: 00 00        	<unknown>
    198a: 00 00        	<unknown>
    198c: 00 00        	<unknown>
    198e: 03 00 00 00  	lb	zero, 0(zero)
    1992: 00 00        	<unknown>
    1994: 9c 06        	<unknown>
    1996: 00 80        	<unknown>
    1998: 00 00        	<unknown>
    199a: 00 00        	<unknown>
    199c: 00 00        	<unknown>
    199e: 03 00 00 00  	lb	zero, 0(zero)
    19a2: 00 00        	<unknown>
    19a4: ac 06        	<unknown>
    19a6: 00 80        	<unknown>
    19a8: 00 00        	<unknown>
    19aa: 00 00        	<unknown>
    19ac: 00 00        	<unknown>
    19ae: 03 00 00 00  	lb	zero, 0(zero)
    19b2: 00 00        	<unknown>
    19b4: ac 06        	<unknown>
    19b6: 00 80        	<unknown>
    19b8: 00 00        	<unknown>
    19ba: 00 00        	<unknown>
    19bc: 00 00        	<unknown>
    19be: 03 00 00 00  	lb	zero, 0(zero)
    19c2: 00 00        	<unknown>
    19c4: b0 06        	<unknown>
    19c6: 00 80        	<unknown>
    19c8: 00 00        	<unknown>
    19ca: 00 00        	<unknown>
    19cc: 00 00        	<unknown>
    19ce: 03 00 00 00  	lb	zero, 0(zero)
    19d2: 00 00        	<unknown>
    19d4: b8 06        	<unknown>
    19d6: 00 80        	<unknown>
    19d8: 00 00        	<unknown>
    19da: 00 00        	<unknown>
    19dc: 00 00        	<unknown>
    19de: 03 00 00 00  	lb	zero, 0(zero)
    19e2: 00 00        	<unknown>
    19e4: bc 06        	<unknown>
    19e6: 00 80        	<unknown>
    19e8: 00 00        	<unknown>
    19ea: 00 00        	<unknown>
    19ec: 00 00        	<unknown>
    19ee: 03 00 00 00  	lb	zero, 0(zero)
    19f2: 00 00        	<unknown>
    19f4: c4 06        	<unknown>
    19f6: 00 80        	<unknown>
    19f8: 00 00        	<unknown>
    19fa: 00 00        	<unknown>
    19fc: 00 00        	<unknown>
    19fe: 03 00 00 00  	lb	zero, 0(zero)
    1a02: 00 00        	<unknown>
    1a04: d4 06        	<unknown>
    1a06: 00 80        	<unknown>
    1a08: 00 00        	<unknown>
    1a0a: 00 00        	<unknown>
    1a0c: 00 00        	<unknown>
    1a0e: 03 00 00 00  	lb	zero, 0(zero)
    1a12: 00 00        	<unknown>
    1a14: d8 06        	<unknown>
    1a16: 00 80        	<unknown>
    1a18: 00 00        	<unknown>
    1a1a: 00 00        	<unknown>
    1a1c: 00 00        	<unknown>
    1a1e: 03 00 00 00  	lb	zero, 0(zero)
    1a22: 00 00        	<unknown>
    1a24: dc 06        	<unknown>
    1a26: 00 80        	<unknown>
    1a28: 00 00        	<unknown>
    1a2a: 00 00        	<unknown>
    1a2c: 00 00        	<unknown>
    1a2e: 03 00 00 00  	lb	zero, 0(zero)
    1a32: 00 00        	<unknown>
    1a34: e4 06        	<unknown>
    1a36: 00 80        	<unknown>
    1a38: 00 00        	<unknown>
    1a3a: 00 00        	<unknown>
    1a3c: 00 00        	<unknown>
    1a3e: 03 00 00 00  	lb	zero, 0(zero)
    1a42: 00 00        	<unknown>
    1a44: 10 07        	<unknown>
    1a46: 00 80        	<unknown>
    1a48: 00 00        	<unknown>
    1a4a: 00 00        	<unknown>
    1a4c: 00 00        	<unknown>
    1a4e: 03 00 00 00  	lb	zero, 0(zero)
    1a52: 00 00        	<unknown>
    1a54: 10 07        	<unknown>
    1a56: 00 80        	<unknown>
    1a58: 00 00        	<unknown>
    1a5a: 00 00        	<unknown>
    1a5c: 00 00        	<unknown>
    1a5e: 03 00 00 00  	lb	zero, 0(zero)
    1a62: 00 00        	<unknown>
    1a64: 18 07        	<unknown>
    1a66: 00 80        	<unknown>
    1a68: 00 00        	<unknown>
    1a6a: 00 00        	<unknown>
    1a6c: 00 00        	<unknown>
    1a6e: 03 00 00 00  	lb	zero, 0(zero)
    1a72: 00 00        	<unknown>
    1a74: 18 07        	<unknown>
    1a76: 00 80        	<unknown>
    1a78: 00 00        	<unknown>
    1a7a: 00 00        	<unknown>
    1a7c: 00 00        	<unknown>
    1a7e: 03 00 00 00  	lb	zero, 0(zero)
    1a82: 00 00        	<unknown>
    1a84: 20 07        	<unknown>
    1a86: 00 80        	<unknown>
    1a88: 00 00        	<unknown>
    1a8a: 00 00        	<unknown>
    1a8c: 00 00        	<unknown>
    1a8e: 03 00 00 00  	lb	zero, 0(zero)
    1a92: 00 00        	<unknown>
    1a94: 24 07        	<unknown>
    1a96: 00 80        	<unknown>
    1a98: 00 00        	<unknown>
    1a9a: 00 00        	<unknown>
    1a9c: 00 00        	<unknown>
    1a9e: 03 00 00 00  	lb	zero, 0(zero)
    1aa2: 00 00        	<unknown>
    1aa4: 24 07        	<unknown>
    1aa6: 00 80        	<unknown>
    1aa8: 00 00        	<unknown>
    1aaa: 00 00        	<unknown>
    1aac: 00 00        	<unknown>
    1aae: 03 00 00 00  	lb	zero, 0(zero)
    1ab2: 00 00        	<unknown>
    1ab4: 28 07        	<unknown>
    1ab6: 00 80        	<unknown>
    1ab8: 00 00        	<unknown>
    1aba: 00 00        	<unknown>
    1abc: 00 00        	<unknown>
    1abe: 03 00 00 00  	lb	zero, 0(zero)
    1ac2: 00 00        	<unknown>
    1ac4: 2c 07        	<unknown>
    1ac6: 00 80        	<unknown>
    1ac8: 00 00        	<unknown>
    1aca: 00 00        	<unknown>
    1acc: 00 00        	<unknown>
    1ace: 03 00 00 00  	lb	zero, 0(zero)
    1ad2: 00 00        	<unknown>
    1ad4: 30 07        	<unknown>
    1ad6: 00 80        	<unknown>
    1ad8: 00 00        	<unknown>
    1ada: 00 00        	<unknown>
    1adc: 00 00        	<unknown>
    1ade: 03 00 00 00  	lb	zero, 0(zero)
    1ae2: 00 00        	<unknown>
    1ae4: 34 07        	<unknown>
    1ae6: 00 80        	<unknown>
    1ae8: 00 00        	<unknown>
    1aea: 00 00        	<unknown>
    1aec: 00 00        	<unknown>
    1aee: 03 00 00 00  	lb	zero, 0(zero)
    1af2: 00 00        	<unknown>
    1af4: 38 07        	<unknown>
    1af6: 00 80        	<unknown>
    1af8: 00 00        	<unknown>
    1afa: 00 00        	<unknown>
    1afc: 00 00        	<unknown>
    1afe: 03 00 00 00  	lb	zero, 0(zero)
    1b02: 00 00        	<unknown>
    1b04: 3c 07        	<unknown>
    1b06: 00 80        	<unknown>
    1b08: 00 00        	<unknown>
    1b0a: 00 00        	<unknown>
    1b0c: 00 00        	<unknown>
    1b0e: 03 00 00 00  	lb	zero, 0(zero)
    1b12: 00 00        	<unknown>
    1b14: 3c 07        	<unknown>
    1b16: 00 80        	<unknown>
    1b18: 00 00        	<unknown>
    1b1a: 00 00        	<unknown>
    1b1c: 00 00        	<unknown>
    1b1e: 03 00 00 00  	lb	zero, 0(zero)
    1b22: 00 00        	<unknown>
    1b24: 44 07        	<unknown>
    1b26: 00 80        	<unknown>
    1b28: 00 00        	<unknown>
    1b2a: 00 00        	<unknown>
    1b2c: 00 00        	<unknown>
    1b2e: 03 00 00 00  	lb	zero, 0(zero)
    1b32: 00 00        	<unknown>
    1b34: 44 07        	<unknown>
    1b36: 00 80        	<unknown>
    1b38: 00 00        	<unknown>
    1b3a: 00 00        	<unknown>
    1b3c: 00 00        	<unknown>
    1b3e: 03 00 00 00  	lb	zero, 0(zero)
    1b42: 00 00        	<unknown>
    1b44: 48 07        	<unknown>
    1b46: 00 80        	<unknown>
    1b48: 00 00        	<unknown>
    1b4a: 00 00        	<unknown>
    1b4c: 00 00        	<unknown>
    1b4e: 03 00 00 00  	lb	zero, 0(zero)
    1b52: 00 00        	<unknown>
    1b54: 48 07        	<unknown>
    1b56: 00 80        	<unknown>
    1b58: 00 00        	<unknown>
    1b5a: 00 00        	<unknown>
    1b5c: 00 00        	<unknown>
    1b5e: 03 00 00 00  	lb	zero, 0(zero)
    1b62: 00 00        	<unknown>
    1b64: 4c 07        	<unknown>
    1b66: 00 80        	<unknown>
    1b68: 00 00        	<unknown>
    1b6a: 00 00        	<unknown>
    1b6c: 00 00        	<unknown>
    1b6e: 03 00 00 00  	lb	zero, 0(zero)
    1b72: 00 00        	<unknown>
    1b74: 54 07        	<unknown>
    1b76: 00 80        	<unknown>
    1b78: 00 00        	<unknown>
    1b7a: 00 00        	<unknown>
    1b7c: 00 00        	<unknown>
    1b7e: 03 00 00 00  	lb	zero, 0(zero)
    1b82: 00 00        	<unknown>
    1b84: 58 07        	<unknown>
    1b86: 00 80        	<unknown>
    1b88: 00 00        	<unknown>
    1b8a: 00 00        	<unknown>
    1b8c: 00 00        	<unknown>
    1b8e: 03 00 00 00  	lb	zero, 0(zero)
    1b92: 00 00        	<unknown>
    1b94: 5c 07        	<unknown>
    1b96: 00 80        	<unknown>
    1b98: 00 00        	<unknown>
    1b9a: 00 00        	<unknown>
    1b9c: 00 00        	<unknown>
    1b9e: 03 00 00 00  	lb	zero, 0(zero)
    1ba2: 00 00        	<unknown>
    1ba4: 60 07        	<unknown>
    1ba6: 00 80        	<unknown>
    1ba8: 00 00        	<unknown>
    1baa: 00 00        	<unknown>
    1bac: 00 00        	<unknown>
    1bae: 03 00 00 00  	lb	zero, 0(zero)
    1bb2: 00 00        	<unknown>
    1bb4: 60 07        	<unknown>
    1bb6: 00 80        	<unknown>
    1bb8: 00 00        	<unknown>
    1bba: 00 00        	<unknown>
    1bbc: 00 00        	<unknown>
    1bbe: 03 00 00 00  	lb	zero, 0(zero)
    1bc2: 00 00        	<unknown>
    1bc4: 6c 07        	<unknown>
    1bc6: 00 80        	<unknown>
    1bc8: 00 00        	<unknown>
    1bca: 00 00        	<unknown>
    1bcc: 00 00        	<unknown>
    1bce: 03 00 00 00  	lb	zero, 0(zero)
    1bd2: 00 00        	<unknown>
    1bd4: 6c 07        	<unknown>
    1bd6: 00 80        	<unknown>
    1bd8: 00 00        	<unknown>
    1bda: 00 00        	<unknown>
    1bdc: 00 00        	<unknown>
    1bde: 03 00 00 00  	lb	zero, 0(zero)
    1be2: 00 00        	<unknown>
    1be4: 70 07        	<unknown>
    1be6: 00 80        	<unknown>
    1be8: 00 00        	<unknown>
    1bea: 00 00        	<unknown>
    1bec: 00 00        	<unknown>
    1bee: 03 00 00 00  	lb	zero, 0(zero)
    1bf2: 00 00        	<unknown>
    1bf4: 74 07        	<unknown>
    1bf6: 00 80        	<unknown>
    1bf8: 00 00        	<unknown>
    1bfa: 00 00        	<unknown>
    1bfc: 00 00        	<unknown>
    1bfe: 03 00 00 00  	lb	zero, 0(zero)
    1c02: 00 00        	<unknown>
    1c04: 74 07        	<unknown>
    1c06: 00 80        	<unknown>
    1c08: 00 00        	<unknown>
    1c0a: 00 00        	<unknown>
    1c0c: 00 00        	<unknown>
    1c0e: 03 00 00 00  	lb	zero, 0(zero)
    1c12: 00 00        	<unknown>
    1c14: 78 07        	<unknown>
    1c16: 00 80        	<unknown>
    1c18: 00 00        	<unknown>
    1c1a: 00 00        	<unknown>
    1c1c: 00 00        	<unknown>
    1c1e: 03 00 00 00  	lb	zero, 0(zero)
    1c22: 00 00        	<unknown>
    1c24: 7c 07        	<unknown>
    1c26: 00 80        	<unknown>
    1c28: 00 00        	<unknown>
    1c2a: 00 00        	<unknown>
    1c2c: 00 00        	<unknown>
    1c2e: 03 00 00 00  	lb	zero, 0(zero)
    1c32: 00 00        	<unknown>
    1c34: 80 07        	<unknown>
    1c36: 00 80        	<unknown>
    1c38: 00 00        	<unknown>
    1c3a: 00 00        	<unknown>
    1c3c: 00 00        	<unknown>
    1c3e: 03 00 00 00  	lb	zero, 0(zero)
    1c42: 00 00        	<unknown>
    1c44: 84 07        	<unknown>
    1c46: 00 80        	<unknown>
    1c48: 00 00        	<unknown>
    1c4a: 00 00        	<unknown>
    1c4c: 00 00        	<unknown>
    1c4e: 03 00 00 00  	lb	zero, 0(zero)
    1c52: 00 00        	<unknown>
    1c54: 88 07        	<unknown>
    1c56: 00 80        	<unknown>
    1c58: 00 00        	<unknown>
    1c5a: 00 00        	<unknown>
    1c5c: 00 00        	<unknown>
    1c5e: 03 00 00 00  	lb	zero, 0(zero)
    1c62: 00 00        	<unknown>
    1c64: 8c 07        	<unknown>
    1c66: 00 80        	<unknown>
    1c68: 00 00        	<unknown>
    1c6a: 00 00        	<unknown>
    1c6c: 00 00        	<unknown>
    1c6e: 03 00 00 00  	lb	zero, 0(zero)
    1c72: 00 00        	<unknown>
    1c74: 8c 07        	<unknown>
    1c76: 00 80        	<unknown>
    1c78: 00 00        	<unknown>
    1c7a: 00 00        	<unknown>
    1c7c: 00 00        	<unknown>
    1c7e: 03 00 00 00  	lb	zero, 0(zero)
    1c82: 00 00        	<unknown>
    1c84: 94 07        	<unknown>
    1c86: 00 80        	<unknown>
    1c88: 00 00        	<unknown>
    1c8a: 00 00        	<unknown>
    1c8c: 00 00        	<unknown>
    1c8e: 03 00 00 00  	lb	zero, 0(zero)
    1c92: 00 00        	<unknown>
    1c94: 94 07        	<unknown>
    1c96: 00 80        	<unknown>
    1c98: 00 00        	<unknown>
    1c9a: 00 00        	<unknown>
    1c9c: 00 00        	<unknown>
    1c9e: 03 00 00 00  	lb	zero, 0(zero)
    1ca2: 00 00        	<unknown>
    1ca4: 9c 07        	<unknown>
    1ca6: 00 80        	<unknown>
    1ca8: 00 00        	<unknown>
    1caa: 00 00        	<unknown>
    1cac: 00 00        	<unknown>
    1cae: 03 00 00 00  	lb	zero, 0(zero)
    1cb2: 00 00        	<unknown>
    1cb4: 9c 07        	<unknown>
    1cb6: 00 80        	<unknown>
    1cb8: 00 00        	<unknown>
    1cba: 00 00        	<unknown>
    1cbc: 00 00        	<unknown>
    1cbe: 03 00 00 00  	lb	zero, 0(zero)
    1cc2: 00 00        	<unknown>
    1cc4: a4 07        	<unknown>
    1cc6: 00 80        	<unknown>
    1cc8: 00 00        	<unknown>
    1cca: 00 00        	<unknown>
    1ccc: 00 00        	<unknown>
    1cce: 03 00 00 00  	lb	zero, 0(zero)
    1cd2: 00 00        	<unknown>
    1cd4: a4 07        	<unknown>
    1cd6: 00 80        	<unknown>
    1cd8: 00 00        	<unknown>
    1cda: 00 00        	<unknown>
    1cdc: 00 00        	<unknown>
    1cde: 03 00 00 00  	lb	zero, 0(zero)
    1ce2: 00 00        	<unknown>
    1ce4: ac 07        	<unknown>
    1ce6: 00 80        	<unknown>
    1ce8: 00 00        	<unknown>
    1cea: 00 00        	<unknown>
    1cec: 00 00        	<unknown>
    1cee: 03 00 00 00  	lb	zero, 0(zero)
    1cf2: 00 00        	<unknown>
    1cf4: b0 07        	<unknown>
    1cf6: 00 80        	<unknown>
    1cf8: 00 00        	<unknown>
    1cfa: 00 00        	<unknown>
    1cfc: 00 00        	<unknown>
    1cfe: 03 00 00 00  	lb	zero, 0(zero)
    1d02: 00 00        	<unknown>
    1d04: b0 07        	<unknown>
    1d06: 00 80        	<unknown>
    1d08: 00 00        	<unknown>
    1d0a: 00 00        	<unknown>
    1d0c: 00 00        	<unknown>
    1d0e: 03 00 00 00  	lb	zero, 0(zero)
    1d12: 00 00        	<unknown>
    1d14: cc 07        	<unknown>
    1d16: 00 80        	<unknown>
    1d18: 00 00        	<unknown>
    1d1a: 00 00        	<unknown>
    1d1c: 00 00        	<unknown>
    1d1e: 03 00 00 00  	lb	zero, 0(zero)
    1d22: 00 00        	<unknown>
    1d24: d0 07        	<unknown>
    1d26: 00 80        	<unknown>
    1d28: 00 00        	<unknown>
    1d2a: 00 00        	<unknown>
    1d2c: 00 00        	<unknown>
    1d2e: 03 00 00 00  	lb	zero, 0(zero)
    1d32: 00 00        	<unknown>
    1d34: dc 07        	<unknown>
    1d36: 00 80        	<unknown>
    1d38: 00 00        	<unknown>
    1d3a: 00 00        	<unknown>
    1d3c: 00 00        	<unknown>
    1d3e: 03 00 00 00  	lb	zero, 0(zero)
    1d42: 00 00        	<unknown>
    1d44: e4 07        	<unknown>
    1d46: 00 80        	<unknown>
    1d48: 00 00        	<unknown>
    1d4a: 00 00        	<unknown>
    1d4c: 00 00        	<unknown>
    1d4e: 03 00 00 00  	lb	zero, 0(zero)
    1d52: 00 00        	<unknown>
    1d54: e8 07        	<unknown>
    1d56: 00 80        	<unknown>
    1d58: 00 00        	<unknown>
    1d5a: 00 00        	<unknown>
    1d5c: 00 00        	<unknown>
    1d5e: 03 00 00 00  	lb	zero, 0(zero)
    1d62: 00 00        	<unknown>
    1d64: ec 07        	<unknown>
    1d66: 00 80        	<unknown>
    1d68: 00 00        	<unknown>
    1d6a: 00 00        	<unknown>
    1d6c: 00 00        	<unknown>
    1d6e: 03 00 00 00  	lb	zero, 0(zero)
    1d72: 00 00        	<unknown>
    1d74: f0 07        	<unknown>
    1d76: 00 80        	<unknown>
    1d78: 00 00        	<unknown>
    1d7a: 00 00        	<unknown>
    1d7c: 00 00        	<unknown>
    1d7e: 03 00 00 00  	lb	zero, 0(zero)
    1d82: 00 00        	<unknown>
    1d84: fc 07        	<unknown>
    1d86: 00 80        	<unknown>
    1d88: 00 00        	<unknown>
    1d8a: 00 00        	<unknown>
    1d8c: 00 00        	<unknown>
    1d8e: 03 00 00 00  	lb	zero, 0(zero)
    1d92: 00 00        	<unknown>
    1d94: 00 08        	<unknown>
    1d96: 00 80        	<unknown>
    1d98: 00 00        	<unknown>
    1d9a: 00 00        	<unknown>
    1d9c: 00 00        	<unknown>
    1d9e: 03 00 00 00  	lb	zero, 0(zero)
    1da2: 00 00        	<unknown>
    1da4: 04 08        	<unknown>
    1da6: 00 80        	<unknown>
    1da8: 00 00        	<unknown>
    1daa: 00 00        	<unknown>
    1dac: 00 00        	<unknown>
    1dae: 03 00 00 00  	lb	zero, 0(zero)
    1db2: 00 00        	<unknown>
    1db4: 10 08        	<unknown>
    1db6: 00 80        	<unknown>
    1db8: 00 00        	<unknown>
    1dba: 00 00        	<unknown>
    1dbc: 00 00        	<unknown>
    1dbe: 03 00 00 00  	lb	zero, 0(zero)
    1dc2: 00 00        	<unknown>
    1dc4: 18 08        	<unknown>
    1dc6: 00 80        	<unknown>
    1dc8: 00 00        	<unknown>
    1dca: 00 00        	<unknown>
    1dcc: 00 00        	<unknown>
    1dce: 03 00 00 00  	lb	zero, 0(zero)
    1dd2: 00 00        	<unknown>
    1dd4: 2c 08        	<unknown>
    1dd6: 00 80        	<unknown>
    1dd8: 00 00        	<unknown>
    1dda: 00 00        	<unknown>
    1ddc: 00 00        	<unknown>
    1dde: 03 00 00 00  	lb	zero, 0(zero)
    1de2: 00 00        	<unknown>
    1de4: 48 08        	<unknown>
    1de6: 00 80        	<unknown>
    1de8: 00 00        	<unknown>
    1dea: 00 00        	<unknown>
    1dec: 00 00        	<unknown>
    1dee: 03 00 00 00  	lb	zero, 0(zero)
    1df2: 00 00        	<unknown>
    1df4: 4c 08        	<unknown>
    1df6: 00 80        	<unknown>
    1df8: 00 00        	<unknown>
    1dfa: 00 00        	<unknown>
    1dfc: 00 00        	<unknown>
    1dfe: 03 00 00 00  	lb	zero, 0(zero)
    1e02: 00 00        	<unknown>
    1e04: 64 08        	<unknown>
    1e06: 00 80        	<unknown>
    1e08: 00 00        	<unknown>
    1e0a: 00 00        	<unknown>
    1e0c: 00 00        	<unknown>
    1e0e: 03 00 00 00  	lb	zero, 0(zero)
    1e12: 00 00        	<unknown>
    1e14: 68 08        	<unknown>
    1e16: 00 80        	<unknown>
    1e18: 00 00        	<unknown>
    1e1a: 00 00        	<unknown>
    1e1c: 00 00        	<unknown>
    1e1e: 03 00 00 00  	lb	zero, 0(zero)
    1e22: 00 00        	<unknown>
    1e24: 70 08        	<unknown>
    1e26: 00 80        	<unknown>
    1e28: 00 00        	<unknown>
    1e2a: 00 00        	<unknown>
    1e2c: 00 00        	<unknown>
    1e2e: 03 00 00 00  	lb	zero, 0(zero)
    1e32: 00 00        	<unknown>
    1e34: 7c 08        	<unknown>
    1e36: 00 80        	<unknown>
    1e38: 00 00        	<unknown>
    1e3a: 00 00        	<unknown>
    1e3c: 00 00        	<unknown>
    1e3e: 03 00 00 00  	lb	zero, 0(zero)
    1e42: 00 00        	<unknown>
    1e44: 80 08        	<unknown>
    1e46: 00 80        	<unknown>
    1e48: 00 00        	<unknown>
    1e4a: 00 00        	<unknown>
    1e4c: 00 00        	<unknown>
    1e4e: 03 00 00 00  	lb	zero, 0(zero)
    1e52: 00 00        	<unknown>
    1e54: 88 08        	<unknown>
    1e56: 00 80        	<unknown>
    1e58: 00 00        	<unknown>
    1e5a: 00 00        	<unknown>
    1e5c: 00 00        	<unknown>
    1e5e: 03 00 00 00  	lb	zero, 0(zero)
    1e62: 00 00        	<unknown>
    1e64: a4 08        	<unknown>
    1e66: 00 80        	<unknown>
    1e68: 00 00        	<unknown>
    1e6a: 00 00        	<unknown>
    1e6c: 00 00        	<unknown>
    1e6e: 03 00 00 00  	lb	zero, 0(zero)
    1e72: 00 00        	<unknown>
    1e74: a8 08        	<unknown>
    1e76: 00 80        	<unknown>
    1e78: 00 00        	<unknown>
    1e7a: 00 00        	<unknown>
    1e7c: 00 00        	<unknown>
    1e7e: 03 00 00 00  	lb	zero, 0(zero)
    1e82: 00 00        	<unknown>
    1e84: b4 08        	<unknown>
    1e86: 00 80        	<unknown>
    1e88: 00 00        	<unknown>
    1e8a: 00 00        	<unknown>
    1e8c: 00 00        	<unknown>
    1e8e: 03 00 00 00  	lb	zero, 0(zero)
    1e92: 00 00        	<unknown>
    1e94: d0 08        	<unknown>
    1e96: 00 80        	<unknown>
    1e98: 00 00        	<unknown>
    1e9a: 00 00        	<unknown>
    1e9c: 00 00        	<unknown>
    1e9e: 03 00 00 00  	lb	zero, 0(zero)
    1ea2: 00 00        	<unknown>
    1ea4: d4 08        	<unknown>
    1ea6: 00 80        	<unknown>
    1ea8: 00 00        	<unknown>
    1eaa: 00 00        	<unknown>
    1eac: 00 00        	<unknown>
    1eae: 03 00 00 00  	lb	zero, 0(zero)
    1eb2: 00 00        	<unknown>
    1eb4: d8 08        	<unknown>
    1eb6: 00 80        	<unknown>
    1eb8: 00 00        	<unknown>
    1eba: 00 00        	<unknown>
    1ebc: 00 00        	<unknown>
    1ebe: 03 00 00 00  	lb	zero, 0(zero)
    1ec2: 00 00        	<unknown>
    1ec4: e0 08        	<unknown>
    1ec6: 00 80        	<unknown>
    1ec8: 00 00        	<unknown>
    1eca: 00 00        	<unknown>
    1ecc: 00 00        	<unknown>
    1ece: 03 00 00 00  	lb	zero, 0(zero)
    1ed2: 00 00        	<unknown>
    1ed4: e4 08        	<unknown>
    1ed6: 00 80        	<unknown>
    1ed8: 00 00        	<unknown>
    1eda: 00 00        	<unknown>
    1edc: 00 00        	<unknown>
    1ede: 03 00 00 00  	lb	zero, 0(zero)
    1ee2: 00 00        	<unknown>
    1ee4: ec 08        	<unknown>
    1ee6: 00 80        	<unknown>
    1ee8: 00 00        	<unknown>
    1eea: 00 00        	<unknown>
    1eec: 00 00        	<unknown>
    1eee: 03 00 00 00  	lb	zero, 0(zero)
    1ef2: 00 00        	<unknown>
    1ef4: f0 08        	<unknown>
    1ef6: 00 80        	<unknown>
    1ef8: 00 00        	<unknown>
    1efa: 00 00        	<unknown>
    1efc: 00 00        	<unknown>
    1efe: 03 00 00 00  	lb	zero, 0(zero)
    1f02: 00 00        	<unknown>
    1f04: fc 08        	<unknown>
    1f06: 00 80        	<unknown>
    1f08: 00 00        	<unknown>
    1f0a: 00 00        	<unknown>
    1f0c: 00 00        	<unknown>
    1f0e: 03 00 00 00  	lb	zero, 0(zero)
    1f12: 00 00        	<unknown>
    1f14: 14 09        	<unknown>
    1f16: 00 80        	<unknown>
    1f18: 00 00        	<unknown>
    1f1a: 00 00        	<unknown>
    1f1c: 00 00        	<unknown>
    1f1e: 03 00 00 00  	lb	zero, 0(zero)
    1f22: 00 00        	<unknown>
    1f24: 18 09        	<unknown>
    1f26: 00 80        	<unknown>
    1f28: 00 00        	<unknown>
    1f2a: 00 00        	<unknown>
    1f2c: 00 00        	<unknown>
    1f2e: 03 00 00 00  	lb	zero, 0(zero)
    1f32: 00 00        	<unknown>
    1f34: 20 09        	<unknown>
    1f36: 00 80        	<unknown>
    1f38: 00 00        	<unknown>
    1f3a: 00 00        	<unknown>
    1f3c: 00 00        	<unknown>
    1f3e: 03 00 00 00  	lb	zero, 0(zero)
    1f42: 00 00        	<unknown>
    1f44: 24 09        	<unknown>
    1f46: 00 80        	<unknown>
    1f48: 00 00        	<unknown>
    1f4a: 00 00        	<unknown>
    1f4c: 00 00        	<unknown>
    1f4e: 03 00 00 00  	lb	zero, 0(zero)
    1f52: 00 00        	<unknown>
    1f54: 34 09        	<unknown>
    1f56: 00 80        	<unknown>
    1f58: 00 00        	<unknown>
    1f5a: 00 00        	<unknown>
    1f5c: 00 00        	<unknown>
    1f5e: 03 00 00 00  	lb	zero, 0(zero)
    1f62: 00 00        	<unknown>
    1f64: 40 09        	<unknown>
    1f66: 00 80        	<unknown>
    1f68: 00 00        	<unknown>
    1f6a: 00 00        	<unknown>
    1f6c: 00 00        	<unknown>
    1f6e: 03 00 00 00  	lb	zero, 0(zero)
    1f72: 00 00        	<unknown>
    1f74: 44 09        	<unknown>
    1f76: 00 80        	<unknown>
    1f78: 00 00        	<unknown>
    1f7a: 00 00        	<unknown>
    1f7c: 00 00        	<unknown>
    1f7e: 03 00 00 00  	lb	zero, 0(zero)
    1f82: 00 00        	<unknown>
    1f84: 48 09        	<unknown>
    1f86: 00 80        	<unknown>
    1f88: 00 00        	<unknown>
    1f8a: 00 00        	<unknown>
    1f8c: 00 00        	<unknown>
    1f8e: 03 00 00 00  	lb	zero, 0(zero)
    1f92: 00 00        	<unknown>
    1f94: 4c 09        	<unknown>
    1f96: 00 80        	<unknown>
    1f98: 00 00        	<unknown>
    1f9a: 00 00        	<unknown>
    1f9c: 00 00        	<unknown>
    1f9e: 03 00 00 00  	lb	zero, 0(zero)
    1fa2: 00 00        	<unknown>
    1fa4: 50 09        	<unknown>
    1fa6: 00 80        	<unknown>
    1fa8: 00 00        	<unknown>
    1faa: 00 00        	<unknown>
    1fac: 00 00        	<unknown>
    1fae: 03 00 00 00  	lb	zero, 0(zero)
    1fb2: 00 00        	<unknown>
    1fb4: 54 09        	<unknown>
    1fb6: 00 80        	<unknown>
    1fb8: 00 00        	<unknown>
    1fba: 00 00        	<unknown>
    1fbc: 00 00        	<unknown>
    1fbe: 03 00 00 00  	lb	zero, 0(zero)
    1fc2: 00 00        	<unknown>
    1fc4: 64 09        	<unknown>
    1fc6: 00 80        	<unknown>
    1fc8: 00 00        	<unknown>
    1fca: 00 00        	<unknown>
    1fcc: 00 00        	<unknown>
    1fce: 03 00 00 00  	lb	zero, 0(zero)
    1fd2: 00 00        	<unknown>
    1fd4: 68 09        	<unknown>
    1fd6: 00 80        	<unknown>
    1fd8: 00 00        	<unknown>
    1fda: 00 00        	<unknown>
    1fdc: 00 00        	<unknown>
    1fde: 03 00 00 00  	lb	zero, 0(zero)
    1fe2: 00 00        	<unknown>
    1fe4: 6c 09        	<unknown>
    1fe6: 00 80        	<unknown>
    1fe8: 00 00        	<unknown>
    1fea: 00 00        	<unknown>
    1fec: 00 00        	<unknown>
    1fee: 03 00 00 00  	lb	zero, 0(zero)
    1ff2: 00 00        	<unknown>
    1ff4: 70 09        	<unknown>
    1ff6: 00 80        	<unknown>
    1ff8: 00 00        	<unknown>
    1ffa: 00 00        	<unknown>
    1ffc: 00 00        	<unknown>
    1ffe: 03 00 00 00  	lb	zero, 0(zero)
    2002: 00 00        	<unknown>
    2004: 74 09        	<unknown>
    2006: 00 80        	<unknown>
    2008: 00 00        	<unknown>
    200a: 00 00        	<unknown>
    200c: 00 00        	<unknown>
    200e: 03 00 00 00  	lb	zero, 0(zero)
    2012: 00 00        	<unknown>
    2014: 78 09        	<unknown>
    2016: 00 80        	<unknown>
    2018: 00 00        	<unknown>
    201a: 00 00        	<unknown>
    201c: 00 00        	<unknown>
    201e: 03 00 00 00  	lb	zero, 0(zero)
    2022: 00 00        	<unknown>
    2024: 7c 09        	<unknown>
    2026: 00 80        	<unknown>
    2028: 00 00        	<unknown>
    202a: 00 00        	<unknown>
    202c: 00 00        	<unknown>
    202e: 03 00 00 00  	lb	zero, 0(zero)
    2032: 00 00        	<unknown>
    2034: 80 09        	<unknown>
    2036: 00 80        	<unknown>
    2038: 00 00        	<unknown>
    203a: 00 00        	<unknown>
    203c: 00 00        	<unknown>
    203e: 03 00 00 00  	lb	zero, 0(zero)
    2042: 00 00        	<unknown>
    2044: 88 09        	<unknown>
    2046: 00 80        	<unknown>
    2048: 00 00        	<unknown>
    204a: 00 00        	<unknown>
    204c: 00 00        	<unknown>
    204e: 03 00 00 00  	lb	zero, 0(zero)
    2052: 00 00        	<unknown>
    2054: 8c 09        	<unknown>
    2056: 00 80        	<unknown>
    2058: 00 00        	<unknown>
    205a: 00 00        	<unknown>
    205c: 00 00        	<unknown>
    205e: 03 00 00 00  	lb	zero, 0(zero)
    2062: 00 00        	<unknown>
    2064: 94 09        	<unknown>
    2066: 00 80        	<unknown>
    2068: 00 00        	<unknown>
    206a: 00 00        	<unknown>
    206c: 00 00        	<unknown>
    206e: 03 00 00 00  	lb	zero, 0(zero)
    2072: 00 00        	<unknown>
    2074: 9c 09        	<unknown>
    2076: 00 80        	<unknown>
    2078: 00 00        	<unknown>
    207a: 00 00        	<unknown>
    207c: 00 00        	<unknown>
    207e: 03 00 00 00  	lb	zero, 0(zero)
    2082: 00 00        	<unknown>
    2084: a0 09        	<unknown>
    2086: 00 80        	<unknown>
    2088: 00 00        	<unknown>
    208a: 00 00        	<unknown>
    208c: 00 00        	<unknown>
    208e: 03 00 00 00  	lb	zero, 0(zero)
    2092: 00 00        	<unknown>
    2094: a4 09        	<unknown>
    2096: 00 80        	<unknown>
    2098: 00 00        	<unknown>
    209a: 00 00        	<unknown>
    209c: 00 00        	<unknown>
    209e: 03 00 00 00  	lb	zero, 0(zero)
    20a2: 00 00        	<unknown>
    20a4: a8 09        	<unknown>
    20a6: 00 80        	<unknown>
    20a8: 00 00        	<unknown>
    20aa: 00 00        	<unknown>
    20ac: 00 00        	<unknown>
    20ae: 03 00 00 00  	lb	zero, 0(zero)
    20b2: 00 00        	<unknown>
    20b4: ac 09        	<unknown>
    20b6: 00 80        	<unknown>
    20b8: 00 00        	<unknown>
    20ba: 00 00        	<unknown>
    20bc: 00 00        	<unknown>
    20be: 03 00 00 00  	lb	zero, 0(zero)
    20c2: 00 00        	<unknown>
    20c4: b0 09        	<unknown>
    20c6: 00 80        	<unknown>
    20c8: 00 00        	<unknown>
    20ca: 00 00        	<unknown>
    20cc: 00 00        	<unknown>
    20ce: 03 00 00 00  	lb	zero, 0(zero)
    20d2: 00 00        	<unknown>
    20d4: b4 09        	<unknown>
    20d6: 00 80        	<unknown>
    20d8: 00 00        	<unknown>
    20da: 00 00        	<unknown>
    20dc: 00 00        	<unknown>
    20de: 03 00 00 00  	lb	zero, 0(zero)
    20e2: 00 00        	<unknown>
    20e4: b8 09        	<unknown>
    20e6: 00 80        	<unknown>
    20e8: 00 00        	<unknown>
    20ea: 00 00        	<unknown>
    20ec: 00 00        	<unknown>
    20ee: 03 00 00 00  	lb	zero, 0(zero)
    20f2: 00 00        	<unknown>
    20f4: c0 09        	<unknown>
    20f6: 00 80        	<unknown>
    20f8: 00 00        	<unknown>
    20fa: 00 00        	<unknown>
    20fc: 00 00        	<unknown>
    20fe: 03 00 00 00  	lb	zero, 0(zero)
    2102: 00 00        	<unknown>
    2104: c4 09        	<unknown>
    2106: 00 80        	<unknown>
    2108: 00 00        	<unknown>
    210a: 00 00        	<unknown>
    210c: 00 00        	<unknown>
    210e: 03 00 00 00  	lb	zero, 0(zero)
    2112: 00 00        	<unknown>
    2114: d8 09        	<unknown>
    2116: 00 80        	<unknown>
    2118: 00 00        	<unknown>
    211a: 00 00        	<unknown>
    211c: 00 00        	<unknown>
    211e: 03 00 00 00  	lb	zero, 0(zero)
    2122: 00 00        	<unknown>
    2124: d8 09        	<unknown>
    2126: 00 80        	<unknown>
    2128: 00 00        	<unknown>
    212a: 00 00        	<unknown>
    212c: 00 00        	<unknown>
    212e: 03 00 00 00  	lb	zero, 0(zero)
    2132: 00 00        	<unknown>
    2134: e0 09        	<unknown>
    2136: 00 80        	<unknown>
    2138: 00 00        	<unknown>
    213a: 00 00        	<unknown>
    213c: 00 00        	<unknown>
    213e: 03 00 00 00  	lb	zero, 0(zero)
    2142: 00 00        	<unknown>
    2144: ec 09        	<unknown>
    2146: 00 80        	<unknown>
    2148: 00 00        	<unknown>
    214a: 00 00        	<unknown>
    214c: 00 00        	<unknown>
    214e: 03 00 00 00  	lb	zero, 0(zero)
    2152: 00 00        	<unknown>
    2154: f4 09        	<unknown>
    2156: 00 80        	<unknown>
    2158: 00 00        	<unknown>
    215a: 00 00        	<unknown>
    215c: 00 00        	<unknown>
    215e: 03 00 00 00  	lb	zero, 0(zero)
    2162: 00 00        	<unknown>
    2164: f4 09        	<unknown>
    2166: 00 80        	<unknown>
    2168: 00 00        	<unknown>
    216a: 00 00        	<unknown>
    216c: 00 00        	<unknown>
    216e: 03 00 00 00  	lb	zero, 0(zero)
    2172: 00 00        	<unknown>
    2174: fc 09        	<unknown>
    2176: 00 80        	<unknown>
    2178: 00 00        	<unknown>
    217a: 00 00        	<unknown>
    217c: 00 00        	<unknown>
    217e: 03 00 00 00  	lb	zero, 0(zero)
    2182: 00 00        	<unknown>
    2184: 00 0a        	<unknown>
    2186: 00 80        	<unknown>
    2188: 00 00        	<unknown>
    218a: 00 00        	<unknown>
    218c: 00 00        	<unknown>
    218e: 03 00 00 00  	lb	zero, 0(zero)
    2192: 00 00        	<unknown>
    2194: 04 0a        	<unknown>
    2196: 00 80        	<unknown>
    2198: 00 00        	<unknown>
    219a: 00 00        	<unknown>
    219c: 00 00        	<unknown>
    219e: 03 00 00 00  	lb	zero, 0(zero)
    21a2: 00 00        	<unknown>
    21a4: 08 0a        	<unknown>
    21a6: 00 80        	<unknown>
    21a8: 00 00        	<unknown>
    21aa: 00 00        	<unknown>
    21ac: 00 00        	<unknown>
    21ae: 03 00 00 00  	lb	zero, 0(zero)
    21b2: 00 00        	<unknown>
    21b4: 10 0a        	<unknown>
    21b6: 00 80        	<unknown>
    21b8: 00 00        	<unknown>
    21ba: 00 00        	<unknown>
    21bc: 00 00        	<unknown>
    21be: 03 00 00 00  	lb	zero, 0(zero)
    21c2: 00 00        	<unknown>
    21c4: 18 0a        	<unknown>
    21c6: 00 80        	<unknown>
    21c8: 00 00        	<unknown>
    21ca: 00 00        	<unknown>
    21cc: 00 00        	<unknown>
    21ce: 03 00 00 00  	lb	zero, 0(zero)
    21d2: 00 00        	<unknown>
    21d4: 1c 0a        	<unknown>
    21d6: 00 80        	<unknown>
    21d8: 00 00        	<unknown>
    21da: 00 00        	<unknown>
    21dc: 00 00        	<unknown>
    21de: 03 00 00 00  	lb	zero, 0(zero)
    21e2: 00 00        	<unknown>
    21e4: 2c 0a        	<unknown>
    21e6: 00 80        	<unknown>
    21e8: 00 00        	<unknown>
    21ea: 00 00        	<unknown>
    21ec: 00 00        	<unknown>
    21ee: 03 00 00 00  	lb	zero, 0(zero)
    21f2: 00 00        	<unknown>
    21f4: 2c 0a        	<unknown>
    21f6: 00 80        	<unknown>
    21f8: 00 00        	<unknown>
    21fa: 00 00        	<unknown>
    21fc: 00 00        	<unknown>
    21fe: 03 00 00 00  	lb	zero, 0(zero)
    2202: 00 00        	<unknown>
    2204: 30 0a        	<unknown>
    2206: 00 80        	<unknown>
    2208: 00 00        	<unknown>
    220a: 00 00        	<unknown>
    220c: 00 00        	<unknown>
    220e: 03 00 00 00  	lb	zero, 0(zero)
    2212: 00 00        	<unknown>
    2214: 34 0a        	<unknown>
    2216: 00 80        	<unknown>
    2218: 00 00        	<unknown>
    221a: 00 00        	<unknown>
    221c: 00 00        	<unknown>
    221e: 03 00 00 00  	lb	zero, 0(zero)
    2222: 00 00        	<unknown>
    2224: 44 0a        	<unknown>
    2226: 00 80        	<unknown>
    2228: 00 00        	<unknown>
    222a: 00 00        	<unknown>
    222c: 00 00        	<unknown>
    222e: 03 00 00 00  	lb	zero, 0(zero)
    2232: 00 00        	<unknown>
    2234: 48 0a        	<unknown>
    2236: 00 80        	<unknown>
    2238: 00 00        	<unknown>
    223a: 00 00        	<unknown>
    223c: 00 00        	<unknown>
    223e: 03 00 00 00  	lb	zero, 0(zero)
    2242: 00 00        	<unknown>
    2244: 4c 0a        	<unknown>
    2246: 00 80        	<unknown>
    2248: 00 00        	<unknown>
    224a: 00 00        	<unknown>
    224c: 00 00        	<unknown>
    224e: 03 00 00 00  	lb	zero, 0(zero)
    2252: 00 00        	<unknown>
    2254: 54 0a        	<unknown>
    2256: 00 80        	<unknown>
    2258: 00 00        	<unknown>
    225a: 00 00        	<unknown>
    225c: 00 00        	<unknown>
    225e: 03 00 00 00  	lb	zero, 0(zero)
    2262: 00 00        	<unknown>
    2264: 78 0a        	<unknown>
    2266: 00 80        	<unknown>
    2268: 00 00        	<unknown>
    226a: 00 00        	<unknown>
    226c: 00 00        	<unknown>
    226e: 03 00 00 00  	lb	zero, 0(zero)
    2272: 00 00        	<unknown>
    2274: 80 0a        	<unknown>
    2276: 00 80        	<unknown>
    2278: 00 00        	<unknown>
    227a: 00 00        	<unknown>
    227c: 00 00        	<unknown>
    227e: 03 00 00 00  	lb	zero, 0(zero)
    2282: 00 00        	<unknown>
    2284: 84 0a        	<unknown>
    2286: 00 80        	<unknown>
    2288: 00 00        	<unknown>
    228a: 00 00        	<unknown>
    228c: 00 00        	<unknown>
    228e: 03 00 00 00  	lb	zero, 0(zero)
    2292: 00 00        	<unknown>
    2294: 88 0a        	<unknown>
    2296: 00 80        	<unknown>
    2298: 00 00        	<unknown>
    229a: 00 00        	<unknown>
    229c: 00 00        	<unknown>
    229e: 03 00 00 00  	lb	zero, 0(zero)
    22a2: 00 00        	<unknown>
    22a4: 8c 0a        	<unknown>
    22a6: 00 80        	<unknown>
    22a8: 00 00        	<unknown>
    22aa: 00 00        	<unknown>
    22ac: 00 00        	<unknown>
    22ae: 03 00 00 00  	lb	zero, 0(zero)
    22b2: 00 00        	<unknown>
    22b4: 90 0a        	<unknown>
    22b6: 00 80        	<unknown>
    22b8: 00 00        	<unknown>
    22ba: 00 00        	<unknown>
    22bc: 00 00        	<unknown>
    22be: 03 00 00 00  	lb	zero, 0(zero)
    22c2: 00 00        	<unknown>
    22c4: 94 0a        	<unknown>
    22c6: 00 80        	<unknown>
    22c8: 00 00        	<unknown>
    22ca: 00 00        	<unknown>
    22cc: 00 00        	<unknown>
    22ce: 03 00 00 00  	lb	zero, 0(zero)
    22d2: 00 00        	<unknown>
    22d4: 98 0a        	<unknown>
    22d6: 00 80        	<unknown>
    22d8: 00 00        	<unknown>
    22da: 00 00        	<unknown>
    22dc: 00 00        	<unknown>
    22de: 03 00 00 00  	lb	zero, 0(zero)
    22e2: 00 00        	<unknown>
    22e4: 9c 0a        	<unknown>
    22e6: 00 80        	<unknown>
    22e8: 00 00        	<unknown>
    22ea: 00 00        	<unknown>
    22ec: 00 00        	<unknown>
    22ee: 03 00 00 00  	lb	zero, 0(zero)
    22f2: 00 00        	<unknown>
    22f4: a0 0a        	<unknown>
    22f6: 00 80        	<unknown>
    22f8: 00 00        	<unknown>
    22fa: 00 00        	<unknown>
    22fc: 00 00        	<unknown>
    22fe: 03 00 00 00  	lb	zero, 0(zero)
    2302: 00 00        	<unknown>
    2304: a4 0a        	<unknown>
    2306: 00 80        	<unknown>
    2308: 00 00        	<unknown>
    230a: 00 00        	<unknown>
    230c: 00 00        	<unknown>
    230e: 03 00 00 00  	lb	zero, 0(zero)
    2312: 00 00        	<unknown>
    2314: a8 0a        	<unknown>
    2316: 00 80        	<unknown>
    2318: 00 00        	<unknown>
    231a: 00 00        	<unknown>
    231c: 00 00        	<unknown>
    231e: 03 00 00 00  	lb	zero, 0(zero)
    2322: 00 00        	<unknown>
    2324: b0 0a        	<unknown>
    2326: 00 80        	<unknown>
    2328: 00 00        	<unknown>
    232a: 00 00        	<unknown>
    232c: 00 00        	<unknown>
    232e: 03 00 00 00  	lb	zero, 0(zero)
    2332: 00 00        	<unknown>
    2334: b4 0a        	<unknown>
    2336: 00 80        	<unknown>
    2338: 00 00        	<unknown>
    233a: 00 00        	<unknown>
    233c: 00 00        	<unknown>
    233e: 03 00 00 00  	lb	zero, 0(zero)
    2342: 00 00        	<unknown>
    2344: b8 0a        	<unknown>
    2346: 00 80        	<unknown>
    2348: 00 00        	<unknown>
    234a: 00 00        	<unknown>
    234c: 00 00        	<unknown>
    234e: 03 00 00 00  	lb	zero, 0(zero)
    2352: 00 00        	<unknown>
    2354: c0 0a        	<unknown>
    2356: 00 80        	<unknown>
    2358: 00 00        	<unknown>
    235a: 00 00        	<unknown>
    235c: 00 00        	<unknown>
    235e: 03 00 00 00  	lb	zero, 0(zero)
    2362: 00 00        	<unknown>
    2364: c4 0a        	<unknown>
    2366: 00 80        	<unknown>
    2368: 00 00        	<unknown>
    236a: 00 00        	<unknown>
    236c: 00 00        	<unknown>
    236e: 03 00 00 00  	lb	zero, 0(zero)
    2372: 00 00        	<unknown>
    2374: d0 0a        	<unknown>
    2376: 00 80        	<unknown>
    2378: 00 00        	<unknown>
    237a: 00 00        	<unknown>
    237c: 00 00        	<unknown>
    237e: 03 00 00 00  	lb	zero, 0(zero)
    2382: 00 00        	<unknown>
    2384: dc 0a        	<unknown>
    2386: 00 80        	<unknown>
    2388: 00 00        	<unknown>
    238a: 00 00        	<unknown>
    238c: 00 00        	<unknown>
    238e: 03 00 00 00  	lb	zero, 0(zero)
    2392: 00 00        	<unknown>
    2394: e0 0a        	<unknown>
    2396: 00 80        	<unknown>
    2398: 00 00        	<unknown>
    239a: 00 00        	<unknown>
    239c: 00 00        	<unknown>
    239e: 03 00 00 00  	lb	zero, 0(zero)
    23a2: 00 00        	<unknown>
    23a4: e8 0a        	<unknown>
    23a6: 00 80        	<unknown>
    23a8: 00 00        	<unknown>
    23aa: 00 00        	<unknown>
    23ac: 00 00        	<unknown>
    23ae: 03 00 00 00  	lb	zero, 0(zero)
    23b2: 00 00        	<unknown>
    23b4: ec 0a        	<unknown>
    23b6: 00 80        	<unknown>
    23b8: 00 00        	<unknown>
    23ba: 00 00        	<unknown>
    23bc: 00 00        	<unknown>
    23be: 03 00 00 00  	lb	zero, 0(zero)
    23c2: 00 00        	<unknown>
    23c4: f0 0a        	<unknown>
    23c6: 00 80        	<unknown>
    23c8: 00 00        	<unknown>
    23ca: 00 00        	<unknown>
    23cc: 00 00        	<unknown>
    23ce: 03 00 00 00  	lb	zero, 0(zero)
    23d2: 00 00        	<unknown>
    23d4: f8 0a        	<unknown>
    23d6: 00 80        	<unknown>
    23d8: 00 00        	<unknown>
    23da: 00 00        	<unknown>
    23dc: 00 00        	<unknown>
    23de: 03 00 00 00  	lb	zero, 0(zero)
    23e2: 00 00        	<unknown>
    23e4: 04 0b        	<unknown>
    23e6: 00 80        	<unknown>
    23e8: 00 00        	<unknown>
    23ea: 00 00        	<unknown>
    23ec: 00 00        	<unknown>
    23ee: 03 00 00 00  	lb	zero, 0(zero)
    23f2: 00 00        	<unknown>
    23f4: 08 0b        	<unknown>
    23f6: 00 80        	<unknown>
    23f8: 00 00        	<unknown>
    23fa: 00 00        	<unknown>
    23fc: 00 00        	<unknown>
    23fe: 03 00 00 00  	lb	zero, 0(zero)
    2402: 00 00        	<unknown>
    2404: 18 0b        	<unknown>
    2406: 00 80        	<unknown>
    2408: 00 00        	<unknown>
    240a: 00 00        	<unknown>
    240c: 00 00        	<unknown>
    240e: 03 00 00 00  	lb	zero, 0(zero)
    2412: 00 00        	<unknown>
    2414: 18 0b        	<unknown>
    2416: 00 80        	<unknown>
    2418: 00 00        	<unknown>
    241a: 00 00        	<unknown>
    241c: 00 00        	<unknown>
    241e: 03 00 00 00  	lb	zero, 0(zero)
    2422: 00 00        	<unknown>
    2424: 1c 0b        	<unknown>
    2426: 00 80        	<unknown>
    2428: 00 00        	<unknown>
    242a: 00 00        	<unknown>
    242c: 00 00        	<unknown>
    242e: 03 00 00 00  	lb	zero, 0(zero)
    2432: 00 00        	<unknown>
    2434: 20 0b        	<unknown>
    2436: 00 80        	<unknown>
    2438: 00 00        	<unknown>
    243a: 00 00        	<unknown>
    243c: 00 00        	<unknown>
    243e: 03 00 00 00  	lb	zero, 0(zero)
    2442: 00 00        	<unknown>
    2444: 24 0b        	<unknown>
    2446: 00 80        	<unknown>
    2448: 00 00        	<unknown>
    244a: 00 00        	<unknown>
    244c: 00 00        	<unknown>
    244e: 03 00 00 00  	lb	zero, 0(zero)
    2452: 00 00        	<unknown>
    2454: 2c 0b        	<unknown>
    2456: 00 80        	<unknown>
    2458: 00 00        	<unknown>
    245a: 00 00        	<unknown>
    245c: 00 00        	<unknown>
    245e: 03 00 00 00  	lb	zero, 0(zero)
    2462: 00 00        	<unknown>
    2464: 34 0b        	<unknown>
    2466: 00 80        	<unknown>
    2468: 00 00        	<unknown>
    246a: 00 00        	<unknown>
    246c: 00 00        	<unknown>
    246e: 03 00 00 00  	lb	zero, 0(zero)
    2472: 00 00        	<unknown>
    2474: 38 0b        	<unknown>
    2476: 00 80        	<unknown>
    2478: 00 00        	<unknown>
    247a: 00 00        	<unknown>
    247c: 00 00        	<unknown>
    247e: 03 00 00 00  	lb	zero, 0(zero)
    2482: 00 00        	<unknown>
    2484: 3c 0b        	<unknown>
    2486: 00 80        	<unknown>
    2488: 00 00        	<unknown>
    248a: 00 00        	<unknown>
    248c: 00 00        	<unknown>
    248e: 03 00 00 00  	lb	zero, 0(zero)
    2492: 00 00        	<unknown>
    2494: 40 0b        	<unknown>
    2496: 00 80        	<unknown>
    2498: 00 00        	<unknown>
    249a: 00 00        	<unknown>
    249c: 00 00        	<unknown>
    249e: 03 00 00 00  	lb	zero, 0(zero)
    24a2: 00 00        	<unknown>
    24a4: 48 0b        	<unknown>
    24a6: 00 80        	<unknown>
    24a8: 00 00        	<unknown>
    24aa: 00 00        	<unknown>
    24ac: 00 00        	<unknown>
    24ae: 03 00 00 00  	lb	zero, 0(zero)
    24b2: 00 00        	<unknown>
    24b4: 4c 0b        	<unknown>
    24b6: 00 80        	<unknown>
    24b8: 00 00        	<unknown>
    24ba: 00 00        	<unknown>
    24bc: 00 00        	<unknown>
    24be: 03 00 00 00  	lb	zero, 0(zero)
    24c2: 00 00        	<unknown>
    24c4: 58 0b        	<unknown>
    24c6: 00 80        	<unknown>
    24c8: 00 00        	<unknown>
    24ca: 00 00        	<unknown>
    24cc: 00 00        	<unknown>
    24ce: 03 00 00 00  	lb	zero, 0(zero)
    24d2: 00 00        	<unknown>
    24d4: 58 0b        	<unknown>
    24d6: 00 80        	<unknown>
    24d8: 00 00        	<unknown>
    24da: 00 00        	<unknown>
    24dc: 00 00        	<unknown>
    24de: 03 00 00 00  	lb	zero, 0(zero)
    24e2: 00 00        	<unknown>
    24e4: 5c 0b        	<unknown>
    24e6: 00 80        	<unknown>
    24e8: 00 00        	<unknown>
    24ea: 00 00        	<unknown>
    24ec: 00 00        	<unknown>
    24ee: 03 00 00 00  	lb	zero, 0(zero)
    24f2: 00 00        	<unknown>
    24f4: 64 0b        	<unknown>
    24f6: 00 80        	<unknown>
    24f8: 00 00        	<unknown>
    24fa: 00 00        	<unknown>
    24fc: 00 00        	<unknown>
    24fe: 03 00 00 00  	lb	zero, 0(zero)
    2502: 00 00        	<unknown>
    2504: 68 0b        	<unknown>
    2506: 00 80        	<unknown>
    2508: 00 00        	<unknown>
    250a: 00 00        	<unknown>
    250c: 00 00        	<unknown>
    250e: 03 00 00 00  	lb	zero, 0(zero)
    2512: 00 00        	<unknown>
    2514: 70 0b        	<unknown>
    2516: 00 80        	<unknown>
    2518: 00 00        	<unknown>
    251a: 00 00        	<unknown>
    251c: 00 00        	<unknown>
    251e: 03 00 00 00  	lb	zero, 0(zero)
    2522: 00 00        	<unknown>
    2524: 74 0b        	<unknown>
    2526: 00 80        	<unknown>
    2528: 00 00        	<unknown>
    252a: 00 00        	<unknown>
    252c: 00 00        	<unknown>
    252e: 03 00 00 00  	lb	zero, 0(zero)
    2532: 00 00        	<unknown>
    2534: 84 0b        	<unknown>
    2536: 00 80        	<unknown>
    2538: 00 00        	<unknown>
    253a: 00 00        	<unknown>
    253c: 00 00        	<unknown>
    253e: 03 00 00 00  	lb	zero, 0(zero)
    2542: 00 00        	<unknown>
    2544: 84 0b        	<unknown>
    2546: 00 80        	<unknown>
    2548: 00 00        	<unknown>
    254a: 00 00        	<unknown>
    254c: 00 00        	<unknown>
    254e: 03 00 00 00  	lb	zero, 0(zero)
    2552: 00 00        	<unknown>
    2554: 88 0b        	<unknown>
    2556: 00 80        	<unknown>
    2558: 00 00        	<unknown>
    255a: 00 00        	<unknown>
    255c: 00 00        	<unknown>
    255e: 03 00 00 00  	lb	zero, 0(zero)
    2562: 00 00        	<unknown>
    2564: 8c 0b        	<unknown>
    2566: 00 80        	<unknown>
    2568: 00 00        	<unknown>
    256a: 00 00        	<unknown>
    256c: 00 00        	<unknown>
    256e: 03 00 00 00  	lb	zero, 0(zero)
    2572: 00 00        	<unknown>
    2574: 98 0b        	<unknown>
    2576: 00 80        	<unknown>
    2578: 00 00        	<unknown>
    257a: 00 00        	<unknown>
    257c: 00 00        	<unknown>
    257e: 03 00 00 00  	lb	zero, 0(zero)
    2582: 00 00        	<unknown>
    2584: 9c 0b        	<unknown>
    2586: 00 80        	<unknown>
    2588: 00 00        	<unknown>
    258a: 00 00        	<unknown>
    258c: 00 00        	<unknown>
    258e: 03 00 00 00  	lb	zero, 0(zero)
    2592: 00 00        	<unknown>
    2594: a4 0b        	<unknown>
    2596: 00 80        	<unknown>
    2598: 00 00        	<unknown>
    259a: 00 00        	<unknown>
    259c: 00 00        	<unknown>
    259e: 03 00 00 00  	lb	zero, 0(zero)
    25a2: 00 00        	<unknown>
    25a4: b0 0b        	<unknown>
    25a6: 00 80        	<unknown>
    25a8: 00 00        	<unknown>
    25aa: 00 00        	<unknown>
    25ac: 00 00        	<unknown>
    25ae: 03 00 00 00  	lb	zero, 0(zero)
    25b2: 00 00        	<unknown>
    25b4: b8 0b        	<unknown>
    25b6: 00 80        	<unknown>
    25b8: 00 00        	<unknown>
    25ba: 00 00        	<unknown>
    25bc: 00 00        	<unknown>
    25be: 03 00 00 00  	lb	zero, 0(zero)
    25c2: 00 00        	<unknown>
    25c4: bc 0b        	<unknown>
    25c6: 00 80        	<unknown>
    25c8: 00 00        	<unknown>
    25ca: 00 00        	<unknown>
    25cc: 00 00        	<unknown>
    25ce: 03 00 00 00  	lb	zero, 0(zero)
    25d2: 00 00        	<unknown>
    25d4: c4 0b        	<unknown>
    25d6: 00 80        	<unknown>
    25d8: 00 00        	<unknown>
    25da: 00 00        	<unknown>
    25dc: 00 00        	<unknown>
    25de: 03 00 00 00  	lb	zero, 0(zero)
    25e2: 00 00        	<unknown>
    25e4: c8 0b        	<unknown>
    25e6: 00 80        	<unknown>
    25e8: 00 00        	<unknown>
    25ea: 00 00        	<unknown>
    25ec: 00 00        	<unknown>
    25ee: 03 00 bb 00  	lb	zero, 11(s6)
    25f2: 00 00        	<unknown>
    25f4: c0 0e        	<unknown>
    25f6: 00 80        	<unknown>
    25f8: 88 03        	<unknown>
    25fa: 00 00        	<unknown>
    25fc: 02 00        	<unknown>
    25fe: 03 00 00 00  	lb	zero, 0(zero)
    2602: 00 00        	<unknown>
    2604: e8 0b        	<unknown>
    2606: 00 80        	<unknown>
    2608: 00 00        	<unknown>
    260a: 00 00        	<unknown>
    260c: 00 00        	<unknown>
    260e: 03 00 00 00  	lb	zero, 0(zero)
    2612: 00 00        	<unknown>
    2614: 0c 0c        	<unknown>
    2616: 00 80        	<unknown>
    2618: 00 00        	<unknown>
    261a: 00 00        	<unknown>
    261c: 00 00        	<unknown>
    261e: 03 00 00 00  	lb	zero, 0(zero)
    2622: 00 00        	<unknown>
    2624: 10 0c        	<unknown>
    2626: 00 80        	<unknown>
    2628: 00 00        	<unknown>
    262a: 00 00        	<unknown>
    262c: 00 00        	<unknown>
    262e: 03 00 00 00  	lb	zero, 0(zero)
    2632: 00 00        	<unknown>
    2634: 18 0c        	<unknown>
    2636: 00 80        	<unknown>
    2638: 00 00        	<unknown>
    263a: 00 00        	<unknown>
    263c: 00 00        	<unknown>
    263e: 03 00 00 00  	lb	zero, 0(zero)
    2642: 00 00        	<unknown>
    2644: 1c 0c        	<unknown>
    2646: 00 80        	<unknown>
    2648: 00 00        	<unknown>
    264a: 00 00        	<unknown>
    264c: 00 00        	<unknown>
    264e: 03 00 00 00  	lb	zero, 0(zero)
    2652: 00 00        	<unknown>
    2654: 3c 0c        	<unknown>
    2656: 00 80        	<unknown>
    2658: 00 00        	<unknown>
    265a: 00 00        	<unknown>
    265c: 00 00        	<unknown>
    265e: 03 00 00 00  	lb	zero, 0(zero)
    2662: 00 00        	<unknown>
    2664: 4c 0c        	<unknown>
    2666: 00 80        	<unknown>
    2668: 00 00        	<unknown>
    266a: 00 00        	<unknown>
    266c: 00 00        	<unknown>
    266e: 03 00 00 00  	lb	zero, 0(zero)
    2672: 00 00        	<unknown>
    2674: 50 0c        	<unknown>
    2676: 00 80        	<unknown>
    2678: 00 00        	<unknown>
    267a: 00 00        	<unknown>
    267c: 00 00        	<unknown>
    267e: 03 00 00 00  	lb	zero, 0(zero)
    2682: 00 00        	<unknown>
    2684: 58 0c        	<unknown>
    2686: 00 80        	<unknown>
    2688: 00 00        	<unknown>
    268a: 00 00        	<unknown>
    268c: 00 00        	<unknown>
    268e: 03 00 00 00  	lb	zero, 0(zero)
    2692: 00 00        	<unknown>
    2694: 5c 0c        	<unknown>
    2696: 00 80        	<unknown>
    2698: 00 00        	<unknown>
    269a: 00 00        	<unknown>
    269c: 00 00        	<unknown>
    269e: 03 00 00 00  	lb	zero, 0(zero)
    26a2: 00 00        	<unknown>
    26a4: 60 0c        	<unknown>
    26a6: 00 80        	<unknown>
    26a8: 00 00        	<unknown>
    26aa: 00 00        	<unknown>
    26ac: 00 00        	<unknown>
    26ae: 03 00 00 00  	lb	zero, 0(zero)
    26b2: 00 00        	<unknown>
    26b4: 74 0c        	<unknown>
    26b6: 00 80        	<unknown>
    26b8: 00 00        	<unknown>
    26ba: 00 00        	<unknown>
    26bc: 00 00        	<unknown>
    26be: 03 00 00 00  	lb	zero, 0(zero)
    26c2: 00 00        	<unknown>
    26c4: 74 0c        	<unknown>
    26c6: 00 80        	<unknown>
    26c8: 00 00        	<unknown>
    26ca: 00 00        	<unknown>
    26cc: 00 00        	<unknown>
    26ce: 03 00 00 00  	lb	zero, 0(zero)
    26d2: 00 00        	<unknown>
    26d4: 78 0c        	<unknown>
    26d6: 00 80        	<unknown>
    26d8: 00 00        	<unknown>
    26da: 00 00        	<unknown>
    26dc: 00 00        	<unknown>
    26de: 03 00 00 00  	lb	zero, 0(zero)
    26e2: 00 00        	<unknown>
    26e4: 7c 0c        	<unknown>
    26e6: 00 80        	<unknown>
    26e8: 00 00        	<unknown>
    26ea: 00 00        	<unknown>
    26ec: 00 00        	<unknown>
    26ee: 03 00 00 00  	lb	zero, 0(zero)
    26f2: 00 00        	<unknown>
    26f4: 80 0c        	<unknown>
    26f6: 00 80        	<unknown>
    26f8: 00 00        	<unknown>
    26fa: 00 00        	<unknown>
    26fc: 00 00        	<unknown>
    26fe: 03 00 00 00  	lb	zero, 0(zero)
    2702: 00 00        	<unknown>
    2704: 84 0c        	<unknown>
    2706: 00 80        	<unknown>
    2708: 00 00        	<unknown>
    270a: 00 00        	<unknown>
    270c: 00 00        	<unknown>
    270e: 03 00 00 00  	lb	zero, 0(zero)
    2712: 00 00        	<unknown>
    2714: 8c 0c        	<unknown>
    2716: 00 80        	<unknown>
    2718: 00 00        	<unknown>
    271a: 00 00        	<unknown>
    271c: 00 00        	<unknown>
    271e: 03 00 00 00  	lb	zero, 0(zero)
    2722: 00 00        	<unknown>
    2724: 90 0c        	<unknown>
    2726: 00 80        	<unknown>
    2728: 00 00        	<unknown>
    272a: 00 00        	<unknown>
    272c: 00 00        	<unknown>
    272e: 03 00 00 00  	lb	zero, 0(zero)
    2732: 00 00        	<unknown>
    2734: 9c 0c        	<unknown>
    2736: 00 80        	<unknown>
    2738: 00 00        	<unknown>
    273a: 00 00        	<unknown>
    273c: 00 00        	<unknown>
    273e: 03 00 00 00  	lb	zero, 0(zero)
    2742: 00 00        	<unknown>
    2744: b0 0c        	<unknown>
    2746: 00 80        	<unknown>
    2748: 00 00        	<unknown>
    274a: 00 00        	<unknown>
    274c: 00 00        	<unknown>
    274e: 03 00 00 00  	lb	zero, 0(zero)
    2752: 00 00        	<unknown>
    2754: b8 0c        	<unknown>
    2756: 00 80        	<unknown>
    2758: 00 00        	<unknown>
    275a: 00 00        	<unknown>
    275c: 00 00        	<unknown>
    275e: 03 00 00 00  	lb	zero, 0(zero)
    2762: 00 00        	<unknown>
    2764: c4 0c        	<unknown>
    2766: 00 80        	<unknown>
    2768: 00 00        	<unknown>
    276a: 00 00        	<unknown>
    276c: 00 00        	<unknown>
    276e: 03 00 00 00  	lb	zero, 0(zero)
    2772: 00 00        	<unknown>
    2774: c8 0c        	<unknown>
    2776: 00 80        	<unknown>
    2778: 00 00        	<unknown>
    277a: 00 00        	<unknown>
    277c: 00 00        	<unknown>
    277e: 03 00 00 00  	lb	zero, 0(zero)
    2782: 00 00        	<unknown>
    2784: cc 0c        	<unknown>
    2786: 00 80        	<unknown>
    2788: 00 00        	<unknown>
    278a: 00 00        	<unknown>
    278c: 00 00        	<unknown>
    278e: 03 00 00 00  	lb	zero, 0(zero)
    2792: 00 00        	<unknown>
    2794: dc 0c        	<unknown>
    2796: 00 80        	<unknown>
    2798: 00 00        	<unknown>
    279a: 00 00        	<unknown>
    279c: 00 00        	<unknown>
    279e: 03 00 00 00  	lb	zero, 0(zero)
    27a2: 00 00        	<unknown>
    27a4: dc 0c        	<unknown>
    27a6: 00 80        	<unknown>
    27a8: 00 00        	<unknown>
    27aa: 00 00        	<unknown>
    27ac: 00 00        	<unknown>
    27ae: 03 00 00 00  	lb	zero, 0(zero)
    27b2: 00 00        	<unknown>
    27b4: e0 0c        	<unknown>
    27b6: 00 80        	<unknown>
    27b8: 00 00        	<unknown>
    27ba: 00 00        	<unknown>
    27bc: 00 00        	<unknown>
    27be: 03 00 00 00  	lb	zero, 0(zero)
    27c2: 00 00        	<unknown>
    27c4: e4 0c        	<unknown>
    27c6: 00 80        	<unknown>
    27c8: 00 00        	<unknown>
    27ca: 00 00        	<unknown>
    27cc: 00 00        	<unknown>
    27ce: 03 00 00 00  	lb	zero, 0(zero)
    27d2: 00 00        	<unknown>
    27d4: 10 0d        	<unknown>
    27d6: 00 80        	<unknown>
    27d8: 00 00        	<unknown>
    27da: 00 00        	<unknown>
    27dc: 00 00        	<unknown>
    27de: 03 00 00 00  	lb	zero, 0(zero)
    27e2: 00 00        	<unknown>
    27e4: 20 0d        	<unknown>
    27e6: 00 80        	<unknown>
    27e8: 00 00        	<unknown>
    27ea: 00 00        	<unknown>
    27ec: 00 00        	<unknown>
    27ee: 03 00 00 00  	lb	zero, 0(zero)
    27f2: 00 00        	<unknown>
    27f4: 20 0d        	<unknown>
    27f6: 00 80        	<unknown>
    27f8: 00 00        	<unknown>
    27fa: 00 00        	<unknown>
    27fc: 00 00        	<unknown>
    27fe: 03 00 00 00  	lb	zero, 0(zero)
    2802: 00 00        	<unknown>
    2804: 60 0d        	<unknown>
    2806: 00 80        	<unknown>
    2808: 00 00        	<unknown>
    280a: 00 00        	<unknown>
    280c: 00 00        	<unknown>
    280e: 03 00 00 00  	lb	zero, 0(zero)
    2812: 00 00        	<unknown>
    2814: 60 0d        	<unknown>
    2816: 00 80        	<unknown>
    2818: 00 00        	<unknown>
    281a: 00 00        	<unknown>
    281c: 00 00        	<unknown>
    281e: 03 00 00 00  	lb	zero, 0(zero)
    2822: 00 00        	<unknown>
    2824: 60 0d        	<unknown>
    2826: 00 80        	<unknown>
    2828: 00 00        	<unknown>
    282a: 00 00        	<unknown>
    282c: 00 00        	<unknown>
    282e: 03 00 00 00  	lb	zero, 0(zero)
    2832: 00 00        	<unknown>
    2834: 60 0d        	<unknown>
    2836: 00 80        	<unknown>
    2838: 00 00        	<unknown>
    283a: 00 00        	<unknown>
    283c: 00 00        	<unknown>
    283e: 03 00 00 00  	lb	zero, 0(zero)
    2842: 00 00        	<unknown>
    2844: 60 0d        	<unknown>
    2846: 00 80        	<unknown>
    2848: 00 00        	<unknown>
    284a: 00 00        	<unknown>
    284c: 00 00        	<unknown>
    284e: 03 00 00 00  	lb	zero, 0(zero)
    2852: 00 00        	<unknown>
    2854: 60 0d        	<unknown>
    2856: 00 80        	<unknown>
    2858: 00 00        	<unknown>
    285a: 00 00        	<unknown>
    285c: 00 00        	<unknown>
    285e: 03 00 00 00  	lb	zero, 0(zero)
    2862: 00 00        	<unknown>
    2864: 64 0d        	<unknown>
    2866: 00 80        	<unknown>
    2868: 00 00        	<unknown>
    286a: 00 00        	<unknown>
    286c: 00 00        	<unknown>
    286e: 03 00 00 00  	lb	zero, 0(zero)
    2872: 00 00        	<unknown>
    2874: 6c 0d        	<unknown>
    2876: 00 80        	<unknown>
    2878: 00 00        	<unknown>
    287a: 00 00        	<unknown>
    287c: 00 00        	<unknown>
    287e: 03 00 00 00  	lb	zero, 0(zero)
    2882: 00 00        	<unknown>
    2884: 70 0d        	<unknown>
    2886: 00 80        	<unknown>
    2888: 00 00        	<unknown>
    288a: 00 00        	<unknown>
    288c: 00 00        	<unknown>
    288e: 03 00 00 00  	lb	zero, 0(zero)
    2892: 00 00        	<unknown>
    2894: 70 0d        	<unknown>
    2896: 00 80        	<unknown>
    2898: 00 00        	<unknown>
    289a: 00 00        	<unknown>
    289c: 00 00        	<unknown>
    289e: 03 00 00 00  	lb	zero, 0(zero)
    28a2: 00 00        	<unknown>
    28a4: 70 0d        	<unknown>
    28a6: 00 80        	<unknown>
    28a8: 00 00        	<unknown>
    28aa: 00 00        	<unknown>
    28ac: 00 00        	<unknown>
    28ae: 03 00 00 00  	lb	zero, 0(zero)
    28b2: 00 00        	<unknown>
    28b4: 70 0d        	<unknown>
    28b6: 00 80        	<unknown>
    28b8: 00 00        	<unknown>
    28ba: 00 00        	<unknown>
    28bc: 00 00        	<unknown>
    28be: 03 00 00 00  	lb	zero, 0(zero)
    28c2: 00 00        	<unknown>
    28c4: 70 0d        	<unknown>
    28c6: 00 80        	<unknown>
    28c8: 00 00        	<unknown>
    28ca: 00 00        	<unknown>
    28cc: 00 00        	<unknown>
    28ce: 03 00 00 00  	lb	zero, 0(zero)
    28d2: 00 00        	<unknown>
    28d4: 74 0d        	<unknown>
    28d6: 00 80        	<unknown>
    28d8: 00 00        	<unknown>
    28da: 00 00        	<unknown>
    28dc: 00 00        	<unknown>
    28de: 03 00 00 00  	lb	zero, 0(zero)
    28e2: 00 00        	<unknown>
    28e4: 78 0d        	<unknown>
    28e6: 00 80        	<unknown>
    28e8: 00 00        	<unknown>
    28ea: 00 00        	<unknown>
    28ec: 00 00        	<unknown>
    28ee: 03 00 00 00  	lb	zero, 0(zero)
    28f2: 00 00        	<unknown>
    28f4: 9c 0d        	<unknown>
    28f6: 00 80        	<unknown>
    28f8: 00 00        	<unknown>
    28fa: 00 00        	<unknown>
    28fc: 00 00        	<unknown>
    28fe: 03 00 c6 00  	lb	zero, 12(a2)
    2902: 00 00        	<unknown>
    2904: c8 0d        	<unknown>
    2906: 00 80        	<unknown>
    2908: 10 00        	<unknown>
    290a: 00 00        	<unknown>
    290c: 02 00        	<unknown>
    290e: 03 00 00 00  	lb	zero, 0(zero)
    2912: 00 00        	<unknown>
    2914: a0 0d        	<unknown>
    2916: 00 80        	<unknown>
    2918: 00 00        	<unknown>
    291a: 00 00        	<unknown>
    291c: 00 00        	<unknown>
    291e: 03 00 00 00  	lb	zero, 0(zero)
    2922: 00 00        	<unknown>
    2924: bc 0d        	<unknown>
    2926: 00 80        	<unknown>
    2928: 00 00        	<unknown>
    292a: 00 00        	<unknown>
    292c: 00 00        	<unknown>
    292e: 03 00 00 00  	lb	zero, 0(zero)
    2932: 00 00        	<unknown>
    2934: bc 0d        	<unknown>
    2936: 00 80        	<unknown>
    2938: 00 00        	<unknown>
    293a: 00 00        	<unknown>
    293c: 00 00        	<unknown>
    293e: 03 00 00 00  	lb	zero, 0(zero)
    2942: 00 00        	<unknown>
    2944: c8 0d        	<unknown>
    2946: 00 80        	<unknown>
    2948: 00 00        	<unknown>
    294a: 00 00        	<unknown>
    294c: 00 00        	<unknown>
    294e: 03 00 00 00  	lb	zero, 0(zero)
    2952: 00 00        	<unknown>
    2954: c8 0d        	<unknown>
    2956: 00 80        	<unknown>
    2958: 00 00        	<unknown>
    295a: 00 00        	<unknown>
    295c: 00 00        	<unknown>
    295e: 03 00 00 00  	lb	zero, 0(zero)
    2962: 00 00        	<unknown>
    2964: c8 0d        	<unknown>
    2966: 00 80        	<unknown>
    2968: 00 00        	<unknown>
    296a: 00 00        	<unknown>
    296c: 00 00        	<unknown>
    296e: 03 00 00 00  	lb	zero, 0(zero)
    2972: 00 00        	<unknown>
    2974: c8 0d        	<unknown>
    2976: 00 80        	<unknown>
    2978: 00 00        	<unknown>
    297a: 00 00        	<unknown>
    297c: 00 00        	<unknown>
    297e: 03 00 00 00  	lb	zero, 0(zero)
    2982: 00 00        	<unknown>
    2984: c8 0d        	<unknown>
    2986: 00 80        	<unknown>
    2988: 00 00        	<unknown>
    298a: 00 00        	<unknown>
    298c: 00 00        	<unknown>
    298e: 03 00 00 00  	lb	zero, 0(zero)
    2992: 00 00        	<unknown>
    2994: c8 0d        	<unknown>
    2996: 00 80        	<unknown>
    2998: 00 00        	<unknown>
    299a: 00 00        	<unknown>
    299c: 00 00        	<unknown>
    299e: 03 00 00 00  	lb	zero, 0(zero)
    29a2: 00 00        	<unknown>
    29a4: cc 0d        	<unknown>
    29a6: 00 80        	<unknown>
    29a8: 00 00        	<unknown>
    29aa: 00 00        	<unknown>
    29ac: 00 00        	<unknown>
    29ae: 03 00 00 00  	lb	zero, 0(zero)
    29b2: 00 00        	<unknown>
    29b4: d0 0d        	<unknown>
    29b6: 00 80        	<unknown>
    29b8: 00 00        	<unknown>
    29ba: 00 00        	<unknown>
    29bc: 00 00        	<unknown>
    29be: 03 00 00 00  	lb	zero, 0(zero)
    29c2: 00 00        	<unknown>
    29c4: d4 0d        	<unknown>
    29c6: 00 80        	<unknown>
    29c8: 00 00        	<unknown>
    29ca: 00 00        	<unknown>
    29cc: 00 00        	<unknown>
    29ce: 03 00 00 00  	lb	zero, 0(zero)
    29d2: 00 00        	<unknown>
    29d4: d8 0d        	<unknown>
    29d6: 00 80        	<unknown>
    29d8: 00 00        	<unknown>
    29da: 00 00        	<unknown>
    29dc: 00 00        	<unknown>
    29de: 03 00 00 00  	lb	zero, 0(zero)
    29e2: 00 00        	<unknown>
    29e4: d8 0d        	<unknown>
    29e6: 00 80        	<unknown>
    29e8: 00 00        	<unknown>
    29ea: 00 00        	<unknown>
    29ec: 00 00        	<unknown>
    29ee: 03 00 00 00  	lb	zero, 0(zero)
    29f2: 00 00        	<unknown>
    29f4: d8 0d        	<unknown>
    29f6: 00 80        	<unknown>
    29f8: 00 00        	<unknown>
    29fa: 00 00        	<unknown>
    29fc: 00 00        	<unknown>
    29fe: 03 00 00 00  	lb	zero, 0(zero)
    2a02: 00 00        	<unknown>
    2a04: d8 0d        	<unknown>
    2a06: 00 80        	<unknown>
    2a08: 00 00        	<unknown>
    2a0a: 00 00        	<unknown>
    2a0c: 00 00        	<unknown>
    2a0e: 03 00 00 00  	lb	zero, 0(zero)
    2a12: 00 00        	<unknown>
    2a14: d8 0d        	<unknown>
    2a16: 00 80        	<unknown>
    2a18: 00 00        	<unknown>
    2a1a: 00 00        	<unknown>
    2a1c: 00 00        	<unknown>
    2a1e: 03 00 00 00  	lb	zero, 0(zero)
    2a22: 00 00        	<unknown>
    2a24: dc 0d        	<unknown>
    2a26: 00 80        	<unknown>
    2a28: 00 00        	<unknown>
    2a2a: 00 00        	<unknown>
    2a2c: 00 00        	<unknown>
    2a2e: 03 00 00 00  	lb	zero, 0(zero)
    2a32: 00 00        	<unknown>
    2a34: e0 0d        	<unknown>
    2a36: 00 80        	<unknown>
    2a38: 00 00        	<unknown>
    2a3a: 00 00        	<unknown>
    2a3c: 00 00        	<unknown>
    2a3e: 03 00 00 00  	lb	zero, 0(zero)
    2a42: 00 00        	<unknown>
    2a44: 04 0e        	<unknown>
    2a46: 00 80        	<unknown>
    2a48: 00 00        	<unknown>
    2a4a: 00 00        	<unknown>
    2a4c: 00 00        	<unknown>
    2a4e: 03 00 00 00  	lb	zero, 0(zero)
    2a52: 00 00        	<unknown>
    2a54: 08 0e        	<unknown>
    2a56: 00 80        	<unknown>
    2a58: 00 00        	<unknown>
    2a5a: 00 00        	<unknown>
    2a5c: 00 00        	<unknown>
    2a5e: 03 00 00 00  	lb	zero, 0(zero)
    2a62: 00 00        	<unknown>
    2a64: 20 0e        	<unknown>
    2a66: 00 80        	<unknown>
    2a68: 00 00        	<unknown>
    2a6a: 00 00        	<unknown>
    2a6c: 00 00        	<unknown>
    2a6e: 03 00 00 00  	lb	zero, 0(zero)
    2a72: 00 00        	<unknown>
    2a74: 20 0e        	<unknown>
    2a76: 00 80        	<unknown>
    2a78: 00 00        	<unknown>
    2a7a: 00 00        	<unknown>
    2a7c: 00 00        	<unknown>
    2a7e: 03 00 00 00  	lb	zero, 0(zero)
    2a82: 00 00        	<unknown>
    2a84: 2c 0e        	<unknown>
    2a86: 00 80        	<unknown>
    2a88: 00 00        	<unknown>
    2a8a: 00 00        	<unknown>
    2a8c: 00 00        	<unknown>
    2a8e: 03 00 00 00  	lb	zero, 0(zero)
    2a92: 00 00        	<unknown>
    2a94: 2c 0e        	<unknown>
    2a96: 00 80        	<unknown>
    2a98: 00 00        	<unknown>
    2a9a: 00 00        	<unknown>
    2a9c: 00 00        	<unknown>
    2a9e: 03 00 00 00  	lb	zero, 0(zero)
    2aa2: 00 00        	<unknown>
    2aa4: 2c 0e        	<unknown>
    2aa6: 00 80        	<unknown>
    2aa8: 00 00        	<unknown>
    2aaa: 00 00        	<unknown>
    2aac: 00 00        	<unknown>
    2aae: 03 00 00 00  	lb	zero, 0(zero)
    2ab2: 00 00        	<unknown>
    2ab4: 2c 0e        	<unknown>
    2ab6: 00 80        	<unknown>
    2ab8: 00 00        	<unknown>
    2aba: 00 00        	<unknown>
    2abc: 00 00        	<unknown>
    2abe: 03 00 00 00  	lb	zero, 0(zero)
    2ac2: 00 00        	<unknown>
    2ac4: 2c 0e        	<unknown>
    2ac6: 00 80        	<unknown>
    2ac8: 00 00        	<unknown>
    2aca: 00 00        	<unknown>
    2acc: 00 00        	<unknown>
    2ace: 03 00 00 00  	lb	zero, 0(zero)
    2ad2: 00 00        	<unknown>
    2ad4: 3c 0e        	<unknown>
    2ad6: 00 80        	<unknown>
    2ad8: 00 00        	<unknown>
    2ada: 00 00        	<unknown>
    2adc: 00 00        	<unknown>
    2ade: 03 00 00 00  	lb	zero, 0(zero)
    2ae2: 00 00        	<unknown>
    2ae4: 44 0e        	<unknown>
    2ae6: 00 80        	<unknown>
    2ae8: 00 00        	<unknown>
    2aea: 00 00        	<unknown>
    2aec: 00 00        	<unknown>
    2aee: 03 00 00 00  	lb	zero, 0(zero)
    2af2: 00 00        	<unknown>
    2af4: 4c 0e        	<unknown>
    2af6: 00 80        	<unknown>
    2af8: 00 00        	<unknown>
    2afa: 00 00        	<unknown>
    2afc: 00 00        	<unknown>
    2afe: 03 00 00 00  	lb	zero, 0(zero)
    2b02: 00 00        	<unknown>
    2b04: 4c 0e        	<unknown>
    2b06: 00 80        	<unknown>
    2b08: 00 00        	<unknown>
    2b0a: 00 00        	<unknown>
    2b0c: 00 00        	<unknown>
    2b0e: 03 00 00 00  	lb	zero, 0(zero)
    2b12: 00 00        	<unknown>
    2b14: 4c 0e        	<unknown>
    2b16: 00 80        	<unknown>
    2b18: 00 00        	<unknown>
    2b1a: 00 00        	<unknown>
    2b1c: 00 00        	<unknown>
    2b1e: 03 00 00 00  	lb	zero, 0(zero)
    2b22: 00 00        	<unknown>
    2b24: 4c 0e        	<unknown>
    2b26: 00 80        	<unknown>
    2b28: 00 00        	<unknown>
    2b2a: 00 00        	<unknown>
    2b2c: 00 00        	<unknown>
    2b2e: 03 00 00 00  	lb	zero, 0(zero)
    2b32: 00 00        	<unknown>
    2b34: 4c 0e        	<unknown>
    2b36: 00 80        	<unknown>
    2b38: 00 00        	<unknown>
    2b3a: 00 00        	<unknown>
    2b3c: 00 00        	<unknown>
    2b3e: 03 00 00 00  	lb	zero, 0(zero)
    2b42: 00 00        	<unknown>
    2b44: 50 0e        	<unknown>
    2b46: 00 80        	<unknown>
    2b48: 00 00        	<unknown>
    2b4a: 00 00        	<unknown>
    2b4c: 00 00        	<unknown>
    2b4e: 03 00 00 00  	lb	zero, 0(zero)
    2b52: 00 00        	<unknown>
    2b54: 54 0e        	<unknown>
    2b56: 00 80        	<unknown>
    2b58: 00 00        	<unknown>
    2b5a: 00 00        	<unknown>
    2b5c: 00 00        	<unknown>
    2b5e: 03 00 00 00  	lb	zero, 0(zero)
    2b62: 00 00        	<unknown>
    2b64: 70 0e        	<unknown>
    2b66: 00 80        	<unknown>
    2b68: 00 00        	<unknown>
    2b6a: 00 00        	<unknown>
    2b6c: 00 00        	<unknown>
    2b6e: 03 00 00 00  	lb	zero, 0(zero)
    2b72: 00 00        	<unknown>
    2b74: 74 0e        	<unknown>
    2b76: 00 80        	<unknown>
    2b78: 00 00        	<unknown>
    2b7a: 00 00        	<unknown>
    2b7c: 00 00        	<unknown>
    2b7e: 03 00 d2 00  	lb	zero, 13(tp)
    2b82: 00 00        	<unknown>
    2b84: a8 0e        	<unknown>
    2b86: 00 80        	<unknown>
    2b88: 14 00        	<unknown>
    2b8a: 00 00        	<unknown>
    2b8c: 02 00        	<unknown>
    2b8e: 03 00 00 00  	lb	zero, 0(zero)
    2b92: 00 00        	<unknown>
    2b94: 7c 0e        	<unknown>
    2b96: 00 80        	<unknown>
    2b98: 00 00        	<unknown>
    2b9a: 00 00        	<unknown>
    2b9c: 00 00        	<unknown>
    2b9e: 03 00 00 00  	lb	zero, 0(zero)
    2ba2: 00 00        	<unknown>
    2ba4: 9c 0e        	<unknown>
    2ba6: 00 80        	<unknown>
    2ba8: 00 00        	<unknown>
    2baa: 00 00        	<unknown>
    2bac: 00 00        	<unknown>
    2bae: 03 00 00 00  	lb	zero, 0(zero)
    2bb2: 00 00        	<unknown>
    2bb4: 9c 0e        	<unknown>
    2bb6: 00 80        	<unknown>
    2bb8: 00 00        	<unknown>
    2bba: 00 00        	<unknown>
    2bbc: 00 00        	<unknown>
    2bbe: 03 00 00 00  	lb	zero, 0(zero)
    2bc2: 00 00        	<unknown>
    2bc4: a8 0e        	<unknown>
    2bc6: 00 80        	<unknown>
    2bc8: 00 00        	<unknown>
    2bca: 00 00        	<unknown>
    2bcc: 00 00        	<unknown>
    2bce: 03 00 00 00  	lb	zero, 0(zero)
    2bd2: 00 00        	<unknown>
    2bd4: a8 0e        	<unknown>
    2bd6: 00 80        	<unknown>
    2bd8: 00 00        	<unknown>
    2bda: 00 00        	<unknown>
    2bdc: 00 00        	<unknown>
    2bde: 03 00 00 00  	lb	zero, 0(zero)
    2be2: 00 00        	<unknown>
    2be4: a8 0e        	<unknown>
    2be6: 00 80        	<unknown>
    2be8: 00 00        	<unknown>
    2bea: 00 00        	<unknown>
    2bec: 00 00        	<unknown>
    2bee: 03 00 00 00  	lb	zero, 0(zero)
    2bf2: 00 00        	<unknown>
    2bf4: a8 0e        	<unknown>
    2bf6: 00 80        	<unknown>
    2bf8: 00 00        	<unknown>
    2bfa: 00 00        	<unknown>
    2bfc: 00 00        	<unknown>
    2bfe: 03 00 00 00  	lb	zero, 0(zero)
    2c02: 00 00        	<unknown>
    2c04: a8 0e        	<unknown>
    2c06: 00 80        	<unknown>
    2c08: 00 00        	<unknown>
    2c0a: 00 00        	<unknown>
    2c0c: 00 00        	<unknown>
    2c0e: 03 00 00 00  	lb	zero, 0(zero)
    2c12: 00 00        	<unknown>
    2c14: a8 0e        	<unknown>
    2c16: 00 80        	<unknown>
    2c18: 00 00        	<unknown>
    2c1a: 00 00        	<unknown>
    2c1c: 00 00        	<unknown>
    2c1e: 03 00 00 00  	lb	zero, 0(zero)
    2c22: 00 00        	<unknown>
    2c24: ac 0e        	<unknown>
    2c26: 00 80        	<unknown>
    2c28: 00 00        	<unknown>
    2c2a: 00 00        	<unknown>
    2c2c: 00 00        	<unknown>
    2c2e: 03 00 00 00  	lb	zero, 0(zero)
    2c32: 00 00        	<unknown>
    2c34: b0 0e        	<unknown>
    2c36: 00 80        	<unknown>
    2c38: 00 00        	<unknown>
    2c3a: 00 00        	<unknown>
    2c3c: 00 00        	<unknown>
    2c3e: 03 00 00 00  	lb	zero, 0(zero)
    2c42: 00 00        	<unknown>
    2c44: b4 0e        	<unknown>
    2c46: 00 80        	<unknown>
    2c48: 00 00        	<unknown>
    2c4a: 00 00        	<unknown>
    2c4c: 00 00        	<unknown>
    2c4e: 03 00 00 00  	lb	zero, 0(zero)
    2c52: 00 00        	<unknown>
    2c54: b4 0e        	<unknown>
    2c56: 00 80        	<unknown>
    2c58: 00 00        	<unknown>
    2c5a: 00 00        	<unknown>
    2c5c: 00 00        	<unknown>
    2c5e: 03 00 00 00  	lb	zero, 0(zero)
    2c62: 00 00        	<unknown>
    2c64: b8 0e        	<unknown>
    2c66: 00 80        	<unknown>
    2c68: 00 00        	<unknown>
    2c6a: 00 00        	<unknown>
    2c6c: 00 00        	<unknown>
    2c6e: 03 00 00 00  	lb	zero, 0(zero)
    2c72: 00 00        	<unknown>
    2c74: bc 0e        	<unknown>
    2c76: 00 80        	<unknown>
    2c78: 00 00        	<unknown>
    2c7a: 00 00        	<unknown>
    2c7c: 00 00        	<unknown>
    2c7e: 03 00 00 00  	lb	zero, 0(zero)
    2c82: 00 00        	<unknown>
    2c84: bc 0e        	<unknown>
    2c86: 00 80        	<unknown>
    2c88: 00 00        	<unknown>
    2c8a: 00 00        	<unknown>
    2c8c: 00 00        	<unknown>
    2c8e: 03 00 00 00  	lb	zero, 0(zero)
    2c92: 00 00        	<unknown>
    2c94: bc 0e        	<unknown>
    2c96: 00 80        	<unknown>
    2c98: 00 00        	<unknown>
    2c9a: 00 00        	<unknown>
    2c9c: 00 00        	<unknown>
    2c9e: 03 00 00 00  	lb	zero, 0(zero)
    2ca2: 00 00        	<unknown>
    2ca4: bc 0e        	<unknown>
    2ca6: 00 80        	<unknown>
    2ca8: 00 00        	<unknown>
    2caa: 00 00        	<unknown>
    2cac: 00 00        	<unknown>
    2cae: 03 00 00 00  	lb	zero, 0(zero)
    2cb2: 00 00        	<unknown>
    2cb4: bc 0e        	<unknown>
    2cb6: 00 80        	<unknown>
    2cb8: 00 00        	<unknown>
    2cba: 00 00        	<unknown>
    2cbc: 00 00        	<unknown>
    2cbe: 03 00 00 00  	lb	zero, 0(zero)
    2cc2: 00 00        	<unknown>
    2cc4: bc 0e        	<unknown>
    2cc6: 00 80        	<unknown>
    2cc8: 00 00        	<unknown>
    2cca: 00 00        	<unknown>
    2ccc: 00 00        	<unknown>
    2cce: 03 00 00 00  	lb	zero, 0(zero)
    2cd2: 00 00        	<unknown>
    2cd4: c0 0e        	<unknown>
    2cd6: 00 80        	<unknown>
    2cd8: 00 00        	<unknown>
    2cda: 00 00        	<unknown>
    2cdc: 00 00        	<unknown>
    2cde: 03 00 00 00  	lb	zero, 0(zero)
    2ce2: 00 00        	<unknown>
    2ce4: c0 0e        	<unknown>
    2ce6: 00 80        	<unknown>
    2ce8: 00 00        	<unknown>
    2cea: 00 00        	<unknown>
    2cec: 00 00        	<unknown>
    2cee: 03 00 00 00  	lb	zero, 0(zero)
    2cf2: 00 00        	<unknown>
    2cf4: c0 0e        	<unknown>
    2cf6: 00 80        	<unknown>
    2cf8: 00 00        	<unknown>
    2cfa: 00 00        	<unknown>
    2cfc: 00 00        	<unknown>
    2cfe: 03 00 00 00  	lb	zero, 0(zero)
    2d02: 00 00        	<unknown>
    2d04: c0 0e        	<unknown>
    2d06: 00 80        	<unknown>
    2d08: 00 00        	<unknown>
    2d0a: 00 00        	<unknown>
    2d0c: 00 00        	<unknown>
    2d0e: 03 00 00 00  	lb	zero, 0(zero)
    2d12: 00 00        	<unknown>
    2d14: c0 0e        	<unknown>
    2d16: 00 80        	<unknown>
    2d18: 00 00        	<unknown>
    2d1a: 00 00        	<unknown>
    2d1c: 00 00        	<unknown>
    2d1e: 03 00 00 00  	lb	zero, 0(zero)
    2d22: 00 00        	<unknown>
    2d24: c4 0e        	<unknown>
    2d26: 00 80        	<unknown>
    2d28: 00 00        	<unknown>
    2d2a: 00 00        	<unknown>
    2d2c: 00 00        	<unknown>
    2d2e: 03 00 00 00  	lb	zero, 0(zero)
    2d32: 00 00        	<unknown>
    2d34: f0 0e        	<unknown>
    2d36: 00 80        	<unknown>
    2d38: 00 00        	<unknown>
    2d3a: 00 00        	<unknown>
    2d3c: 00 00        	<unknown>
    2d3e: 03 00 00 00  	lb	zero, 0(zero)
    2d42: 00 00        	<unknown>
    2d44: 04 0f        	<unknown>
    2d46: 00 80        	<unknown>
    2d48: 00 00        	<unknown>
    2d4a: 00 00        	<unknown>
    2d4c: 00 00        	<unknown>
    2d4e: 03 00 00 00  	lb	zero, 0(zero)
    2d52: 00 00        	<unknown>
    2d54: 08 0f        	<unknown>
    2d56: 00 80        	<unknown>
    2d58: 00 00        	<unknown>
    2d5a: 00 00        	<unknown>
    2d5c: 00 00        	<unknown>
    2d5e: 03 00 00 00  	lb	zero, 0(zero)
    2d62: 00 00        	<unknown>
    2d64: 0c 0f        	<unknown>
    2d66: 00 80        	<unknown>
    2d68: 00 00        	<unknown>
    2d6a: 00 00        	<unknown>
    2d6c: 00 00        	<unknown>
    2d6e: 03 00 00 00  	lb	zero, 0(zero)
    2d72: 00 00        	<unknown>
    2d74: 14 0f        	<unknown>
    2d76: 00 80        	<unknown>
    2d78: 00 00        	<unknown>
    2d7a: 00 00        	<unknown>
    2d7c: 00 00        	<unknown>
    2d7e: 03 00 00 00  	lb	zero, 0(zero)
    2d82: 00 00        	<unknown>
    2d84: 1c 0f        	<unknown>
    2d86: 00 80        	<unknown>
    2d88: 00 00        	<unknown>
    2d8a: 00 00        	<unknown>
    2d8c: 00 00        	<unknown>
    2d8e: 03 00 00 00  	lb	zero, 0(zero)
    2d92: 00 00        	<unknown>
    2d94: 24 0f        	<unknown>
    2d96: 00 80        	<unknown>
    2d98: 00 00        	<unknown>
    2d9a: 00 00        	<unknown>
    2d9c: 00 00        	<unknown>
    2d9e: 03 00 00 00  	lb	zero, 0(zero)
    2da2: 00 00        	<unknown>
    2da4: 40 0f        	<unknown>
    2da6: 00 80        	<unknown>
    2da8: 00 00        	<unknown>
    2daa: 00 00        	<unknown>
    2dac: 00 00        	<unknown>
    2dae: 03 00 00 00  	lb	zero, 0(zero)
    2db2: 00 00        	<unknown>
    2db4: 44 0f        	<unknown>
    2db6: 00 80        	<unknown>
    2db8: 00 00        	<unknown>
    2dba: 00 00        	<unknown>
    2dbc: 00 00        	<unknown>
    2dbe: 03 00 00 00  	lb	zero, 0(zero)
    2dc2: 00 00        	<unknown>
    2dc4: 48 0f        	<unknown>
    2dc6: 00 80        	<unknown>
    2dc8: 00 00        	<unknown>
    2dca: 00 00        	<unknown>
    2dcc: 00 00        	<unknown>
    2dce: 03 00 00 00  	lb	zero, 0(zero)
    2dd2: 00 00        	<unknown>
    2dd4: 50 0f        	<unknown>
    2dd6: 00 80        	<unknown>
    2dd8: 00 00        	<unknown>
    2dda: 00 00        	<unknown>
    2ddc: 00 00        	<unknown>
    2dde: 03 00 00 00  	lb	zero, 0(zero)
    2de2: 00 00        	<unknown>
    2de4: 58 0f        	<unknown>
    2de6: 00 80        	<unknown>
    2de8: 00 00        	<unknown>
    2dea: 00 00        	<unknown>
    2dec: 00 00        	<unknown>
    2dee: 03 00 00 00  	lb	zero, 0(zero)
    2df2: 00 00        	<unknown>
    2df4: 68 0f        	<unknown>
    2df6: 00 80        	<unknown>
    2df8: 00 00        	<unknown>
    2dfa: 00 00        	<unknown>
    2dfc: 00 00        	<unknown>
    2dfe: 03 00 00 00  	lb	zero, 0(zero)
    2e02: 00 00        	<unknown>
    2e04: 6c 0f        	<unknown>
    2e06: 00 80        	<unknown>
    2e08: 00 00        	<unknown>
    2e0a: 00 00        	<unknown>
    2e0c: 00 00        	<unknown>
    2e0e: 03 00 00 00  	lb	zero, 0(zero)
    2e12: 00 00        	<unknown>
    2e14: 74 0f        	<unknown>
    2e16: 00 80        	<unknown>
    2e18: 00 00        	<unknown>
    2e1a: 00 00        	<unknown>
    2e1c: 00 00        	<unknown>
    2e1e: 03 00 00 00  	lb	zero, 0(zero)
    2e22: 00 00        	<unknown>
    2e24: 7c 0f        	<unknown>
    2e26: 00 80        	<unknown>
    2e28: 00 00        	<unknown>
    2e2a: 00 00        	<unknown>
    2e2c: 00 00        	<unknown>
    2e2e: 03 00 00 00  	lb	zero, 0(zero)
    2e32: 00 00        	<unknown>
    2e34: 84 0f        	<unknown>
    2e36: 00 80        	<unknown>
    2e38: 00 00        	<unknown>
    2e3a: 00 00        	<unknown>
    2e3c: 00 00        	<unknown>
    2e3e: 03 00 00 00  	lb	zero, 0(zero)
    2e42: 00 00        	<unknown>
    2e44: 8c 0f        	<unknown>
    2e46: 00 80        	<unknown>
    2e48: 00 00        	<unknown>
    2e4a: 00 00        	<unknown>
    2e4c: 00 00        	<unknown>
    2e4e: 03 00 00 00  	lb	zero, 0(zero)
    2e52: 00 00        	<unknown>
    2e54: 90 0f        	<unknown>
    2e56: 00 80        	<unknown>
    2e58: 00 00        	<unknown>
    2e5a: 00 00        	<unknown>
    2e5c: 00 00        	<unknown>
    2e5e: 03 00 00 00  	lb	zero, 0(zero)
    2e62: 00 00        	<unknown>
    2e64: 94 0f        	<unknown>
    2e66: 00 80        	<unknown>
    2e68: 00 00        	<unknown>
    2e6a: 00 00        	<unknown>
    2e6c: 00 00        	<unknown>
    2e6e: 03 00 00 00  	lb	zero, 0(zero)
    2e72: 00 00        	<unknown>
    2e74: 98 0f        	<unknown>
    2e76: 00 80        	<unknown>
    2e78: 00 00        	<unknown>
    2e7a: 00 00        	<unknown>
    2e7c: 00 00        	<unknown>
    2e7e: 03 00 00 00  	lb	zero, 0(zero)
    2e82: 00 00        	<unknown>
    2e84: 9c 0f        	<unknown>
    2e86: 00 80        	<unknown>
    2e88: 00 00        	<unknown>
    2e8a: 00 00        	<unknown>
    2e8c: 00 00        	<unknown>
    2e8e: 03 00 00 00  	lb	zero, 0(zero)
    2e92: 00 00        	<unknown>
    2e94: a0 0f        	<unknown>
    2e96: 00 80        	<unknown>
    2e98: 00 00        	<unknown>
    2e9a: 00 00        	<unknown>
    2e9c: 00 00        	<unknown>
    2e9e: 03 00 00 00  	lb	zero, 0(zero)
    2ea2: 00 00        	<unknown>
    2ea4: a8 0f        	<unknown>
    2ea6: 00 80        	<unknown>
    2ea8: 00 00        	<unknown>
    2eaa: 00 00        	<unknown>
    2eac: 00 00        	<unknown>
    2eae: 03 00 00 00  	lb	zero, 0(zero)
    2eb2: 00 00        	<unknown>
    2eb4: b0 0f        	<unknown>
    2eb6: 00 80        	<unknown>
    2eb8: 00 00        	<unknown>
    2eba: 00 00        	<unknown>
    2ebc: 00 00        	<unknown>
    2ebe: 03 00 00 00  	lb	zero, 0(zero)
    2ec2: 00 00        	<unknown>
    2ec4: b8 0f        	<unknown>
    2ec6: 00 80        	<unknown>
    2ec8: 00 00        	<unknown>
    2eca: 00 00        	<unknown>
    2ecc: 00 00        	<unknown>
    2ece: 03 00 00 00  	lb	zero, 0(zero)
    2ed2: 00 00        	<unknown>
    2ed4: c4 0f        	<unknown>
    2ed6: 00 80        	<unknown>
    2ed8: 00 00        	<unknown>
    2eda: 00 00        	<unknown>
    2edc: 00 00        	<unknown>
    2ede: 03 00 00 00  	lb	zero, 0(zero)
    2ee2: 00 00        	<unknown>
    2ee4: c8 0f        	<unknown>
    2ee6: 00 80        	<unknown>
    2ee8: 00 00        	<unknown>
    2eea: 00 00        	<unknown>
    2eec: 00 00        	<unknown>
    2eee: 03 00 00 00  	lb	zero, 0(zero)
    2ef2: 00 00        	<unknown>
    2ef4: d0 0f        	<unknown>
    2ef6: 00 80        	<unknown>
    2ef8: 00 00        	<unknown>
    2efa: 00 00        	<unknown>
    2efc: 00 00        	<unknown>
    2efe: 03 00 00 00  	lb	zero, 0(zero)
    2f02: 00 00        	<unknown>
    2f04: d8 0f        	<unknown>
    2f06: 00 80        	<unknown>
    2f08: 00 00        	<unknown>
    2f0a: 00 00        	<unknown>
    2f0c: 00 00        	<unknown>
    2f0e: 03 00 00 00  	lb	zero, 0(zero)
    2f12: 00 00        	<unknown>
    2f14: dc 0f        	<unknown>
    2f16: 00 80        	<unknown>
    2f18: 00 00        	<unknown>
    2f1a: 00 00        	<unknown>
    2f1c: 00 00        	<unknown>
    2f1e: 03 00 00 00  	lb	zero, 0(zero)
    2f22: 00 00        	<unknown>
    2f24: e4 0f        	<unknown>
    2f26: 00 80        	<unknown>
    2f28: 00 00        	<unknown>
    2f2a: 00 00        	<unknown>
    2f2c: 00 00        	<unknown>
    2f2e: 03 00 00 00  	lb	zero, 0(zero)
    2f32: 00 00        	<unknown>
    2f34: e8 0f        	<unknown>
    2f36: 00 80        	<unknown>
    2f38: 00 00        	<unknown>
    2f3a: 00 00        	<unknown>
    2f3c: 00 00        	<unknown>
    2f3e: 03 00 00 00  	lb	zero, 0(zero)
    2f42: 00 00        	<unknown>
    2f44: f4 0f        	<unknown>
    2f46: 00 80        	<unknown>
    2f48: 00 00        	<unknown>
    2f4a: 00 00        	<unknown>
    2f4c: 00 00        	<unknown>
    2f4e: 03 00 00 00  	lb	zero, 0(zero)
    2f52: 00 00        	<unknown>
    2f54: f8 0f        	<unknown>
    2f56: 00 80        	<unknown>
    2f58: 00 00        	<unknown>
    2f5a: 00 00        	<unknown>
    2f5c: 00 00        	<unknown>
    2f5e: 03 00 00 00  	lb	zero, 0(zero)
    2f62: 00 00        	<unknown>
    2f64: 00 10        	<unknown>
    2f66: 00 80        	<unknown>
    2f68: 00 00        	<unknown>
    2f6a: 00 00        	<unknown>
    2f6c: 00 00        	<unknown>
    2f6e: 03 00 00 00  	lb	zero, 0(zero)
    2f72: 00 00        	<unknown>
    2f74: 04 10        	<unknown>
    2f76: 00 80        	<unknown>
    2f78: 00 00        	<unknown>
    2f7a: 00 00        	<unknown>
    2f7c: 00 00        	<unknown>
    2f7e: 03 00 00 00  	lb	zero, 0(zero)
    2f82: 00 00        	<unknown>
    2f84: 08 10        	<unknown>
    2f86: 00 80        	<unknown>
    2f88: 00 00        	<unknown>
    2f8a: 00 00        	<unknown>
    2f8c: 00 00        	<unknown>
    2f8e: 03 00 00 00  	lb	zero, 0(zero)
    2f92: 00 00        	<unknown>
    2f94: 18 10        	<unknown>
    2f96: 00 80        	<unknown>
    2f98: 00 00        	<unknown>
    2f9a: 00 00        	<unknown>
    2f9c: 00 00        	<unknown>
    2f9e: 03 00 00 00  	lb	zero, 0(zero)
    2fa2: 00 00        	<unknown>
    2fa4: 20 10        	<unknown>
    2fa6: 00 80        	<unknown>
    2fa8: 00 00        	<unknown>
    2faa: 00 00        	<unknown>
    2fac: 00 00        	<unknown>
    2fae: 03 00 00 00  	lb	zero, 0(zero)
    2fb2: 00 00        	<unknown>
    2fb4: 28 10        	<unknown>
    2fb6: 00 80        	<unknown>
    2fb8: 00 00        	<unknown>
    2fba: 00 00        	<unknown>
    2fbc: 00 00        	<unknown>
    2fbe: 03 00 00 00  	lb	zero, 0(zero)
    2fc2: 00 00        	<unknown>
    2fc4: 34 10        	<unknown>
    2fc6: 00 80        	<unknown>
    2fc8: 00 00        	<unknown>
    2fca: 00 00        	<unknown>
    2fcc: 00 00        	<unknown>
    2fce: 03 00 00 00  	lb	zero, 0(zero)
    2fd2: 00 00        	<unknown>
    2fd4: 38 10        	<unknown>
    2fd6: 00 80        	<unknown>
    2fd8: 00 00        	<unknown>
    2fda: 00 00        	<unknown>
    2fdc: 00 00        	<unknown>
    2fde: 03 00 00 00  	lb	zero, 0(zero)
    2fe2: 00 00        	<unknown>
    2fe4: 3c 10        	<unknown>
    2fe6: 00 80        	<unknown>
    2fe8: 00 00        	<unknown>
    2fea: 00 00        	<unknown>
    2fec: 00 00        	<unknown>
    2fee: 03 00 00 00  	lb	zero, 0(zero)
    2ff2: 00 00        	<unknown>
    2ff4: 44 10        	<unknown>
    2ff6: 00 80        	<unknown>
    2ff8: 00 00        	<unknown>
    2ffa: 00 00        	<unknown>
    2ffc: 00 00        	<unknown>
    2ffe: 03 00 00 00  	lb	zero, 0(zero)
    3002: 00 00        	<unknown>
    3004: 48 10        	<unknown>
    3006: 00 80        	<unknown>
    3008: 00 00        	<unknown>
    300a: 00 00        	<unknown>
    300c: 00 00        	<unknown>
    300e: 03 00 00 00  	lb	zero, 0(zero)
    3012: 00 00        	<unknown>
    3014: 50 10        	<unknown>
    3016: 00 80        	<unknown>
    3018: 00 00        	<unknown>
    301a: 00 00        	<unknown>
    301c: 00 00        	<unknown>
    301e: 03 00 00 00  	lb	zero, 0(zero)
    3022: 00 00        	<unknown>
    3024: 58 10        	<unknown>
    3026: 00 80        	<unknown>
    3028: 00 00        	<unknown>
    302a: 00 00        	<unknown>
    302c: 00 00        	<unknown>
    302e: 03 00 00 00  	lb	zero, 0(zero)
    3032: 00 00        	<unknown>
    3034: 60 10        	<unknown>
    3036: 00 80        	<unknown>
    3038: 00 00        	<unknown>
    303a: 00 00        	<unknown>
    303c: 00 00        	<unknown>
    303e: 03 00 00 00  	lb	zero, 0(zero)
    3042: 00 00        	<unknown>
    3044: 70 10        	<unknown>
    3046: 00 80        	<unknown>
    3048: 00 00        	<unknown>
    304a: 00 00        	<unknown>
    304c: 00 00        	<unknown>
    304e: 03 00 00 00  	lb	zero, 0(zero)
    3052: 00 00        	<unknown>
    3054: 78 10        	<unknown>
    3056: 00 80        	<unknown>
    3058: 00 00        	<unknown>
    305a: 00 00        	<unknown>
    305c: 00 00        	<unknown>
    305e: 03 00 00 00  	lb	zero, 0(zero)
    3062: 00 00        	<unknown>
    3064: 7c 10        	<unknown>
    3066: 00 80        	<unknown>
    3068: 00 00        	<unknown>
    306a: 00 00        	<unknown>
    306c: 00 00        	<unknown>
    306e: 03 00 00 00  	lb	zero, 0(zero)
    3072: 00 00        	<unknown>
    3074: 88 10        	<unknown>
    3076: 00 80        	<unknown>
    3078: 00 00        	<unknown>
    307a: 00 00        	<unknown>
    307c: 00 00        	<unknown>
    307e: 03 00 00 00  	lb	zero, 0(zero)
    3082: 00 00        	<unknown>
    3084: 90 10        	<unknown>
    3086: 00 80        	<unknown>
    3088: 00 00        	<unknown>
    308a: 00 00        	<unknown>
    308c: 00 00        	<unknown>
    308e: 03 00 00 00  	lb	zero, 0(zero)
    3092: 00 00        	<unknown>
    3094: a0 10        	<unknown>
    3096: 00 80        	<unknown>
    3098: 00 00        	<unknown>
    309a: 00 00        	<unknown>
    309c: 00 00        	<unknown>
    309e: 03 00 00 00  	lb	zero, 0(zero)
    30a2: 00 00        	<unknown>
    30a4: ac 10        	<unknown>
    30a6: 00 80        	<unknown>
    30a8: 00 00        	<unknown>
    30aa: 00 00        	<unknown>
    30ac: 00 00        	<unknown>
    30ae: 03 00 00 00  	lb	zero, 0(zero)
    30b2: 00 00        	<unknown>
    30b4: b8 10        	<unknown>
    30b6: 00 80        	<unknown>
    30b8: 00 00        	<unknown>
    30ba: 00 00        	<unknown>
    30bc: 00 00        	<unknown>
    30be: 03 00 00 00  	lb	zero, 0(zero)
    30c2: 00 00        	<unknown>
    30c4: bc 10        	<unknown>
    30c6: 00 80        	<unknown>
    30c8: 00 00        	<unknown>
    30ca: 00 00        	<unknown>
    30cc: 00 00        	<unknown>
    30ce: 03 00 00 00  	lb	zero, 0(zero)
    30d2: 00 00        	<unknown>
    30d4: cc 10        	<unknown>
    30d6: 00 80        	<unknown>
    30d8: 00 00        	<unknown>
    30da: 00 00        	<unknown>
    30dc: 00 00        	<unknown>
    30de: 03 00 00 00  	lb	zero, 0(zero)
    30e2: 00 00        	<unknown>
    30e4: d8 10        	<unknown>
    30e6: 00 80        	<unknown>
    30e8: 00 00        	<unknown>
    30ea: 00 00        	<unknown>
    30ec: 00 00        	<unknown>
    30ee: 03 00 00 00  	lb	zero, 0(zero)
    30f2: 00 00        	<unknown>
    30f4: e4 10        	<unknown>
    30f6: 00 80        	<unknown>
    30f8: 00 00        	<unknown>
    30fa: 00 00        	<unknown>
    30fc: 00 00        	<unknown>
    30fe: 03 00 00 00  	lb	zero, 0(zero)
    3102: 00 00        	<unknown>
    3104: f8 10        	<unknown>
    3106: 00 80        	<unknown>
    3108: 00 00        	<unknown>
    310a: 00 00        	<unknown>
    310c: 00 00        	<unknown>
    310e: 03 00 00 00  	lb	zero, 0(zero)
    3112: 00 00        	<unknown>
    3114: fc 10        	<unknown>
    3116: 00 80        	<unknown>
    3118: 00 00        	<unknown>
    311a: 00 00        	<unknown>
    311c: 00 00        	<unknown>
    311e: 03 00 00 00  	lb	zero, 0(zero)
    3122: 00 00        	<unknown>
    3124: 00 11        	<unknown>
    3126: 00 80        	<unknown>
    3128: 00 00        	<unknown>
    312a: 00 00        	<unknown>
    312c: 00 00        	<unknown>
    312e: 03 00 00 00  	lb	zero, 0(zero)
    3132: 00 00        	<unknown>
    3134: 04 11        	<unknown>
    3136: 00 80        	<unknown>
    3138: 00 00        	<unknown>
    313a: 00 00        	<unknown>
    313c: 00 00        	<unknown>
    313e: 03 00 00 00  	lb	zero, 0(zero)
    3142: 00 00        	<unknown>
    3144: 08 11        	<unknown>
    3146: 00 80        	<unknown>
    3148: 00 00        	<unknown>
    314a: 00 00        	<unknown>
    314c: 00 00        	<unknown>
    314e: 03 00 00 00  	lb	zero, 0(zero)
    3152: 00 00        	<unknown>
    3154: 0c 11        	<unknown>
    3156: 00 80        	<unknown>
    3158: 00 00        	<unknown>
    315a: 00 00        	<unknown>
    315c: 00 00        	<unknown>
    315e: 03 00 00 00  	lb	zero, 0(zero)
    3162: 00 00        	<unknown>
    3164: 10 11        	<unknown>
    3166: 00 80        	<unknown>
    3168: 00 00        	<unknown>
    316a: 00 00        	<unknown>
    316c: 00 00        	<unknown>
    316e: 03 00 00 00  	lb	zero, 0(zero)
    3172: 00 00        	<unknown>
    3174: 18 11        	<unknown>
    3176: 00 80        	<unknown>
    3178: 00 00        	<unknown>
    317a: 00 00        	<unknown>
    317c: 00 00        	<unknown>
    317e: 03 00 00 00  	lb	zero, 0(zero)
    3182: 00 00        	<unknown>
    3184: 1c 11        	<unknown>
    3186: 00 80        	<unknown>
    3188: 00 00        	<unknown>
    318a: 00 00        	<unknown>
    318c: 00 00        	<unknown>
    318e: 03 00 00 00  	lb	zero, 0(zero)
    3192: 00 00        	<unknown>
    3194: 20 11        	<unknown>
    3196: 00 80        	<unknown>
    3198: 00 00        	<unknown>
    319a: 00 00        	<unknown>
    319c: 00 00        	<unknown>
    319e: 03 00 00 00  	lb	zero, 0(zero)
    31a2: 00 00        	<unknown>
    31a4: 24 11        	<unknown>
    31a6: 00 80        	<unknown>
    31a8: 00 00        	<unknown>
    31aa: 00 00        	<unknown>
    31ac: 00 00        	<unknown>
    31ae: 03 00 00 00  	lb	zero, 0(zero)
    31b2: 00 00        	<unknown>
    31b4: 2c 11        	<unknown>
    31b6: 00 80        	<unknown>
    31b8: 00 00        	<unknown>
    31ba: 00 00        	<unknown>
    31bc: 00 00        	<unknown>
    31be: 03 00 00 00  	lb	zero, 0(zero)
    31c2: 00 00        	<unknown>
    31c4: 30 11        	<unknown>
    31c6: 00 80        	<unknown>
    31c8: 00 00        	<unknown>
    31ca: 00 00        	<unknown>
    31cc: 00 00        	<unknown>
    31ce: 03 00 00 00  	lb	zero, 0(zero)
    31d2: 00 00        	<unknown>
    31d4: 38 11        	<unknown>
    31d6: 00 80        	<unknown>
    31d8: 00 00        	<unknown>
    31da: 00 00        	<unknown>
    31dc: 00 00        	<unknown>
    31de: 03 00 00 00  	lb	zero, 0(zero)
    31e2: 00 00        	<unknown>
    31e4: 3c 11        	<unknown>
    31e6: 00 80        	<unknown>
    31e8: 00 00        	<unknown>
    31ea: 00 00        	<unknown>
    31ec: 00 00        	<unknown>
    31ee: 03 00 00 00  	lb	zero, 0(zero)
    31f2: 00 00        	<unknown>
    31f4: 54 11        	<unknown>
    31f6: 00 80        	<unknown>
    31f8: 00 00        	<unknown>
    31fa: 00 00        	<unknown>
    31fc: 00 00        	<unknown>
    31fe: 03 00 00 00  	lb	zero, 0(zero)
    3202: 00 00        	<unknown>
    3204: 6c 11        	<unknown>
    3206: 00 80        	<unknown>
    3208: 00 00        	<unknown>
    320a: 00 00        	<unknown>
    320c: 00 00        	<unknown>
    320e: 03 00 00 00  	lb	zero, 0(zero)
    3212: 00 00        	<unknown>
    3214: 6c 11        	<unknown>
    3216: 00 80        	<unknown>
    3218: 00 00        	<unknown>
    321a: 00 00        	<unknown>
    321c: 00 00        	<unknown>
    321e: 03 00 00 00  	lb	zero, 0(zero)
    3222: 00 00        	<unknown>
    3224: 74 11        	<unknown>
    3226: 00 80        	<unknown>
    3228: 00 00        	<unknown>
    322a: 00 00        	<unknown>
    322c: 00 00        	<unknown>
    322e: 03 00 00 00  	lb	zero, 0(zero)
    3232: 00 00        	<unknown>
    3234: 78 11        	<unknown>
    3236: 00 80        	<unknown>
    3238: 00 00        	<unknown>
    323a: 00 00        	<unknown>
    323c: 00 00        	<unknown>
    323e: 03 00 00 00  	lb	zero, 0(zero)
    3242: 00 00        	<unknown>
    3244: 88 11        	<unknown>
    3246: 00 80        	<unknown>
    3248: 00 00        	<unknown>
    324a: 00 00        	<unknown>
    324c: 00 00        	<unknown>
    324e: 03 00 00 00  	lb	zero, 0(zero)
    3252: 00 00        	<unknown>
    3254: 88 11        	<unknown>
    3256: 00 80        	<unknown>
    3258: 00 00        	<unknown>
    325a: 00 00        	<unknown>
    325c: 00 00        	<unknown>
    325e: 03 00 00 00  	lb	zero, 0(zero)
    3262: 00 00        	<unknown>
    3264: 8c 11        	<unknown>
    3266: 00 80        	<unknown>
    3268: 00 00        	<unknown>
    326a: 00 00        	<unknown>
    326c: 00 00        	<unknown>
    326e: 03 00 00 00  	lb	zero, 0(zero)
    3272: 00 00        	<unknown>
    3274: 90 11        	<unknown>
    3276: 00 80        	<unknown>
    3278: 00 00        	<unknown>
    327a: 00 00        	<unknown>
    327c: 00 00        	<unknown>
    327e: 03 00 00 00  	lb	zero, 0(zero)
    3282: 00 00        	<unknown>
    3284: 94 11        	<unknown>
    3286: 00 80        	<unknown>
    3288: 00 00        	<unknown>
    328a: 00 00        	<unknown>
    328c: 00 00        	<unknown>
    328e: 03 00 00 00  	lb	zero, 0(zero)
    3292: 00 00        	<unknown>
    3294: 94 11        	<unknown>
    3296: 00 80        	<unknown>
    3298: 00 00        	<unknown>
    329a: 00 00        	<unknown>
    329c: 00 00        	<unknown>
    329e: 03 00 00 00  	lb	zero, 0(zero)
    32a2: 00 00        	<unknown>
    32a4: 9c 11        	<unknown>
    32a6: 00 80        	<unknown>
    32a8: 00 00        	<unknown>
    32aa: 00 00        	<unknown>
    32ac: 00 00        	<unknown>
    32ae: 03 00 00 00  	lb	zero, 0(zero)
    32b2: 00 00        	<unknown>
    32b4: a4 11        	<unknown>
    32b6: 00 80        	<unknown>
    32b8: 00 00        	<unknown>
    32ba: 00 00        	<unknown>
    32bc: 00 00        	<unknown>
    32be: 03 00 00 00  	lb	zero, 0(zero)
    32c2: 00 00        	<unknown>
    32c4: a8 11        	<unknown>
    32c6: 00 80        	<unknown>
    32c8: 00 00        	<unknown>
    32ca: 00 00        	<unknown>
    32cc: 00 00        	<unknown>
    32ce: 03 00 00 00  	lb	zero, 0(zero)
    32d2: 00 00        	<unknown>
    32d4: b8 11        	<unknown>
    32d6: 00 80        	<unknown>
    32d8: 00 00        	<unknown>
    32da: 00 00        	<unknown>
    32dc: 00 00        	<unknown>
    32de: 03 00 00 00  	lb	zero, 0(zero)
    32e2: 00 00        	<unknown>
    32e4: b8 11        	<unknown>
    32e6: 00 80        	<unknown>
    32e8: 00 00        	<unknown>
    32ea: 00 00        	<unknown>
    32ec: 00 00        	<unknown>
    32ee: 03 00 00 00  	lb	zero, 0(zero)
    32f2: 00 00        	<unknown>
    32f4: bc 11        	<unknown>
    32f6: 00 80        	<unknown>
    32f8: 00 00        	<unknown>
    32fa: 00 00        	<unknown>
    32fc: 00 00        	<unknown>
    32fe: 03 00 00 00  	lb	zero, 0(zero)
    3302: 00 00        	<unknown>
    3304: c0 11        	<unknown>
    3306: 00 80        	<unknown>
    3308: 00 00        	<unknown>
    330a: 00 00        	<unknown>
    330c: 00 00        	<unknown>
    330e: 03 00 00 00  	lb	zero, 0(zero)
    3312: 00 00        	<unknown>
    3314: c8 11        	<unknown>
    3316: 00 80        	<unknown>
    3318: 00 00        	<unknown>
    331a: 00 00        	<unknown>
    331c: 00 00        	<unknown>
    331e: 03 00 00 00  	lb	zero, 0(zero)
    3322: 00 00        	<unknown>
    3324: c8 11        	<unknown>
    3326: 00 80        	<unknown>
    3328: 00 00        	<unknown>
    332a: 00 00        	<unknown>
    332c: 00 00        	<unknown>
    332e: 03 00 00 00  	lb	zero, 0(zero)
    3332: 00 00        	<unknown>
    3334: cc 11        	<unknown>
    3336: 00 80        	<unknown>
    3338: 00 00        	<unknown>
    333a: 00 00        	<unknown>
    333c: 00 00        	<unknown>
    333e: 03 00 00 00  	lb	zero, 0(zero)
    3342: 00 00        	<unknown>
    3344: d8 11        	<unknown>
    3346: 00 80        	<unknown>
    3348: 00 00        	<unknown>
    334a: 00 00        	<unknown>
    334c: 00 00        	<unknown>
    334e: 03 00 00 00  	lb	zero, 0(zero)
    3352: 00 00        	<unknown>
    3354: e0 11        	<unknown>
    3356: 00 80        	<unknown>
    3358: 00 00        	<unknown>
    335a: 00 00        	<unknown>
    335c: 00 00        	<unknown>
    335e: 03 00 00 00  	lb	zero, 0(zero)
    3362: 00 00        	<unknown>
    3364: e4 11        	<unknown>
    3366: 00 80        	<unknown>
    3368: 00 00        	<unknown>
    336a: 00 00        	<unknown>
    336c: 00 00        	<unknown>
    336e: 03 00 00 00  	lb	zero, 0(zero)
    3372: 00 00        	<unknown>
    3374: e8 11        	<unknown>
    3376: 00 80        	<unknown>
    3378: 00 00        	<unknown>
    337a: 00 00        	<unknown>
    337c: 00 00        	<unknown>
    337e: 03 00 00 00  	lb	zero, 0(zero)
    3382: 00 00        	<unknown>
    3384: fc 11        	<unknown>
    3386: 00 80        	<unknown>
    3388: 00 00        	<unknown>
    338a: 00 00        	<unknown>
    338c: 00 00        	<unknown>
    338e: 03 00 00 00  	lb	zero, 0(zero)
    3392: 00 00        	<unknown>
    3394: fc 11        	<unknown>
    3396: 00 80        	<unknown>
    3398: 00 00        	<unknown>
    339a: 00 00        	<unknown>
    339c: 00 00        	<unknown>
    339e: 03 00 00 00  	lb	zero, 0(zero)
    33a2: 00 00        	<unknown>
    33a4: 04 12        	<unknown>
    33a6: 00 80        	<unknown>
    33a8: 00 00        	<unknown>
    33aa: 00 00        	<unknown>
    33ac: 00 00        	<unknown>
    33ae: 03 00 00 00  	lb	zero, 0(zero)
    33b2: 00 00        	<unknown>
    33b4: 0c 12        	<unknown>
    33b6: 00 80        	<unknown>
    33b8: 00 00        	<unknown>
    33ba: 00 00        	<unknown>
    33bc: 00 00        	<unknown>
    33be: 03 00 00 00  	lb	zero, 0(zero)
    33c2: 00 00        	<unknown>
    33c4: 10 12        	<unknown>
    33c6: 00 80        	<unknown>
    33c8: 00 00        	<unknown>
    33ca: 00 00        	<unknown>
    33cc: 00 00        	<unknown>
    33ce: 03 00 00 00  	lb	zero, 0(zero)
    33d2: 00 00        	<unknown>
    33d4: 48 12        	<unknown>
    33d6: 00 80        	<unknown>
    33d8: 00 00        	<unknown>
    33da: 00 00        	<unknown>
    33dc: 00 00        	<unknown>
    33de: 03 00 00 00  	lb	zero, 0(zero)
    33e2: 00 00        	<unknown>
    33e4: 48 12        	<unknown>
    33e6: 00 80        	<unknown>
    33e8: 00 00        	<unknown>
    33ea: 00 00        	<unknown>
    33ec: 00 00        	<unknown>
    33ee: 03 00 00 00  	lb	zero, 0(zero)
    33f2: 00 00        	<unknown>
    33f4: 04 04        	<unknown>
		...
    33fe: 0b 00 00 00  	p.lb	zero, 0(zero!)
    3402: 00 00        	<unknown>
    3404: 30 01        	<unknown>
		...
    340e: 0e 00        	<unknown>
    3410: 00 00        	<unknown>
    3412: 00 00        	<unknown>
    3414: 98 00        	<unknown>
		...
    341e: 10 00        	<unknown>
    3420: 00 00        	<unknown>
    3422: 00 00        	<unknown>
    3424: 85 00        	<unknown>
		...
    342e: 14 00        	<unknown>
		...
    343c: 00 00        	<unknown>
    343e: 0f 00 00 00  	fence	unknown, unknown
    3442: 00 00        	<unknown>
    3444: 67 03 00 00  	jalr	t1, zero
    3448: 00 00        	<unknown>
    344a: 00 00        	<unknown>
    344c: 00 00        	<unknown>
    344e: 0f 00 00 00  	fence	unknown, unknown
    3452: 00 00        	<unknown>
    3454: 8b 00 00 00  	p.lb	ra, 0(zero!)
    3458: 00 00        	<unknown>
    345a: 00 00        	<unknown>
    345c: 00 00        	<unknown>
    345e: 0f 00 00 00  	fence	unknown, unknown
    3462: 00 00        	<unknown>
    3464: fa 00        	<unknown>
		...
    346e: 0f 00 00 00  	fence	unknown, unknown
    3472: 00 00        	<unknown>
    3474: ff 02 00 00  	<unknown>
    3478: 00 00        	<unknown>
    347a: 00 00        	<unknown>
    347c: 00 00        	<unknown>
    347e: 0f 00 00 00  	fence	unknown, unknown
    3482: 00 00        	<unknown>
    3484: bd 02        	<unknown>
		...
    348e: 0f 00 00 00  	fence	unknown, unknown
    3492: 00 00        	<unknown>
    3494: d1 03        	<unknown>
		...
    349e: 0f 00 00 00  	fence	unknown, unknown
    34a2: 00 00        	<unknown>
    34a4: d3 03 00 00  	fadd.s	t2, zero, zero, rne
    34a8: 00 00        	<unknown>
    34aa: 00 00        	<unknown>
    34ac: 00 00        	<unknown>
    34ae: 0f 00 00 00  	fence	unknown, unknown
    34b2: 00 00        	<unknown>
    34b4: 03 01 00 00  	lb	sp, 0(zero)
    34b8: 00 00        	<unknown>
    34ba: 00 00        	<unknown>
    34bc: 00 00        	<unknown>
    34be: 0f 00 00 00  	fence	unknown, unknown
    34c2: 00 00        	<unknown>
    34c4: dd 03        	<unknown>
		...
    34ce: 0f 00 00 00  	fence	unknown, unknown
    34d2: 00 00        	<unknown>
    34d4: f4 03        	<unknown>
		...
    34de: 0f 00 00 00  	fence	unknown, unknown
    34e2: 00 00        	<unknown>
    34e4: b4 02        	<unknown>
		...
    34ee: 0f 00 00 00  	fence	unknown, unknown
    34f2: 00 00        	<unknown>
    34f4: eb 03 00 00  	<unknown>
    34f8: 00 00        	<unknown>
    34fa: 00 00        	<unknown>
    34fc: 00 00        	<unknown>
    34fe: 0f 00 00 00  	fence	unknown, unknown
    3502: 00 00        	<unknown>
    3504: f5 04        	<unknown>
		...
    350e: 0f 00 00 00  	fence	unknown, unknown
    3512: 00 00        	<unknown>
    3514: fa 03        	<unknown>
		...
    351e: 0f 00 00 00  	fence	unknown, unknown
    3522: 00 00        	<unknown>
    3524: fe 03        	<unknown>
		...
    352e: 0f 00 00 00  	fence	unknown, unknown
    3532: 00 00        	<unknown>
    3534: 10 04        	<unknown>
		...
    353e: 0f 00 00 00  	fence	unknown, unknown
    3542: 00 00        	<unknown>
    3544: 1a 04        	<unknown>
		...
    354e: 0f 00 00 00  	fence	unknown, unknown
    3552: 00 00        	<unknown>
    3554: 20 04        	<unknown>
		...
    355e: 0f 00 00 00  	fence	unknown, unknown
    3562: 00 00        	<unknown>
    3564: 23 04 00 00  	sb	zero, 8(zero)
    3568: 00 00        	<unknown>
    356a: 00 00        	<unknown>
    356c: 00 00        	<unknown>
    356e: 0f 00 00 00  	fence	unknown, unknown
    3572: 00 00        	<unknown>
    3574: 29 04        	<unknown>
		...
    357e: 0f 00 00 00  	fence	unknown, unknown
    3582: 00 00        	<unknown>
    3584: 29 07        	<unknown>
		...
    358e: 0f 00 00 00  	fence	unknown, unknown
    3592: 00 00        	<unknown>
    3594: 2d 04        	<unknown>
		...
    359e: 0f 00 00 00  	fence	unknown, unknown
    35a2: 00 00        	<unknown>
    35a4: 38 04        	<unknown>
		...
    35ae: 0f 00 00 00  	fence	unknown, unknown
    35b2: 00 00        	<unknown>
    35b4: 2d 02        	<unknown>
		...
    35be: 0f 00 00 00  	fence	unknown, unknown
    35c2: 00 00        	<unknown>
    35c4: 40 04        	<unknown>
		...
    35ce: 0f 00 00 00  	fence	unknown, unknown
    35d2: 00 00        	<unknown>
    35d4: 4d 04        	<unknown>
		...
    35de: 0f 00 00 00  	fence	unknown, unknown
    35e2: 00 00        	<unknown>
    35e4: 51 04        	<unknown>
		...
    35ee: 0f 00 00 00  	fence	unknown, unknown
    35f2: 00 00        	<unknown>
    35f4: d4 04        	<unknown>
		...
    35fe: 0f 00 00 00  	fence	unknown, unknown
    3602: 00 00        	<unknown>
    3604: 89 04        	<unknown>
		...
    360e: 0f 00 00 00  	fence	unknown, unknown
    3612: 00 00        	<unknown>
    3614: 5e 04        	<unknown>
		...
    361e: 0f 00 00 00  	fence	unknown, unknown
    3622: 00 00        	<unknown>
    3624: 65 04        	<unknown>
		...
    362e: 0f 00 00 00  	fence	unknown, unknown
    3632: 00 00        	<unknown>
    3634: 44 06        	<unknown>
		...
    363e: 0f 00 00 00  	fence	unknown, unknown
    3642: 00 00        	<unknown>
    3644: 69 04        	<unknown>
		...
    364e: 0f 00 00 00  	fence	unknown, unknown
    3652: 00 00        	<unknown>
    3654: 5a 03        	<unknown>
		...
    365e: 0f 00 00 00  	fence	unknown, unknown
    3662: 00 00        	<unknown>
    3664: 72 04        	<unknown>
		...
    366e: 0f 00 00 00  	fence	unknown, unknown
    3672: 00 00        	<unknown>
    3674: 77 04 00 00  	<unknown>
    3678: 00 00        	<unknown>
    367a: 00 00        	<unknown>
    367c: 00 00        	<unknown>
    367e: 0f 00 00 00  	fence	unknown, unknown
    3682: 00 00        	<unknown>
    3684: 7d 04        	<unknown>
		...
    368e: 0f 00 00 00  	fence	unknown, unknown
    3692: 00 00        	<unknown>
    3694: 83 04 00 00  	lb	s1, 0(zero)
    3698: 00 00        	<unknown>
    369a: 00 00        	<unknown>
    369c: 00 00        	<unknown>
    369e: 0f 00 00 00  	fence	unknown, unknown
    36a2: 00 00        	<unknown>
    36a4: 8d 04        	<unknown>
		...
    36ae: 0f 00 00 00  	fence	unknown, unknown
    36b2: 00 00        	<unknown>
    36b4: 9f 04 00 00  	<unknown>
    36b8: 00 00        	<unknown>
    36ba: 00 00        	<unknown>
    36bc: 00 00        	<unknown>
    36be: 0f 00 00 00  	fence	unknown, unknown
    36c2: 00 00        	<unknown>
    36c4: de 04        	<unknown>
		...
    36ce: 0f 00 00 00  	fence	unknown, unknown
    36d2: 00 00        	<unknown>
    36d4: b1 04        	<unknown>
		...
    36de: 0f 00 00 00  	fence	unknown, unknown
    36e2: 00 00        	<unknown>
    36e4: bc 04        	<unknown>
		...
    36ee: 0f 00 00 00  	fence	unknown, unknown
    36f2: 00 00        	<unknown>
    36f4: c6 04        	<unknown>
		...
    36fe: 0f 00 00 00  	fence	unknown, unknown
    3702: 00 00        	<unknown>
    3704: cf 04 00 00  	fnmadd.s	s1, zero, zero, zero, rne
    3708: 00 00        	<unknown>
    370a: 00 00        	<unknown>
    370c: 00 00        	<unknown>
    370e: 0f 00 00 00  	fence	unknown, unknown
    3712: 00 00        	<unknown>
    3714: dc 04        	<unknown>
		...
    371e: 0f 00 00 00  	fence	unknown, unknown
    3722: 00 00        	<unknown>
    3724: db 04 00 00  	<unknown>
    3728: 00 00        	<unknown>
    372a: 00 00        	<unknown>
    372c: 00 00        	<unknown>
    372e: 0f 00 00 00  	fence	unknown, unknown
    3732: 00 00        	<unknown>
    3734: e6 04        	<unknown>
		...
    373e: 0f 00 00 00  	fence	unknown, unknown
    3742: 00 00        	<unknown>
    3744: f0 04        	<unknown>
		...
    374e: 0f 00 00 00  	fence	unknown, unknown
    3752: 00 00        	<unknown>
    3754: f9 04        	<unknown>
		...
    375e: 0f 00 00 00  	fence	unknown, unknown
    3762: 00 00        	<unknown>
    3764: 03 05 00 00  	lb	a0, 0(zero)
    3768: 00 00        	<unknown>
    376a: 00 00        	<unknown>
    376c: 00 00        	<unknown>
    376e: 0f 00 00 00  	fence	unknown, unknown
    3772: 00 00        	<unknown>
    3774: 12 01        	<unknown>
		...
    377e: 0f 00 00 00  	fence	unknown, unknown
    3782: 00 00        	<unknown>
    3784: 46 04        	<unknown>
		...
    378e: 0f 00 00 00  	fence	unknown, unknown
    3792: 00 00        	<unknown>
    3794: 0e 05        	<unknown>
		...
    379e: 0f 00 00 00  	fence	unknown, unknown
    37a2: 00 00        	<unknown>
    37a4: 11 05        	<unknown>
		...
    37ae: 0f 00 00 00  	fence	unknown, unknown
    37b2: 00 00        	<unknown>
    37b4: 1b 05 00 00  	<unknown>
    37b8: 00 00        	<unknown>
    37ba: 00 00        	<unknown>
    37bc: 00 00        	<unknown>
    37be: 0f 00 00 00  	fence	unknown, unknown
    37c2: 00 00        	<unknown>
    37c4: 23 05 00 00  	sb	zero, 10(zero)
    37c8: 00 00        	<unknown>
    37ca: 00 00        	<unknown>
    37cc: 00 00        	<unknown>
    37ce: 0f 00 00 00  	fence	unknown, unknown
    37d2: 00 00        	<unknown>
    37d4: 46 06        	<unknown>
		...
    37de: 0f 00 00 00  	fence	unknown, unknown
    37e2: 00 00        	<unknown>
    37e4: 27 05 00 00  	fsb	ft0, 10(zero)
    37e8: 00 00        	<unknown>
    37ea: 00 00        	<unknown>
    37ec: 00 00        	<unknown>
    37ee: 0f 00 00 00  	fence	unknown, unknown
    37f2: 00 00        	<unknown>
    37f4: 31 05        	<unknown>
		...
    37fe: 0f 00 00 00  	fence	unknown, unknown
    3802: 00 00        	<unknown>
    3804: 33 05 00 00  	add	a0, zero, zero
    3808: 00 00        	<unknown>
    380a: 00 00        	<unknown>
    380c: 00 00        	<unknown>
    380e: 0f 00 00 00  	fence	unknown, unknown
    3812: 00 00        	<unknown>
    3814: e6 03        	<unknown>
		...
    381e: 0f 00 00 00  	fence	unknown, unknown
    3822: 00 00        	<unknown>
    3824: f1 00        	<unknown>
		...
    382e: 0f 00 00 00  	fence	unknown, unknown
    3832: 00 00        	<unknown>
    3834: 54 05        	<unknown>
		...
    383e: 0f 00 00 00  	fence	unknown, unknown
    3842: 00 00        	<unknown>
    3844: 39 05        	<unknown>
		...
    384e: 0f 00 00 00  	fence	unknown, unknown
    3852: 00 00        	<unknown>
    3854: 43 05 00 00  	fmadd.s	a0, zero, zero, zero, rne
    3858: 00 00        	<unknown>
    385a: 00 00        	<unknown>
    385c: 00 00        	<unknown>
    385e: 0f 00 00 00  	fence	unknown, unknown
    3862: 00 00        	<unknown>
    3864: 49 05        	<unknown>
		...
    386e: 0f 00 00 00  	fence	unknown, unknown
    3872: 00 00        	<unknown>
    3874: 14 04        	<unknown>
		...
    387e: 0f 00 00 00  	fence	unknown, unknown
    3882: 00 00        	<unknown>
    3884: f0 00        	<unknown>
		...
    388e: 11 00        	<unknown>
    3890: db 00 00 00  	<unknown>
		...
    389c: 04 00        	<unknown>
    389e: f1 ff        	<unknown>
    38a0: 00 00        	<unknown>
    38a2: 00 00        	<unknown>
    38a4: 48 12        	<unknown>
    38a6: 00 80        	<unknown>
    38a8: 00 00        	<unknown>
    38aa: 00 00        	<unknown>
    38ac: 00 00        	<unknown>
    38ae: 03 00 00 00  	lb	zero, 0(zero)
    38b2: 00 00        	<unknown>
    38b4: 48 12        	<unknown>
    38b6: 00 80        	<unknown>
    38b8: 00 00        	<unknown>
    38ba: 00 00        	<unknown>
    38bc: 00 00        	<unknown>
    38be: 03 00 00 00  	lb	zero, 0(zero)
    38c2: 00 00        	<unknown>
    38c4: 48 12        	<unknown>
    38c6: 00 80        	<unknown>
    38c8: 00 00        	<unknown>
    38ca: 00 00        	<unknown>
    38cc: 00 00        	<unknown>
    38ce: 03 00 00 00  	lb	zero, 0(zero)
    38d2: 00 00        	<unknown>
    38d4: 48 12        	<unknown>
    38d6: 00 80        	<unknown>
    38d8: 00 00        	<unknown>
    38da: 00 00        	<unknown>
    38dc: 00 00        	<unknown>
    38de: 03 00 00 00  	lb	zero, 0(zero)
    38e2: 00 00        	<unknown>
    38e4: 50 12        	<unknown>
    38e6: 00 80        	<unknown>
    38e8: 00 00        	<unknown>
    38ea: 00 00        	<unknown>
    38ec: 00 00        	<unknown>
    38ee: 03 00 00 00  	lb	zero, 0(zero)
    38f2: 00 00        	<unknown>
    38f4: 54 12        	<unknown>
    38f6: 00 80        	<unknown>
    38f8: 00 00        	<unknown>
    38fa: 00 00        	<unknown>
    38fc: 00 00        	<unknown>
    38fe: 03 00 00 00  	lb	zero, 0(zero)
    3902: 00 00        	<unknown>
    3904: 54 12        	<unknown>
    3906: 00 80        	<unknown>
    3908: 00 00        	<unknown>
    390a: 00 00        	<unknown>
    390c: 00 00        	<unknown>
    390e: 03 00 00 00  	lb	zero, 0(zero)
    3912: 00 00        	<unknown>
    3914: 4c 02        	<unknown>
		...
    391e: 0e 00        	<unknown>
    3920: 00 00        	<unknown>
    3922: 00 00        	<unknown>
    3924: 44 01        	<unknown>
		...
    392e: 10 00        	<unknown>
		...
    393c: 00 00        	<unknown>
    393e: 0f 00 00 00  	fence	unknown, unknown
    3942: 00 00        	<unknown>
    3944: 56 05        	<unknown>
		...
    394e: 0f 00 00 00  	fence	unknown, unknown
    3952: 00 00        	<unknown>
    3954: 8b 00 00 00  	p.lb	ra, 0(zero!)
    3958: 00 00        	<unknown>
    395a: 00 00        	<unknown>
    395c: 00 00        	<unknown>
    395e: 0f 00 00 00  	fence	unknown, unknown
    3962: 00 00        	<unknown>
    3964: c0 05        	<unknown>
		...
    396e: 0f 00 00 00  	fence	unknown, unknown
    3972: 00 00        	<unknown>
    3974: 39 05        	<unknown>
		...
    397e: 0f 00 00 00  	fence	unknown, unknown
    3982: 00 00        	<unknown>
    3984: bd 02        	<unknown>
		...
    398e: 0f 00 00 00  	fence	unknown, unknown
    3992: 00 00        	<unknown>
    3994: 10 02        	<unknown>
		...
    399e: 11 00        	<unknown>
    39a0: e4 00        	<unknown>
		...
    39aa: 00 00        	<unknown>
    39ac: 04 00        	<unknown>
    39ae: f1 ff        	<unknown>
    39b0: 00 00        	<unknown>
    39b2: 00 00        	<unknown>
    39b4: 54 12        	<unknown>
    39b6: 00 80        	<unknown>
    39b8: 00 00        	<unknown>
    39ba: 00 00        	<unknown>
    39bc: 00 00        	<unknown>
    39be: 03 00 00 00  	lb	zero, 0(zero)
    39c2: 00 00        	<unknown>
    39c4: 54 12        	<unknown>
    39c6: 00 80        	<unknown>
    39c8: 00 00        	<unknown>
    39ca: 00 00        	<unknown>
    39cc: 00 00        	<unknown>
    39ce: 03 00 00 00  	lb	zero, 0(zero)
    39d2: 00 00        	<unknown>
    39d4: 54 12        	<unknown>
    39d6: 00 80        	<unknown>
    39d8: 00 00        	<unknown>
    39da: 00 00        	<unknown>
    39dc: 00 00        	<unknown>
    39de: 03 00 00 00  	lb	zero, 0(zero)
    39e2: 00 00        	<unknown>
    39e4: 54 12        	<unknown>
    39e6: 00 80        	<unknown>
    39e8: 00 00        	<unknown>
    39ea: 00 00        	<unknown>
    39ec: 00 00        	<unknown>
    39ee: 03 00 00 00  	lb	zero, 0(zero)
    39f2: 00 00        	<unknown>
    39f4: 58 12        	<unknown>
    39f6: 00 80        	<unknown>
    39f8: 00 00        	<unknown>
    39fa: 00 00        	<unknown>
    39fc: 00 00        	<unknown>
    39fe: 03 00 00 00  	lb	zero, 0(zero)
    3a02: 00 00        	<unknown>
    3a04: 5c 12        	<unknown>
    3a06: 00 80        	<unknown>
    3a08: 00 00        	<unknown>
    3a0a: 00 00        	<unknown>
    3a0c: 00 00        	<unknown>
    3a0e: 03 00 00 00  	lb	zero, 0(zero)
    3a12: 00 00        	<unknown>
    3a14: 64 12        	<unknown>
    3a16: 00 80        	<unknown>
    3a18: 00 00        	<unknown>
    3a1a: 00 00        	<unknown>
    3a1c: 00 00        	<unknown>
    3a1e: 03 00 00 00  	lb	zero, 0(zero)
    3a22: 00 00        	<unknown>
    3a24: 68 12        	<unknown>
    3a26: 00 80        	<unknown>
    3a28: 00 00        	<unknown>
    3a2a: 00 00        	<unknown>
    3a2c: 00 00        	<unknown>
    3a2e: 03 00 00 00  	lb	zero, 0(zero)
    3a32: 00 00        	<unknown>
    3a34: 68 12        	<unknown>
    3a36: 00 80        	<unknown>
    3a38: 00 00        	<unknown>
    3a3a: 00 00        	<unknown>
    3a3c: 00 00        	<unknown>
    3a3e: 03 00 00 00  	lb	zero, 0(zero)
    3a42: 00 00        	<unknown>
    3a44: 6c 12        	<unknown>
    3a46: 00 80        	<unknown>
    3a48: 00 00        	<unknown>
    3a4a: 00 00        	<unknown>
    3a4c: 00 00        	<unknown>
    3a4e: 03 00 00 00  	lb	zero, 0(zero)
    3a52: 00 00        	<unknown>
    3a54: 70 12        	<unknown>
    3a56: 00 80        	<unknown>
    3a58: 00 00        	<unknown>
    3a5a: 00 00        	<unknown>
    3a5c: 00 00        	<unknown>
    3a5e: 03 00 00 00  	lb	zero, 0(zero)
    3a62: 00 00        	<unknown>
    3a64: 74 12        	<unknown>
    3a66: 00 80        	<unknown>
    3a68: 00 00        	<unknown>
    3a6a: 00 00        	<unknown>
    3a6c: 00 00        	<unknown>
    3a6e: 03 00 00 00  	lb	zero, 0(zero)
    3a72: 00 00        	<unknown>
    3a74: 78 12        	<unknown>
    3a76: 00 80        	<unknown>
    3a78: 00 00        	<unknown>
    3a7a: 00 00        	<unknown>
    3a7c: 00 00        	<unknown>
    3a7e: 03 00 00 00  	lb	zero, 0(zero)
    3a82: 00 00        	<unknown>
    3a84: 7c 12        	<unknown>
    3a86: 00 80        	<unknown>
    3a88: 00 00        	<unknown>
    3a8a: 00 00        	<unknown>
    3a8c: 00 00        	<unknown>
    3a8e: 03 00 00 00  	lb	zero, 0(zero)
    3a92: 00 00        	<unknown>
    3a94: 80 12        	<unknown>
    3a96: 00 80        	<unknown>
    3a98: 00 00        	<unknown>
    3a9a: 00 00        	<unknown>
    3a9c: 00 00        	<unknown>
    3a9e: 03 00 00 00  	lb	zero, 0(zero)
    3aa2: 00 00        	<unknown>
    3aa4: 88 12        	<unknown>
    3aa6: 00 80        	<unknown>
    3aa8: 00 00        	<unknown>
    3aaa: 00 00        	<unknown>
    3aac: 00 00        	<unknown>
    3aae: 03 00 00 00  	lb	zero, 0(zero)
    3ab2: 00 00        	<unknown>
    3ab4: 90 12        	<unknown>
    3ab6: 00 80        	<unknown>
    3ab8: 00 00        	<unknown>
    3aba: 00 00        	<unknown>
    3abc: 00 00        	<unknown>
    3abe: 03 00 00 00  	lb	zero, 0(zero)
    3ac2: 00 00        	<unknown>
    3ac4: 90 12        	<unknown>
    3ac6: 00 80        	<unknown>
    3ac8: 00 00        	<unknown>
    3aca: 00 00        	<unknown>
    3acc: 00 00        	<unknown>
    3ace: 03 00 00 00  	lb	zero, 0(zero)
    3ad2: 00 00        	<unknown>
    3ad4: 94 12        	<unknown>
    3ad6: 00 80        	<unknown>
    3ad8: 00 00        	<unknown>
    3ada: 00 00        	<unknown>
    3adc: 00 00        	<unknown>
    3ade: 03 00 00 00  	lb	zero, 0(zero)
    3ae2: 00 00        	<unknown>
    3ae4: 98 12        	<unknown>
    3ae6: 00 80        	<unknown>
    3ae8: 00 00        	<unknown>
    3aea: 00 00        	<unknown>
    3aec: 00 00        	<unknown>
    3aee: 03 00 00 00  	lb	zero, 0(zero)
    3af2: 00 00        	<unknown>
    3af4: 9c 12        	<unknown>
    3af6: 00 80        	<unknown>
    3af8: 00 00        	<unknown>
    3afa: 00 00        	<unknown>
    3afc: 00 00        	<unknown>
    3afe: 03 00 00 00  	lb	zero, 0(zero)
    3b02: 00 00        	<unknown>
    3b04: a0 12        	<unknown>
    3b06: 00 80        	<unknown>
    3b08: 00 00        	<unknown>
    3b0a: 00 00        	<unknown>
    3b0c: 00 00        	<unknown>
    3b0e: 03 00 00 00  	lb	zero, 0(zero)
    3b12: 00 00        	<unknown>
    3b14: a4 12        	<unknown>
    3b16: 00 80        	<unknown>
    3b18: 00 00        	<unknown>
    3b1a: 00 00        	<unknown>
    3b1c: 00 00        	<unknown>
    3b1e: 03 00 00 00  	lb	zero, 0(zero)
    3b22: 00 00        	<unknown>
    3b24: ac 12        	<unknown>
    3b26: 00 80        	<unknown>
    3b28: 00 00        	<unknown>
    3b2a: 00 00        	<unknown>
    3b2c: 00 00        	<unknown>
    3b2e: 03 00 00 00  	lb	zero, 0(zero)
    3b32: 00 00        	<unknown>
    3b34: b0 12        	<unknown>
    3b36: 00 80        	<unknown>
    3b38: 00 00        	<unknown>
    3b3a: 00 00        	<unknown>
    3b3c: 00 00        	<unknown>
    3b3e: 03 00 00 00  	lb	zero, 0(zero)
    3b42: 00 00        	<unknown>
    3b44: b0 12        	<unknown>
    3b46: 00 80        	<unknown>
    3b48: 00 00        	<unknown>
    3b4a: 00 00        	<unknown>
    3b4c: 00 00        	<unknown>
    3b4e: 03 00 00 00  	lb	zero, 0(zero)
    3b52: 00 00        	<unknown>
    3b54: b4 12        	<unknown>
    3b56: 00 80        	<unknown>
    3b58: 00 00        	<unknown>
    3b5a: 00 00        	<unknown>
    3b5c: 00 00        	<unknown>
    3b5e: 03 00 00 00  	lb	zero, 0(zero)
    3b62: 00 00        	<unknown>
    3b64: b4 12        	<unknown>
    3b66: 00 80        	<unknown>
    3b68: 00 00        	<unknown>
    3b6a: 00 00        	<unknown>
    3b6c: 00 00        	<unknown>
    3b6e: 03 00 00 00  	lb	zero, 0(zero)
    3b72: 00 00        	<unknown>
    3b74: b4 12        	<unknown>
    3b76: 00 80        	<unknown>
    3b78: 00 00        	<unknown>
    3b7a: 00 00        	<unknown>
    3b7c: 00 00        	<unknown>
    3b7e: 03 00 00 00  	lb	zero, 0(zero)
    3b82: 00 00        	<unknown>
    3b84: b4 12        	<unknown>
    3b86: 00 80        	<unknown>
    3b88: 00 00        	<unknown>
    3b8a: 00 00        	<unknown>
    3b8c: 00 00        	<unknown>
    3b8e: 03 00 00 00  	lb	zero, 0(zero)
    3b92: 00 00        	<unknown>
    3b94: b4 12        	<unknown>
    3b96: 00 80        	<unknown>
    3b98: 00 00        	<unknown>
    3b9a: 00 00        	<unknown>
    3b9c: 00 00        	<unknown>
    3b9e: 03 00 00 00  	lb	zero, 0(zero)
    3ba2: 00 00        	<unknown>
    3ba4: b4 12        	<unknown>
    3ba6: 00 80        	<unknown>
    3ba8: 00 00        	<unknown>
    3baa: 00 00        	<unknown>
    3bac: 00 00        	<unknown>
    3bae: 03 00 00 00  	lb	zero, 0(zero)
    3bb2: 00 00        	<unknown>
    3bb4: b8 12        	<unknown>
    3bb6: 00 80        	<unknown>
    3bb8: 00 00        	<unknown>
    3bba: 00 00        	<unknown>
    3bbc: 00 00        	<unknown>
    3bbe: 03 00 00 00  	lb	zero, 0(zero)
    3bc2: 00 00        	<unknown>
    3bc4: bc 12        	<unknown>
    3bc6: 00 80        	<unknown>
    3bc8: 00 00        	<unknown>
    3bca: 00 00        	<unknown>
    3bcc: 00 00        	<unknown>
    3bce: 03 00 00 00  	lb	zero, 0(zero)
    3bd2: 00 00        	<unknown>
    3bd4: c0 12        	<unknown>
    3bd6: 00 80        	<unknown>
    3bd8: 00 00        	<unknown>
    3bda: 00 00        	<unknown>
    3bdc: 00 00        	<unknown>
    3bde: 03 00 00 00  	lb	zero, 0(zero)
    3be2: 00 00        	<unknown>
    3be4: c4 12        	<unknown>
    3be6: 00 80        	<unknown>
    3be8: 00 00        	<unknown>
    3bea: 00 00        	<unknown>
    3bec: 00 00        	<unknown>
    3bee: 03 00 00 00  	lb	zero, 0(zero)
    3bf2: 00 00        	<unknown>
    3bf4: c4 12        	<unknown>
    3bf6: 00 80        	<unknown>
    3bf8: 00 00        	<unknown>
    3bfa: 00 00        	<unknown>
    3bfc: 00 00        	<unknown>
    3bfe: 03 00 00 00  	lb	zero, 0(zero)
    3c02: 00 00        	<unknown>
    3c04: c8 12        	<unknown>
    3c06: 00 80        	<unknown>
    3c08: 00 00        	<unknown>
    3c0a: 00 00        	<unknown>
    3c0c: 00 00        	<unknown>
    3c0e: 03 00 00 00  	lb	zero, 0(zero)
    3c12: 00 00        	<unknown>
    3c14: cc 12        	<unknown>
    3c16: 00 80        	<unknown>
    3c18: 00 00        	<unknown>
    3c1a: 00 00        	<unknown>
    3c1c: 00 00        	<unknown>
    3c1e: 03 00 00 00  	lb	zero, 0(zero)
    3c22: 00 00        	<unknown>
    3c24: d0 12        	<unknown>
    3c26: 00 80        	<unknown>
    3c28: 00 00        	<unknown>
    3c2a: 00 00        	<unknown>
    3c2c: 00 00        	<unknown>
    3c2e: 03 00 00 00  	lb	zero, 0(zero)
    3c32: 00 00        	<unknown>
    3c34: d4 12        	<unknown>
    3c36: 00 80        	<unknown>
    3c38: 00 00        	<unknown>
    3c3a: 00 00        	<unknown>
    3c3c: 00 00        	<unknown>
    3c3e: 03 00 00 00  	lb	zero, 0(zero)
    3c42: 00 00        	<unknown>
    3c44: e0 12        	<unknown>
    3c46: 00 80        	<unknown>
    3c48: 00 00        	<unknown>
    3c4a: 00 00        	<unknown>
    3c4c: 00 00        	<unknown>
    3c4e: 03 00 00 00  	lb	zero, 0(zero)
    3c52: 00 00        	<unknown>
    3c54: e0 12        	<unknown>
    3c56: 00 80        	<unknown>
    3c58: 00 00        	<unknown>
    3c5a: 00 00        	<unknown>
    3c5c: 00 00        	<unknown>
    3c5e: 03 00 00 00  	lb	zero, 0(zero)
    3c62: 00 00        	<unknown>
    3c64: e4 12        	<unknown>
    3c66: 00 80        	<unknown>
    3c68: 00 00        	<unknown>
    3c6a: 00 00        	<unknown>
    3c6c: 00 00        	<unknown>
    3c6e: 03 00 00 00  	lb	zero, 0(zero)
    3c72: 00 00        	<unknown>
    3c74: e4 12        	<unknown>
    3c76: 00 80        	<unknown>
    3c78: 00 00        	<unknown>
    3c7a: 00 00        	<unknown>
    3c7c: 00 00        	<unknown>
    3c7e: 03 00 00 00  	lb	zero, 0(zero)
    3c82: 00 00        	<unknown>
    3c84: e8 12        	<unknown>
    3c86: 00 80        	<unknown>
    3c88: 00 00        	<unknown>
    3c8a: 00 00        	<unknown>
    3c8c: 00 00        	<unknown>
    3c8e: 03 00 00 00  	lb	zero, 0(zero)
    3c92: 00 00        	<unknown>
    3c94: fc 12        	<unknown>
    3c96: 00 80        	<unknown>
    3c98: 00 00        	<unknown>
    3c9a: 00 00        	<unknown>
    3c9c: 00 00        	<unknown>
    3c9e: 03 00 00 00  	lb	zero, 0(zero)
    3ca2: 00 00        	<unknown>
    3ca4: 00 13        	<unknown>
    3ca6: 00 80        	<unknown>
    3ca8: 00 00        	<unknown>
    3caa: 00 00        	<unknown>
    3cac: 00 00        	<unknown>
    3cae: 03 00 00 00  	lb	zero, 0(zero)
    3cb2: 00 00        	<unknown>
    3cb4: 08 13        	<unknown>
    3cb6: 00 80        	<unknown>
    3cb8: 00 00        	<unknown>
    3cba: 00 00        	<unknown>
    3cbc: 00 00        	<unknown>
    3cbe: 03 00 00 00  	lb	zero, 0(zero)
    3cc2: 00 00        	<unknown>
    3cc4: 0c 13        	<unknown>
    3cc6: 00 80        	<unknown>
    3cc8: 00 00        	<unknown>
    3cca: 00 00        	<unknown>
    3ccc: 00 00        	<unknown>
    3cce: 03 00 00 00  	lb	zero, 0(zero)
    3cd2: 00 00        	<unknown>
    3cd4: 0c 13        	<unknown>
    3cd6: 00 80        	<unknown>
    3cd8: 00 00        	<unknown>
    3cda: 00 00        	<unknown>
    3cdc: 00 00        	<unknown>
    3cde: 03 00 00 00  	lb	zero, 0(zero)
    3ce2: 00 00        	<unknown>
    3ce4: 10 13        	<unknown>
    3ce6: 00 80        	<unknown>
    3ce8: 00 00        	<unknown>
    3cea: 00 00        	<unknown>
    3cec: 00 00        	<unknown>
    3cee: 03 00 00 00  	lb	zero, 0(zero)
    3cf2: 00 00        	<unknown>
    3cf4: 10 13        	<unknown>
    3cf6: 00 80        	<unknown>
    3cf8: 00 00        	<unknown>
    3cfa: 00 00        	<unknown>
    3cfc: 00 00        	<unknown>
    3cfe: 03 00 00 00  	lb	zero, 0(zero)
    3d02: 00 00        	<unknown>
    3d04: 10 13        	<unknown>
    3d06: 00 80        	<unknown>
    3d08: 00 00        	<unknown>
    3d0a: 00 00        	<unknown>
    3d0c: 00 00        	<unknown>
    3d0e: 03 00 00 00  	lb	zero, 0(zero)
    3d12: 00 00        	<unknown>
    3d14: 10 13        	<unknown>
    3d16: 00 80        	<unknown>
    3d18: 00 00        	<unknown>
    3d1a: 00 00        	<unknown>
    3d1c: 00 00        	<unknown>
    3d1e: 03 00 00 00  	lb	zero, 0(zero)
    3d22: 00 00        	<unknown>
    3d24: 10 13        	<unknown>
    3d26: 00 80        	<unknown>
    3d28: 00 00        	<unknown>
    3d2a: 00 00        	<unknown>
    3d2c: 00 00        	<unknown>
    3d2e: 03 00 00 00  	lb	zero, 0(zero)
    3d32: 00 00        	<unknown>
    3d34: 14 13        	<unknown>
    3d36: 00 80        	<unknown>
    3d38: 00 00        	<unknown>
    3d3a: 00 00        	<unknown>
    3d3c: 00 00        	<unknown>
    3d3e: 03 00 00 00  	lb	zero, 0(zero)
    3d42: 00 00        	<unknown>
    3d44: 1c 13        	<unknown>
    3d46: 00 80        	<unknown>
    3d48: 00 00        	<unknown>
    3d4a: 00 00        	<unknown>
    3d4c: 00 00        	<unknown>
    3d4e: 03 00 00 00  	lb	zero, 0(zero)
    3d52: 00 00        	<unknown>
    3d54: 24 13        	<unknown>
    3d56: 00 80        	<unknown>
    3d58: 00 00        	<unknown>
    3d5a: 00 00        	<unknown>
    3d5c: 00 00        	<unknown>
    3d5e: 03 00 00 00  	lb	zero, 0(zero)
    3d62: 00 00        	<unknown>
    3d64: 2c 13        	<unknown>
    3d66: 00 80        	<unknown>
    3d68: 00 00        	<unknown>
    3d6a: 00 00        	<unknown>
    3d6c: 00 00        	<unknown>
    3d6e: 03 00 00 00  	lb	zero, 0(zero)
    3d72: 00 00        	<unknown>
    3d74: 2c 13        	<unknown>
    3d76: 00 80        	<unknown>
    3d78: 00 00        	<unknown>
    3d7a: 00 00        	<unknown>
    3d7c: 00 00        	<unknown>
    3d7e: 03 00 00 00  	lb	zero, 0(zero)
    3d82: 00 00        	<unknown>
    3d84: 2c 13        	<unknown>
    3d86: 00 80        	<unknown>
    3d88: 00 00        	<unknown>
    3d8a: 00 00        	<unknown>
    3d8c: 00 00        	<unknown>
    3d8e: 03 00 00 00  	lb	zero, 0(zero)
    3d92: 00 00        	<unknown>
    3d94: 2c 13        	<unknown>
    3d96: 00 80        	<unknown>
    3d98: 00 00        	<unknown>
    3d9a: 00 00        	<unknown>
    3d9c: 00 00        	<unknown>
    3d9e: 03 00 00 00  	lb	zero, 0(zero)
    3da2: 00 00        	<unknown>
    3da4: 2c 13        	<unknown>
    3da6: 00 80        	<unknown>
    3da8: 00 00        	<unknown>
    3daa: 00 00        	<unknown>
    3dac: 00 00        	<unknown>
    3dae: 03 00 00 00  	lb	zero, 0(zero)
    3db2: 00 00        	<unknown>
    3db4: 2c 13        	<unknown>
    3db6: 00 80        	<unknown>
    3db8: 00 00        	<unknown>
    3dba: 00 00        	<unknown>
    3dbc: 00 00        	<unknown>
    3dbe: 03 00 00 00  	lb	zero, 0(zero)
    3dc2: 00 00        	<unknown>
    3dc4: 30 13        	<unknown>
    3dc6: 00 80        	<unknown>
    3dc8: 00 00        	<unknown>
    3dca: 00 00        	<unknown>
    3dcc: 00 00        	<unknown>
    3dce: 03 00 00 00  	lb	zero, 0(zero)
    3dd2: 00 00        	<unknown>
    3dd4: 34 13        	<unknown>
    3dd6: 00 80        	<unknown>
    3dd8: 00 00        	<unknown>
    3dda: 00 00        	<unknown>
    3ddc: 00 00        	<unknown>
    3dde: 03 00 00 00  	lb	zero, 0(zero)
    3de2: 00 00        	<unknown>
    3de4: 38 13        	<unknown>
    3de6: 00 80        	<unknown>
    3de8: 00 00        	<unknown>
    3dea: 00 00        	<unknown>
    3dec: 00 00        	<unknown>
    3dee: 03 00 00 00  	lb	zero, 0(zero)
    3df2: 00 00        	<unknown>
    3df4: 3c 13        	<unknown>
    3df6: 00 80        	<unknown>
    3df8: 00 00        	<unknown>
    3dfa: 00 00        	<unknown>
    3dfc: 00 00        	<unknown>
    3dfe: 03 00 00 00  	lb	zero, 0(zero)
    3e02: 00 00        	<unknown>
    3e04: 40 13        	<unknown>
    3e06: 00 80        	<unknown>
    3e08: 00 00        	<unknown>
    3e0a: 00 00        	<unknown>
    3e0c: 00 00        	<unknown>
    3e0e: 03 00 00 00  	lb	zero, 0(zero)
    3e12: 00 00        	<unknown>
    3e14: 4c 13        	<unknown>
    3e16: 00 80        	<unknown>
    3e18: 00 00        	<unknown>
    3e1a: 00 00        	<unknown>
    3e1c: 00 00        	<unknown>
    3e1e: 03 00 00 00  	lb	zero, 0(zero)
    3e22: 00 00        	<unknown>
    3e24: 50 13        	<unknown>
    3e26: 00 80        	<unknown>
    3e28: 00 00        	<unknown>
    3e2a: 00 00        	<unknown>
    3e2c: 00 00        	<unknown>
    3e2e: 03 00 00 00  	lb	zero, 0(zero)
    3e32: 00 00        	<unknown>
    3e34: 54 13        	<unknown>
    3e36: 00 80        	<unknown>
    3e38: 00 00        	<unknown>
    3e3a: 00 00        	<unknown>
    3e3c: 00 00        	<unknown>
    3e3e: 03 00 00 00  	lb	zero, 0(zero)
    3e42: 00 00        	<unknown>
    3e44: 58 13        	<unknown>
    3e46: 00 80        	<unknown>
    3e48: 00 00        	<unknown>
    3e4a: 00 00        	<unknown>
    3e4c: 00 00        	<unknown>
    3e4e: 03 00 00 00  	lb	zero, 0(zero)
    3e52: 00 00        	<unknown>
    3e54: 58 13        	<unknown>
    3e56: 00 80        	<unknown>
    3e58: 00 00        	<unknown>
    3e5a: 00 00        	<unknown>
    3e5c: 00 00        	<unknown>
    3e5e: 03 00 00 00  	lb	zero, 0(zero)
    3e62: 00 00        	<unknown>
    3e64: 58 13        	<unknown>
    3e66: 00 80        	<unknown>
    3e68: 00 00        	<unknown>
    3e6a: 00 00        	<unknown>
    3e6c: 00 00        	<unknown>
    3e6e: 03 00 00 00  	lb	zero, 0(zero)
    3e72: 00 00        	<unknown>
    3e74: 58 13        	<unknown>
    3e76: 00 80        	<unknown>
    3e78: 00 00        	<unknown>
    3e7a: 00 00        	<unknown>
    3e7c: 00 00        	<unknown>
    3e7e: 03 00 00 00  	lb	zero, 0(zero)
    3e82: 00 00        	<unknown>
    3e84: 58 13        	<unknown>
    3e86: 00 80        	<unknown>
    3e88: 00 00        	<unknown>
    3e8a: 00 00        	<unknown>
    3e8c: 00 00        	<unknown>
    3e8e: 03 00 00 00  	lb	zero, 0(zero)
    3e92: 00 00        	<unknown>
    3e94: 58 13        	<unknown>
    3e96: 00 80        	<unknown>
    3e98: 00 00        	<unknown>
    3e9a: 00 00        	<unknown>
    3e9c: 00 00        	<unknown>
    3e9e: 03 00 00 00  	lb	zero, 0(zero)
    3ea2: 00 00        	<unknown>
    3ea4: 5c 13        	<unknown>
    3ea6: 00 80        	<unknown>
    3ea8: 00 00        	<unknown>
    3eaa: 00 00        	<unknown>
    3eac: 00 00        	<unknown>
    3eae: 03 00 00 00  	lb	zero, 0(zero)
    3eb2: 00 00        	<unknown>
    3eb4: 60 13        	<unknown>
    3eb6: 00 80        	<unknown>
    3eb8: 00 00        	<unknown>
    3eba: 00 00        	<unknown>
    3ebc: 00 00        	<unknown>
    3ebe: 03 00 00 00  	lb	zero, 0(zero)
    3ec2: 00 00        	<unknown>
    3ec4: 64 13        	<unknown>
    3ec6: 00 80        	<unknown>
    3ec8: 00 00        	<unknown>
    3eca: 00 00        	<unknown>
    3ecc: 00 00        	<unknown>
    3ece: 03 00 00 00  	lb	zero, 0(zero)
    3ed2: 00 00        	<unknown>
    3ed4: 64 13        	<unknown>
    3ed6: 00 80        	<unknown>
    3ed8: 00 00        	<unknown>
    3eda: 00 00        	<unknown>
    3edc: 00 00        	<unknown>
    3ede: 03 00 00 00  	lb	zero, 0(zero)
    3ee2: 00 00        	<unknown>
    3ee4: 68 13        	<unknown>
    3ee6: 00 80        	<unknown>
    3ee8: 00 00        	<unknown>
    3eea: 00 00        	<unknown>
    3eec: 00 00        	<unknown>
    3eee: 03 00 00 00  	lb	zero, 0(zero)
    3ef2: 00 00        	<unknown>
    3ef4: 6c 13        	<unknown>
    3ef6: 00 80        	<unknown>
    3ef8: 00 00        	<unknown>
    3efa: 00 00        	<unknown>
    3efc: 00 00        	<unknown>
    3efe: 03 00 00 00  	lb	zero, 0(zero)
    3f02: 00 00        	<unknown>
    3f04: 70 13        	<unknown>
    3f06: 00 80        	<unknown>
    3f08: 00 00        	<unknown>
    3f0a: 00 00        	<unknown>
    3f0c: 00 00        	<unknown>
    3f0e: 03 00 00 00  	lb	zero, 0(zero)
    3f12: 00 00        	<unknown>
    3f14: 74 13        	<unknown>
    3f16: 00 80        	<unknown>
    3f18: 00 00        	<unknown>
    3f1a: 00 00        	<unknown>
    3f1c: 00 00        	<unknown>
    3f1e: 03 00 00 00  	lb	zero, 0(zero)
    3f22: 00 00        	<unknown>
    3f24: 78 13        	<unknown>
    3f26: 00 80        	<unknown>
    3f28: 00 00        	<unknown>
    3f2a: 00 00        	<unknown>
    3f2c: 00 00        	<unknown>
    3f2e: 03 00 00 00  	lb	zero, 0(zero)
    3f32: 00 00        	<unknown>
    3f34: 7c 13        	<unknown>
    3f36: 00 80        	<unknown>
    3f38: 00 00        	<unknown>
    3f3a: 00 00        	<unknown>
    3f3c: 00 00        	<unknown>
    3f3e: 03 00 00 00  	lb	zero, 0(zero)
    3f42: 00 00        	<unknown>
    3f44: 80 13        	<unknown>
    3f46: 00 80        	<unknown>
    3f48: 00 00        	<unknown>
    3f4a: 00 00        	<unknown>
    3f4c: 00 00        	<unknown>
    3f4e: 03 00 00 00  	lb	zero, 0(zero)
    3f52: 00 00        	<unknown>
    3f54: 84 13        	<unknown>
    3f56: 00 80        	<unknown>
    3f58: 00 00        	<unknown>
    3f5a: 00 00        	<unknown>
    3f5c: 00 00        	<unknown>
    3f5e: 03 00 00 00  	lb	zero, 0(zero)
    3f62: 00 00        	<unknown>
    3f64: 88 13        	<unknown>
    3f66: 00 80        	<unknown>
    3f68: 00 00        	<unknown>
    3f6a: 00 00        	<unknown>
    3f6c: 00 00        	<unknown>
    3f6e: 03 00 00 00  	lb	zero, 0(zero)
    3f72: 00 00        	<unknown>
    3f74: 90 13        	<unknown>
    3f76: 00 80        	<unknown>
    3f78: 00 00        	<unknown>
    3f7a: 00 00        	<unknown>
    3f7c: 00 00        	<unknown>
    3f7e: 03 00 00 00  	lb	zero, 0(zero)
    3f82: 00 00        	<unknown>
    3f84: 94 13        	<unknown>
    3f86: 00 80        	<unknown>
    3f88: 00 00        	<unknown>
    3f8a: 00 00        	<unknown>
    3f8c: 00 00        	<unknown>
    3f8e: 03 00 00 00  	lb	zero, 0(zero)
    3f92: 00 00        	<unknown>
    3f94: 98 13        	<unknown>
    3f96: 00 80        	<unknown>
    3f98: 00 00        	<unknown>
    3f9a: 00 00        	<unknown>
    3f9c: 00 00        	<unknown>
    3f9e: 03 00 00 00  	lb	zero, 0(zero)
    3fa2: 00 00        	<unknown>
    3fa4: 9c 13        	<unknown>
    3fa6: 00 80        	<unknown>
    3fa8: 00 00        	<unknown>
    3faa: 00 00        	<unknown>
    3fac: 00 00        	<unknown>
    3fae: 03 00 00 00  	lb	zero, 0(zero)
    3fb2: 00 00        	<unknown>
    3fb4: a0 13        	<unknown>
    3fb6: 00 80        	<unknown>
    3fb8: 00 00        	<unknown>
    3fba: 00 00        	<unknown>
    3fbc: 00 00        	<unknown>
    3fbe: 03 00 00 00  	lb	zero, 0(zero)
    3fc2: 00 00        	<unknown>
    3fc4: a0 13        	<unknown>
    3fc6: 00 80        	<unknown>
    3fc8: 00 00        	<unknown>
    3fca: 00 00        	<unknown>
    3fcc: 00 00        	<unknown>
    3fce: 03 00 00 00  	lb	zero, 0(zero)
    3fd2: 00 00        	<unknown>
    3fd4: a4 13        	<unknown>
    3fd6: 00 80        	<unknown>
    3fd8: 00 00        	<unknown>
    3fda: 00 00        	<unknown>
    3fdc: 00 00        	<unknown>
    3fde: 03 00 00 00  	lb	zero, 0(zero)
    3fe2: 00 00        	<unknown>
    3fe4: a8 13        	<unknown>
    3fe6: 00 80        	<unknown>
    3fe8: 00 00        	<unknown>
    3fea: 00 00        	<unknown>
    3fec: 00 00        	<unknown>
    3fee: 03 00 00 00  	lb	zero, 0(zero)
    3ff2: 00 00        	<unknown>
    3ff4: a8 13        	<unknown>
    3ff6: 00 80        	<unknown>
    3ff8: 00 00        	<unknown>
    3ffa: 00 00        	<unknown>
    3ffc: 00 00        	<unknown>
    3ffe: 03 00 00 00  	lb	zero, 0(zero)
    4002: 00 00        	<unknown>
    4004: ac 13        	<unknown>
    4006: 00 80        	<unknown>
    4008: 00 00        	<unknown>
    400a: 00 00        	<unknown>
    400c: 00 00        	<unknown>
    400e: 03 00 00 00  	lb	zero, 0(zero)
    4012: 00 00        	<unknown>
    4014: b0 13        	<unknown>
    4016: 00 80        	<unknown>
    4018: 00 00        	<unknown>
    401a: 00 00        	<unknown>
    401c: 00 00        	<unknown>
    401e: 03 00 00 00  	lb	zero, 0(zero)
    4022: 00 00        	<unknown>
    4024: b4 13        	<unknown>
    4026: 00 80        	<unknown>
    4028: 00 00        	<unknown>
    402a: 00 00        	<unknown>
    402c: 00 00        	<unknown>
    402e: 03 00 00 00  	lb	zero, 0(zero)
    4032: 00 00        	<unknown>
    4034: b8 13        	<unknown>
    4036: 00 80        	<unknown>
    4038: 00 00        	<unknown>
    403a: 00 00        	<unknown>
    403c: 00 00        	<unknown>
    403e: 03 00 00 00  	lb	zero, 0(zero)
    4042: 00 00        	<unknown>
    4044: bc 13        	<unknown>
    4046: 00 80        	<unknown>
    4048: 00 00        	<unknown>
    404a: 00 00        	<unknown>
    404c: 00 00        	<unknown>
    404e: 03 00 00 00  	lb	zero, 0(zero)
    4052: 00 00        	<unknown>
    4054: c0 13        	<unknown>
    4056: 00 80        	<unknown>
    4058: 00 00        	<unknown>
    405a: 00 00        	<unknown>
    405c: 00 00        	<unknown>
    405e: 03 00 00 00  	lb	zero, 0(zero)
    4062: 00 00        	<unknown>
    4064: c0 13        	<unknown>
    4066: 00 80        	<unknown>
    4068: 00 00        	<unknown>
    406a: 00 00        	<unknown>
    406c: 00 00        	<unknown>
    406e: 03 00 00 00  	lb	zero, 0(zero)
    4072: 00 00        	<unknown>
    4074: c4 13        	<unknown>
    4076: 00 80        	<unknown>
    4078: 00 00        	<unknown>
    407a: 00 00        	<unknown>
    407c: 00 00        	<unknown>
    407e: 03 00 00 00  	lb	zero, 0(zero)
    4082: 00 00        	<unknown>
    4084: c8 13        	<unknown>
    4086: 00 80        	<unknown>
    4088: 00 00        	<unknown>
    408a: 00 00        	<unknown>
    408c: 00 00        	<unknown>
    408e: 03 00 00 00  	lb	zero, 0(zero)
    4092: 00 00        	<unknown>
    4094: cc 13        	<unknown>
    4096: 00 80        	<unknown>
    4098: 00 00        	<unknown>
    409a: 00 00        	<unknown>
    409c: 00 00        	<unknown>
    409e: 03 00 00 00  	lb	zero, 0(zero)
    40a2: 00 00        	<unknown>
    40a4: cc 13        	<unknown>
    40a6: 00 80        	<unknown>
    40a8: 00 00        	<unknown>
    40aa: 00 00        	<unknown>
    40ac: 00 00        	<unknown>
    40ae: 03 00 00 00  	lb	zero, 0(zero)
    40b2: 00 00        	<unknown>
    40b4: cc 13        	<unknown>
    40b6: 00 80        	<unknown>
    40b8: 00 00        	<unknown>
    40ba: 00 00        	<unknown>
    40bc: 00 00        	<unknown>
    40be: 03 00 00 00  	lb	zero, 0(zero)
    40c2: 00 00        	<unknown>
    40c4: cc 13        	<unknown>
    40c6: 00 80        	<unknown>
    40c8: 00 00        	<unknown>
    40ca: 00 00        	<unknown>
    40cc: 00 00        	<unknown>
    40ce: 03 00 00 00  	lb	zero, 0(zero)
    40d2: 00 00        	<unknown>
    40d4: cc 13        	<unknown>
    40d6: 00 80        	<unknown>
    40d8: 00 00        	<unknown>
    40da: 00 00        	<unknown>
    40dc: 00 00        	<unknown>
    40de: 03 00 00 00  	lb	zero, 0(zero)
    40e2: 00 00        	<unknown>
    40e4: d0 13        	<unknown>
    40e6: 00 80        	<unknown>
    40e8: 00 00        	<unknown>
    40ea: 00 00        	<unknown>
    40ec: 00 00        	<unknown>
    40ee: 03 00 00 00  	lb	zero, 0(zero)
    40f2: 00 00        	<unknown>
    40f4: d8 13        	<unknown>
    40f6: 00 80        	<unknown>
    40f8: 00 00        	<unknown>
    40fa: 00 00        	<unknown>
    40fc: 00 00        	<unknown>
    40fe: 03 00 00 00  	lb	zero, 0(zero)
    4102: 00 00        	<unknown>
    4104: dc 13        	<unknown>
    4106: 00 80        	<unknown>
    4108: 00 00        	<unknown>
    410a: 00 00        	<unknown>
    410c: 00 00        	<unknown>
    410e: 03 00 00 00  	lb	zero, 0(zero)
    4112: 00 00        	<unknown>
    4114: e0 13        	<unknown>
    4116: 00 80        	<unknown>
    4118: 00 00        	<unknown>
    411a: 00 00        	<unknown>
    411c: 00 00        	<unknown>
    411e: 03 00 00 00  	lb	zero, 0(zero)
    4122: 00 00        	<unknown>
    4124: e4 13        	<unknown>
    4126: 00 80        	<unknown>
    4128: 00 00        	<unknown>
    412a: 00 00        	<unknown>
    412c: 00 00        	<unknown>
    412e: 03 00 00 00  	lb	zero, 0(zero)
    4132: 00 00        	<unknown>
    4134: e8 13        	<unknown>
    4136: 00 80        	<unknown>
    4138: 00 00        	<unknown>
    413a: 00 00        	<unknown>
    413c: 00 00        	<unknown>
    413e: 03 00 00 00  	lb	zero, 0(zero)
    4142: 00 00        	<unknown>
    4144: ec 13        	<unknown>
    4146: 00 80        	<unknown>
    4148: 00 00        	<unknown>
    414a: 00 00        	<unknown>
    414c: 00 00        	<unknown>
    414e: 03 00 00 00  	lb	zero, 0(zero)
    4152: 00 00        	<unknown>
    4154: ec 13        	<unknown>
    4156: 00 80        	<unknown>
    4158: 00 00        	<unknown>
    415a: 00 00        	<unknown>
    415c: 00 00        	<unknown>
    415e: 03 00 00 00  	lb	zero, 0(zero)
    4162: 00 00        	<unknown>
    4164: ec 13        	<unknown>
    4166: 00 80        	<unknown>
    4168: 00 00        	<unknown>
    416a: 00 00        	<unknown>
    416c: 00 00        	<unknown>
    416e: 03 00 00 00  	lb	zero, 0(zero)
    4172: 00 00        	<unknown>
    4174: ec 13        	<unknown>
    4176: 00 80        	<unknown>
    4178: 00 00        	<unknown>
    417a: 00 00        	<unknown>
    417c: 00 00        	<unknown>
    417e: 03 00 00 00  	lb	zero, 0(zero)
    4182: 00 00        	<unknown>
    4184: ec 13        	<unknown>
    4186: 00 80        	<unknown>
    4188: 00 00        	<unknown>
    418a: 00 00        	<unknown>
    418c: 00 00        	<unknown>
    418e: 03 00 00 00  	lb	zero, 0(zero)
    4192: 00 00        	<unknown>
    4194: ec 13        	<unknown>
    4196: 00 80        	<unknown>
    4198: 00 00        	<unknown>
    419a: 00 00        	<unknown>
    419c: 00 00        	<unknown>
    419e: 03 00 00 00  	lb	zero, 0(zero)
    41a2: 00 00        	<unknown>
    41a4: f4 13        	<unknown>
    41a6: 00 80        	<unknown>
    41a8: 00 00        	<unknown>
    41aa: 00 00        	<unknown>
    41ac: 00 00        	<unknown>
    41ae: 03 00 00 00  	lb	zero, 0(zero)
    41b2: 00 00        	<unknown>
    41b4: f8 13        	<unknown>
    41b6: 00 80        	<unknown>
    41b8: 00 00        	<unknown>
    41ba: 00 00        	<unknown>
    41bc: 00 00        	<unknown>
    41be: 03 00 00 00  	lb	zero, 0(zero)
    41c2: 00 00        	<unknown>
    41c4: 00 14        	<unknown>
    41c6: 00 80        	<unknown>
    41c8: 00 00        	<unknown>
    41ca: 00 00        	<unknown>
    41cc: 00 00        	<unknown>
    41ce: 03 00 00 00  	lb	zero, 0(zero)
    41d2: 00 00        	<unknown>
    41d4: 04 14        	<unknown>
    41d6: 00 80        	<unknown>
    41d8: 00 00        	<unknown>
    41da: 00 00        	<unknown>
    41dc: 00 00        	<unknown>
    41de: 03 00 00 00  	lb	zero, 0(zero)
    41e2: 00 00        	<unknown>
    41e4: 08 14        	<unknown>
    41e6: 00 80        	<unknown>
    41e8: 00 00        	<unknown>
    41ea: 00 00        	<unknown>
    41ec: 00 00        	<unknown>
    41ee: 03 00 00 00  	lb	zero, 0(zero)
    41f2: 00 00        	<unknown>
    41f4: 0c 14        	<unknown>
    41f6: 00 80        	<unknown>
    41f8: 00 00        	<unknown>
    41fa: 00 00        	<unknown>
    41fc: 00 00        	<unknown>
    41fe: 03 00 00 00  	lb	zero, 0(zero)
    4202: 00 00        	<unknown>
    4204: 10 14        	<unknown>
    4206: 00 80        	<unknown>
    4208: 00 00        	<unknown>
    420a: 00 00        	<unknown>
    420c: 00 00        	<unknown>
    420e: 03 00 00 00  	lb	zero, 0(zero)
    4212: 00 00        	<unknown>
    4214: 14 14        	<unknown>
    4216: 00 80        	<unknown>
    4218: 00 00        	<unknown>
    421a: 00 00        	<unknown>
    421c: 00 00        	<unknown>
    421e: 03 00 00 00  	lb	zero, 0(zero)
    4222: 00 00        	<unknown>
    4224: 18 14        	<unknown>
    4226: 00 80        	<unknown>
    4228: 00 00        	<unknown>
    422a: 00 00        	<unknown>
    422c: 00 00        	<unknown>
    422e: 03 00 00 00  	lb	zero, 0(zero)
    4232: 00 00        	<unknown>
    4234: 20 14        	<unknown>
    4236: 00 80        	<unknown>
    4238: 00 00        	<unknown>
    423a: 00 00        	<unknown>
    423c: 00 00        	<unknown>
    423e: 03 00 00 00  	lb	zero, 0(zero)
    4242: 00 00        	<unknown>
    4244: 24 14        	<unknown>
    4246: 00 80        	<unknown>
    4248: 00 00        	<unknown>
    424a: 00 00        	<unknown>
    424c: 00 00        	<unknown>
    424e: 03 00 00 00  	lb	zero, 0(zero)
    4252: 00 00        	<unknown>
    4254: 28 14        	<unknown>
    4256: 00 80        	<unknown>
    4258: 00 00        	<unknown>
    425a: 00 00        	<unknown>
    425c: 00 00        	<unknown>
    425e: 03 00 00 00  	lb	zero, 0(zero)
    4262: 00 00        	<unknown>
    4264: 30 14        	<unknown>
    4266: 00 80        	<unknown>
    4268: 00 00        	<unknown>
    426a: 00 00        	<unknown>
    426c: 00 00        	<unknown>
    426e: 03 00 00 00  	lb	zero, 0(zero)
    4272: 00 00        	<unknown>
    4274: 34 14        	<unknown>
    4276: 00 80        	<unknown>
    4278: 00 00        	<unknown>
    427a: 00 00        	<unknown>
    427c: 00 00        	<unknown>
    427e: 03 00 00 00  	lb	zero, 0(zero)
    4282: 00 00        	<unknown>
    4284: 38 14        	<unknown>
    4286: 00 80        	<unknown>
    4288: 00 00        	<unknown>
    428a: 00 00        	<unknown>
    428c: 00 00        	<unknown>
    428e: 03 00 00 00  	lb	zero, 0(zero)
    4292: 00 00        	<unknown>
    4294: 3c 14        	<unknown>
    4296: 00 80        	<unknown>
    4298: 00 00        	<unknown>
    429a: 00 00        	<unknown>
    429c: 00 00        	<unknown>
    429e: 03 00 00 00  	lb	zero, 0(zero)
    42a2: 00 00        	<unknown>
    42a4: 44 14        	<unknown>
    42a6: 00 80        	<unknown>
    42a8: 00 00        	<unknown>
    42aa: 00 00        	<unknown>
    42ac: 00 00        	<unknown>
    42ae: 03 00 00 00  	lb	zero, 0(zero)
    42b2: 00 00        	<unknown>
    42b4: 48 14        	<unknown>
    42b6: 00 80        	<unknown>
    42b8: 00 00        	<unknown>
    42ba: 00 00        	<unknown>
    42bc: 00 00        	<unknown>
    42be: 03 00 00 00  	lb	zero, 0(zero)
    42c2: 00 00        	<unknown>
    42c4: 4c 14        	<unknown>
    42c6: 00 80        	<unknown>
    42c8: 00 00        	<unknown>
    42ca: 00 00        	<unknown>
    42cc: 00 00        	<unknown>
    42ce: 03 00 00 00  	lb	zero, 0(zero)
    42d2: 00 00        	<unknown>
    42d4: 50 14        	<unknown>
    42d6: 00 80        	<unknown>
    42d8: 00 00        	<unknown>
    42da: 00 00        	<unknown>
    42dc: 00 00        	<unknown>
    42de: 03 00 00 00  	lb	zero, 0(zero)
    42e2: 00 00        	<unknown>
    42e4: 54 14        	<unknown>
    42e6: 00 80        	<unknown>
    42e8: 00 00        	<unknown>
    42ea: 00 00        	<unknown>
    42ec: 00 00        	<unknown>
    42ee: 03 00 00 00  	lb	zero, 0(zero)
    42f2: 00 00        	<unknown>
    42f4: 58 14        	<unknown>
    42f6: 00 80        	<unknown>
    42f8: 00 00        	<unknown>
    42fa: 00 00        	<unknown>
    42fc: 00 00        	<unknown>
    42fe: 03 00 00 00  	lb	zero, 0(zero)
    4302: 00 00        	<unknown>
    4304: 5c 14        	<unknown>
    4306: 00 80        	<unknown>
    4308: 00 00        	<unknown>
    430a: 00 00        	<unknown>
    430c: 00 00        	<unknown>
    430e: 03 00 00 00  	lb	zero, 0(zero)
    4312: 00 00        	<unknown>
    4314: 64 14        	<unknown>
    4316: 00 80        	<unknown>
    4318: 00 00        	<unknown>
    431a: 00 00        	<unknown>
    431c: 00 00        	<unknown>
    431e: 03 00 00 00  	lb	zero, 0(zero)
    4322: 00 00        	<unknown>
    4324: 68 14        	<unknown>
    4326: 00 80        	<unknown>
    4328: 00 00        	<unknown>
    432a: 00 00        	<unknown>
    432c: 00 00        	<unknown>
    432e: 03 00 00 00  	lb	zero, 0(zero)
    4332: 00 00        	<unknown>
    4334: 6c 14        	<unknown>
    4336: 00 80        	<unknown>
    4338: 00 00        	<unknown>
    433a: 00 00        	<unknown>
    433c: 00 00        	<unknown>
    433e: 03 00 00 00  	lb	zero, 0(zero)
    4342: 00 00        	<unknown>
    4344: 70 14        	<unknown>
    4346: 00 80        	<unknown>
    4348: 00 00        	<unknown>
    434a: 00 00        	<unknown>
    434c: 00 00        	<unknown>
    434e: 03 00 00 00  	lb	zero, 0(zero)
    4352: 00 00        	<unknown>
    4354: 70 14        	<unknown>
    4356: 00 80        	<unknown>
    4358: 00 00        	<unknown>
    435a: 00 00        	<unknown>
    435c: 00 00        	<unknown>
    435e: 03 00 00 00  	lb	zero, 0(zero)
    4362: 00 00        	<unknown>
    4364: 82 0c        	<unknown>
		...
    436e: 0b 00 00 00  	p.lb	zero, 0(zero!)
    4372: 00 00        	<unknown>
    4374: 6c 02        	<unknown>
		...
    437e: 0e 00        	<unknown>
    4380: 00 00        	<unknown>
    4382: 00 00        	<unknown>
    4384: 50 01        	<unknown>
		...
    438e: 10 00        	<unknown>
		...
    439c: 00 00        	<unknown>
    439e: 0f 00 00 00  	fence	unknown, unknown
    43a2: 00 00        	<unknown>
    43a4: c9 05        	<unknown>
		...
    43ae: 0f 00 00 00  	fence	unknown, unknown
    43b2: 00 00        	<unknown>
    43b4: 8b 00 00 00  	p.lb	ra, 0(zero!)
    43b8: 00 00        	<unknown>
    43ba: 00 00        	<unknown>
    43bc: 00 00        	<unknown>
    43be: 0f 00 00 00  	fence	unknown, unknown
    43c2: 00 00        	<unknown>
    43c4: fa 00        	<unknown>
		...
    43ce: 0f 00 00 00  	fence	unknown, unknown
    43d2: 00 00        	<unknown>
    43d4: d1 03        	<unknown>
		...
    43de: 0f 00 00 00  	fence	unknown, unknown
    43e2: 00 00        	<unknown>
    43e4: d3 03 00 00  	fadd.s	t2, zero, zero, rne
    43e8: 00 00        	<unknown>
    43ea: 00 00        	<unknown>
    43ec: 00 00        	<unknown>
    43ee: 0f 00 00 00  	fence	unknown, unknown
    43f2: 00 00        	<unknown>
    43f4: bd 02        	<unknown>
		...
    43fe: 0f 00 00 00  	fence	unknown, unknown
    4402: 00 00        	<unknown>
    4404: ff 02 00 00  	<unknown>
    4408: 00 00        	<unknown>
    440a: 00 00        	<unknown>
    440c: 00 00        	<unknown>
    440e: 0f 00 00 00  	fence	unknown, unknown
    4412: 00 00        	<unknown>
    4414: b4 02        	<unknown>
		...
    441e: 0f 00 00 00  	fence	unknown, unknown
    4422: 00 00        	<unknown>
    4424: 33 06 00 00  	add	a2, zero, zero
    4428: 00 00        	<unknown>
    442a: 00 00        	<unknown>
    442c: 00 00        	<unknown>
    442e: 0f 00 00 00  	fence	unknown, unknown
    4432: 00 00        	<unknown>
    4434: 3a 06        	<unknown>
		...
    443e: 0f 00 00 00  	fence	unknown, unknown
    4442: 00 00        	<unknown>
    4444: 41 06        	<unknown>
		...
    444e: 0f 00 00 00  	fence	unknown, unknown
    4452: 00 00        	<unknown>
    4454: 48 06        	<unknown>
		...
    445e: 0f 00 00 00  	fence	unknown, unknown
    4462: 00 00        	<unknown>
    4464: 03 01 00 00  	lb	sp, 0(zero)
    4468: 00 00        	<unknown>
    446a: 00 00        	<unknown>
    446c: 00 00        	<unknown>
    446e: 0f 00 00 00  	fence	unknown, unknown
    4472: 00 00        	<unknown>
    4474: 4f 06 00 00  	fnmadd.s	a2, zero, zero, zero, rne
    4478: 00 00        	<unknown>
    447a: 00 00        	<unknown>
    447c: 00 00        	<unknown>
    447e: 0f 00 00 00  	fence	unknown, unknown
    4482: 00 00        	<unknown>
    4484: 56 06        	<unknown>
		...
    448e: 0f 00 00 00  	fence	unknown, unknown
    4492: 00 00        	<unknown>
    4494: 5d 06        	<unknown>
		...
    449e: 0f 00 00 00  	fence	unknown, unknown
    44a2: 00 00        	<unknown>
    44a4: e6 03        	<unknown>
		...
    44ae: 0f 00 00 00  	fence	unknown, unknown
    44b2: 00 00        	<unknown>
    44b4: 62 06        	<unknown>
		...
    44be: 0f 00 00 00  	fence	unknown, unknown
    44c2: 00 00        	<unknown>
    44c4: 67 06 00 00  	jalr	a2, zero
    44c8: 00 00        	<unknown>
    44ca: 00 00        	<unknown>
    44cc: 00 00        	<unknown>
    44ce: 0f 00 00 00  	fence	unknown, unknown
    44d2: 00 00        	<unknown>
    44d4: 44 06        	<unknown>
		...
    44de: 0f 00 00 00  	fence	unknown, unknown
    44e2: 00 00        	<unknown>
    44e4: 65 03        	<unknown>
		...
    44ee: 0f 00 00 00  	fence	unknown, unknown
    44f2: 00 00        	<unknown>
    44f4: 2d 02        	<unknown>
		...
    44fe: 0f 00 00 00  	fence	unknown, unknown
    4502: 00 00        	<unknown>
    4504: 6b 06 00 00  	<unknown>
    4508: 00 00        	<unknown>
    450a: 00 00        	<unknown>
    450c: 00 00        	<unknown>
    450e: 0f 00 00 00  	fence	unknown, unknown
    4512: 00 00        	<unknown>
    4514: 70 06        	<unknown>
		...
    451e: 0f 00 00 00  	fence	unknown, unknown
    4522: 00 00        	<unknown>
    4524: 54 05        	<unknown>
		...
    452e: 0f 00 00 00  	fence	unknown, unknown
    4532: 00 00        	<unknown>
    4534: 75 06        	<unknown>
		...
    453e: 0f 00 00 00  	fence	unknown, unknown
    4542: 00 00        	<unknown>
    4544: 78 06        	<unknown>
		...
    454e: 0f 00 00 00  	fence	unknown, unknown
    4552: 00 00        	<unknown>
    4554: 7b 06 00 00  	<unknown>
    4558: 00 00        	<unknown>
    455a: 00 00        	<unknown>
    455c: 00 00        	<unknown>
    455e: 0f 00 00 00  	fence	unknown, unknown
    4562: 00 00        	<unknown>
    4564: 7e 06        	<unknown>
		...
    456e: 0f 00 00 00  	fence	unknown, unknown
    4572: 00 00        	<unknown>
    4574: 46 06        	<unknown>
		...
    457e: 0f 00 00 00  	fence	unknown, unknown
    4582: 00 00        	<unknown>
    4584: 81 06        	<unknown>
		...
    458e: 0f 00 00 00  	fence	unknown, unknown
    4592: 00 00        	<unknown>
    4594: 84 06        	<unknown>
		...
    459e: 0f 00 00 00  	fence	unknown, unknown
    45a2: 00 00        	<unknown>
    45a4: 87 06 00 00  	flb	fa3, 0(zero)
    45a8: 00 00        	<unknown>
    45aa: 00 00        	<unknown>
    45ac: 00 00        	<unknown>
    45ae: 0f 00 00 00  	fence	unknown, unknown
    45b2: 00 00        	<unknown>
    45b4: 29 04        	<unknown>
		...
    45be: 0f 00 00 00  	fence	unknown, unknown
    45c2: 00 00        	<unknown>
    45c4: 9a 01        	<unknown>
		...
    45ce: 0f 00 00 00  	fence	unknown, unknown
    45d2: 00 00        	<unknown>
    45d4: 8b 06 00 00  	p.lb	a3, 0(zero!)
    45d8: 00 00        	<unknown>
    45da: 00 00        	<unknown>
    45dc: 00 00        	<unknown>
    45de: 0f 00 00 00  	fence	unknown, unknown
    45e2: 00 00        	<unknown>
    45e4: 34 02        	<unknown>
		...
    45ee: 11 00        	<unknown>
    45f0: ed 00        	<unknown>
		...
    45fa: 00 00        	<unknown>
    45fc: 04 00        	<unknown>
    45fe: f1 ff        	<unknown>
    4600: 00 00        	<unknown>
    4602: 00 00        	<unknown>
    4604: 70 14        	<unknown>
    4606: 00 80        	<unknown>
    4608: 00 00        	<unknown>
    460a: 00 00        	<unknown>
    460c: 00 00        	<unknown>
    460e: 03 00 00 00  	lb	zero, 0(zero)
    4612: 00 00        	<unknown>
    4614: 70 14        	<unknown>
    4616: 00 80        	<unknown>
    4618: 00 00        	<unknown>
    461a: 00 00        	<unknown>
    461c: 00 00        	<unknown>
    461e: 03 00 00 00  	lb	zero, 0(zero)
    4622: 00 00        	<unknown>
    4624: 70 14        	<unknown>
    4626: 00 80        	<unknown>
    4628: 00 00        	<unknown>
    462a: 00 00        	<unknown>
    462c: 00 00        	<unknown>
    462e: 03 00 00 00  	lb	zero, 0(zero)
    4632: 00 00        	<unknown>
    4634: 70 14        	<unknown>
    4636: 00 80        	<unknown>
    4638: 00 00        	<unknown>
    463a: 00 00        	<unknown>
    463c: 00 00        	<unknown>
    463e: 03 00 00 00  	lb	zero, 0(zero)
    4642: 00 00        	<unknown>
    4644: 74 14        	<unknown>
    4646: 00 80        	<unknown>
    4648: 00 00        	<unknown>
    464a: 00 00        	<unknown>
    464c: 00 00        	<unknown>
    464e: 03 00 00 00  	lb	zero, 0(zero)
    4652: 00 00        	<unknown>
    4654: 74 14        	<unknown>
    4656: 00 80        	<unknown>
    4658: 00 00        	<unknown>
    465a: 00 00        	<unknown>
    465c: 00 00        	<unknown>
    465e: 03 00 00 00  	lb	zero, 0(zero)
    4662: 00 00        	<unknown>
    4664: 7c 14        	<unknown>
    4666: 00 80        	<unknown>
    4668: 00 00        	<unknown>
    466a: 00 00        	<unknown>
    466c: 00 00        	<unknown>
    466e: 03 00 00 00  	lb	zero, 0(zero)
    4672: 00 00        	<unknown>
    4674: 7c 14        	<unknown>
    4676: 00 80        	<unknown>
    4678: 00 00        	<unknown>
    467a: 00 00        	<unknown>
    467c: 00 00        	<unknown>
    467e: 03 00 00 00  	lb	zero, 0(zero)
    4682: 00 00        	<unknown>
    4684: 84 14        	<unknown>
    4686: 00 80        	<unknown>
    4688: 00 00        	<unknown>
    468a: 00 00        	<unknown>
    468c: 00 00        	<unknown>
    468e: 03 00 00 00  	lb	zero, 0(zero)
    4692: 00 00        	<unknown>
    4694: 84 14        	<unknown>
    4696: 00 80        	<unknown>
    4698: 00 00        	<unknown>
    469a: 00 00        	<unknown>
    469c: 00 00        	<unknown>
    469e: 03 00 00 00  	lb	zero, 0(zero)
    46a2: 00 00        	<unknown>
    46a4: 90 14        	<unknown>
    46a6: 00 80        	<unknown>
    46a8: 00 00        	<unknown>
    46aa: 00 00        	<unknown>
    46ac: 00 00        	<unknown>
    46ae: 03 00 00 00  	lb	zero, 0(zero)
    46b2: 00 00        	<unknown>
    46b4: 90 14        	<unknown>
    46b6: 00 80        	<unknown>
    46b8: 00 00        	<unknown>
    46ba: 00 00        	<unknown>
    46bc: 00 00        	<unknown>
    46be: 03 00 00 00  	lb	zero, 0(zero)
    46c2: 00 00        	<unknown>
    46c4: 94 14        	<unknown>
    46c6: 00 80        	<unknown>
    46c8: 00 00        	<unknown>
    46ca: 00 00        	<unknown>
    46cc: 00 00        	<unknown>
    46ce: 03 00 00 00  	lb	zero, 0(zero)
    46d2: 00 00        	<unknown>
    46d4: 94 14        	<unknown>
    46d6: 00 80        	<unknown>
    46d8: 00 00        	<unknown>
    46da: 00 00        	<unknown>
    46dc: 00 00        	<unknown>
    46de: 03 00 00 00  	lb	zero, 0(zero)
    46e2: 00 00        	<unknown>
    46e4: a8 14        	<unknown>
    46e6: 00 80        	<unknown>
    46e8: 00 00        	<unknown>
    46ea: 00 00        	<unknown>
    46ec: 00 00        	<unknown>
    46ee: 03 00 00 00  	lb	zero, 0(zero)
    46f2: 00 00        	<unknown>
    46f4: ac 14        	<unknown>
    46f6: 00 80        	<unknown>
    46f8: 00 00        	<unknown>
    46fa: 00 00        	<unknown>
    46fc: 00 00        	<unknown>
    46fe: 03 00 00 00  	lb	zero, 0(zero)
    4702: 00 00        	<unknown>
    4704: b0 14        	<unknown>
    4706: 00 80        	<unknown>
    4708: 00 00        	<unknown>
    470a: 00 00        	<unknown>
    470c: 00 00        	<unknown>
    470e: 03 00 00 00  	lb	zero, 0(zero)
    4712: 00 00        	<unknown>
    4714: b4 14        	<unknown>
    4716: 00 80        	<unknown>
    4718: 00 00        	<unknown>
    471a: 00 00        	<unknown>
    471c: 00 00        	<unknown>
    471e: 03 00 00 00  	lb	zero, 0(zero)
    4722: 00 00        	<unknown>
    4724: b4 14        	<unknown>
    4726: 00 80        	<unknown>
    4728: 00 00        	<unknown>
    472a: 00 00        	<unknown>
    472c: 00 00        	<unknown>
    472e: 03 00 00 00  	lb	zero, 0(zero)
    4732: 00 00        	<unknown>
    4734: c0 14        	<unknown>
    4736: 00 80        	<unknown>
    4738: 00 00        	<unknown>
    473a: 00 00        	<unknown>
    473c: 00 00        	<unknown>
    473e: 03 00 00 00  	lb	zero, 0(zero)
    4742: 00 00        	<unknown>
    4744: c0 14        	<unknown>
    4746: 00 80        	<unknown>
    4748: 00 00        	<unknown>
    474a: 00 00        	<unknown>
    474c: 00 00        	<unknown>
    474e: 03 00 00 00  	lb	zero, 0(zero)
    4752: 00 00        	<unknown>
    4754: c4 14        	<unknown>
    4756: 00 80        	<unknown>
    4758: 00 00        	<unknown>
    475a: 00 00        	<unknown>
    475c: 00 00        	<unknown>
    475e: 03 00 00 00  	lb	zero, 0(zero)
    4762: 00 00        	<unknown>
    4764: c4 14        	<unknown>
    4766: 00 80        	<unknown>
    4768: 00 00        	<unknown>
    476a: 00 00        	<unknown>
    476c: 00 00        	<unknown>
    476e: 03 00 00 00  	lb	zero, 0(zero)
    4772: 00 00        	<unknown>
    4774: c8 14        	<unknown>
    4776: 00 80        	<unknown>
    4778: 00 00        	<unknown>
    477a: 00 00        	<unknown>
    477c: 00 00        	<unknown>
    477e: 03 00 00 00  	lb	zero, 0(zero)
    4782: 00 00        	<unknown>
    4784: c8 14        	<unknown>
    4786: 00 80        	<unknown>
    4788: 00 00        	<unknown>
    478a: 00 00        	<unknown>
    478c: 00 00        	<unknown>
    478e: 03 00 00 00  	lb	zero, 0(zero)
    4792: 00 00        	<unknown>
    4794: c8 14        	<unknown>
    4796: 00 80        	<unknown>
    4798: 00 00        	<unknown>
    479a: 00 00        	<unknown>
    479c: 00 00        	<unknown>
    479e: 03 00 00 00  	lb	zero, 0(zero)
    47a2: 00 00        	<unknown>
    47a4: c8 14        	<unknown>
    47a6: 00 80        	<unknown>
    47a8: 00 00        	<unknown>
    47aa: 00 00        	<unknown>
    47ac: 00 00        	<unknown>
    47ae: 03 00 00 00  	lb	zero, 0(zero)
    47b2: 00 00        	<unknown>
    47b4: c8 14        	<unknown>
    47b6: 00 80        	<unknown>
    47b8: 00 00        	<unknown>
    47ba: 00 00        	<unknown>
    47bc: 00 00        	<unknown>
    47be: 03 00 00 00  	lb	zero, 0(zero)
    47c2: 00 00        	<unknown>
    47c4: c8 14        	<unknown>
    47c6: 00 80        	<unknown>
    47c8: 00 00        	<unknown>
    47ca: 00 00        	<unknown>
    47cc: 00 00        	<unknown>
    47ce: 03 00 00 00  	lb	zero, 0(zero)
    47d2: 00 00        	<unknown>
    47d4: cc 14        	<unknown>
    47d6: 00 80        	<unknown>
    47d8: 00 00        	<unknown>
    47da: 00 00        	<unknown>
    47dc: 00 00        	<unknown>
    47de: 03 00 00 00  	lb	zero, 0(zero)
    47e2: 00 00        	<unknown>
    47e4: dc 14        	<unknown>
    47e6: 00 80        	<unknown>
    47e8: 00 00        	<unknown>
    47ea: 00 00        	<unknown>
    47ec: 00 00        	<unknown>
    47ee: 03 00 00 00  	lb	zero, 0(zero)
    47f2: 00 00        	<unknown>
    47f4: e0 14        	<unknown>
    47f6: 00 80        	<unknown>
    47f8: 00 00        	<unknown>
    47fa: 00 00        	<unknown>
    47fc: 00 00        	<unknown>
    47fe: 03 00 00 00  	lb	zero, 0(zero)
    4802: 00 00        	<unknown>
    4804: e4 14        	<unknown>
    4806: 00 80        	<unknown>
    4808: 00 00        	<unknown>
    480a: 00 00        	<unknown>
    480c: 00 00        	<unknown>
    480e: 03 00 00 00  	lb	zero, 0(zero)
    4812: 00 00        	<unknown>
    4814: e8 14        	<unknown>
    4816: 00 80        	<unknown>
    4818: 00 00        	<unknown>
    481a: 00 00        	<unknown>
    481c: 00 00        	<unknown>
    481e: 03 00 00 00  	lb	zero, 0(zero)
    4822: 00 00        	<unknown>
    4824: e8 14        	<unknown>
    4826: 00 80        	<unknown>
    4828: 00 00        	<unknown>
    482a: 00 00        	<unknown>
    482c: 00 00        	<unknown>
    482e: 03 00 00 00  	lb	zero, 0(zero)
    4832: 00 00        	<unknown>
    4834: f4 14        	<unknown>
    4836: 00 80        	<unknown>
    4838: 00 00        	<unknown>
    483a: 00 00        	<unknown>
    483c: 00 00        	<unknown>
    483e: 03 00 00 00  	lb	zero, 0(zero)
    4842: 00 00        	<unknown>
    4844: f4 14        	<unknown>
    4846: 00 80        	<unknown>
    4848: 00 00        	<unknown>
    484a: 00 00        	<unknown>
    484c: 00 00        	<unknown>
    484e: 03 00 00 00  	lb	zero, 0(zero)
    4852: 00 00        	<unknown>
    4854: f8 14        	<unknown>
    4856: 00 80        	<unknown>
    4858: 00 00        	<unknown>
    485a: 00 00        	<unknown>
    485c: 00 00        	<unknown>
    485e: 03 00 00 00  	lb	zero, 0(zero)
    4862: 00 00        	<unknown>
    4864: f8 14        	<unknown>
    4866: 00 80        	<unknown>
    4868: 00 00        	<unknown>
    486a: 00 00        	<unknown>
    486c: 00 00        	<unknown>
    486e: 03 00 00 00  	lb	zero, 0(zero)
    4872: 00 00        	<unknown>
    4874: fc 14        	<unknown>
    4876: 00 80        	<unknown>
    4878: 00 00        	<unknown>
    487a: 00 00        	<unknown>
    487c: 00 00        	<unknown>
    487e: 03 00 00 00  	lb	zero, 0(zero)
    4882: 00 00        	<unknown>
    4884: fc 14        	<unknown>
    4886: 00 80        	<unknown>
    4888: 00 00        	<unknown>
    488a: 00 00        	<unknown>
    488c: 00 00        	<unknown>
    488e: 03 00 00 00  	lb	zero, 0(zero)
    4892: 00 00        	<unknown>
    4894: e0 0e        	<unknown>
		...
    489e: 0b 00 00 00  	p.lb	zero, 0(zero!)
    48a2: 00 00        	<unknown>
    48a4: 08 03        	<unknown>
		...
    48ae: 0e 00        	<unknown>
    48b0: 00 00        	<unknown>
    48b2: 00 00        	<unknown>
    48b4: 8c 01        	<unknown>
		...
    48be: 10 00        	<unknown>
		...
    48cc: 00 00        	<unknown>
    48ce: 0f 00 00 00  	fence	unknown, unknown
    48d2: 00 00        	<unknown>
    48d4: 90 06        	<unknown>
		...
    48de: 0f 00 00 00  	fence	unknown, unknown
    48e2: 00 00        	<unknown>
    48e4: 8b 00 00 00  	p.lb	ra, 0(zero!)
    48e8: 00 00        	<unknown>
    48ea: 00 00        	<unknown>
    48ec: 00 00        	<unknown>
    48ee: 0f 00 00 00  	fence	unknown, unknown
    48f2: 00 00        	<unknown>
    48f4: 07 07 00 00  	flb	fa4, 0(zero)
    48f8: 00 00        	<unknown>
    48fa: 00 00        	<unknown>
    48fc: 00 00        	<unknown>
    48fe: 0f 00 00 00  	fence	unknown, unknown
    4902: 00 00        	<unknown>
    4904: fa 00        	<unknown>
		...
    490e: 0f 00 00 00  	fence	unknown, unknown
    4912: 00 00        	<unknown>
    4914: 07 01 00 00  	flb	ft2, 0(zero)
    4918: 00 00        	<unknown>
    491a: 00 00        	<unknown>
    491c: 00 00        	<unknown>
    491e: 0f 00 00 00  	fence	unknown, unknown
    4922: 00 00        	<unknown>
    4924: 09 01        	<unknown>
		...
    492e: 0f 00 00 00  	fence	unknown, unknown
    4932: 00 00        	<unknown>
    4934: 03 07 00 00  	lb	a4, 0(zero)
    4938: 00 00        	<unknown>
    493a: 00 00        	<unknown>
    493c: 00 00        	<unknown>
    493e: 0f 00 00 00  	fence	unknown, unknown
    4942: 00 00        	<unknown>
    4944: 12 01        	<unknown>
		...
    494e: 0f 00 00 00  	fence	unknown, unknown
    4952: 00 00        	<unknown>
    4954: 0f 07 00 00  	<unknown>
    4958: 00 00        	<unknown>
    495a: 00 00        	<unknown>
    495c: 00 00        	<unknown>
    495e: 0f 00 00 00  	fence	unknown, unknown
    4962: 00 00        	<unknown>
    4964: 1f 07 00 00  	<unknown>
    4968: 00 00        	<unknown>
    496a: 00 00        	<unknown>
    496c: 00 00        	<unknown>
    496e: 0f 00 00 00  	fence	unknown, unknown
    4972: 00 00        	<unknown>
    4974: 2b 07 00 00  	p.sb	zero, 14(zero!)
    4978: 00 00        	<unknown>
    497a: 00 00        	<unknown>
    497c: 00 00        	<unknown>
    497e: 0f 00 00 00  	fence	unknown, unknown
    4982: 00 00        	<unknown>
    4984: 32 01        	<unknown>
		...
    498e: 0f 00 00 00  	fence	unknown, unknown
    4992: 00 00        	<unknown>
    4994: 33 07 00 00  	add	a4, zero, zero
    4998: 00 00        	<unknown>
    499a: 00 00        	<unknown>
    499c: 00 00        	<unknown>
    499e: 0f 00 00 00  	fence	unknown, unknown
    49a2: 00 00        	<unknown>
    49a4: 6f 01 00 00  	jal	sp, 0x49a4 <__l1_start+0x49a4>
    49a8: 00 00        	<unknown>
    49aa: 00 00        	<unknown>
    49ac: 00 00        	<unknown>
    49ae: 0f 00 00 00  	fence	unknown, unknown
    49b2: 00 00        	<unknown>
    49b4: 94 01        	<unknown>
		...
    49be: 0f 00 00 00  	fence	unknown, unknown
    49c2: 00 00        	<unknown>
    49c4: 5a 01        	<unknown>
		...
    49ce: 0f 00 00 00  	fence	unknown, unknown
    49d2: 00 00        	<unknown>
    49d4: b8 02        	<unknown>
		...
    49de: 11 00        	<unknown>
    49e0: ff 00 00 00  	<unknown>
    49e4: cc 13        	<unknown>
    49e6: 00 80        	<unknown>
    49e8: 20 00        	<unknown>
    49ea: 00 00        	<unknown>
    49ec: 12 00        	<unknown>
    49ee: 03 00 06 01  	lb	zero, 16(a2)
    49f2: 00 00        	<unknown>
    49f4: 48 12        	<unknown>
    49f6: 00 80        	<unknown>
    49f8: 0c 00        	<unknown>
    49fa: 00 00        	<unknown>
    49fc: 12 00        	<unknown>
    49fe: 03 00 0f 01  	lb	zero, 16(t5)
    4a02: 00 00        	<unknown>
    4a04: 10 20        	<unknown>
    4a06: 00 80        	<unknown>
    4a08: 00 00        	<unknown>
    4a0a: 00 00        	<unknown>
    4a0c: 10 00        	<unknown>
    4a0e: 08 00        	<unknown>
    4a10: 1f 01 00 00  	<unknown>
    4a14: 00 28        	<unknown>
    4a16: 00 80        	<unknown>
    4a18: 00 00        	<unknown>
    4a1a: 00 00        	<unknown>
    4a1c: 10 00        	<unknown>
    4a1e: 06 00        	<unknown>
    4a20: 31 01        	<unknown>
    4a22: 00 00        	<unknown>
    4a24: ff ff ff ff  	<unknown>
    4a28: 00 00        	<unknown>
    4a2a: 00 00        	<unknown>
    4a2c: 10 00        	<unknown>
    4a2e: f1 ff        	<unknown>
    4a30: 3a 01        	<unknown>
    4a32: 00 00        	<unknown>
    4a34: ff ff ff ff  	<unknown>
    4a38: 00 00        	<unknown>
    4a3a: 00 00        	<unknown>
    4a3c: 10 00        	<unknown>
    4a3e: f1 ff        	<unknown>
    4a40: 43 01 00 00  	fmadd.s	sp, zero, zero, zero, rne
    4a44: f8 04        	<unknown>
    4a46: 00 80        	<unknown>
    4a48: 90 00        	<unknown>
    4a4a: 00 00        	<unknown>
    4a4c: 12 00        	<unknown>
    4a4e: 03 00 4e 01  	lb	zero, 20(t3)
    4a52: 00 00        	<unknown>
    4a54: 00 00        	<unknown>
    4a56: 00 40        	<unknown>
    4a58: 00 00        	<unknown>
    4a5a: 00 00        	<unknown>
    4a5c: 10 00        	<unknown>
    4a5e: f1 ff        	<unknown>
    4a60: 56 01        	<unknown>
    4a62: 00 00        	<unknown>
    4a64: 88 05        	<unknown>
    4a66: 00 80        	<unknown>
    4a68: 0c 00        	<unknown>
    4a6a: 00 00        	<unknown>
    4a6c: 12 00        	<unknown>
    4a6e: 03 00 63 01  	lb	zero, 22(t1)
    4a72: 00 00        	<unknown>
    4a74: 50 00        	<unknown>
    4a76: 00 40        	<unknown>
    4a78: 00 00        	<unknown>
    4a7a: 00 00        	<unknown>
    4a7c: 10 00        	<unknown>
    4a7e: f1 ff        	<unknown>
    4a80: 77 01 00 00  	<unknown>
    4a84: ec 13        	<unknown>
    4a86: 00 80        	<unknown>
    4a88: 84 00        	<unknown>
    4a8a: 00 00        	<unknown>
    4a8c: 12 00        	<unknown>
    4a8e: 03 00 7c 01  	lb	zero, 23(s8)
    4a92: 00 00        	<unknown>
    4a94: 0c 00        	<unknown>
    4a96: 00 40        	<unknown>
    4a98: 00 00        	<unknown>
    4a9a: 00 00        	<unknown>
    4a9c: 10 00        	<unknown>
    4a9e: f1 ff        	<unknown>
    4aa0: 93 01 00 00  	li	gp, 0
    4aa4: 4c 04        	<unknown>
    4aa6: 00 80        	<unknown>
    4aa8: ac 00        	<unknown>
    4aaa: 00 00        	<unknown>
    4aac: 12 00        	<unknown>
    4aae: 03 00 9f 01  	lb	zero, 25(t5)
    4ab2: 00 00        	<unknown>
    4ab4: a4 03        	<unknown>
    4ab6: 00 80        	<unknown>
    4ab8: a8 00        	<unknown>
    4aba: 00 00        	<unknown>
    4abc: 12 00        	<unknown>
    4abe: 03 00 ab 01  	lb	zero, 26(s6)
    4ac2: 00 00        	<unknown>
    4ac4: 00 15        	<unknown>
    4ac6: 00 80        	<unknown>
    4ac8: 00 00        	<unknown>
    4aca: 00 00        	<unknown>
    4acc: 10 00        	<unknown>
    4ace: 03 00 b2 01  	lb	zero, 27(tp)
    4ad2: 00 00        	<unknown>
    4ad4: 18 00        	<unknown>
    4ad6: 00 40        	<unknown>
    4ad8: 00 00        	<unknown>
    4ada: 00 00        	<unknown>
    4adc: 10 00        	<unknown>
    4ade: f1 ff        	<unknown>
    4ae0: c2 01        	<unknown>
    4ae2: 00 00        	<unknown>
    4ae4: 4c 00        	<unknown>
    4ae6: 00 40        	<unknown>
    4ae8: 00 00        	<unknown>
    4aea: 00 00        	<unknown>
    4aec: 10 00        	<unknown>
    4aee: f1 ff        	<unknown>
    4af0: d6 01        	<unknown>
    4af2: 00 00        	<unknown>
    4af4: 54 12        	<unknown>
    4af6: 00 80        	<unknown>
    4af8: 60 00        	<unknown>
    4afa: 00 00        	<unknown>
    4afc: 12 00        	<unknown>
    4afe: 03 00 dd 01  	lb	zero, 29(s10)
    4b02: 00 00        	<unknown>
    4b04: 14 00        	<unknown>
    4b06: 00 40        	<unknown>
    4b08: 00 00        	<unknown>
    4b0a: 00 00        	<unknown>
    4b0c: 10 00        	<unknown>
    4b0e: f1 ff        	<unknown>
    4b10: f2 01        	<unknown>
    4b12: 00 00        	<unknown>
    4b14: 70 0d        	<unknown>
    4b16: 00 80        	<unknown>
    4b18: 58 00        	<unknown>
    4b1a: 00 00        	<unknown>
    4b1c: 12 00        	<unknown>
    4b1e: 03 00 fb 01  	lb	zero, 31(s6)
		...
    4b2a: 00 00        	<unknown>
    4b2c: 10 00        	<unknown>
    4b2e: f1 ff        	<unknown>
    4b30: 07 02 00 00  	flb	ft4, 0(zero)
    4b34: 00 00        	<unknown>
    4b36: 10 00        	<unknown>
    4b38: 00 00        	<unknown>
    4b3a: 00 00        	<unknown>
    4b3c: 10 00        	<unknown>
    4b3e: 01 00        	<unknown>
    4b40: 10 02        	<unknown>
    4b42: 00 00        	<unknown>
    4b44: 04 00        	<unknown>
    4b46: 00 40        	<unknown>
    4b48: 00 00        	<unknown>
    4b4a: 00 00        	<unknown>
    4b4c: 10 00        	<unknown>
    4b4e: f1 ff        	<unknown>
    4b50: 5a 01        	<unknown>
    4b52: 00 00        	<unknown>
    4b54: 00 20        	<unknown>
    4b56: 00 80        	<unknown>
    4b58: 04 00        	<unknown>
    4b5a: 00 00        	<unknown>
    4b5c: 11 00        	<unknown>
    4b5e: 07 00 1c 02  	flb	ft0, 33(s8)
    4b62: 00 00        	<unknown>
    4b64: 00 10        	<unknown>
    4b66: 00 a0        	<unknown>
    4b68: 00 00        	<unknown>
    4b6a: 00 00        	<unknown>
    4b6c: 10 00        	<unknown>
    4b6e: 01 00        	<unknown>
    4b70: 26 02        	<unknown>
    4b72: 00 00        	<unknown>
    4b74: 54 00        	<unknown>
    4b76: 00 40        	<unknown>
    4b78: 00 00        	<unknown>
    4b7a: 00 00        	<unknown>
    4b7c: 10 00        	<unknown>
    4b7e: f1 ff        	<unknown>
    4b80: 22 04        	<unknown>
    4b82: 00 00        	<unknown>
    4b84: 00 28        	<unknown>
    4b86: 02 00        	<unknown>
    4b88: 00 01        	<unknown>
    4b8a: 00 00        	<unknown>
    4b8c: 11 00        	<unknown>
    4b8e: 02 00        	<unknown>
    4b90: 3a 02        	<unknown>
    4b92: 00 00        	<unknown>
    4b94: 00 20        	<unknown>
    4b96: 00 80        	<unknown>
    4b98: 00 00        	<unknown>
    4b9a: 00 00        	<unknown>
    4b9c: 10 00        	<unknown>
    4b9e: 06 00        	<unknown>
    4ba0: 44 02        	<unknown>
    4ba2: 00 00        	<unknown>
    4ba4: 30 00        	<unknown>
    4ba6: 00 40        	<unknown>
    4ba8: 00 00        	<unknown>
    4baa: 00 00        	<unknown>
    4bac: 10 00        	<unknown>
    4bae: f1 ff        	<unknown>
    4bb0: 55 02        	<unknown>
    4bb2: 00 00        	<unknown>
    4bb4: 34 00        	<unknown>
    4bb6: 00 40        	<unknown>
    4bb8: 00 00        	<unknown>
    4bba: 00 00        	<unknown>
    4bbc: 10 00        	<unknown>
    4bbe: f1 ff        	<unknown>
    4bc0: 64 02        	<unknown>
    4bc2: 00 00        	<unknown>
    4bc4: 2c 0e        	<unknown>
    4bc6: 00 80        	<unknown>
    4bc8: 20 00        	<unknown>
    4bca: 00 00        	<unknown>
    4bcc: 12 00        	<unknown>
    4bce: 03 00 16 04  	lb	zero, 65(a2)
    4bd2: 00 00        	<unknown>
    4bd4: 00 04        	<unknown>
    4bd6: 02 00        	<unknown>
    4bd8: 04 00        	<unknown>
    4bda: 00 00        	<unknown>
    4bdc: 11 00        	<unknown>
    4bde: 02 00        	<unknown>
    4be0: 6f 02 00 00  	jal	tp, 0x4be0 <__l1_start+0x4be0>
    4be4: 70 14        	<unknown>
    4be6: 00 80        	<unknown>
    4be8: 58 00        	<unknown>
    4bea: 00 00        	<unknown>
    4bec: 12 00        	<unknown>
    4bee: 03 00 84 02  	lb	zero, 40(s0)
		...
    4bfa: 00 00        	<unknown>
    4bfc: 10 00        	<unknown>
    4bfe: 01 00        	<unknown>
    4c00: 8f 02 00 00  	<unknown>
		...
    4c0c: 10 00        	<unknown>
    4c0e: f1 ff        	<unknown>
    4c10: 9d 02        	<unknown>
    4c12: 00 00        	<unknown>
    4c14: 4c 0e        	<unknown>
    4c16: 00 80        	<unknown>
    4c18: 5c 00        	<unknown>
    4c1a: 00 00        	<unknown>
    4c1c: 12 00        	<unknown>
    4c1e: 03 00 a7 02  	lb	zero, 42(a4)
    4c22: 00 00        	<unknown>
    4c24: b8 01        	<unknown>
    4c26: 00 80        	<unknown>
    4c28: f0 00        	<unknown>
    4c2a: 00 00        	<unknown>
    4c2c: 12 00        	<unknown>
    4c2e: 03 00 b5 02  	lb	zero, 43(a0)
    4c32: 00 00        	<unknown>
    4c34: 5c 00        	<unknown>
    4c36: 00 40        	<unknown>
    4c38: 00 00        	<unknown>
    4c3a: 00 00        	<unknown>
    4c3c: 10 00        	<unknown>
    4c3e: f1 ff        	<unknown>
    4c40: c9 02        	<unknown>
    4c42: 00 00        	<unknown>
    4c44: 38 00        	<unknown>
    4c46: 00 40        	<unknown>
    4c48: 00 00        	<unknown>
    4c4a: 00 00        	<unknown>
    4c4c: 10 00        	<unknown>
    4c4e: f1 ff        	<unknown>
    4c50: da 02        	<unknown>
    4c52: 00 00        	<unknown>
    4c54: 44 00        	<unknown>
    4c56: 00 40        	<unknown>
    4c58: 00 00        	<unknown>
    4c5a: 00 00        	<unknown>
    4c5c: 10 00        	<unknown>
    4c5e: f1 ff        	<unknown>
    4c60: 88 02        	<unknown>
    4c62: 00 00        	<unknown>
    4c64: 00 00        	<unknown>
    4c66: 00 80        	<unknown>
    4c68: 00 00        	<unknown>
    4c6a: 00 00        	<unknown>
    4c6c: 10 00        	<unknown>
    4c6e: 03 00 ee 02  	lb	zero, 46(t3)
    4c72: 00 00        	<unknown>
    4c74: c8 14        	<unknown>
    4c76: 00 80        	<unknown>
    4c78: 34 00        	<unknown>
    4c7a: 00 00        	<unknown>
    4c7c: 12 00        	<unknown>
    4c7e: 03 00 fe 02  	lb	zero, 47(t3)
    4c82: 00 00        	<unknown>
    4c84: 00 00        	<unknown>
    4c86: 00 80        	<unknown>
    4c88: 00 00        	<unknown>
    4c8a: 00 00        	<unknown>
    4c8c: 10 00        	<unknown>
    4c8e: 01 00        	<unknown>
    4c90: 09 03        	<unknown>
    4c92: 00 00        	<unknown>
    4c94: 20 00        	<unknown>
    4c96: 00 40        	<unknown>
    4c98: 00 00        	<unknown>
    4c9a: 00 00        	<unknown>
    4c9c: 10 00        	<unknown>
    4c9e: f1 ff        	<unknown>
    4ca0: 1a 03        	<unknown>
    4ca2: 00 00        	<unknown>
    4ca4: 58 13        	<unknown>
    4ca6: 00 80        	<unknown>
    4ca8: 74 00        	<unknown>
    4caa: 00 00        	<unknown>
    4cac: 12 00        	<unknown>
    4cae: 03 00 21 03  	lb	zero, 50(sp)
    4cb2: 00 00        	<unknown>
    4cb4: 00 29        	<unknown>
    4cb6: 02 00        	<unknown>
    4cb8: 00 00        	<unknown>
    4cba: 00 00        	<unknown>
    4cbc: 10 00        	<unknown>
    4cbe: 02 00        	<unknown>
    4cc0: 31 03        	<unknown>
    4cc2: 00 00        	<unknown>
    4cc4: 00 00        	<unknown>
    4cc6: 02 00        	<unknown>
    4cc8: 00 00        	<unknown>
    4cca: 00 00        	<unknown>
    4ccc: 10 00        	<unknown>
    4cce: f1 ff        	<unknown>
    4cd0: 3d 03        	<unknown>
    4cd2: 00 00        	<unknown>
    4cd4: 00 00        	<unknown>
    4cd6: 00 c0        	<unknown>
    4cd8: 00 00        	<unknown>
    4cda: 00 00        	<unknown>
    4cdc: 10 00        	<unknown>
    4cde: f1 ff        	<unknown>
    4ce0: 47 03 00 00  	fmsub.s	t1, zero, zero, zero, rne
    4ce4: 2c 00        	<unknown>
    4ce6: 00 40        	<unknown>
    4ce8: 00 00        	<unknown>
    4cea: 00 00        	<unknown>
    4cec: 10 00        	<unknown>
    4cee: f1 ff        	<unknown>
    4cf0: 56 03        	<unknown>
    4cf2: 00 00        	<unknown>
    4cf4: 00 20        	<unknown>
    4cf6: 00 80        	<unknown>
    4cf8: 00 00        	<unknown>
    4cfa: 00 00        	<unknown>
    4cfc: 10 00        	<unknown>
    4cfe: 06 00        	<unknown>
    4d00: 62 03        	<unknown>
    4d02: 00 00        	<unknown>
    4d04: b4 12        	<unknown>
    4d06: 00 80        	<unknown>
    4d08: 5c 00        	<unknown>
    4d0a: 00 00        	<unknown>
    4d0c: 12 00        	<unknown>
    4d0e: 03 00 7f 00  	lb	zero, 7(t5)
    4d12: 00 00        	<unknown>
    4d14: 10 01        	<unknown>
    4d16: 00 80        	<unknown>
    4d18: 80 00        	<unknown>
    4d1a: 00 00        	<unknown>
    4d1c: 12 00        	<unknown>
    4d1e: 03 00 69 03  	lb	zero, 54(s2)
    4d22: 00 00        	<unknown>
    4d24: e8 00        	<unknown>
    4d26: 00 80        	<unknown>
    4d28: 00 00        	<unknown>
    4d2a: 00 00        	<unknown>
    4d2c: 10 00        	<unknown>
    4d2e: 03 00 6e 03  	lb	zero, 54(t3)
    4d32: 00 00        	<unknown>
    4d34: 00 00        	<unknown>
    4d36: 02 00        	<unknown>
    4d38: 00 00        	<unknown>
    4d3a: 00 00        	<unknown>
    4d3c: 10 00        	<unknown>
    4d3e: f1 ff        	<unknown>
    4d40: 78 03        	<unknown>
    4d42: 00 00        	<unknown>
    4d44: 3c 00        	<unknown>
    4d46: 00 40        	<unknown>
    4d48: 00 00        	<unknown>
    4d4a: 00 00        	<unknown>
    4d4c: 10 00        	<unknown>
    4d4e: f1 ff        	<unknown>
    4d50: 87 03 00 00  	flb	ft7, 0(zero)
    4d54: 48 00        	<unknown>
    4d56: 00 40        	<unknown>
    4d58: 00 00        	<unknown>
    4d5a: 00 00        	<unknown>
    4d5c: 10 00        	<unknown>
    4d5e: f1 ff        	<unknown>
    4d60: 9b 03 00 00  	<unknown>
    4d64: 58 00        	<unknown>
    4d66: 00 40        	<unknown>
    4d68: 00 00        	<unknown>
    4d6a: 00 00        	<unknown>
    4d6c: 10 00        	<unknown>
    4d6e: f1 ff        	<unknown>
    4d70: af 03 00 00  	<unknown>
    4d74: 90 01        	<unknown>
    4d76: 00 80        	<unknown>
    4d78: 28 00        	<unknown>
    4d7a: 00 00        	<unknown>
    4d7c: 12 00        	<unknown>
    4d7e: 03 00 ba 03  	lb	zero, 59(s4)
    4d82: 00 00        	<unknown>
    4d84: 2c 13        	<unknown>
    4d86: 00 80        	<unknown>
    4d88: 2c 00        	<unknown>
    4d8a: 00 00        	<unknown>
    4d8c: 12 00        	<unknown>
    4d8e: 03 00 c1 03  	lb	zero, 60(sp)
    4d92: 00 00        	<unknown>
    4d94: 00 00        	<unknown>
    4d96: 10 00        	<unknown>
    4d98: 00 00        	<unknown>
    4d9a: 00 00        	<unknown>
    4d9c: 10 00        	<unknown>
    4d9e: f1 ff        	<unknown>
    4da0: cc 03        	<unknown>
    4da2: 00 00        	<unknown>
    4da4: 28 00        	<unknown>
    4da6: 00 40        	<unknown>
    4da8: 00 00        	<unknown>
    4daa: 00 00        	<unknown>
    4dac: 10 00        	<unknown>
    4dae: f1 ff        	<unknown>
    4db0: dd 03        	<unknown>
    4db2: 00 00        	<unknown>
    4db4: 1c 00        	<unknown>
    4db6: 00 40        	<unknown>
    4db8: 00 00        	<unknown>
    4dba: 00 00        	<unknown>
    4dbc: 10 00        	<unknown>
    4dbe: f1 ff        	<unknown>
    4dc0: ec 03        	<unknown>
    4dc2: 00 00        	<unknown>
    4dc4: 00 00        	<unknown>
    4dc6: 02 00        	<unknown>
    4dc8: 00 04        	<unknown>
    4dca: 00 00        	<unknown>
    4dcc: 11 00        	<unknown>
    4dce: 02 00        	<unknown>
    4dd0: 65 02        	<unknown>
    4dd2: 00 00        	<unknown>
    4dd4: d8 0d        	<unknown>
    4dd6: 00 80        	<unknown>
    4dd8: 54 00        	<unknown>
    4dda: 00 00        	<unknown>
    4ddc: 12 00        	<unknown>
    4dde: 03 00 f3 03  	lb	zero, 63(t1)
    4de2: 00 00        	<unknown>
    4de4: 08 00        	<unknown>
    4de6: 00 40        	<unknown>
    4de8: 00 00        	<unknown>
    4dea: 00 00        	<unknown>
    4dec: 10 00        	<unknown>
    4dee: f1 ff        	<unknown>
    4df0: 05 04        	<unknown>
    4df2: 00 00        	<unknown>
    4df4: 00 29        	<unknown>
    4df6: 02 00        	<unknown>
    4df8: 00 00        	<unknown>
    4dfa: 00 00        	<unknown>
    4dfc: 10 00        	<unknown>
    4dfe: 02 00        	<unknown>
    4e00: 12 04        	<unknown>
    4e02: 00 00        	<unknown>
    4e04: 00 08        	<unknown>
    4e06: 02 00        	<unknown>
    4e08: 00 10        	<unknown>
    4e0a: 00 00        	<unknown>
    4e0c: 11 00        	<unknown>
    4e0e: 02 00        	<unknown>
    4e10: 1e 04        	<unknown>
    4e12: 00 00        	<unknown>
    4e14: 94 05        	<unknown>
    4e16: 00 80        	<unknown>
    4e18: 14 00        	<unknown>
    4e1a: 00 00        	<unknown>
    4e1c: 12 00        	<unknown>
    4e1e: 03 00 67 02  	lb	zero, 38(a4)
    4e22: 00 00        	<unknown>
    4e24: a8 05        	<unknown>
    4e26: 00 80        	<unknown>
    4e28: 5c 00        	<unknown>
    4e2a: 00 00        	<unknown>
    4e2c: 12 00        	<unknown>
    4e2e: 03 00 2d 04  	lb	zero, 66(s10)
    4e32: 00 00        	<unknown>
    4e34: 00 00        	<unknown>
    4e36: 00 a0        	<unknown>
    4e38: 00 00        	<unknown>
    4e3a: 00 00        	<unknown>
    4e3c: 10 00        	<unknown>
    4e3e: 01 00        	<unknown>
    4e40: 39 04        	<unknown>
    4e42: 00 00        	<unknown>
    4e44: 08 01        	<unknown>
    4e46: 00 80        	<unknown>
    4e48: 08 00        	<unknown>
    4e4a: 00 00        	<unknown>
    4e4c: 12 00        	<unknown>
    4e4e: 03 00 4c 04  	lb	zero, 68(s8)
    4e52: 00 00        	<unknown>
    4e54: ff ff ff ff  	<unknown>
    4e58: 00 00        	<unknown>
    4e5a: 00 00        	<unknown>
    4e5c: 10 00        	<unknown>
    4e5e: f1 ff        	<unknown>
    4e60: 55 04        	<unknown>
    4e62: 00 00        	<unknown>
    4e64: ff ff ff ff  	<unknown>
    4e68: 00 00        	<unknown>
    4e6a: 00 00        	<unknown>
    4e6c: 10 00        	<unknown>
    4e6e: f1 ff        	<unknown>
    4e70: 60 04        	<unknown>
    4e72: 00 00        	<unknown>
    4e74: 10 13        	<unknown>
    4e76: 00 80        	<unknown>
    4e78: 1c 00        	<unknown>
    4e7a: 00 00        	<unknown>
    4e7c: 12 00        	<unknown>
    4e7e: 03 00 67 04  	lb	zero, 70(a4)
    4e82: 00 00        	<unknown>
    4e84: 40 00        	<unknown>
    4e86: 00 40        	<unknown>
    4e88: 00 00        	<unknown>
    4e8a: 00 00        	<unknown>
    4e8c: 10 00        	<unknown>
    4e8e: f1 ff        	<unknown>
    4e90: 7b 04 00 00  	<unknown>
    4e94: 10 00        	<unknown>
    4e96: 00 40        	<unknown>
    4e98: 00 00        	<unknown>
    4e9a: 00 00        	<unknown>
    4e9c: 10 00        	<unknown>
    4e9e: f1 ff        	<unknown>
    4ea0: 90 04        	<unknown>
    4ea2: 00 00        	<unknown>
    4ea4: 00 00        	<unknown>
    4ea6: 40 80        	<unknown>
    4ea8: 00 00        	<unknown>
    4eaa: 00 00        	<unknown>
    4eac: 10 00        	<unknown>
    4eae: 01 00        	<unknown>
    4eb0: 99 04        	<unknown>
    4eb2: 00 00        	<unknown>
    4eb4: a8 02        	<unknown>
    4eb6: 00 80        	<unknown>
    4eb8: fc 00        	<unknown>
    4eba: 00 00        	<unknown>
    4ebc: 12 00        	<unknown>
    4ebe: 03 00 a7 04  	lb	zero, 74(a4)
    4ec2: 00 00        	<unknown>
    4ec4: ff ff ff ff  	<unknown>
    4ec8: 00 00        	<unknown>
    4eca: 00 00        	<unknown>
    4ecc: 10 00        	<unknown>
    4ece: f1 ff        	<unknown>
    4ed0: b2 04        	<unknown>
    4ed2: 00 00        	<unknown>
    4ed4: 00 18        	<unknown>
    4ed6: 02 00        	<unknown>
    4ed8: 00 10        	<unknown>
    4eda: 00 00        	<unknown>
    4edc: 11 00        	<unknown>
    4ede: 02 00        	<unknown>
    4ee0: c2 04        	<unknown>
    4ee2: 00 00        	<unknown>
    4ee4: 24 00        	<unknown>
    4ee6: 00 40        	<unknown>
    4ee8: 00 00        	<unknown>
    4eea: 00 00        	<unknown>
    4eec: 10 00        	<unknown>
    4eee: f1 ff        	<unknown>
    4ef0: d1 04        	<unknown>
    4ef2: 00 00        	<unknown>
    4ef4: 00 20        	<unknown>
    4ef6: 00 80        	<unknown>
    4ef8: 00 00        	<unknown>
    4efa: 00 00        	<unknown>
    4efc: 10 00        	<unknown>
    4efe: 05 00        	<unknown>

Disassembly of section .strtab:

00000000 <.strtab>:
       0: 00 2f        	<unknown>
       2: 75 73        	<unknown>
       4: 72 2f        	<unknown>
       6: 73 63 72 61  	csrrsi	t1, 1559, 4
       a: 74 63        	<unknown>
       c: 68 32        	<unknown>
       e: 2f 6c 61 72  	<unknown>
      12: 61 69        	<unknown>
      14: 6e 38        	<unknown>
      16: 2f 79 69 63  	<unknown>
      1a: 7a 68        	<unknown>
      1c: 61 6e        	<unknown>
      1e: 67 2f 74 65  	<unknown>
      22: 72 61        	<unknown>
      24: 70 6f        	<unknown>
      26: 6f 6c 5f 64  	jal	s8, 0xf6e6a <__l1_alloc_base+0xd456a>
      2a: 72 61        	<unknown>
      2c: 6d 5f        	<unknown>
      2e: 73 75 62 6d  	csrrci	a0, 1750, 4
      32: 6f 64 75 6c  	jal	s0, 0x56ef8 <__l1_alloc_base+0x345f8>
      36: 65 5f        	<unknown>
      38: 72 65        	<unknown>
      3a: 62 61        	<unknown>
      3c: 73 65 5f 30  	csrrsi	a0, mtvec, 30
      40: 35 30        	<unknown>
      42: 32 5f        	<unknown>
      44: 32 30        	<unknown>
      46: 32 34        	<unknown>
      48: 2f 6d 65 6d  	<unknown>
      4c: 70 6f        	<unknown>
      4e: 6f 6c 2f 73  	jal	s8, 0xf6780 <__l1_alloc_base+0xd3e80>
      52: 6f 66 74 77  	jal	a2, 0x46fc8 <__l1_alloc_base+0x246c8>
      56: 61 72        	<unknown>
      58: 65 2f        	<unknown>
      5a: 72 75        	<unknown>
      5c: 6e 74        	<unknown>
      5e: 69 6d        	<unknown>
      60: 65 2f        	<unknown>
      62: 63 72 74 30  	bgeu	s0, t2, 0x366 <__l1_start+0x366>
      66: 2e 53        	<unknown>
      68: 2e 6f        	<unknown>
      6a: 00 5f        	<unknown>
      6c: 72 65        	<unknown>
      6e: 73 65 74 5f  	csrrsi	a0, 1527, 8
      72: 76 65        	<unknown>
      74: 63 74 6f 72  	bgeu	t5, t1, 0x79c <__l1_start+0x79c>
      78: 00 5f        	<unknown>
      7a: 6a 75        	<unknown>
      7c: 6d 70        	<unknown>
      7e: 5f 6d 61 69  	<unknown>
      82: 6e 00        	<unknown>
      84: 6d 61        	<unknown>
      86: 69 6e        	<unknown>
      88: 2e 63        	<unknown>
      8a: 00 61        	<unknown>
      8c: 6c 6c        	<unknown>
      8e: 6f 63 2e 63  	jal	t1, 0xe66c0 <__l1_alloc_base+0xc3dc0>
      92: 00 70        	<unknown>
      94: 72 69        	<unknown>
      96: 6e 74        	<unknown>
      98: 66 2e        	<unknown>
      9a: 63 00 5f 6f  	beq	t5, s5, 0x77a <__l1_start+0x77a>
      9e: 75 74        	<unknown>
      a0: 5f 63 68 61  	<unknown>
      a4: 72 00        	<unknown>
      a6: 5f 76 73 6e  	<unknown>
      aa: 70 72        	<unknown>
      ac: 69 6e        	<unknown>
      ae: 74 66        	<unknown>
      b0: 00 5f        	<unknown>
      b2: 6f 75 74 5f  	jal	a0, 0x47ea8 <__l1_alloc_base+0x255a8>
      b6: 6e 75        	<unknown>
      b8: 6c 6c        	<unknown>
      ba: 00 5f        	<unknown>
      bc: 6e 74        	<unknown>
      be: 6f 61 5f 6c  	jal	sp, 0xf6f82 <__l1_alloc_base+0xd4682>
      c2: 6f 6e 67 00  	jal	t3, 0x760c8 <__l1_alloc_base+0x537c8>
      c6: 5f 6f 75 74  	<unknown>
      ca: 5f 62 75 66  	<unknown>
      ce: 66 65        	<unknown>
      d0: 72 00        	<unknown>
      d2: 5f 6f 75 74  	<unknown>
      d6: 5f 66 63 74  	<unknown>
      da: 00 73        	<unknown>
      dc: 65 72        	<unknown>
      de: 69 61        	<unknown>
      e0: 6c 2e        	<unknown>
      e2: 63 00 73 74  	beq	t1, t2, 0x822 <__l1_start+0x822>
      e6: 72 69        	<unknown>
      e8: 6e 67        	<unknown>
      ea: 2e 63        	<unknown>
      ec: 00 73        	<unknown>
      ee: 79 6e        	<unknown>
      f0: 63 68 72 6f  	bltu	tp, s7, 0x7e0 <__l1_start+0x7e0>
      f4: 6e 69        	<unknown>
      f6: 7a 61        	<unknown>
      f8: 74 69        	<unknown>
      fa: 6f 6e 2e 63  	jal	t3, 0xe672c <__l1_alloc_base+0xc3e2c>
      fe: 00 73        	<unknown>
     100: 74 72        	<unknown>
     102: 63 70 79 00  	bgeu	s2, t2, 0x102 <__l1_start+0x102>
     106: 5f 70 75 74  	<unknown>
     10a: 63 68 61 72  	bltu	sp, t1, 0x83a <__l1_start+0x83a>
     10e: 00 5f        	<unknown>
     110: 5f 6c 32 5f  	<unknown>
     114: 61 6c        	<unknown>
     116: 6c 6f        	<unknown>
     118: 63 5f 62 61  	bge	tp, s6, 0x736 <__l1_start+0x736>
     11c: 73 65 00 5f  	csrrsi	a0, 1520, 0
     120: 5f 67 6c 6f  	<unknown>
     124: 62 61        	<unknown>
     126: 6c 5f        	<unknown>
     128: 70 6f        	<unknown>
     12a: 69 6e        	<unknown>
     12c: 74 65        	<unknown>
     12e: 72 24        	<unknown>
     130: 00 70        	<unknown>
     132: 75 6c        	<unknown>
     134: 70 5f        	<unknown>
     136: 5f 4c 32 00  	<unknown>
     13a: 70 75        	<unknown>
     13c: 6c 70        	<unknown>
     13e: 5f 5f 50 45  	<unknown>
     142: 00 61        	<unknown>
     144: 6c 6c        	<unknown>
     146: 6f 63 5f 64  	jal	t1, 0xf6f8a <__l1_alloc_base+0xd468a>
     14a: 75 6d        	<unknown>
     14c: 70 00        	<unknown>
     14e: 65 6f        	<unknown>
     150: 63 5f 72 65  	bge	tp, s7, 0x7ae <__l1_start+0x7ae>
     154: 67 00 67 65  	jr	1622(a4)
     158: 74 5f        	<unknown>
     15a: 61 6c        	<unknown>
     15c: 6c 6f        	<unknown>
     15e: 63 5f 6c 31  	bge	s8, s6, 0x47c <__l1_start+0x47c>
     162: 00 77        	<unknown>
     164: 61 6b        	<unknown>
     166: 65 5f        	<unknown>
     168: 75 70        	<unknown>
     16a: 5f 74 69 6c  	<unknown>
     16e: 65 5f        	<unknown>
     170: 67 34 5f 72  	<unknown>
     174: 65 67        	<unknown>
     176: 00 61        	<unknown>
     178: 74 6f        	<unknown>
     17a: 6c 00        	<unknown>
     17c: 74 63        	<unknown>
     17e: 64 6d        	<unknown>
     180: 5f 73 74 61  	<unknown>
     184: 72 74        	<unknown>
     186: 5f 61 64 64  	<unknown>
     18a: 72 65        	<unknown>
     18c: 73 73 5f 72  	csrrci	t1, mhpmevent5h, 30
     190: 65 67        	<unknown>
     192: 00 73        	<unknown>
     194: 69 6d        	<unknown>
     196: 70 6c        	<unknown>
     198: 65 5f        	<unknown>
     19a: 66 72        	<unknown>
     19c: 65 65        	<unknown>
     19e: 00 64        	<unknown>
     1a0: 6f 6d 61 69  	jal	s10, 0x16836 <__l1_start+0x16836>
     1a4: 6e 5f        	<unknown>
     1a6: 66 72        	<unknown>
     1a8: 65 65        	<unknown>
     1aa: 00 5f        	<unknown>
     1ac: 65 74        	<unknown>
     1ae: 65 78        	<unknown>
     1b0: 74 00        	<unknown>
     1b2: 72 6f        	<unknown>
     1b4: 5f 63 61 63  	<unknown>
     1b8: 68 65        	<unknown>
     1ba: 5f 65 6e 61  	<unknown>
     1be: 62 6c        	<unknown>
     1c0: 65 00        	<unknown>
     1c2: 77 61 6b 65  	<unknown>
     1c6: 5f 75 70 5f  	<unknown>
     1ca: 74 69        	<unknown>
     1cc: 6c 65        	<unknown>
     1ce: 5f 67 33 5f  	<unknown>
     1d2: 72 65        	<unknown>
     1d4: 67 00 6d 65  	jr	1622(s10)
     1d8: 6d 63        	<unknown>
     1da: 70 79        	<unknown>
     1dc: 00 6e        	<unknown>
     1de: 72 5f        	<unknown>
     1e0: 63 6f 72 65  	bltu	tp, s7, 0x83e <__l1_start+0x83e>
     1e4: 73 5f 61 64  	csrrwi	t5, 1606, 2
     1e8: 64 72        	<unknown>
     1ea: 65 73        	<unknown>
     1ec: 73 5f 72 65  	csrrwi	t5, 1623, 4
     1f0: 67 00 73 70  	jr	1799(t1)
     1f4: 72 69        	<unknown>
     1f6: 6e 74        	<unknown>
     1f8: 66 5f        	<unknown>
     1fa: 00 5f        	<unknown>
     1fc: 5f 73 65 71  	<unknown>
     200: 5f 73 74 61  	<unknown>
     204: 72 74        	<unknown>
     206: 00 5f        	<unknown>
     208: 5f 6c 31 5f  	<unknown>
     20c: 65 6e        	<unknown>
     20e: 64 00        	<unknown>
     210: 77 61 6b 65  	<unknown>
     214: 5f 75 70 5f  	<unknown>
     218: 72 65        	<unknown>
     21a: 67 00 5f 5f  	jr	1525(t5)
     21e: 72 6f        	<unknown>
     220: 6d 5f        	<unknown>
     222: 65 6e        	<unknown>
     224: 64 00        	<unknown>
     226: 77 61 6b 65  	<unknown>
     22a: 5f 75 70 5f  	<unknown>
     22e: 74 69        	<unknown>
     230: 6c 65        	<unknown>
     232: 5f 67 35 5f  	<unknown>
     236: 72 65        	<unknown>
     238: 67 00 5f 5f  	jr	1525(t5)
     23c: 62 73        	<unknown>
     23e: 73 5f 65 6e  	csrrwi	t5, 1766, 10
     242: 64 00        	<unknown>
     244: 72 6f        	<unknown>
     246: 5f 63 61 63  	<unknown>
     24a: 68 65        	<unknown>
     24c: 5f 73 74 61  	<unknown>
     250: 72 74        	<unknown>
     252: 5f 32 00 72  	<unknown>
     256: 6f 5f 63 61  	jal	t5, 0x3586c <__l1_alloc_base+0x12f6c>
     25a: 63 68 65 5f  	bltu	a0, s6, 0x84a <__l1_start+0x84a>
     25e: 65 6e        	<unknown>
     260: 64 5f        	<unknown>
     262: 32 00        	<unknown>
     264: 76 73        	<unknown>
     266: 6e 70        	<unknown>
     268: 72 69        	<unknown>
     26a: 6e 74        	<unknown>
     26c: 66 5f        	<unknown>
     26e: 00 6d        	<unknown>
     270: 65 6d        	<unknown>
     272: 70 6f        	<unknown>
     274: 6f 6c 5f 62  	jal	s8, 0xf7098 <__l1_alloc_base+0xd4798>
     278: 61 72        	<unknown>
     27a: 72 69        	<unknown>
     27c: 65 72        	<unknown>
     27e: 5f 69 6e 69  	<unknown>
     282: 74 00        	<unknown>
     284: 5f 5f 6c 31  	<unknown>
     288: 5f 73 74 61  	<unknown>
     28c: 72 74        	<unknown>
     28e: 00 5f        	<unknown>
     290: 5f 73 74 61  	<unknown>
     294: 63 6b 5f 73  	bltu	t5, s5, 0x9ca <__l1_start+0x9ca>
     298: 74 61        	<unknown>
     29a: 72 74        	<unknown>
     29c: 00 66        	<unknown>
     29e: 63 74 70 72  	bgeu	zero, t2, 0x9c6 <__l1_start+0x9c6>
     2a2: 69 6e        	<unknown>
     2a4: 74 66        	<unknown>
     2a6: 00 64        	<unknown>
     2a8: 6f 6d 61 69  	jal	s10, 0x1693e <__l1_start+0x1693e>
     2ac: 6e 5f        	<unknown>
     2ae: 6d 61        	<unknown>
     2b0: 6c 6c        	<unknown>
     2b2: 6f 63 00 77  	jal	t1, 0x6a22 <__l1_start+0x6a22>
     2b6: 61 6b        	<unknown>
     2b8: 65 5f        	<unknown>
     2ba: 75 70        	<unknown>
     2bc: 5f 74 69 6c  	<unknown>
     2c0: 65 5f        	<unknown>
     2c2: 67 37 5f 72  	<unknown>
     2c6: 65 67        	<unknown>
     2c8: 00 72        	<unknown>
     2ca: 6f 5f 63 61  	jal	t5, 0x358e0 <__l1_alloc_base+0x12fe0>
     2ce: 63 68 65 5f  	bltu	a0, s6, 0x8be <__l1_start+0x8be>
     2d2: 73 74 61 72  	csrrci	s0, mhpmevent6h, 2
     2d6: 74 5f        	<unknown>
     2d8: 33 00 77 61  	<unknown>
     2dc: 6b 65 5f 75  	<unknown>
     2e0: 70 5f        	<unknown>
     2e2: 74 69        	<unknown>
     2e4: 6c 65        	<unknown>
     2e6: 5f 67 31 5f  	<unknown>
     2ea: 72 65        	<unknown>
     2ec: 67 00 6d 65  	jr	1622(s10)
     2f0: 6d 70        	<unknown>
     2f2: 6f 6f 6c 5f  	jal	t5, 0xc68e8 <__l1_alloc_base+0xa3fe8>
     2f6: 62 61        	<unknown>
     2f8: 72 72        	<unknown>
     2fa: 69 65        	<unknown>
     2fc: 72 00        	<unknown>
     2fe: 5f 5f 6c 32  	<unknown>
     302: 5f 73 74 61  	<unknown>
     306: 72 74        	<unknown>
     308: 00 72        	<unknown>
     30a: 6f 5f 63 61  	jal	t5, 0x35920 <__l1_alloc_base+0x13020>
     30e: 63 68 65 5f  	bltu	a0, s6, 0x8fe <__l1_start+0x8fe>
     312: 73 74 61 72  	csrrci	s0, mhpmevent6h, 2
     316: 74 5f        	<unknown>
     318: 30 00        	<unknown>
     31a: 6d 65        	<unknown>
     31c: 6d 63        	<unknown>
     31e: 6d 70        	<unknown>
     320: 00 5f        	<unknown>
     322: 5f 6c 31 5f  	<unknown>
     326: 61 6c        	<unknown>
     328: 6c 6f        	<unknown>
     32a: 63 5f 62 61  	bge	tp, s6, 0x948 <__l1_start+0x948>
     32e: 73 65 00 5f  	csrrsi	a0, 1520, 0
     332: 5f 73 74 61  	<unknown>
     336: 63 6b 5f 65  	bltu	t5, s5, 0x98c <__l1_start+0x98c>
     33a: 6e 64        	<unknown>
     33c: 00 66        	<unknown>
     33e: 61 6b        	<unknown>
     340: 65 5f        	<unknown>
     342: 75 61        	<unknown>
     344: 72 74        	<unknown>
     346: 00 72        	<unknown>
     348: 6f 5f 63 61  	jal	t5, 0x3595e <__l1_alloc_base+0x1305e>
     34c: 63 68 65 5f  	bltu	a0, s6, 0x93c <__l1_start+0x93c>
     350: 65 6e        	<unknown>
     352: 64 5f        	<unknown>
     354: 31 00        	<unknown>
     356: 5f 5f 62 73  	<unknown>
     35a: 73 5f 73 74  	csrrwi	t5, mseccfg, 6
     35e: 61 72        	<unknown>
     360: 74 00        	<unknown>
     362: 6d 65        	<unknown>
     364: 6d 73        	<unknown>
     366: 65 74        	<unknown>
     368: 00 5f        	<unknown>
     36a: 65 6f        	<unknown>
     36c: 63 00 5f 5f  	beq	t5, s5, 0x94c <__l1_start+0x94c>
     370: 73 65 71 5f  	csrrsi	a0, 1527, 2
     374: 65 6e        	<unknown>
     376: 64 00        	<unknown>
     378: 72 6f        	<unknown>
     37a: 5f 63 61 63  	<unknown>
     37e: 68 65        	<unknown>
     380: 5f 65 6e 64  	<unknown>
     384: 5f 33 00 77  	<unknown>
     388: 61 6b        	<unknown>
     38a: 65 5f        	<unknown>
     38c: 75 70        	<unknown>
     38e: 5f 74 69 6c  	<unknown>
     392: 65 5f        	<unknown>
     394: 67 32 5f 72  	<unknown>
     398: 65 67        	<unknown>
     39a: 00 77        	<unknown>
     39c: 61 6b        	<unknown>
     39e: 65 5f        	<unknown>
     3a0: 75 70        	<unknown>
     3a2: 5f 74 69 6c  	<unknown>
     3a6: 65 5f        	<unknown>
     3a8: 67 36 5f 72  	<unknown>
     3ac: 65 67        	<unknown>
     3ae: 00 61        	<unknown>
     3b0: 6c 6c        	<unknown>
     3b2: 6f 63 5f 69  	jal	t1, 0xf7246 <__l1_alloc_base+0xd4946>
     3b6: 6e 69        	<unknown>
     3b8: 74 00        	<unknown>
     3ba: 73 74 72 63  	csrrci	s0, 1591, 4
     3be: 6d 70        	<unknown>
     3c0: 00 5f        	<unknown>
     3c2: 5f 68 65 61  	<unknown>
     3c6: 70 5f        	<unknown>
     3c8: 65 6e        	<unknown>
     3ca: 64 00        	<unknown>
     3cc: 72 6f        	<unknown>
     3ce: 5f 63 61 63  	<unknown>
     3d2: 68 65        	<unknown>
     3d4: 5f 73 74 61  	<unknown>
     3d8: 72 74        	<unknown>
     3da: 5f 31 00 72  	<unknown>
     3de: 6f 5f 63 61  	jal	t5, 0x359f4 <__l1_alloc_base+0x130f4>
     3e2: 63 68 65 5f  	bltu	a0, s6, 0x9d2 <__l1_start+0x9d2>
     3e6: 66 6c        	<unknown>
     3e8: 75 73        	<unknown>
     3ea: 68 00        	<unknown>
     3ec: 72 65        	<unknown>
     3ee: 73 75 6c 74  	csrrci	a0, 1862, 24
     3f2: 00 77        	<unknown>
     3f4: 61 6b        	<unknown>
     3f6: 65 5f        	<unknown>
     3f8: 75 70        	<unknown>
     3fa: 5f 67 72 6f  	<unknown>
     3fe: 75 70        	<unknown>
     400: 5f 72 65 67  	<unknown>
     404: 00 5f        	<unknown>
     406: 5f 68 65 61  	<unknown>
     40a: 70 5f        	<unknown>
     40c: 73 74 61 72  	csrrci	s0, mhpmevent6h, 2
     410: 74 00        	<unknown>
     412: 6c 6f        	<unknown>
     414: 67 5f 62 61  	<unknown>
     418: 72 72        	<unknown>
     41a: 69 65        	<unknown>
     41c: 72 00        	<unknown>
     41e: 67 65 74 5f  	<unknown>
     422: 61 6c        	<unknown>
     424: 6c 6f        	<unknown>
     426: 63 5f 74 69  	bge	s0, s7, 0xac4 <__l1_start+0xac4>
     42a: 6c 65        	<unknown>
     42c: 00 5f        	<unknown>
     42e: 5f 72 6f 6d  	<unknown>
     432: 5f 73 74 61  	<unknown>
     436: 72 74        	<unknown>
     438: 00 73        	<unknown>
     43a: 69 6d        	<unknown>
     43c: 70 6c        	<unknown>
     43e: 65 5f        	<unknown>
     440: 63 61 6c 63  	bltu	s8, s6, 0xa62 <__l1_start+0xa62>
     444: 75 6c        	<unknown>
     446: 61 74        	<unknown>
     448: 69 6f        	<unknown>
     44a: 6e 00        	<unknown>
     44c: 70 75        	<unknown>
     44e: 6c 70        	<unknown>
     450: 5f 5f 46 43  	<unknown>
     454: 00 70        	<unknown>
     456: 75 6c        	<unknown>
     458: 70 5f        	<unknown>
     45a: 5f 4c 31 43  	<unknown>
     45e: 4c 00        	<unknown>
     460: 73 74 72 6c  	csrrci	s0, 1735, 4
     464: 65 6e        	<unknown>
     466: 00 77        	<unknown>
     468: 61 6b        	<unknown>
     46a: 65 5f        	<unknown>
     46c: 75 70        	<unknown>
     46e: 5f 74 69 6c  	<unknown>
     472: 65 5f        	<unknown>
     474: 67 30 5f 72  	<unknown>
     478: 65 67        	<unknown>
     47a: 00 74        	<unknown>
     47c: 63 64 6d 5f  	bltu	s10, s6, 0xa64 <__l1_start+0xa64>
     480: 65 6e        	<unknown>
     482: 64 5f        	<unknown>
     484: 61 64        	<unknown>
     486: 64 72        	<unknown>
     488: 65 73        	<unknown>
     48a: 73 5f 72 65  	csrrwi	t5, 1623, 4
     48e: 67 00 5f 5f  	jr	1525(t5)
     492: 6c 32        	<unknown>
     494: 5f 65 6e 64  	<unknown>
     498: 00 73        	<unknown>
     49a: 69 6d        	<unknown>
     49c: 70 6c        	<unknown>
     49e: 65 5f        	<unknown>
     4a0: 6d 61        	<unknown>
     4a2: 6c 6c        	<unknown>
     4a4: 6f 63 00 70  	jal	t1, 0x6ba4 <__l1_start+0x6ba4>
     4a8: 75 6c        	<unknown>
     4aa: 70 5f        	<unknown>
     4ac: 5f 4c 31 46  	<unknown>
     4b0: 43 00 70 61  	fmadd.s	zero, zero, s7, a2, rne
     4b4: 72 74        	<unknown>
     4b6: 69 61        	<unknown>
     4b8: 6c 5f        	<unknown>
     4ba: 62 61        	<unknown>
     4bc: 72 72        	<unknown>
     4be: 69 65        	<unknown>
     4c0: 72 00        	<unknown>
     4c2: 72 6f        	<unknown>
     4c4: 5f 63 61 63  	<unknown>
     4c8: 68 65        	<unknown>
     4ca: 5f 65 6e 64  	<unknown>
     4ce: 5f 30 00 5f  	<unknown>
     4d2: 65 72        	<unknown>
     4d4: 6f 64 61 74  	jal	s0, 0x16c1a <__l1_start+0x16c1a>
     4d8: 61 00        	<unknown>

Disassembly of section .shstrtab:

00000000 <.shstrtab>:
       0: 00 2e        	<unknown>
       2: 73 79 6d 74  	csrrci	s2, 1862, 26
       6: 61 62        	<unknown>
       8: 00 2e        	<unknown>
       a: 73 74 72 74  	csrrci	s0, mseccfg, 4
       e: 61 62        	<unknown>
      10: 00 2e        	<unknown>
      12: 73 68 73 74  	csrrsi	a6, mseccfg, 6
      16: 72 74        	<unknown>
      18: 61 62        	<unknown>
      1a: 00 2e        	<unknown>
      1c: 6c 31        	<unknown>
      1e: 5f 73 65 71  	<unknown>
      22: 00 2e        	<unknown>
      24: 6c 31        	<unknown>
      26: 00 2e        	<unknown>
      28: 74 65        	<unknown>
      2a: 78 74        	<unknown>
      2c: 00 2e        	<unknown>
      2e: 72 6f        	<unknown>
      30: 64 61        	<unknown>
      32: 74 61        	<unknown>
      34: 00 2e        	<unknown>
      36: 72 6f        	<unknown>
      38: 64 61        	<unknown>
      3a: 74 61        	<unknown>
      3c: 31 00        	<unknown>
      3e: 2e 64        	<unknown>
      40: 61 74        	<unknown>
      42: 61 00        	<unknown>
      44: 2e 73        	<unknown>
      46: 62 73        	<unknown>
      48: 73 00 2e 6c  	<unknown>
      4c: 32 00        	<unknown>
      4e: 2e 63        	<unknown>
      50: 6f 6d 6d 65  	jal	s10, 0xd66a6 <__l1_alloc_base+0xb3da6>
      54: 6e 74        	<unknown>
      56: 00 2e        	<unknown>
      58: 72 69        	<unknown>
      5a: 73 63 76 2e  	csrrsi	t1, 743, 12
      5e: 61 74        	<unknown>
      60: 74 72        	<unknown>
      62: 69 62        	<unknown>
      64: 75 74        	<unknown>
      66: 65 73        	<unknown>
      68: 00 2e        	<unknown>
      6a: 64 65        	<unknown>
      6c: 62 75        	<unknown>
      6e: 67 5f 6c 6f  	<unknown>
      72: 63 6c 69 73  	bltu	s2, s6, 0x7aa <__l1_start+0x7aa>
      76: 74 73        	<unknown>
      78: 00 2e        	<unknown>
      7a: 64 65        	<unknown>
      7c: 62 75        	<unknown>
      7e: 67 5f 61 62  	<unknown>
      82: 62 72        	<unknown>
      84: 65 76        	<unknown>
      86: 00 2e        	<unknown>
      88: 64 65        	<unknown>
      8a: 62 75        	<unknown>
      8c: 67 5f 69 6e  	<unknown>
      90: 66 6f        	<unknown>
      92: 00 2e        	<unknown>
      94: 64 65        	<unknown>
      96: 62 75        	<unknown>
      98: 67 5f 73 74  	<unknown>
      9c: 72 5f        	<unknown>
      9e: 6f 66 66 73  	jal	a2, 0x667d4 <__l1_alloc_base+0x43ed4>
      a2: 65 74        	<unknown>
      a4: 73 00 2e 64  	<unknown>
      a8: 65 62        	<unknown>
      aa: 75 67        	<unknown>
      ac: 5f 73 74 72  	<unknown>
      b0: 00 2e        	<unknown>
      b2: 64 65        	<unknown>
      b4: 62 75        	<unknown>
      b6: 67 5f 61 64  	<unknown>
      ba: 64 72        	<unknown>
      bc: 00 2e        	<unknown>
      be: 64 65        	<unknown>
      c0: 62 75        	<unknown>
      c2: 67 5f 66 72  	<unknown>
      c6: 61 6d        	<unknown>
      c8: 65 00        	<unknown>
      ca: 2e 64        	<unknown>
      cc: 65 62        	<unknown>
      ce: 75 67        	<unknown>
      d0: 5f 6c 69 6e  	<unknown>
      d4: 65 00        	<unknown>
      d6: 2e 64        	<unknown>
      d8: 65 62        	<unknown>
      da: 75 67        	<unknown>
      dc: 5f 6c 69 6e  	<unknown>
      e0: 65 5f        	<unknown>
      e2: 73 74 72 00  	csrrci	s0, 7, 4
      e6: 2e 64        	<unknown>
      e8: 65 62        	<unknown>
      ea: 75 67        	<unknown>
      ec: 5f 72 6e 67  	<unknown>
      f0: 6c 69        	<unknown>
      f2: 73 74 73 00  	csrrci	s0, 7, 6
      f6: 2e 64        	<unknown>
      f8: 65 62        	<unknown>
      fa: 75 67        	<unknown>
      fc: 5f 61 72 61  	<unknown>
     100: 6e 67        	<unknown>
     102: 65 73        	<unknown>
     104: 00           	<unknown>
