
/usr/scratch2/larain8/yiczhang/terapool_dram_submodule_rebase_0502_2024/mempool/software/bin/apps/baremetal/gvsoc_test_barrier:	file format elf32-littleriscv

Disassembly of section .l1_seq:

00000000 <__l1_start>:
...

Disassembly of section .l1:

00020000 <result>:
...

00020400 <barrier>:
...

00020800 <log_barrier>:
...

00021800 <partial_barrier>:
...

00022800 <alloc_tile>:
...

Disassembly of section .text:

80000000 <_start>:
80000000: 97 31 00 00  	auipc	gp, 3
80000004: 93 81 01 80  	addi	gp, gp, -2048
80000008: 6f 00 40 00  	j	0x8000000c <_reset_vector>

8000000c <_reset_vector>:
8000000c: 93 00 00 00  	li	ra, 0
80000010: 13 02 00 00  	li	tp, 0
80000014: 93 02 00 00  	li	t0, 0
80000018: 13 03 00 00  	li	t1, 0
8000001c: 93 03 00 00  	li	t2, 0
80000020: 13 04 00 00  	li	s0, 0
80000024: 93 04 00 00  	li	s1, 0
80000028: 13 05 00 00  	li	a0, 0
8000002c: 93 05 00 00  	li	a1, 0
80000030: 13 06 00 00  	li	a2, 0
80000034: 93 06 00 00  	li	a3, 0
80000038: 13 07 00 00  	li	a4, 0
8000003c: 93 07 00 00  	li	a5, 0
80000040: 13 08 00 00  	li	a6, 0
80000044: 93 08 00 00  	li	a7, 0
80000048: 13 09 00 00  	li	s2, 0
8000004c: 93 09 00 00  	li	s3, 0
80000050: 13 0a 00 00  	li	s4, 0
80000054: 13 05 00 00  	li	a0, 0
80000058: 93 0a 00 00  	li	s5, 0
8000005c: 13 0b 00 00  	li	s6, 0
80000060: 93 0b 00 00  	li	s7, 0
80000064: 13 0c 00 00  	li	s8, 0
80000068: 93 0c 00 00  	li	s9, 0
8000006c: 13 0d 00 00  	li	s10, 0
80000070: 93 0d 00 00  	li	s11, 0
80000074: 13 0e 00 00  	li	t3, 0
80000078: 93 0e 00 00  	li	t4, 0
8000007c: 13 0f 00 00  	li	t5, 0
80000080: 93 0f 00 00  	li	t6, 0
80000084: 17 01 00 80  	auipc	sp, 524288
80000088: 13 01 c1 f7  	addi	sp, sp, -132
8000008c: 73 25 40 f1  	csrr	a0, mhartid
80000090: 93 52 25 00  	srli	t0, a0, 2
80000094: 93 92 b2 00  	slli	t0, t0, 11
80000098: 13 03 40 00  	li	t1, 4
8000009c: 13 03 f3 ff  	addi	t1, t1, -1
800000a0: 33 73 65 00  	and	t1, a0, t1
800000a4: 13 03 13 00  	addi	t1, t1, 1
800000a8: 13 13 93 00  	slli	t1, t1, 9
800000ac: 13 03 c3 ff  	addi	t1, t1, -4
800000b0: b3 82 62 00  	add	t0, t0, t1
800000b4: 33 01 51 00  	add	sp, sp, t0
800000b8: 93 02 00 00  	li	t0, 0
800000bc: 93 92 62 00  	slli	t0, t0, 6
800000c0: 33 01 51 00  	add	sp, sp, t0
800000c4: 93 02 41 e0  	addi	t0, sp, -508
800000c8: 73 90 12 7d  	csrw	stacklimit, t0
800000cc: 63 1c 05 00  	bnez	a0, 0x800000e4 <_jump_main>
800000d0: 97 02 00 c0  	auipc	t0, 786432
800000d4: 93 82 42 f5  	addi	t0, t0, -172
800000d8: 17 23 00 00  	auipc	t1, 2
800000dc: 13 03 83 f2  	addi	t1, t1, -216
800000e0: 23 a0 62 00  	sw	t1, 0(t0)

800000e4 <_jump_main>:
800000e4: ef 00 40 02  	jal	0x80000108 <main>

800000e8 <_eoc>:
800000e8: 97 02 00 c0  	auipc	t0, 786432
800000ec: 93 82 82 f1  	addi	t0, t0, -232
800000f0: 13 13 15 00  	slli	t1, a0, 1
800000f4: 13 03 13 00  	addi	t1, t1, 1
800000f8: 23 a0 62 00  	sw	t1, 0(t0)
800000fc: 97 00 00 20  	auipc	ra, 131072
80000100: 93 80 40 f0  	addi	ra, ra, -252
80000104: 67 80 00 00  	ret

80000108 <main>:
80000108: 13 01 01 ff  	addi	sp, sp, -16
8000010c: 23 26 11 00  	sw	ra, 12(sp)
80000110: 23 24 81 00  	sw	s0, 8(sp)
80000114: 23 22 91 00  	sw	s1, 4(sp)
80000118: 73 24 40 f1  	csrr	s0, mhartid
8000011c: 13 05 04 00  	mv	a0, s0
80000120: 97 10 00 00  	auipc	ra, 1
80000124: e7 80 c0 33  	jalr	828(ra)
80000128: 93 34 14 00  	seqz	s1, s0
8000012c: 13 15 24 00  	slli	a0, s0, 2
80000130: 37 04 02 00  	lui	s0, 32
80000134: 93 05 04 00  	mv	a1, s0
80000138: b3 05 b5 00  	add	a1, a0, a1
8000013c: 23 a0 a5 00  	sw	a0, 0(a1)
80000140: 13 05 00 10  	li	a0, 256
80000144: 97 10 00 00  	auipc	ra, 1
80000148: e7 80 00 37  	jalr	880(ra)
8000014c: 03 25 04 00  	lw	a0, 0(s0)
80000150: 33 35 a0 00  	snez	a0, a0
80000154: 33 f4 a4 00  	and	s0, s1, a0
80000158: 13 05 00 10  	li	a0, 256
8000015c: 97 10 00 00  	auipc	ra, 1
80000160: e7 80 80 35  	jalr	856(ra)
80000164: 13 05 04 00  	mv	a0, s0
80000168: 83 20 c1 00  	lw	ra, 12(sp)
8000016c: 03 24 81 00  	lw	s0, 8(sp)
80000170: 83 24 41 00  	lw	s1, 4(sp)
80000174: 13 01 01 01  	addi	sp, sp, 16
80000178: 67 80 00 00  	ret

8000017c <alloc_init>:
8000017c: 93 86 75 00  	addi	a3, a1, 7
80000180: 93 f6 86 ff  	andi	a3, a3, -8
80000184: b3 85 c5 00  	add	a1, a1, a2
80000188: b3 85 d5 40  	sub	a1, a1, a3
8000018c: 93 f5 85 ff  	andi	a1, a1, -8
80000190: 23 a0 b6 00  	sw	a1, 0(a3)
80000194: 93 e5 46 00  	ori	a1, a3, 4
80000198: 23 a0 05 00  	sw	zero, 0(a1)
8000019c: 23 20 d5 00  	sw	a3, 0(a0)
800001a0: 67 80 00 00  	ret

800001a4 <domain_malloc>:
800001a4: 13 01 01 ff  	addi	sp, sp, -16
800001a8: 23 26 11 00  	sw	ra, 12(sp)
800001ac: 93 85 b5 00  	addi	a1, a1, 11
800001b0: 93 f5 85 ff  	andi	a1, a1, -8
800001b4: 13 d6 85 01  	srli	a2, a1, 24
800001b8: 63 02 06 02  	beqz	a2, 0x800001dc <domain_malloc+0x38>
800001bc: 37 15 00 80  	lui	a0, 524289
800001c0: 13 05 05 50  	addi	a0, a0, 1280
800001c4: 97 00 00 00  	auipc	ra, 0
800001c8: e7 80 00 3d  	jalr	976(ra)
800001cc: 13 05 00 00  	li	a0, 0
800001d0: 83 20 c1 00  	lw	ra, 12(sp)
800001d4: 13 01 01 01  	addi	sp, sp, 16
800001d8: 67 80 00 00  	ret
800001dc: 03 26 05 00  	lw	a2, 0(a0)
800001e0: 63 08 06 02  	beqz	a2, 0x80000210 <domain_malloc+0x6c>
800001e4: 83 26 06 00  	lw	a3, 0(a2)
800001e8: 63 f4 b6 04  	bgeu	a3, a1, 0x80000230 <domain_malloc+0x8c>
800001ec: 13 05 06 00  	mv	a0, a2
800001f0: 03 26 46 00  	lw	a2, 4(a2)
800001f4: 63 0e 06 00  	beqz	a2, 0x80000210 <domain_malloc+0x6c>
800001f8: 83 26 06 00  	lw	a3, 0(a2)
800001fc: e3 e8 b6 fe  	bltu	a3, a1, 0x800001ec <domain_malloc+0x48>
80000200: 63 9e b6 04  	bne	a3, a1, 0x8000025c <domain_malloc+0xb8>
80000204: 83 26 46 00  	lw	a3, 4(a2)
80000208: 23 22 d5 00  	sw	a3, 4(a0)
8000020c: 6f 00 80 06  	j	0x80000274 <domain_malloc+0xd0>
80000210: 37 15 00 80  	lui	a0, 524289
80000214: 13 05 b5 53  	addi	a0, a0, 1339
80000218: 97 00 00 00  	auipc	ra, 0
8000021c: e7 80 c0 37  	jalr	892(ra)
80000220: 13 05 00 00  	li	a0, 0
80000224: 83 20 c1 00  	lw	ra, 12(sp)
80000228: 13 01 01 01  	addi	sp, sp, 16
8000022c: 67 80 00 00  	ret
80000230: 63 98 b6 00  	bne	a3, a1, 0x80000240 <domain_malloc+0x9c>
80000234: 83 26 46 00  	lw	a3, 4(a2)
80000238: 23 20 d5 00  	sw	a3, 0(a0)
8000023c: 6f 00 80 03  	j	0x80000274 <domain_malloc+0xd0>
80000240: 33 07 b6 00  	add	a4, a2, a1
80000244: b3 86 b6 40  	sub	a3, a3, a1
80000248: 23 20 d7 00  	sw	a3, 0(a4)
8000024c: 83 26 46 00  	lw	a3, 4(a2)
80000250: 23 22 d7 00  	sw	a3, 4(a4)
80000254: 23 20 e5 00  	sw	a4, 0(a0)
80000258: 6f 00 c0 01  	j	0x80000274 <domain_malloc+0xd0>
8000025c: 33 07 b6 00  	add	a4, a2, a1
80000260: b3 86 b6 40  	sub	a3, a3, a1
80000264: 23 20 d7 00  	sw	a3, 0(a4)
80000268: 83 26 46 00  	lw	a3, 4(a2)
8000026c: 23 22 d7 00  	sw	a3, 4(a4)
80000270: 23 22 e5 00  	sw	a4, 4(a0)
80000274: 13 95 85 00  	slli	a0, a1, 8
80000278: 93 75 f6 0f  	andi	a1, a2, 255
8000027c: 33 e5 a5 00  	or	a0, a1, a0
80000280: 23 20 a6 00  	sw	a0, 0(a2)
80000284: 13 05 46 00  	addi	a0, a2, 4
80000288: 83 20 c1 00  	lw	ra, 12(sp)
8000028c: 13 01 01 01  	addi	sp, sp, 16
80000290: 67 80 00 00  	ret

80000294 <simple_malloc>:
80000294: 13 01 01 ff  	addi	sp, sp, -16
80000298: 23 26 11 00  	sw	ra, 12(sp)
8000029c: 13 05 b5 00  	addi	a0, a0, 11
800002a0: 93 75 85 ff  	andi	a1, a0, -8
800002a4: 13 d5 85 01  	srli	a0, a1, 24
800002a8: 63 02 05 02  	beqz	a0, 0x800002cc <simple_malloc+0x38>
800002ac: 37 15 00 80  	lui	a0, 524289
800002b0: 13 05 05 50  	addi	a0, a0, 1280
800002b4: 97 00 00 00  	auipc	ra, 0
800002b8: e7 80 00 2e  	jalr	736(ra)
800002bc: 13 05 00 00  	li	a0, 0
800002c0: 83 20 c1 00  	lw	ra, 12(sp)
800002c4: 13 01 01 01  	addi	sp, sp, 16
800002c8: 67 80 00 00  	ret
800002cc: 37 25 00 80  	lui	a0, 524290
800002d0: 03 25 05 00  	lw	a0, 0(a0)
800002d4: 63 08 05 02  	beqz	a0, 0x80000304 <simple_malloc+0x70>
800002d8: 03 26 05 00  	lw	a2, 0(a0)
800002dc: 63 74 b6 04  	bgeu	a2, a1, 0x80000324 <simple_malloc+0x90>
800002e0: 13 06 05 00  	mv	a2, a0
800002e4: 03 25 45 00  	lw	a0, 4(a0)
800002e8: 63 0e 05 00  	beqz	a0, 0x80000304 <simple_malloc+0x70>
800002ec: 83 26 05 00  	lw	a3, 0(a0)
800002f0: e3 e8 b6 fe  	bltu	a3, a1, 0x800002e0 <simple_malloc+0x4c>
800002f4: 63 92 b6 06  	bne	a3, a1, 0x80000358 <simple_malloc+0xc4>
800002f8: 83 26 45 00  	lw	a3, 4(a0)
800002fc: 23 22 d6 00  	sw	a3, 4(a2)
80000300: 6f 00 00 07  	j	0x80000370 <simple_malloc+0xdc>
80000304: 37 15 00 80  	lui	a0, 524289
80000308: 13 05 b5 53  	addi	a0, a0, 1339
8000030c: 97 00 00 00  	auipc	ra, 0
80000310: e7 80 80 28  	jalr	648(ra)
80000314: 13 05 00 00  	li	a0, 0
80000318: 83 20 c1 00  	lw	ra, 12(sp)
8000031c: 13 01 01 01  	addi	sp, sp, 16
80000320: 67 80 00 00  	ret
80000324: 63 1a b6 00  	bne	a2, a1, 0x80000338 <simple_malloc+0xa4>
80000328: 03 26 45 00  	lw	a2, 4(a0)
8000032c: b7 26 00 80  	lui	a3, 524290
80000330: 23 a0 c6 00  	sw	a2, 0(a3)
80000334: 6f 00 c0 03  	j	0x80000370 <simple_malloc+0xdc>
80000338: b3 06 b5 00  	add	a3, a0, a1
8000033c: 33 06 b6 40  	sub	a2, a2, a1
80000340: 23 a0 c6 00  	sw	a2, 0(a3)
80000344: 03 26 45 00  	lw	a2, 4(a0)
80000348: 37 27 00 80  	lui	a4, 524290
8000034c: 23 a2 c6 00  	sw	a2, 4(a3)
80000350: 23 20 d7 00  	sw	a3, 0(a4)
80000354: 6f 00 c0 01  	j	0x80000370 <simple_malloc+0xdc>
80000358: 33 07 b5 00  	add	a4, a0, a1
8000035c: b3 86 b6 40  	sub	a3, a3, a1
80000360: 23 20 d7 00  	sw	a3, 0(a4)
80000364: 83 26 45 00  	lw	a3, 4(a0)
80000368: 23 22 d7 00  	sw	a3, 4(a4)
8000036c: 23 22 e6 00  	sw	a4, 4(a2)
80000370: 93 95 85 00  	slli	a1, a1, 8
80000374: 13 76 f5 0f  	andi	a2, a0, 255
80000378: b3 65 b6 00  	or	a1, a2, a1
8000037c: 23 20 b5 00  	sw	a1, 0(a0)
80000380: 13 05 45 00  	addi	a0, a0, 4
80000384: 83 20 c1 00  	lw	ra, 12(sp)
80000388: 13 01 01 01  	addi	sp, sp, 16
8000038c: 67 80 00 00  	ret

80000390 <domain_free>:
80000390: 13 86 05 00  	mv	a2, a1
80000394: 93 85 c5 ff  	addi	a1, a1, -4
80000398: 03 27 c6 ff  	lw	a4, -4(a2)
8000039c: 93 f6 f5 0f  	andi	a3, a1, 255
800003a0: 93 77 f7 0f  	andi	a5, a4, 255
800003a4: 63 9a f6 04  	bne	a3, a5, 0x800003f8 <domain_free+0x68>
800003a8: 93 06 00 00  	li	a3, 0
800003ac: 13 57 87 00  	srli	a4, a4, 8
800003b0: 13 08 05 00  	mv	a6, a0
800003b4: 93 87 06 00  	mv	a5, a3
800003b8: 83 26 08 00  	lw	a3, 0(a6)
800003bc: 33 38 d0 00  	snez	a6, a3
800003c0: b3 b8 b6 00  	sltu	a7, a3, a1
800003c4: b3 78 18 01  	and	a7, a6, a7
800003c8: 13 88 46 00  	addi	a6, a3, 4
800003cc: e3 94 08 fe  	bnez	a7, 0x800003b4 <domain_free+0x24>
800003d0: 33 88 e5 00  	add	a6, a1, a4
800003d4: 63 0a d8 02  	beq	a6, a3, 0x80000408 <domain_free+0x78>
800003d8: 23 a0 e5 00  	sw	a4, 0(a1)
800003dc: 23 20 d6 00  	sw	a3, 0(a2)
800003e0: 63 80 07 04  	beqz	a5, 0x80000420 <domain_free+0x90>
800003e4: 03 a5 07 00  	lw	a0, 0(a5)
800003e8: 33 86 a7 00  	add	a2, a5, a0
800003ec: 63 0e b6 02  	beq	a2, a1, 0x80000428 <domain_free+0x98>
800003f0: 23 a2 b7 00  	sw	a1, 4(a5)
800003f4: 67 80 00 00  	ret
800003f8: 37 15 00 80  	lui	a0, 524289
800003fc: 13 05 f5 56  	addi	a0, a0, 1391
80000400: 17 03 00 00  	auipc	t1, 0
80000404: 67 00 43 19  	jr	404(t1)
80000408: 03 a8 06 00  	lw	a6, 0(a3)
8000040c: 33 07 e8 00  	add	a4, a6, a4
80000410: 23 a0 e5 00  	sw	a4, 0(a1)
80000414: 83 a6 46 00  	lw	a3, 4(a3)
80000418: 23 20 d6 00  	sw	a3, 0(a2)
8000041c: e3 94 07 fc  	bnez	a5, 0x800003e4 <domain_free+0x54>
80000420: 23 20 b5 00  	sw	a1, 0(a0)
80000424: 67 80 00 00  	ret
80000428: 33 05 e5 00  	add	a0, a0, a4
8000042c: 23 a0 a7 00  	sw	a0, 0(a5)
80000430: 23 a2 d7 00  	sw	a3, 4(a5)
80000434: 67 80 00 00  	ret

80000438 <simple_free>:
80000438: 93 05 c5 ff  	addi	a1, a0, -4
8000043c: 83 26 c5 ff  	lw	a3, -4(a0)
80000440: 13 f6 f5 0f  	andi	a2, a1, 255
80000444: 13 f7 f6 0f  	andi	a4, a3, 255
80000448: 63 1c e6 04  	bne	a2, a4, 0x800004a0 <simple_free+0x68>
8000044c: 13 06 00 00  	li	a2, 0
80000450: 93 d6 86 00  	srli	a3, a3, 8
80000454: 37 27 00 80  	lui	a4, 524290
80000458: 93 07 07 00  	mv	a5, a4
8000045c: 13 07 06 00  	mv	a4, a2
80000460: 03 a6 07 00  	lw	a2, 0(a5)
80000464: b3 37 c0 00  	snez	a5, a2
80000468: 33 38 b6 00  	sltu	a6, a2, a1
8000046c: 33 f8 07 01  	and	a6, a5, a6
80000470: 93 07 46 00  	addi	a5, a2, 4
80000474: e3 14 08 fe  	bnez	a6, 0x8000045c <simple_free+0x24>
80000478: b3 87 d5 00  	add	a5, a1, a3
8000047c: 63 8a c7 02  	beq	a5, a2, 0x800004b0 <simple_free+0x78>
80000480: 23 a0 d5 00  	sw	a3, 0(a1)
80000484: 23 20 c5 00  	sw	a2, 0(a0)
80000488: 63 00 07 04  	beqz	a4, 0x800004c8 <simple_free+0x90>
8000048c: 03 25 07 00  	lw	a0, 0(a4)
80000490: b3 07 a7 00  	add	a5, a4, a0
80000494: 63 80 b7 04  	beq	a5, a1, 0x800004d4 <simple_free+0x9c>
80000498: 23 22 b7 00  	sw	a1, 4(a4)
8000049c: 67 80 00 00  	ret
800004a0: 37 15 00 80  	lui	a0, 524289
800004a4: 13 05 f5 56  	addi	a0, a0, 1391
800004a8: 17 03 00 00  	auipc	t1, 0
800004ac: 67 00 c3 0e  	jr	236(t1)
800004b0: 83 27 06 00  	lw	a5, 0(a2)
800004b4: b3 86 d7 00  	add	a3, a5, a3
800004b8: 23 a0 d5 00  	sw	a3, 0(a1)
800004bc: 03 26 46 00  	lw	a2, 4(a2)
800004c0: 23 20 c5 00  	sw	a2, 0(a0)
800004c4: e3 14 07 fc  	bnez	a4, 0x8000048c <simple_free+0x54>
800004c8: 37 25 00 80  	lui	a0, 524290
800004cc: 23 20 b5 00  	sw	a1, 0(a0)
800004d0: 67 80 00 00  	ret
800004d4: 33 05 d5 00  	add	a0, a0, a3
800004d8: 23 20 a7 00  	sw	a0, 0(a4)
800004dc: 23 22 c7 00  	sw	a2, 4(a4)
800004e0: 67 80 00 00  	ret

800004e4 <alloc_dump>:
800004e4: 13 01 01 ff  	addi	sp, sp, -16
800004e8: 23 26 11 00  	sw	ra, 12(sp)
800004ec: 23 24 81 00  	sw	s0, 8(sp)
800004f0: 23 22 91 00  	sw	s1, 4(sp)
800004f4: 23 20 21 01  	sw	s2, 0(sp)
800004f8: 03 29 05 00  	lw	s2, 0(a0)
800004fc: 37 15 00 80  	lui	a0, 524289
80000500: 13 05 65 58  	addi	a0, a0, 1414
80000504: 97 00 00 00  	auipc	ra, 0
80000508: e7 80 00 09  	jalr	144(ra)
8000050c: 37 15 00 80  	lui	a0, 524289
80000510: 13 04 e5 59  	addi	s0, a0, 1438
80000514: 63 04 09 04  	beqz	s2, 0x8000055c <alloc_dump+0x78>
80000518: 93 04 09 00  	mv	s1, s2
8000051c: 03 26 09 00  	lw	a2, 0(s2)
80000520: 13 05 04 00  	mv	a0, s0
80000524: 93 05 09 00  	mv	a1, s2
80000528: 97 00 00 00  	auipc	ra, 0
8000052c: e7 80 c0 06  	jalr	108(ra)
80000530: 03 29 49 00  	lw	s2, 4(s2)
80000534: e3 10 99 fe  	bne	s2, s1, 0x80000514 <alloc_dump+0x30>
80000538: 37 15 00 80  	lui	a0, 524289
8000053c: 13 05 05 5c  	addi	a0, a0, 1472
80000540: 83 20 c1 00  	lw	ra, 12(sp)
80000544: 03 24 81 00  	lw	s0, 8(sp)
80000548: 83 24 41 00  	lw	s1, 4(sp)
8000054c: 03 29 01 00  	lw	s2, 0(sp)
80000550: 13 01 01 01  	addi	sp, sp, 16
80000554: 17 03 00 00  	auipc	t1, 0
80000558: 67 00 03 04  	jr	64(t1)
8000055c: 83 20 c1 00  	lw	ra, 12(sp)
80000560: 03 24 81 00  	lw	s0, 8(sp)
80000564: 83 24 41 00  	lw	s1, 4(sp)
80000568: 03 29 01 00  	lw	s2, 0(sp)
8000056c: 13 01 01 01  	addi	sp, sp, 16
80000570: 67 80 00 00  	ret

80000574 <get_alloc_l1>:
80000574: 37 25 00 80  	lui	a0, 524290
80000578: 13 05 05 00  	mv	a0, a0
8000057c: 67 80 00 00  	ret

80000580 <get_alloc_tile>:
80000580: b7 35 02 00  	lui	a1, 35
80000584: 93 85 05 80  	addi	a1, a1, -2048
80000588: 13 15 25 00  	slli	a0, a0, 2
8000058c: 33 05 b5 00  	add	a0, a0, a1
80000590: 67 80 00 00  	ret

80000594 <printf_>:
80000594: 13 01 01 fd  	addi	sp, sp, -48
80000598: 23 26 11 00  	sw	ra, 12(sp)
8000059c: 93 02 05 00  	mv	t0, a0
800005a0: 23 26 11 03  	sw	a7, 44(sp)
800005a4: 23 24 01 03  	sw	a6, 40(sp)
800005a8: 23 22 f1 02  	sw	a5, 36(sp)
800005ac: 23 20 e1 02  	sw	a4, 32(sp)
800005b0: 23 2e d1 00  	sw	a3, 28(sp)
800005b4: 23 2c c1 00  	sw	a2, 24(sp)
800005b8: 23 2a b1 00  	sw	a1, 20(sp)
800005bc: 13 05 41 01  	addi	a0, sp, 20
800005c0: 23 24 a1 00  	sw	a0, 8(sp)
800005c4: 37 15 00 80  	lui	a0, 524289
800005c8: 13 05 c5 d4  	addi	a0, a0, -692
800005cc: 93 05 71 00  	addi	a1, sp, 7
800005d0: 13 06 f0 ff  	li	a2, -1
800005d4: 13 07 41 01  	addi	a4, sp, 20
800005d8: 93 86 02 00  	mv	a3, t0
800005dc: 97 00 00 00  	auipc	ra, 0
800005e0: e7 80 40 01  	jalr	20(ra)
800005e4: 83 20 c1 00  	lw	ra, 12(sp)
800005e8: 13 01 01 03  	addi	sp, sp, 48
800005ec: 67 80 00 00  	ret

800005f0 <_vsnprintf>:
800005f0: 13 01 01 fb  	addi	sp, sp, -80
800005f4: 23 26 11 04  	sw	ra, 76(sp)
800005f8: 23 24 81 04  	sw	s0, 72(sp)
800005fc: 23 22 91 04  	sw	s1, 68(sp)
80000600: 23 20 21 05  	sw	s2, 64(sp)
80000604: 23 2e 31 03  	sw	s3, 60(sp)
80000608: 23 2c 41 03  	sw	s4, 56(sp)
8000060c: 23 2a 51 03  	sw	s5, 52(sp)
80000610: 23 28 61 03  	sw	s6, 48(sp)
80000614: 23 26 71 03  	sw	s7, 44(sp)
80000618: 23 24 81 03  	sw	s8, 40(sp)
8000061c: 23 22 91 03  	sw	s9, 36(sp)
80000620: 23 20 a1 03  	sw	s10, 32(sp)
80000624: 23 2e b1 01  	sw	s11, 28(sp)
80000628: 23 2c e1 00  	sw	a4, 24(sp)
8000062c: 93 8a 06 00  	mv	s5, a3
80000630: 13 04 06 00  	mv	s0, a2
80000634: 93 84 05 00  	mv	s1, a1
80000638: 63 86 05 00  	beqz	a1, 0x80000644 <_vsnprintf+0x54>
8000063c: 13 09 05 00  	mv	s2, a0
80000640: 6f 00 c0 00  	j	0x8000064c <_vsnprintf+0x5c>
80000644: 37 15 00 80  	lui	a0, 524289
80000648: 13 09 85 ea  	addi	s2, a0, -344
8000064c: 13 0a 00 00  	li	s4, 0
80000650: 93 0b 50 02  	li	s7, 37
80000654: 13 0c 00 01  	li	s8, 16
80000658: 13 0b 90 00  	li	s6, 9
8000065c: 13 0d a0 00  	li	s10, 10
80000660: 37 15 00 80  	lui	a0, 524289
80000664: 13 05 05 62  	addi	a0, a0, 1568
80000668: 23 2a a1 00  	sw	a0, 20(sp)
8000066c: 37 15 00 80  	lui	a0, 524289
80000670: 93 0c c5 5d  	addi	s9, a0, 1500
80000674: 93 8d 2a 00  	addi	s11, s5, 2
80000678: 03 c5 0a 00  	lbu	a0, 0(s5)
8000067c: 63 0a 05 66  	beqz	a0, 0x80000cf0 <_vsnprintf+0x700>
80000680: 63 08 75 03  	beq	a0, s7, 0x800006b0 <_vsnprintf+0xc0>
80000684: 93 09 1a 00  	addi	s3, s4, 1
80000688: 93 85 04 00  	mv	a1, s1
8000068c: 13 06 0a 00  	mv	a2, s4
80000690: 93 06 04 00  	mv	a3, s0
80000694: e7 00 09 00  	jalr	s2
80000698: 93 8a 1a 00  	addi	s5, s5, 1
8000069c: 93 8d 1d 00  	addi	s11, s11, 1
800006a0: 13 8a 09 00  	mv	s4, s3
800006a4: 03 c5 0a 00  	lbu	a0, 0(s5)
800006a8: e3 1c 05 fc  	bnez	a0, 0x80000680 <_vsnprintf+0x90>
800006ac: 6f 00 40 64  	j	0x80000cf0 <_vsnprintf+0x700>
800006b0: 13 0e 00 00  	li	t3, 0
800006b4: 6f 00 00 01  	j	0x800006c4 <_vsnprintf+0xd4>
800006b8: 93 05 00 01  	li	a1, 16
800006bc: 33 6e be 00  	or	t3, t3, a1
800006c0: 93 8d 1d 00  	addi	s11, s11, 1
800006c4: 03 c5 fd ff  	lbu	a0, -1(s11)
800006c8: 13 06 05 fe  	addi	a2, a0, -32
800006cc: 63 68 cc 02  	bltu	s8, a2, 0x800006fc <_vsnprintf+0x10c>
800006d0: 93 05 10 00  	li	a1, 1
800006d4: 13 16 26 00  	slli	a2, a2, 2
800006d8: 33 06 96 01  	add	a2, a2, s9
800006dc: 03 26 06 00  	lw	a2, 0(a2)
800006e0: 67 00 06 00  	jr	a2
800006e4: 93 05 80 00  	li	a1, 8
800006e8: 6f f0 5f fd  	j	0x800006bc <_vsnprintf+0xcc>
800006ec: 93 05 40 00  	li	a1, 4
800006f0: 6f f0 df fc  	j	0x800006bc <_vsnprintf+0xcc>
800006f4: 93 05 20 00  	li	a1, 2
800006f8: 6f f0 5f fc  	j	0x800006bc <_vsnprintf+0xcc>
800006fc: 93 05 05 fd  	addi	a1, a0, -48
80000700: 13 f6 f5 0f  	andi	a2, a1, 255
80000704: 93 85 fd ff  	addi	a1, s11, -1
80000708: 63 60 cb 08  	bltu	s6, a2, 0x80000788 <_vsnprintf+0x198>
8000070c: 93 0a 00 00  	li	s5, 0
80000710: 33 86 aa 03  	mul	a2, s5, s10
80000714: 93 76 f5 0f  	andi	a3, a0, 255
80000718: 03 c5 15 00  	lbu	a0, 1(a1)
8000071c: 93 85 15 00  	addi	a1, a1, 1
80000720: 33 06 d6 00  	add	a2, a2, a3
80000724: 93 0a 06 fd  	addi	s5, a2, -48
80000728: 13 06 05 fd  	addi	a2, a0, -48
8000072c: 13 76 f6 0f  	andi	a2, a2, 255
80000730: e3 60 a6 ff  	bltu	a2, s10, 0x80000710 <_vsnprintf+0x120>
80000734: 93 8d 05 00  	mv	s11, a1
80000738: 93 05 e0 02  	li	a1, 46
8000073c: 63 14 b5 0c  	bne	a0, a1, 0x80000804 <_vsnprintf+0x214>
80000740: 13 6e 0e 40  	ori	t3, t3, 1024
80000744: 93 85 1d 00  	addi	a1, s11, 1
80000748: 03 c5 1d 00  	lbu	a0, 1(s11)
8000074c: 13 06 05 fd  	addi	a2, a0, -48
80000750: 13 07 90 00  	li	a4, 9
80000754: 13 76 f6 0f  	andi	a2, a2, 255
80000758: 63 68 cb 06  	bltu	s6, a2, 0x800007c8 <_vsnprintf+0x1d8>
8000075c: 13 0b 00 00  	li	s6, 0
80000760: 33 06 ab 03  	mul	a2, s6, s10
80000764: 93 76 f5 0f  	andi	a3, a0, 255
80000768: 03 c5 15 00  	lbu	a0, 1(a1)
8000076c: 93 85 15 00  	addi	a1, a1, 1
80000770: 33 06 d6 00  	add	a2, a2, a3
80000774: 13 0b 06 fd  	addi	s6, a2, -48
80000778: 13 06 05 fd  	addi	a2, a0, -48
8000077c: 13 76 f6 0f  	andi	a2, a2, 255
80000780: e3 60 a6 ff  	bltu	a2, s10, 0x80000760 <_vsnprintf+0x170>
80000784: 6f 00 00 09  	j	0x80000814 <_vsnprintf+0x224>
80000788: 13 06 a0 02  	li	a2, 42
8000078c: 63 14 c5 06  	bne	a0, a2, 0x800007f4 <_vsnprintf+0x204>
80000790: 03 25 81 01  	lw	a0, 24(sp)
80000794: 03 25 05 00  	lw	a0, 0(a0)
80000798: 63 54 05 00  	bgez	a0, 0x800007a0 <_vsnprintf+0x1b0>
8000079c: 13 6e 2e 00  	ori	t3, t3, 2
800007a0: 83 25 81 01  	lw	a1, 24(sp)
800007a4: 93 85 45 00  	addi	a1, a1, 4
800007a8: 23 2c b1 00  	sw	a1, 24(sp)
800007ac: 93 55 f5 41  	srai	a1, a0, 31
800007b0: 33 05 b5 00  	add	a0, a0, a1
800007b4: b3 4a b5 00  	xor	s5, a0, a1
800007b8: 03 c5 0d 00  	lbu	a0, 0(s11)
800007bc: 93 05 e0 02  	li	a1, 46
800007c0: e3 00 b5 f8  	beq	a0, a1, 0x80000740 <_vsnprintf+0x150>
800007c4: 6f 00 00 04  	j	0x80000804 <_vsnprintf+0x214>
800007c8: 13 06 a0 02  	li	a2, 42
800007cc: 63 12 c5 04  	bne	a0, a2, 0x80000810 <_vsnprintf+0x220>
800007d0: 03 25 81 01  	lw	a0, 24(sp)
800007d4: 03 2b 05 00  	lw	s6, 0(a0)
800007d8: 63 44 60 01  	bgtz	s6, 0x800007e0 <_vsnprintf+0x1f0>
800007dc: 13 0b 00 00  	li	s6, 0
800007e0: 13 05 45 00  	addi	a0, a0, 4
800007e4: 23 2c a1 00  	sw	a0, 24(sp)
800007e8: 03 c5 2d 00  	lbu	a0, 2(s11)
800007ec: 93 8d 2d 00  	addi	s11, s11, 2
800007f0: 6f 00 80 02  	j	0x80000818 <_vsnprintf+0x228>
800007f4: 93 0a 00 00  	li	s5, 0
800007f8: 93 8d 05 00  	mv	s11, a1
800007fc: 93 05 e0 02  	li	a1, 46
80000800: e3 00 b5 f4  	beq	a0, a1, 0x80000740 <_vsnprintf+0x150>
80000804: 13 07 90 00  	li	a4, 9
80000808: 13 0b 00 00  	li	s6, 0
8000080c: 6f 00 c0 00  	j	0x80000818 <_vsnprintf+0x228>
80000810: 13 0b 00 00  	li	s6, 0
80000814: 93 8d 05 00  	mv	s11, a1
80000818: 93 05 85 f9  	addi	a1, a0, -104
8000081c: 13 d6 15 00  	srli	a2, a1, 1
80000820: 93 95 f5 01  	slli	a1, a1, 31
80000824: b3 e5 c5 00  	or	a1, a1, a2
80000828: 13 06 10 00  	li	a2, 1
8000082c: 63 4c b6 00  	blt	a2, a1, 0x80000844 <_vsnprintf+0x254>
80000830: 63 8c 05 02  	beqz	a1, 0x80000868 <_vsnprintf+0x278>
80000834: 13 06 00 20  	li	a2, 512
80000838: 93 06 10 00  	li	a3, 1
8000083c: 63 86 d5 04  	beq	a1, a3, 0x80000888 <_vsnprintf+0x298>
80000840: 6f 00 40 05  	j	0x80000894 <_vsnprintf+0x2a4>
80000844: 63 8e e5 02  	beq	a1, a4, 0x80000880 <_vsnprintf+0x290>
80000848: 13 06 20 00  	li	a2, 2
8000084c: 63 94 c5 04  	bne	a1, a2, 0x80000894 <_vsnprintf+0x2a4>
80000850: 03 c5 1d 00  	lbu	a0, 1(s11)
80000854: 93 05 c0 06  	li	a1, 108
80000858: 63 18 b5 08  	bne	a0, a1, 0x800008e8 <_vsnprintf+0x2f8>
8000085c: 93 05 20 00  	li	a1, 2
80000860: 13 06 00 30  	li	a2, 768
80000864: 6f 00 40 02  	j	0x80000888 <_vsnprintf+0x298>
80000868: 03 c5 1d 00  	lbu	a0, 1(s11)
8000086c: 93 05 80 06  	li	a1, 104
80000870: 63 12 b5 08  	bne	a0, a1, 0x800008f4 <_vsnprintf+0x304>
80000874: 93 05 20 00  	li	a1, 2
80000878: 13 06 00 0c  	li	a2, 192
8000087c: 6f 00 c0 00  	j	0x80000888 <_vsnprintf+0x298>
80000880: 93 05 10 00  	li	a1, 1
80000884: 13 06 00 10  	li	a2, 256
80000888: 33 6e ce 00  	or	t3, t3, a2
8000088c: b3 8d bd 00  	add	s11, s11, a1
80000890: 03 c5 0d 00  	lbu	a0, 0(s11)
80000894: 13 06 b5 fd  	addi	a2, a0, -37
80000898: 93 05 30 05  	li	a1, 83
8000089c: 63 e8 c5 06  	bltu	a1, a2, 0x8000090c <_vsnprintf+0x31c>
800008a0: 93 05 80 00  	li	a1, 8
800008a4: 13 08 00 01  	li	a6, 16
800008a8: 13 16 26 00  	slli	a2, a2, 2
800008ac: 83 26 41 01  	lw	a3, 20(sp)
800008b0: 33 06 d6 00  	add	a2, a2, a3
800008b4: 03 26 06 00  	lw	a2, 0(a2)
800008b8: 67 00 06 00  	jr	a2
800008bc: 13 7e fe fe  	andi	t3, t3, -17
800008c0: 13 08 a0 00  	li	a6, 10
800008c4: 93 05 80 05  	li	a1, 88
800008c8: 63 14 b5 00  	bne	a0, a1, 0x800008d0 <_vsnprintf+0x2e0>
800008cc: 13 6e 0e 02  	ori	t3, t3, 32
800008d0: 93 05 40 06  	li	a1, 100
800008d4: 63 00 b5 06  	beq	a0, a1, 0x80000934 <_vsnprintf+0x344>
800008d8: 93 05 08 00  	mv	a1, a6
800008dc: 13 06 90 06  	li	a2, 105
800008e0: 63 0a c5 04  	beq	a0, a2, 0x80000934 <_vsnprintf+0x344>
800008e4: 6f 00 80 04  	j	0x8000092c <_vsnprintf+0x33c>
800008e8: 13 6e 0e 10  	ori	t3, t3, 256
800008ec: 93 8d 1d 00  	addi	s11, s11, 1
800008f0: 6f f0 5f fa  	j	0x80000894 <_vsnprintf+0x2a4>
800008f4: 13 6e 0e 08  	ori	t3, t3, 128
800008f8: 93 8d 1d 00  	addi	s11, s11, 1
800008fc: 6f f0 9f f9  	j	0x80000894 <_vsnprintf+0x2a4>
80000900: 93 09 1a 00  	addi	s3, s4, 1
80000904: 13 05 50 02  	li	a0, 37
80000908: 6f 00 80 00  	j	0x80000910 <_vsnprintf+0x320>
8000090c: 93 09 1a 00  	addi	s3, s4, 1
80000910: 93 85 04 00  	mv	a1, s1
80000914: 13 06 0a 00  	mv	a2, s4
80000918: 93 06 04 00  	mv	a3, s0
8000091c: e7 00 09 00  	jalr	s2
80000920: 13 8a 09 00  	mv	s4, s3
80000924: 6f 00 00 3c  	j	0x80000ce4 <_vsnprintf+0x6f4>
80000928: 93 05 20 00  	li	a1, 2
8000092c: 13 7e 3e ff  	andi	t3, t3, -13
80000930: 13 88 05 00  	mv	a6, a1
80000934: 93 75 0e 40  	andi	a1, t3, 1024
80000938: 63 84 05 00  	beqz	a1, 0x80000940 <_vsnprintf+0x350>
8000093c: 13 7e ee ff  	andi	t3, t3, -2
80000940: 93 05 90 06  	li	a1, 105
80000944: 63 06 b5 00  	beq	a0, a1, 0x80000950 <_vsnprintf+0x360>
80000948: 93 05 40 06  	li	a1, 100
8000094c: 63 1e b5 02  	bne	a0, a1, 0x80000988 <_vsnprintf+0x398>
80000950: 13 75 0e 20  	andi	a0, t3, 512
80000954: 63 18 05 38  	bnez	a0, 0x80000ce4 <_vsnprintf+0x6f4>
80000958: 13 75 0e 10  	andi	a0, t3, 256
8000095c: 63 12 05 06  	bnez	a0, 0x800009c0 <_vsnprintf+0x3d0>
80000960: 13 75 0e 04  	andi	a0, t3, 64
80000964: 63 1e 05 20  	bnez	a0, 0x80000b80 <_vsnprintf+0x590>
80000968: 93 75 0e 08  	andi	a1, t3, 128
8000096c: 03 25 81 01  	lw	a0, 24(sp)
80000970: 03 25 05 00  	lw	a0, 0(a0)
80000974: 63 86 05 00  	beqz	a1, 0x80000980 <_vsnprintf+0x390>
80000978: 13 15 05 01  	slli	a0, a0, 16
8000097c: 13 55 05 41  	srai	a0, a0, 16
80000980: 83 25 81 01  	lw	a1, 24(sp)
80000984: 6f 00 40 20  	j	0x80000b88 <_vsnprintf+0x598>
80000988: 13 75 0e 20  	andi	a0, t3, 512
8000098c: 63 1c 05 34  	bnez	a0, 0x80000ce4 <_vsnprintf+0x6f4>
80000990: 13 75 0e 10  	andi	a0, t3, 256
80000994: 63 18 05 20  	bnez	a0, 0x80000ba4 <_vsnprintf+0x5b4>
80000998: 13 75 0e 04  	andi	a0, t3, 64
8000099c: 63 1c 05 24  	bnez	a0, 0x80000bf4 <_vsnprintf+0x604>
800009a0: 13 75 0e 08  	andi	a0, t3, 128
800009a4: 83 25 81 01  	lw	a1, 24(sp)
800009a8: 03 a7 05 00  	lw	a4, 0(a1)
800009ac: 63 06 05 00  	beqz	a0, 0x800009b8 <_vsnprintf+0x3c8>
800009b0: 13 15 07 01  	slli	a0, a4, 16
800009b4: 13 57 05 01  	srli	a4, a0, 16
800009b8: 03 25 81 01  	lw	a0, 24(sp)
800009bc: 6f 00 00 24  	j	0x80000bfc <_vsnprintf+0x60c>
800009c0: 03 25 81 01  	lw	a0, 24(sp)
800009c4: 93 09 45 00  	addi	s3, a0, 4
800009c8: 03 25 05 00  	lw	a0, 0(a0)
800009cc: 93 55 f5 41  	srai	a1, a0, 31
800009d0: 33 06 b5 00  	add	a2, a0, a1
800009d4: 33 47 b6 00  	xor	a4, a2, a1
800009d8: 93 57 f5 01  	srli	a5, a0, 31
800009dc: 6f 00 80 1d  	j	0x80000bb4 <_vsnprintf+0x5c4>
800009e0: 93 75 2e 00  	andi	a1, t3, 2
800009e4: 93 09 10 00  	li	s3, 1
800009e8: 63 9c 05 12  	bnez	a1, 0x80000b20 <_vsnprintf+0x530>
800009ec: 93 09 20 00  	li	s3, 2
800009f0: 63 e8 3a 13  	bltu	s5, s3, 0x80000b20 <_vsnprintf+0x530>
800009f4: 23 28 b1 00  	sw	a1, 16(sp)
800009f8: 93 0b 00 00  	li	s7, 0
800009fc: 93 89 1a 00  	addi	s3, s5, 1
80000a00: 13 8b fa ff  	addi	s6, s5, -1
80000a04: 33 06 7a 01  	add	a2, s4, s7
80000a08: 13 05 00 02  	li	a0, 32
80000a0c: 93 85 04 00  	mv	a1, s1
80000a10: 93 06 04 00  	mv	a3, s0
80000a14: e7 00 09 00  	jalr	s2
80000a18: 93 8b 1b 00  	addi	s7, s7, 1
80000a1c: e3 14 7b ff  	bne	s6, s7, 0x80000a04 <_vsnprintf+0x414>
80000a20: 33 0a 7a 01  	add	s4, s4, s7
80000a24: 03 25 81 01  	lw	a0, 24(sp)
80000a28: 83 25 01 01  	lw	a1, 16(sp)
80000a2c: 6f 00 80 0f  	j	0x80000b24 <_vsnprintf+0x534>
80000a30: 13 6e 1e 02  	ori	t3, t3, 33
80000a34: 03 25 81 01  	lw	a0, 24(sp)
80000a38: 93 09 45 00  	addi	s3, a0, 4
80000a3c: 03 27 05 00  	lw	a4, 0(a0)
80000a40: 93 07 00 00  	li	a5, 0
80000a44: 13 08 00 01  	li	a6, 16
80000a48: 93 03 80 00  	li	t2, 8
80000a4c: 13 05 09 00  	mv	a0, s2
80000a50: 93 85 04 00  	mv	a1, s1
80000a54: 13 06 0a 00  	mv	a2, s4
80000a58: 93 06 04 00  	mv	a3, s0
80000a5c: 93 08 0b 00  	mv	a7, s6
80000a60: 6f 00 c0 16  	j	0x80000bcc <_vsnprintf+0x5dc>
80000a64: 03 25 81 01  	lw	a0, 24(sp)
80000a68: 03 28 05 00  	lw	a6, 0(a0)
80000a6c: 03 45 08 00  	lbu	a0, 0(a6)
80000a70: 13 06 08 00  	mv	a2, a6
80000a74: 63 0c 05 02  	beqz	a0, 0x80000aac <_vsnprintf+0x4bc>
80000a78: 93 05 f0 ff  	li	a1, -1
80000a7c: 63 04 0b 00  	beqz	s6, 0x80000a84 <_vsnprintf+0x494>
80000a80: 93 05 0b 00  	mv	a1, s6
80000a84: 93 85 f5 ff  	addi	a1, a1, -1
80000a88: 93 06 08 00  	mv	a3, a6
80000a8c: 13 86 16 00  	addi	a2, a3, 1
80000a90: 03 c7 16 00  	lbu	a4, 1(a3)
80000a94: 93 b7 15 00  	seqz	a5, a1
80000a98: 93 85 f5 ff  	addi	a1, a1, -1
80000a9c: 93 06 06 00  	mv	a3, a2
80000aa0: 13 37 17 00  	seqz	a4, a4
80000aa4: 33 67 f7 00  	or	a4, a4, a5
80000aa8: e3 02 07 fe  	beqz	a4, 0x80000a8c <_vsnprintf+0x49c>
80000aac: b3 05 06 41  	sub	a1, a2, a6
80000ab0: 13 76 0e 40  	andi	a2, t3, 1024
80000ab4: 23 28 c1 00  	sw	a2, 16(sp)
80000ab8: 13 36 16 00  	seqz	a2, a2
80000abc: b3 b6 65 01  	sltu	a3, a1, s6
80000ac0: 33 66 d6 00  	or	a2, a2, a3
80000ac4: 63 14 06 00  	bnez	a2, 0x80000acc <_vsnprintf+0x4dc>
80000ac8: 93 05 0b 00  	mv	a1, s6
80000acc: 13 76 2e 00  	andi	a2, t3, 2
80000ad0: 23 26 c1 00  	sw	a2, 12(sp)
80000ad4: 63 16 06 10  	bnez	a2, 0x80000be0 <_vsnprintf+0x5f0>
80000ad8: 63 fc 55 15  	bgeu	a1, s5, 0x80000c30 <_vsnprintf+0x640>
80000adc: 23 22 01 01  	sw	a6, 4(sp)
80000ae0: 93 09 00 00  	li	s3, 0
80000ae4: 13 85 1a 00  	addi	a0, s5, 1
80000ae8: 23 24 a1 00  	sw	a0, 8(sp)
80000aec: b3 8b ba 40  	sub	s7, s5, a1
80000af0: 33 06 3a 01  	add	a2, s4, s3
80000af4: 13 05 00 02  	li	a0, 32
80000af8: 93 85 04 00  	mv	a1, s1
80000afc: 93 06 04 00  	mv	a3, s0
80000b00: e7 00 09 00  	jalr	s2
80000b04: 93 89 19 00  	addi	s3, s3, 1
80000b08: e3 94 3b ff  	bne	s7, s3, 0x80000af0 <_vsnprintf+0x500>
80000b0c: 03 28 41 00  	lw	a6, 4(sp)
80000b10: 03 45 08 00  	lbu	a0, 0(a6)
80000b14: 33 0a 3a 01  	add	s4, s4, s3
80000b18: 63 12 05 12  	bnez	a0, 0x80000c3c <_vsnprintf+0x64c>
80000b1c: 6f 00 00 16  	j	0x80000c7c <_vsnprintf+0x68c>
80000b20: 03 25 81 01  	lw	a0, 24(sp)
80000b24: 13 06 0a 00  	mv	a2, s4
80000b28: b3 3b b0 00  	snez	s7, a1
80000b2c: 13 0b 45 00  	addi	s6, a0, 4
80000b30: 03 45 05 00  	lbu	a0, 0(a0)
80000b34: 13 0a 1a 00  	addi	s4, s4, 1
80000b38: 93 85 04 00  	mv	a1, s1
80000b3c: 93 06 04 00  	mv	a3, s0
80000b40: e7 00 09 00  	jalr	s2
80000b44: 33 b5 59 01  	sltu	a0, s3, s5
80000b48: 33 f5 ab 00  	and	a0, s7, a0
80000b4c: 63 00 05 0a  	beqz	a0, 0x80000bec <_vsnprintf+0x5fc>
80000b50: b3 89 3a 41  	sub	s3, s5, s3
80000b54: 93 0b 50 02  	li	s7, 37
80000b58: 13 06 0a 00  	mv	a2, s4
80000b5c: 13 0a 1a 00  	addi	s4, s4, 1
80000b60: 13 05 00 02  	li	a0, 32
80000b64: 93 85 04 00  	mv	a1, s1
80000b68: 93 06 04 00  	mv	a3, s0
80000b6c: e7 00 09 00  	jalr	s2
80000b70: 93 89 f9 ff  	addi	s3, s3, -1
80000b74: e3 92 09 fe  	bnez	s3, 0x80000b58 <_vsnprintf+0x568>
80000b78: 23 2c 61 01  	sw	s6, 24(sp)
80000b7c: 6f 00 80 16  	j	0x80000ce4 <_vsnprintf+0x6f4>
80000b80: 83 25 81 01  	lw	a1, 24(sp)
80000b84: 03 c5 05 00  	lbu	a0, 0(a1)
80000b88: 93 85 45 00  	addi	a1, a1, 4
80000b8c: 23 2c b1 00  	sw	a1, 24(sp)
80000b90: 93 55 f5 41  	srai	a1, a0, 31
80000b94: 33 06 b5 00  	add	a2, a0, a1
80000b98: 33 47 b6 00  	xor	a4, a2, a1
80000b9c: 93 57 f5 01  	srli	a5, a0, 31
80000ba0: 6f 00 80 06  	j	0x80000c08 <_vsnprintf+0x618>
80000ba4: 03 25 81 01  	lw	a0, 24(sp)
80000ba8: 93 09 45 00  	addi	s3, a0, 4
80000bac: 03 27 05 00  	lw	a4, 0(a0)
80000bb0: 93 07 00 00  	li	a5, 0
80000bb4: 13 05 09 00  	mv	a0, s2
80000bb8: 93 85 04 00  	mv	a1, s1
80000bbc: 13 06 0a 00  	mv	a2, s4
80000bc0: 93 06 04 00  	mv	a3, s0
80000bc4: 93 08 0b 00  	mv	a7, s6
80000bc8: 93 83 0a 00  	mv	t2, s5
80000bcc: 97 00 00 00  	auipc	ra, 0
80000bd0: e7 80 00 2e  	jalr	736(ra)
80000bd4: 13 0a 05 00  	mv	s4, a0
80000bd8: 23 2c 31 01  	sw	s3, 24(sp)
80000bdc: 6f 00 80 10  	j	0x80000ce4 <_vsnprintf+0x6f4>
80000be0: 23 24 b1 00  	sw	a1, 8(sp)
80000be4: 63 1c 05 04  	bnez	a0, 0x80000c3c <_vsnprintf+0x64c>
80000be8: 6f 00 40 09  	j	0x80000c7c <_vsnprintf+0x68c>
80000bec: 23 2c 61 01  	sw	s6, 24(sp)
80000bf0: 6f 00 00 0f  	j	0x80000ce0 <_vsnprintf+0x6f0>
80000bf4: 03 25 81 01  	lw	a0, 24(sp)
80000bf8: 03 47 05 00  	lbu	a4, 0(a0)
80000bfc: 13 05 45 00  	addi	a0, a0, 4
80000c00: 23 2c a1 00  	sw	a0, 24(sp)
80000c04: 93 07 00 00  	li	a5, 0
80000c08: 13 05 09 00  	mv	a0, s2
80000c0c: 93 85 04 00  	mv	a1, s1
80000c10: 13 06 0a 00  	mv	a2, s4
80000c14: 93 06 04 00  	mv	a3, s0
80000c18: 93 08 0b 00  	mv	a7, s6
80000c1c: 93 83 0a 00  	mv	t2, s5
80000c20: 97 00 00 00  	auipc	ra, 0
80000c24: e7 80 c0 28  	jalr	652(ra)
80000c28: 13 0a 05 00  	mv	s4, a0
80000c2c: 6f 00 80 0b  	j	0x80000ce4 <_vsnprintf+0x6f4>
80000c30: 93 85 15 00  	addi	a1, a1, 1
80000c34: 23 24 b1 00  	sw	a1, 8(sp)
80000c38: 63 02 05 04  	beqz	a0, 0x80000c7c <_vsnprintf+0x68c>
80000c3c: 93 0b 18 00  	addi	s7, a6, 1
80000c40: 6f 00 00 03  	j	0x80000c70 <_vsnprintf+0x680>
80000c44: 13 0b fb ff  	addi	s6, s6, -1
80000c48: 93 09 1a 00  	addi	s3, s4, 1
80000c4c: 13 75 f5 0f  	andi	a0, a0, 255
80000c50: 93 85 04 00  	mv	a1, s1
80000c54: 13 06 0a 00  	mv	a2, s4
80000c58: 93 06 04 00  	mv	a3, s0
80000c5c: e7 00 09 00  	jalr	s2
80000c60: 03 c5 0b 00  	lbu	a0, 0(s7)
80000c64: 93 8b 1b 00  	addi	s7, s7, 1
80000c68: 13 8a 09 00  	mv	s4, s3
80000c6c: 63 0a 05 00  	beqz	a0, 0x80000c80 <_vsnprintf+0x690>
80000c70: 83 25 01 01  	lw	a1, 16(sp)
80000c74: e3 8a 05 fc  	beqz	a1, 0x80000c48 <_vsnprintf+0x658>
80000c78: e3 16 0b fc  	bnez	s6, 0x80000c44 <_vsnprintf+0x654>
80000c7c: 93 09 0a 00  	mv	s3, s4
80000c80: 03 25 81 01  	lw	a0, 24(sp)
80000c84: 13 05 45 00  	addi	a0, a0, 4
80000c88: 23 2c a1 00  	sw	a0, 24(sp)
80000c8c: 03 25 c1 00  	lw	a0, 12(sp)
80000c90: 33 35 a0 00  	snez	a0, a0
80000c94: 03 26 81 00  	lw	a2, 8(sp)
80000c98: b3 35 56 01  	sltu	a1, a2, s5
80000c9c: 33 75 b5 00  	and	a0, a0, a1
80000ca0: 63 0e 05 02  	beqz	a0, 0x80000cdc <_vsnprintf+0x6ec>
80000ca4: 33 8a ca 40  	sub	s4, s5, a2
80000ca8: 93 0b 50 02  	li	s7, 37
80000cac: 13 0b 90 00  	li	s6, 9
80000cb0: 13 86 09 00  	mv	a2, s3
80000cb4: 93 89 19 00  	addi	s3, s3, 1
80000cb8: 13 05 00 02  	li	a0, 32
80000cbc: 93 85 04 00  	mv	a1, s1
80000cc0: 93 06 04 00  	mv	a3, s0
80000cc4: e7 00 09 00  	jalr	s2
80000cc8: 13 0a fa ff  	addi	s4, s4, -1
80000ccc: e3 12 0a fe  	bnez	s4, 0x80000cb0 <_vsnprintf+0x6c0>
80000cd0: 13 8a 09 00  	mv	s4, s3
80000cd4: 93 8a 1d 00  	addi	s5, s11, 1
80000cd8: 6f f0 df 99  	j	0x80000674 <_vsnprintf+0x84>
80000cdc: 13 8a 09 00  	mv	s4, s3
80000ce0: 93 0b 50 02  	li	s7, 37
80000ce4: 13 0b 90 00  	li	s6, 9
80000ce8: 93 8a 1d 00  	addi	s5, s11, 1
80000cec: 6f f0 9f 98  	j	0x80000674 <_vsnprintf+0x84>
80000cf0: 13 06 0a 00  	mv	a2, s4
80000cf4: 63 64 8a 00  	bltu	s4, s0, 0x80000cfc <_vsnprintf+0x70c>
80000cf8: 13 06 f4 ff  	addi	a2, s0, -1
80000cfc: 13 05 00 00  	li	a0, 0
80000d00: 93 85 04 00  	mv	a1, s1
80000d04: 93 06 04 00  	mv	a3, s0
80000d08: e7 00 09 00  	jalr	s2
80000d0c: 13 05 0a 00  	mv	a0, s4
80000d10: 83 20 c1 04  	lw	ra, 76(sp)
80000d14: 03 24 81 04  	lw	s0, 72(sp)
80000d18: 83 24 41 04  	lw	s1, 68(sp)
80000d1c: 03 29 01 04  	lw	s2, 64(sp)
80000d20: 83 29 c1 03  	lw	s3, 60(sp)
80000d24: 03 2a 81 03  	lw	s4, 56(sp)
80000d28: 83 2a 41 03  	lw	s5, 52(sp)
80000d2c: 03 2b 01 03  	lw	s6, 48(sp)
80000d30: 83 2b c1 02  	lw	s7, 44(sp)
80000d34: 03 2c 81 02  	lw	s8, 40(sp)
80000d38: 83 2c 41 02  	lw	s9, 36(sp)
80000d3c: 03 2d 01 02  	lw	s10, 32(sp)
80000d40: 83 2d c1 01  	lw	s11, 28(sp)
80000d44: 13 01 01 05  	addi	sp, sp, 80
80000d48: 67 80 00 00  	ret

80000d4c <_out_char>:
80000d4c: 63 06 05 00  	beqz	a0, 0x80000d58 <_out_char+0xc>
80000d50: 17 03 00 00  	auipc	t1, 0
80000d54: 67 00 43 4e  	jr	1252(t1)
80000d58: 67 80 00 00  	ret

80000d5c <sprintf_>:
80000d5c: 13 01 01 fe  	addi	sp, sp, -32
80000d60: 23 22 11 00  	sw	ra, 4(sp)
80000d64: 93 82 05 00  	mv	t0, a1
80000d68: 93 05 05 00  	mv	a1, a0
80000d6c: 23 2e 11 01  	sw	a7, 28(sp)
80000d70: 23 2c 01 01  	sw	a6, 24(sp)
80000d74: 23 2a f1 00  	sw	a5, 20(sp)
80000d78: 23 28 e1 00  	sw	a4, 16(sp)
80000d7c: 23 26 d1 00  	sw	a3, 12(sp)
80000d80: 23 24 c1 00  	sw	a2, 8(sp)
80000d84: 13 05 81 00  	addi	a0, sp, 8
80000d88: 23 20 a1 00  	sw	a0, 0(sp)
80000d8c: 37 15 00 80  	lui	a0, 524289
80000d90: 13 05 45 db  	addi	a0, a0, -588
80000d94: 13 06 f0 ff  	li	a2, -1
80000d98: 13 07 81 00  	addi	a4, sp, 8
80000d9c: 93 86 02 00  	mv	a3, t0
80000da0: 97 00 00 00  	auipc	ra, 0
80000da4: e7 80 00 85  	jalr	-1968(ra)
80000da8: 83 20 41 00  	lw	ra, 4(sp)
80000dac: 13 01 01 02  	addi	sp, sp, 32
80000db0: 67 80 00 00  	ret

80000db4 <_out_buffer>:
80000db4: 63 76 d6 00  	bgeu	a2, a3, 0x80000dc0 <_out_buffer+0xc>
80000db8: b3 85 c5 00  	add	a1, a1, a2
80000dbc: 23 80 a5 00  	sb	a0, 0(a1)
80000dc0: 67 80 00 00  	ret

80000dc4 <snprintf_>:
80000dc4: 13 01 01 fe  	addi	sp, sp, -32
80000dc8: 23 22 11 00  	sw	ra, 4(sp)
80000dcc: 93 02 06 00  	mv	t0, a2
80000dd0: 13 86 05 00  	mv	a2, a1
80000dd4: 93 05 05 00  	mv	a1, a0
80000dd8: 23 2e 11 01  	sw	a7, 28(sp)
80000ddc: 23 2c 01 01  	sw	a6, 24(sp)
80000de0: 23 2a f1 00  	sw	a5, 20(sp)
80000de4: 23 28 e1 00  	sw	a4, 16(sp)
80000de8: 23 26 d1 00  	sw	a3, 12(sp)
80000dec: 13 05 c1 00  	addi	a0, sp, 12
80000df0: 23 20 a1 00  	sw	a0, 0(sp)
80000df4: 37 15 00 80  	lui	a0, 524289
80000df8: 13 05 45 db  	addi	a0, a0, -588
80000dfc: 13 07 c1 00  	addi	a4, sp, 12
80000e00: 93 86 02 00  	mv	a3, t0
80000e04: 97 f0 ff ff  	auipc	ra, 1048575
80000e08: e7 80 c0 7e  	jalr	2028(ra)
80000e0c: 83 20 41 00  	lw	ra, 4(sp)
80000e10: 13 01 01 02  	addi	sp, sp, 32
80000e14: 67 80 00 00  	ret

80000e18 <vsnprintf_>:
80000e18: 13 87 06 00  	mv	a4, a3
80000e1c: 93 06 06 00  	mv	a3, a2
80000e20: 13 86 05 00  	mv	a2, a1
80000e24: 93 05 05 00  	mv	a1, a0
80000e28: 37 15 00 80  	lui	a0, 524289
80000e2c: 13 05 45 db  	addi	a0, a0, -588
80000e30: 17 f3 ff ff  	auipc	t1, 1048575
80000e34: 67 00 03 7c  	jr	1984(t1)

80000e38 <fctprintf>:
80000e38: 13 01 01 fd  	addi	sp, sp, -48
80000e3c: 23 2a 11 00  	sw	ra, 20(sp)
80000e40: 93 02 06 00  	mv	t0, a2
80000e44: 23 26 11 03  	sw	a7, 44(sp)
80000e48: 23 24 01 03  	sw	a6, 40(sp)
80000e4c: 23 22 f1 02  	sw	a5, 36(sp)
80000e50: 23 20 e1 02  	sw	a4, 32(sp)
80000e54: 23 2e d1 00  	sw	a3, 28(sp)
80000e58: 13 06 c1 01  	addi	a2, sp, 28
80000e5c: 23 28 c1 00  	sw	a2, 16(sp)
80000e60: 23 24 a1 00  	sw	a0, 8(sp)
80000e64: 23 26 b1 00  	sw	a1, 12(sp)
80000e68: 37 15 00 80  	lui	a0, 524289
80000e6c: 13 05 45 e9  	addi	a0, a0, -364
80000e70: 93 05 81 00  	addi	a1, sp, 8
80000e74: 13 06 f0 ff  	li	a2, -1
80000e78: 13 07 c1 01  	addi	a4, sp, 28
80000e7c: 93 86 02 00  	mv	a3, t0
80000e80: 97 f0 ff ff  	auipc	ra, 1048575
80000e84: e7 80 00 77  	jalr	1904(ra)
80000e88: 83 20 41 01  	lw	ra, 20(sp)
80000e8c: 13 01 01 03  	addi	sp, sp, 48
80000e90: 67 80 00 00  	ret

80000e94 <_out_fct>:
80000e94: 63 08 05 00  	beqz	a0, 0x80000ea4 <_out_fct+0x10>
80000e98: 03 a3 05 00  	lw	t1, 0(a1)
80000e9c: 83 a5 45 00  	lw	a1, 4(a1)
80000ea0: 67 00 03 00  	jr	t1
80000ea4: 67 80 00 00  	ret

80000ea8 <_out_null>:
80000ea8: 67 80 00 00  	ret

80000eac <_ntoa_long>:
80000eac: 13 01 01 fb  	addi	sp, sp, -80
80000eb0: 23 26 11 04  	sw	ra, 76(sp)
80000eb4: 23 24 81 04  	sw	s0, 72(sp)
80000eb8: 23 22 91 04  	sw	s1, 68(sp)
80000ebc: 23 20 21 05  	sw	s2, 64(sp)
80000ec0: 23 2e 31 03  	sw	s3, 60(sp)
80000ec4: 23 2c 41 03  	sw	s4, 56(sp)
80000ec8: 23 2a 51 03  	sw	s5, 52(sp)
80000ecc: 23 28 61 03  	sw	s6, 48(sp)
80000ed0: 23 26 71 03  	sw	s7, 44(sp)
80000ed4: 23 24 81 03  	sw	s8, 40(sp)
80000ed8: 23 22 91 03  	sw	s9, 36(sp)
80000edc: 13 84 03 00  	mv	s0, t2
80000ee0: 93 84 06 00  	mv	s1, a3
80000ee4: 13 0a 06 00  	mv	s4, a2
80000ee8: 13 89 05 00  	mv	s2, a1
80000eec: 93 09 05 00  	mv	s3, a0
80000ef0: 13 36 17 00  	seqz	a2, a4
80000ef4: 63 14 07 00  	bnez	a4, 0x80000efc <_ntoa_long+0x50>
80000ef8: 13 7e fe fe  	andi	t3, t3, -17
80000efc: 13 05 00 00  	li	a0, 0
80000f00: 93 75 0e 40  	andi	a1, t3, 1024
80000f04: 93 d6 a5 00  	srli	a3, a1, 10
80000f08: 33 76 d6 00  	and	a2, a2, a3
80000f0c: 63 16 06 06  	bnez	a2, 0x80000f78 <_ntoa_long+0xcc>
80000f10: 93 06 00 00  	li	a3, 0
80000f14: 13 75 0e 02  	andi	a0, t3, 32
80000f18: 13 45 15 06  	xori	a0, a0, 97
80000f1c: 13 06 65 0f  	addi	a2, a0, 246
80000f20: 93 02 a0 00  	li	t0, 10
80000f24: 13 03 41 00  	addi	t1, sp, 4
80000f28: 6f 00 00 03  	j	0x80000f58 <_ntoa_long+0xac>
80000f2c: b3 8e ae 00  	add	t4, t4, a0
80000f30: 13 85 16 00  	addi	a0, a3, 1
80000f34: 33 0f d3 00  	add	t5, t1, a3
80000f38: 23 00 df 01  	sb	t4, 0(t5)
80000f3c: 33 37 07 01  	sltu	a4, a4, a6
80000f40: 13 47 17 00  	xori	a4, a4, 1
80000f44: 93 b6 f6 01  	sltiu	a3, a3, 31
80000f48: b3 7e d7 00  	and	t4, a4, a3
80000f4c: 93 06 05 00  	mv	a3, a0
80000f50: 13 87 03 00  	mv	a4, t2
80000f54: 63 82 0e 02  	beqz	t4, 0x80000f78 <_ntoa_long+0xcc>
80000f58: b3 53 07 03  	divu	t2, a4, a6
80000f5c: 13 05 00 03  	li	a0, 48
80000f60: b3 8e 03 03  	mul	t4, t2, a6
80000f64: b3 0e d7 41  	sub	t4, a4, t4
80000f68: 13 ff ee 0f  	andi	t5, t4, 254
80000f6c: e3 60 5f fc  	bltu	t5, t0, 0x80000f2c <_ntoa_long+0x80>
80000f70: 13 05 06 00  	mv	a0, a2
80000f74: 6f f0 9f fb  	j	0x80000f2c <_ntoa_long+0x80>
80000f78: 93 7b 2e 00  	andi	s7, t3, 2
80000f7c: 63 9c 0b 0a  	bnez	s7, 0x80001034 <_ntoa_long+0x188>
80000f80: 13 76 1e 00  	andi	a2, t3, 1
80000f84: 63 0e 04 00  	beqz	s0, 0x80000fa0 <_ntoa_long+0xf4>
80000f88: 63 0e 06 00  	beqz	a2, 0x80000fa4 <_ntoa_long+0xf8>
80000f8c: 93 76 ce 00  	andi	a3, t3, 12
80000f90: b3 36 d0 00  	snez	a3, a3
80000f94: b3 e6 f6 00  	or	a3, a3, a5
80000f98: 33 04 d4 40  	sub	s0, s0, a3
80000f9c: 6f 00 80 00  	j	0x80000fa4 <_ntoa_long+0xf8>
80000fa0: 13 04 00 00  	li	s0, 0
80000fa4: b3 36 15 01  	sltu	a3, a0, a7
80000fa8: 93 c6 16 00  	xori	a3, a3, 1
80000fac: 13 07 f0 01  	li	a4, 31
80000fb0: 33 37 a7 00  	sltu	a4, a4, a0
80000fb4: b3 e6 e6 00  	or	a3, a3, a4
80000fb8: 63 9a 06 02  	bnez	a3, 0x80000fec <_ntoa_long+0x140>
80000fbc: 13 07 41 00  	addi	a4, sp, 4
80000fc0: 93 02 00 03  	li	t0, 48
80000fc4: 93 06 15 00  	addi	a3, a0, 1
80000fc8: 33 03 a7 00  	add	t1, a4, a0
80000fcc: 23 00 53 00  	sb	t0, 0(t1)
80000fd0: 33 b3 16 01  	sltu	t1, a3, a7
80000fd4: 13 35 f5 01  	sltiu	a0, a0, 31
80000fd8: 33 73 65 00  	and	t1, a0, t1
80000fdc: 13 85 06 00  	mv	a0, a3
80000fe0: e3 12 03 fe  	bnez	t1, 0x80000fc4 <_ntoa_long+0x118>
80000fe4: 63 18 06 00  	bnez	a2, 0x80000ff4 <_ntoa_long+0x148>
80000fe8: 6f 00 80 04  	j	0x80001030 <_ntoa_long+0x184>
80000fec: 93 06 05 00  	mv	a3, a0
80000ff0: 63 00 06 04  	beqz	a2, 0x80001030 <_ntoa_long+0x184>
80000ff4: 33 b5 86 00  	sltu	a0, a3, s0
80000ff8: 13 45 15 00  	xori	a0, a0, 1
80000ffc: 13 06 f0 01  	li	a2, 31
80001000: 33 36 d6 00  	sltu	a2, a2, a3
80001004: 33 65 c5 00  	or	a0, a0, a2
80001008: 63 14 05 02  	bnez	a0, 0x80001030 <_ntoa_long+0x184>
8000100c: 13 05 41 00  	addi	a0, sp, 4
80001010: 13 06 00 03  	li	a2, 48
80001014: 33 07 d5 00  	add	a4, a0, a3
80001018: 23 00 c7 00  	sb	a2, 0(a4)
8000101c: 13 b7 f6 01  	sltiu	a4, a3, 31
80001020: 93 86 16 00  	addi	a3, a3, 1
80001024: b3 b2 86 00  	sltu	t0, a3, s0
80001028: 33 77 57 00  	and	a4, a4, t0
8000102c: e3 14 07 fe  	bnez	a4, 0x80001014 <_ntoa_long+0x168>
80001030: 13 85 06 00  	mv	a0, a3
80001034: 13 76 0e 01  	andi	a2, t3, 16
80001038: 63 02 06 0c  	beqz	a2, 0x800010fc <_ntoa_long+0x250>
8000103c: 93 b5 15 00  	seqz	a1, a1
80001040: 33 36 a0 00  	snez	a2, a0
80001044: b3 f5 c5 00  	and	a1, a1, a2
80001048: 63 8e 05 02  	beqz	a1, 0x80001084 <_ntoa_long+0x1d8>
8000104c: b3 45 15 01  	xor	a1, a0, a7
80001050: b3 35 b0 00  	snez	a1, a1
80001054: 33 46 85 00  	xor	a2, a0, s0
80001058: 33 36 c0 00  	snez	a2, a2
8000105c: b3 f5 c5 00  	and	a1, a1, a2
80001060: 63 92 05 02  	bnez	a1, 0x80001084 <_ntoa_long+0x1d8>
80001064: 93 05 f5 ff  	addi	a1, a0, -1
80001068: 33 36 b0 00  	snez	a2, a1
8000106c: 93 06 08 ff  	addi	a3, a6, -16
80001070: 93 b6 16 00  	seqz	a3, a3
80001074: 33 f6 c6 00  	and	a2, a3, a2
80001078: 63 04 06 00  	beqz	a2, 0x80001080 <_ntoa_long+0x1d4>
8000107c: 93 05 e5 ff  	addi	a1, a0, -2
80001080: 13 85 05 00  	mv	a0, a1
80001084: 93 05 00 01  	li	a1, 16
80001088: 63 18 b8 02  	bne	a6, a1, 0x800010b8 <_ntoa_long+0x20c>
8000108c: 13 76 0e 02  	andi	a2, t3, 32
80001090: 93 35 16 00  	seqz	a1, a2
80001094: 93 36 05 02  	sltiu	a3, a0, 32
80001098: 33 f7 d5 00  	and	a4, a1, a3
8000109c: 93 05 80 07  	li	a1, 120
800010a0: 63 18 07 02  	bnez	a4, 0x800010d0 <_ntoa_long+0x224>
800010a4: b3 35 c0 00  	snez	a1, a2
800010a8: 33 f6 d5 00  	and	a2, a1, a3
800010ac: 93 05 80 05  	li	a1, 88
800010b0: 63 10 06 02  	bnez	a2, 0x800010d0 <_ntoa_long+0x224>
800010b4: 6f 00 c0 02  	j	0x800010e0 <_ntoa_long+0x234>
800010b8: 93 05 e8 ff  	addi	a1, a6, -2
800010bc: 93 b5 15 00  	seqz	a1, a1
800010c0: 13 36 05 02  	sltiu	a2, a0, 32
800010c4: 33 f6 c5 00  	and	a2, a1, a2
800010c8: 93 05 20 06  	li	a1, 98
800010cc: 63 0a 06 00  	beqz	a2, 0x800010e0 <_ntoa_long+0x234>
800010d0: 13 06 41 00  	addi	a2, sp, 4
800010d4: 33 06 a6 00  	add	a2, a2, a0
800010d8: 13 05 15 00  	addi	a0, a0, 1
800010dc: 23 00 b6 00  	sb	a1, 0(a2)
800010e0: 93 05 f0 01  	li	a1, 31
800010e4: 63 e2 a5 04  	bltu	a1, a0, 0x80001128 <_ntoa_long+0x27c>
800010e8: 93 05 41 00  	addi	a1, sp, 4
800010ec: b3 85 a5 00  	add	a1, a1, a0
800010f0: 13 05 15 00  	addi	a0, a0, 1
800010f4: 13 06 00 03  	li	a2, 48
800010f8: 23 80 c5 00  	sb	a2, 0(a1)
800010fc: 13 0c 00 02  	li	s8, 32
80001100: 93 05 f0 01  	li	a1, 31
80001104: 63 ee a5 02  	bltu	a1, a0, 0x80001140 <_ntoa_long+0x294>
80001108: 93 05 d0 02  	li	a1, 45
8000110c: 63 92 07 02  	bnez	a5, 0x80001130 <_ntoa_long+0x284>
80001110: 13 76 4e 00  	andi	a2, t3, 4
80001114: 93 05 b0 02  	li	a1, 43
80001118: 63 1c 06 00  	bnez	a2, 0x80001130 <_ntoa_long+0x284>
8000111c: 13 76 8e 00  	andi	a2, t3, 8
80001120: 93 05 00 02  	li	a1, 32
80001124: 63 16 06 00  	bnez	a2, 0x80001130 <_ntoa_long+0x284>
80001128: 13 0c 05 00  	mv	s8, a0
8000112c: 6f 00 40 01  	j	0x80001140 <_ntoa_long+0x294>
80001130: 13 0c 15 00  	addi	s8, a0, 1
80001134: 13 06 41 00  	addi	a2, sp, 4
80001138: 33 05 a6 00  	add	a0, a2, a0
8000113c: 23 00 b5 00  	sb	a1, 0(a0)
80001140: 13 75 3e 00  	andi	a0, t3, 3
80001144: 13 35 15 00  	seqz	a0, a0
80001148: b3 35 8c 00  	sltu	a1, s8, s0
8000114c: 33 75 b5 00  	and	a0, a0, a1
80001150: 13 0b 0a 00  	mv	s6, s4
80001154: 63 06 05 02  	beqz	a0, 0x80001180 <_ntoa_long+0x2d4>
80001158: b3 0a 84 41  	sub	s5, s0, s8
8000115c: 13 06 0a 00  	mv	a2, s4
80001160: 13 0b 16 00  	addi	s6, a2, 1
80001164: 13 05 00 02  	li	a0, 32
80001168: 93 05 09 00  	mv	a1, s2
8000116c: 93 86 04 00  	mv	a3, s1
80001170: e7 80 09 00  	jalr	s3
80001174: 93 8a fa ff  	addi	s5, s5, -1
80001178: 13 06 0b 00  	mv	a2, s6
8000117c: e3 92 0a fe  	bnez	s5, 0x80001160 <_ntoa_long+0x2b4>
80001180: 63 0a 0c 02  	beqz	s8, 0x800011b4 <_ntoa_long+0x308>
80001184: 93 0c 31 00  	addi	s9, sp, 3
80001188: 33 85 8c 01  	add	a0, s9, s8
8000118c: 03 45 05 00  	lbu	a0, 0(a0)
80001190: 93 0a 1b 00  	addi	s5, s6, 1
80001194: 93 05 09 00  	mv	a1, s2
80001198: 13 06 0b 00  	mv	a2, s6
8000119c: 93 86 04 00  	mv	a3, s1
800011a0: e7 80 09 00  	jalr	s3
800011a4: 13 0c fc ff  	addi	s8, s8, -1
800011a8: 13 8b 0a 00  	mv	s6, s5
800011ac: e3 1e 0c fc  	bnez	s8, 0x80001188 <_ntoa_long+0x2dc>
800011b0: 6f 00 80 00  	j	0x800011b8 <_ntoa_long+0x30c>
800011b4: 93 0a 0b 00  	mv	s5, s6
800011b8: 33 35 70 01  	snez	a0, s7
800011bc: b3 85 4a 41  	sub	a1, s5, s4
800011c0: b3 b5 85 00  	sltu	a1, a1, s0
800011c4: 33 75 b5 00  	and	a0, a0, a1
800011c8: 63 08 05 02  	beqz	a0, 0x800011f8 <_ntoa_long+0x34c>
800011cc: 33 0b 40 41  	neg	s6, s4
800011d0: 13 8a 1a 00  	addi	s4, s5, 1
800011d4: 13 05 00 02  	li	a0, 32
800011d8: 93 05 09 00  	mv	a1, s2
800011dc: 13 86 0a 00  	mv	a2, s5
800011e0: 93 86 04 00  	mv	a3, s1
800011e4: e7 80 09 00  	jalr	s3
800011e8: 33 05 4b 01  	add	a0, s6, s4
800011ec: 93 0a 0a 00  	mv	s5, s4
800011f0: e3 60 85 fe  	bltu	a0, s0, 0x800011d0 <_ntoa_long+0x324>
800011f4: 6f 00 80 00  	j	0x800011fc <_ntoa_long+0x350>
800011f8: 13 8a 0a 00  	mv	s4, s5
800011fc: 13 05 0a 00  	mv	a0, s4
80001200: 83 20 c1 04  	lw	ra, 76(sp)
80001204: 03 24 81 04  	lw	s0, 72(sp)
80001208: 83 24 41 04  	lw	s1, 68(sp)
8000120c: 03 29 01 04  	lw	s2, 64(sp)
80001210: 83 29 c1 03  	lw	s3, 60(sp)
80001214: 03 2a 81 03  	lw	s4, 56(sp)
80001218: 83 2a 41 03  	lw	s5, 52(sp)
8000121c: 03 2b 01 03  	lw	s6, 48(sp)
80001220: 83 2b c1 02  	lw	s7, 44(sp)
80001224: 03 2c 81 02  	lw	s8, 40(sp)
80001228: 83 2c 41 02  	lw	s9, 36(sp)
8000122c: 13 01 01 05  	addi	sp, sp, 80
80001230: 67 80 00 00  	ret

80001234 <_putchar>:
80001234: b7 05 00 c0  	lui	a1, 786432
80001238: 23 80 a5 00  	sb	a0, 0(a1)
8000123c: 67 80 00 00  	ret

80001240 <memcpy>:
80001240: b3 e6 a5 00  	or	a3, a1, a0
80001244: b3 e6 c6 00  	or	a3, a3, a2
80001248: 13 f7 36 00  	andi	a4, a3, 3
8000124c: b3 06 c5 00  	add	a3, a0, a2
80001250: 63 06 07 02  	beqz	a4, 0x8000127c <memcpy+0x3c>
80001254: 63 74 d5 04  	bgeu	a0, a3, 0x8000129c <memcpy+0x5c>
80001258: 93 06 05 00  	mv	a3, a0
8000125c: 03 87 05 00  	lb	a4, 0(a1)
80001260: 93 85 15 00  	addi	a1, a1, 1
80001264: 13 06 f6 ff  	addi	a2, a2, -1
80001268: 93 87 16 00  	addi	a5, a3, 1
8000126c: 23 80 e6 00  	sb	a4, 0(a3)
80001270: 93 86 07 00  	mv	a3, a5
80001274: e3 14 06 fe  	bnez	a2, 0x8000125c <memcpy+0x1c>
80001278: 6f 00 40 02  	j	0x8000129c <memcpy+0x5c>
8000127c: 63 70 d5 02  	bgeu	a0, a3, 0x8000129c <memcpy+0x5c>
80001280: 13 06 05 00  	mv	a2, a0
80001284: 03 a7 05 00  	lw	a4, 0(a1)
80001288: 93 85 45 00  	addi	a1, a1, 4
8000128c: 93 07 46 00  	addi	a5, a2, 4
80001290: 23 20 e6 00  	sw	a4, 0(a2)
80001294: 13 86 07 00  	mv	a2, a5
80001298: e3 e6 d7 fe  	bltu	a5, a3, 0x80001284 <memcpy+0x44>
8000129c: 67 80 00 00  	ret

800012a0 <memset>:
800012a0: b3 66 c5 00  	or	a3, a0, a2
800012a4: 93 f6 36 00  	andi	a3, a3, 3
800012a8: 63 82 06 02  	beqz	a3, 0x800012cc <memset+0x2c>
800012ac: b3 06 c5 00  	add	a3, a0, a2
800012b0: 63 74 d5 04  	bgeu	a0, a3, 0x800012f8 <memset+0x58>
800012b4: 93 06 05 00  	mv	a3, a0
800012b8: 23 80 b6 00  	sb	a1, 0(a3)
800012bc: 93 86 16 00  	addi	a3, a3, 1
800012c0: 13 06 f6 ff  	addi	a2, a2, -1
800012c4: e3 1a 06 fe  	bnez	a2, 0x800012b8 <memset+0x18>
800012c8: 6f 00 00 03  	j	0x800012f8 <memset+0x58>
800012cc: 33 06 c5 00  	add	a2, a0, a2
800012d0: 63 74 c5 02  	bgeu	a0, a2, 0x800012f8 <memset+0x58>
800012d4: 93 f5 f5 0f  	andi	a1, a1, 255
800012d8: b7 06 01 01  	lui	a3, 4112
800012dc: 93 86 16 10  	addi	a3, a3, 257
800012e0: b3 85 d5 02  	mul	a1, a1, a3
800012e4: 93 06 05 00  	mv	a3, a0
800012e8: 13 87 46 00  	addi	a4, a3, 4
800012ec: 23 a0 b6 00  	sw	a1, 0(a3)
800012f0: 93 06 07 00  	mv	a3, a4
800012f4: e3 6a c7 fe  	bltu	a4, a2, 0x800012e8 <memset+0x48>
800012f8: 67 80 00 00  	ret

800012fc <strlen>:
800012fc: 93 05 00 00  	li	a1, 0
80001300: 33 06 b5 00  	add	a2, a0, a1
80001304: 03 46 06 00  	lbu	a2, 0(a2)
80001308: 93 85 15 00  	addi	a1, a1, 1
8000130c: e3 1a 06 fe  	bnez	a2, 0x80001300 <strlen+0x4>
80001310: 13 85 f5 ff  	addi	a0, a1, -1
80001314: 67 80 00 00  	ret

80001318 <strcmp>:
80001318: 03 46 05 00  	lbu	a2, 0(a0)
8000131c: 13 05 15 00  	addi	a0, a0, 1
80001320: 83 c6 05 00  	lbu	a3, 0(a1)
80001324: 93 85 15 00  	addi	a1, a1, 1
80001328: 33 37 c0 00  	snez	a4, a2
8000132c: b3 47 d6 00  	xor	a5, a2, a3
80001330: 93 b7 17 00  	seqz	a5, a5
80001334: 33 77 f7 00  	and	a4, a4, a5
80001338: e3 10 07 fe  	bnez	a4, 0x80001318 <strcmp>
8000133c: 33 05 d6 40  	sub	a0, a2, a3
80001340: 67 80 00 00  	ret

80001344 <memcmp>:
80001344: b3 e6 a5 00  	or	a3, a1, a0
80001348: 93 f6 36 00  	andi	a3, a3, 3
8000134c: 63 90 06 04  	bnez	a3, 0x8000138c <memcmp+0x48>
80001350: 93 76 c6 ff  	andi	a3, a2, -4
80001354: 33 07 d5 00  	add	a4, a0, a3
80001358: 63 72 e5 02  	bgeu	a0, a4, 0x8000137c <memcmp+0x38>
8000135c: 93 06 05 00  	mv	a3, a0
80001360: 83 a7 06 00  	lw	a5, 0(a3)
80001364: 03 a8 05 00  	lw	a6, 0(a1)
80001368: 63 9c 07 01  	bne	a5, a6, 0x80001380 <memcmp+0x3c>
8000136c: 93 86 46 00  	addi	a3, a3, 4
80001370: 93 85 45 00  	addi	a1, a1, 4
80001374: e3 e6 e6 fe  	bltu	a3, a4, 0x80001360 <memcmp+0x1c>
80001378: 6f 00 80 00  	j	0x80001380 <memcmp+0x3c>
8000137c: 93 06 05 00  	mv	a3, a0
80001380: 33 05 c5 00  	add	a0, a0, a2
80001384: 33 06 d5 40  	sub	a2, a0, a3
80001388: 13 85 06 00  	mv	a0, a3
8000138c: 63 02 06 02  	beqz	a2, 0x800013b0 <memcmp+0x6c>
80001390: 13 06 f6 ff  	addi	a2, a2, -1
80001394: 83 46 05 00  	lbu	a3, 0(a0)
80001398: 13 05 15 00  	addi	a0, a0, 1
8000139c: 03 c7 05 00  	lbu	a4, 0(a1)
800013a0: 93 85 15 00  	addi	a1, a1, 1
800013a4: e3 84 e6 fe  	beq	a3, a4, 0x8000138c <memcmp+0x48>
800013a8: 33 85 e6 40  	sub	a0, a3, a4
800013ac: 67 80 00 00  	ret
800013b0: 13 05 00 00  	li	a0, 0
800013b4: 67 80 00 00  	ret

800013b8 <strcpy>:
800013b8: 13 06 00 00  	li	a2, 0
800013bc: b3 86 c5 00  	add	a3, a1, a2
800013c0: 33 07 c5 00  	add	a4, a0, a2
800013c4: 83 c6 06 00  	lbu	a3, 0(a3)
800013c8: 13 06 16 00  	addi	a2, a2, 1
800013cc: 23 00 d7 00  	sb	a3, 0(a4)
800013d0: e3 96 06 fe  	bnez	a3, 0x800013bc <strcpy+0x4>
800013d4: 67 80 00 00  	ret

800013d8 <atol>:
800013d8: 93 06 15 00  	addi	a3, a0, 1
800013dc: 13 05 00 02  	li	a0, 32
800013e0: 83 c5 f6 ff  	lbu	a1, -1(a3)
800013e4: 63 98 a5 00  	bne	a1, a0, 0x800013f4 <atol+0x1c>
800013e8: 93 86 16 00  	addi	a3, a3, 1
800013ec: 83 c5 f6 ff  	lbu	a1, -1(a3)
800013f0: e3 8c a5 fe  	beq	a1, a0, 0x800013e8 <atol+0x10>
800013f4: 13 05 b0 02  	li	a0, 43
800013f8: 63 86 a5 00  	beq	a1, a0, 0x80001404 <atol+0x2c>
800013fc: 13 05 d0 02  	li	a0, 45
80001400: 63 9e a5 00  	bne	a1, a0, 0x8000141c <atol+0x44>
80001404: 13 85 35 fd  	addi	a0, a1, -45
80001408: 13 36 15 00  	seqz	a2, a0
8000140c: 83 c5 06 00  	lbu	a1, 0(a3)
80001410: 13 05 00 00  	li	a0, 0
80001414: 63 9c 05 00  	bnez	a1, 0x8000142c <atol+0x54>
80001418: 6f 00 80 03  	j	0x80001450 <atol+0x78>
8000141c: 13 06 00 00  	li	a2, 0
80001420: 93 86 f6 ff  	addi	a3, a3, -1
80001424: 13 05 00 00  	li	a0, 0
80001428: 63 84 05 02  	beqz	a1, 0x80001450 <atol+0x78>
8000142c: 93 86 16 00  	addi	a3, a3, 1
80001430: 13 07 a0 00  	li	a4, 10
80001434: 33 05 e5 02  	mul	a0, a0, a4
80001438: 93 f7 f5 0f  	andi	a5, a1, 255
8000143c: 83 c5 06 00  	lbu	a1, 0(a3)
80001440: 33 05 f5 00  	add	a0, a0, a5
80001444: 13 05 05 fd  	addi	a0, a0, -48
80001448: 93 86 16 00  	addi	a3, a3, 1
8000144c: e3 94 05 fe  	bnez	a1, 0x80001434 <atol+0x5c>
80001450: 63 04 06 00  	beqz	a2, 0x80001458 <atol+0x80>
80001454: 33 05 a0 40  	neg	a0, a0
80001458: 67 80 00 00  	ret

8000145c <mempool_barrier_init>:
8000145c: 63 06 05 00  	beqz	a0, 0x80001468 <mempool_barrier_init+0xc>
80001460: 73 00 50 10  	wfi	
80001464: 6f 00 c0 01  	j	0x80001480 <mempool_barrier_init+0x24>
80001468: 37 05 02 00  	lui	a0, 32
8000146c: 23 20 05 40  	sw	zero, 1024(a0)
80001470: 37 05 00 40  	lui	a0, 262144
80001474: 93 05 f0 ff  	li	a1, -1
80001478: 23 22 b5 00  	sw	a1, 4(a0)
8000147c: 73 00 50 10  	wfi	
80001480: 37 05 02 00  	lui	a0, 32
80001484: 93 05 05 40  	addi	a1, a0, 1024
80001488: 13 06 10 00  	li	a2, 1
8000148c: af a5 c5 00  	amoadd.w	a1, a2, (a1)
80001490: 13 06 f0 0f  	li	a2, 255
80001494: 63 9c c5 00  	bne	a1, a2, 0x800014ac <mempool_barrier_init+0x50>
80001498: 23 20 05 40  	sw	zero, 1024(a0)
8000149c: 0f 00 30 03  	fence	rw, rw
800014a0: 37 05 00 40  	lui	a0, 262144
800014a4: 93 05 f0 ff  	li	a1, -1
800014a8: 23 22 b5 00  	sw	a1, 4(a0)
800014ac: 73 00 50 10  	wfi	
800014b0: 67 80 00 00  	ret

800014b4 <mempool_barrier>:
800014b4: 93 05 f5 ff  	addi	a1, a0, -1
800014b8: 37 05 02 00  	lui	a0, 32
800014bc: 13 06 05 40  	addi	a2, a0, 1024
800014c0: 93 06 10 00  	li	a3, 1
800014c4: 2f 26 d6 00  	amoadd.w	a2, a3, (a2)
800014c8: 63 9c c5 00  	bne	a1, a2, 0x800014e0 <mempool_barrier+0x2c>
800014cc: 23 20 05 40  	sw	zero, 1024(a0)
800014d0: 0f 00 30 03  	fence	rw, rw
800014d4: 37 05 00 40  	lui	a0, 262144
800014d8: 93 05 f0 ff  	li	a1, -1
800014dc: 23 22 b5 00  	sw	a1, 4(a0)
800014e0: 73 00 50 10  	wfi	
800014e4: 67 80 00 00  	ret
		...

Disassembly of section .rodata:

80001500 <.rodata>:
80001500: 4d 65        	<unknown>
80001502: 6d 6f        	<unknown>
80001504: 72 79        	<unknown>
80001506: 20 61        	<unknown>
80001508: 6c 6c        	<unknown>
8000150a: 6f 63 61 74  	jal	t1, 0x80017c50 <wake_up_tile_g7_reg+0x40017bf4>
8000150e: 6f 72 3a 20  	jal	tp, 0x800a8f10 <wake_up_tile_g7_reg+0x400a8eb4>
80001512: 52 65        	<unknown>
80001514: 71 75        	<unknown>
80001516: 65 73        	<unknown>
80001518: 74 65        	<unknown>
8000151a: 64 20        	<unknown>
8000151c: 6d 65        	<unknown>
8000151e: 6d 6f        	<unknown>
80001520: 72 79        	<unknown>
80001522: 20 65        	<unknown>
80001524: 78 63        	<unknown>
80001526: 65 65        	<unknown>
80001528: 64 73        	<unknown>
8000152a: 20 6d        	<unknown>
8000152c: 61 78        	<unknown>
8000152e: 20 62        	<unknown>
80001530: 6c 6f        	<unknown>
80001532: 63 6b 20 73  	bltu	zero, s2, 0x80001c68 <wake_up_tile_g7_reg+0x40001c0c>
80001536: 69 7a        	<unknown>
80001538: 65 0a        	<unknown>
8000153a: 00 4d        	<unknown>
8000153c: 65 6d        	<unknown>
8000153e: 6f 72 79 20  	jal	tp, 0x80098f44 <wake_up_tile_g7_reg+0x40098ee8>
80001542: 61 6c        	<unknown>
80001544: 6c 6f        	<unknown>
80001546: 63 61 74 6f  	bltu	s0, s7, 0x80001c28 <wake_up_tile_g7_reg+0x40001bcc>
8000154a: 72 3a        	<unknown>
8000154c: 20 4e        	<unknown>
8000154e: 6f 20 6c 61  	j	0x800c3b64 <wake_up_tile_g7_reg+0x400c3b08>
80001552: 72 67        	<unknown>
80001554: 65 20        	<unknown>
80001556: 65 6e        	<unknown>
80001558: 6f 75 67 68  	jal	a0, 0x80078bde <wake_up_tile_g7_reg+0x40078b82>
8000155c: 20 62        	<unknown>
8000155e: 6c 6f        	<unknown>
80001560: 63 6b 20 66  	bltu	zero, sp, 0x80001bd6 <wake_up_tile_g7_reg+0x40001b7a>
80001564: 6f 75 6e 64  	jal	a0, 0x800e8baa <wake_up_tile_g7_reg+0x400e8b4e>
80001568: 20 28        	<unknown>
8000156a: 25 64        	<unknown>
8000156c: 29 0a        	<unknown>
8000156e: 00 4d        	<unknown>
80001570: 65 6d        	<unknown>
80001572: 6f 72 79 20  	jal	tp, 0x80098f78 <wake_up_tile_g7_reg+0x40098f1c>
80001576: 4f 76 65 72  	<unknown>
8000157a: 66 6c        	<unknown>
8000157c: 6f 77 20 61  	jal	a4, 0x80008b8e <wake_up_tile_g7_reg+0x40008b32>
80001580: 74 20        	<unknown>
80001582: 25 70        	<unknown>
80001584: 0a 00        	<unknown>
80001586: 4d 65        	<unknown>
80001588: 6d 6f        	<unknown>
8000158a: 72 79        	<unknown>
8000158c: 20 41        	<unknown>
8000158e: 6c 6c        	<unknown>
80001590: 6f 63 61 74  	jal	t1, 0x80017cd6 <wake_up_tile_g7_reg+0x40017c7a>
80001594: 6f 72 20 53  	jal	tp, 0x80008ac6 <wake_up_tile_g7_reg+0x40008a6a>
80001598: 74 61        	<unknown>
8000159a: 74 65        	<unknown>
8000159c: 0a 00        	<unknown>
8000159e: 46 72        	<unknown>
800015a0: 65 65        	<unknown>
800015a2: 20 42        	<unknown>
800015a4: 6c 6f        	<unknown>
800015a6: 63 6b 20 61  	bltu	zero, s2, 0x80001bbc <wake_up_tile_g7_reg+0x40001b60>
800015aa: 74 20        	<unknown>
800015ac: 25 30        	<unknown>
800015ae: 38 58        	<unknown>
800015b0: 20 77        	<unknown>
800015b2: 69 74        	<unknown>
800015b4: 68 20        	<unknown>
800015b6: 73 69 7a 65  	csrrsi	s2, 1623, 20
800015ba: 20 25        	<unknown>
800015bc: 37 75 0a 00  	lui	a0, 167
800015c0: 42 6c        	<unknown>
800015c2: 6f 63 6b 20  	jal	t1, 0x800b77c8 <wake_up_tile_g7_reg+0x400b776c>
800015c6: 70 6f        	<unknown>
800015c8: 69 6e        	<unknown>
800015ca: 74 73        	<unknown>
800015cc: 20 74        	<unknown>
800015ce: 6f 20 69 74  	j	0x80093d14 <wake_up_tile_g7_reg+0x40093cb8>
800015d2: 73 65 6c 66  	csrrsi	a0, 1638, 24
800015d6: 21 20        	<unknown>
800015d8: 0a 00        	<unknown>
800015da: 00 00        	<unknown>
800015dc: e4 06        	<unknown>
800015de: 00 80        	<unknown>
800015e0: fc 06        	<unknown>
800015e2: 00 80        	<unknown>
800015e4: fc 06        	<unknown>
800015e6: 00 80        	<unknown>
800015e8: b8 06        	<unknown>
800015ea: 00 80        	<unknown>
800015ec: fc 06        	<unknown>
800015ee: 00 80        	<unknown>
800015f0: fc 06        	<unknown>
800015f2: 00 80        	<unknown>
800015f4: fc 06        	<unknown>
800015f6: 00 80        	<unknown>
800015f8: fc 06        	<unknown>
800015fa: 00 80        	<unknown>
800015fc: fc 06        	<unknown>
800015fe: 00 80        	<unknown>
80001600: fc 06        	<unknown>
80001602: 00 80        	<unknown>
80001604: fc 06        	<unknown>
80001606: 00 80        	<unknown>
80001608: ec 06        	<unknown>
8000160a: 00 80        	<unknown>
8000160c: fc 06        	<unknown>
8000160e: 00 80        	<unknown>
80001610: f4 06        	<unknown>
80001612: 00 80        	<unknown>
80001614: fc 06        	<unknown>
80001616: 00 80        	<unknown>
80001618: fc 06        	<unknown>
8000161a: 00 80        	<unknown>
8000161c: bc 06        	<unknown>
8000161e: 00 80        	<unknown>
80001620: 00 09        	<unknown>
80001622: 00 80        	<unknown>
80001624: 0c 09        	<unknown>
80001626: 00 80        	<unknown>
80001628: 0c 09        	<unknown>
8000162a: 00 80        	<unknown>
8000162c: 0c 09        	<unknown>
8000162e: 00 80        	<unknown>
80001630: 0c 09        	<unknown>
80001632: 00 80        	<unknown>
80001634: 0c 09        	<unknown>
80001636: 00 80        	<unknown>
80001638: 0c 09        	<unknown>
8000163a: 00 80        	<unknown>
8000163c: 0c 09        	<unknown>
8000163e: 00 80        	<unknown>
80001640: 0c 09        	<unknown>
80001642: 00 80        	<unknown>
80001644: 0c 09        	<unknown>
80001646: 00 80        	<unknown>
80001648: 0c 09        	<unknown>
8000164a: 00 80        	<unknown>
8000164c: 0c 09        	<unknown>
8000164e: 00 80        	<unknown>
80001650: 0c 09        	<unknown>
80001652: 00 80        	<unknown>
80001654: 0c 09        	<unknown>
80001656: 00 80        	<unknown>
80001658: 0c 09        	<unknown>
8000165a: 00 80        	<unknown>
8000165c: 0c 09        	<unknown>
8000165e: 00 80        	<unknown>
80001660: 0c 09        	<unknown>
80001662: 00 80        	<unknown>
80001664: 0c 09        	<unknown>
80001666: 00 80        	<unknown>
80001668: 0c 09        	<unknown>
8000166a: 00 80        	<unknown>
8000166c: 0c 09        	<unknown>
8000166e: 00 80        	<unknown>
80001670: 0c 09        	<unknown>
80001672: 00 80        	<unknown>
80001674: 0c 09        	<unknown>
80001676: 00 80        	<unknown>
80001678: 0c 09        	<unknown>
8000167a: 00 80        	<unknown>
8000167c: 0c 09        	<unknown>
8000167e: 00 80        	<unknown>
80001680: 0c 09        	<unknown>
80001682: 00 80        	<unknown>
80001684: 0c 09        	<unknown>
80001686: 00 80        	<unknown>
80001688: 0c 09        	<unknown>
8000168a: 00 80        	<unknown>
8000168c: 0c 09        	<unknown>
8000168e: 00 80        	<unknown>
80001690: 0c 09        	<unknown>
80001692: 00 80        	<unknown>
80001694: 0c 09        	<unknown>
80001696: 00 80        	<unknown>
80001698: 0c 09        	<unknown>
8000169a: 00 80        	<unknown>
8000169c: 0c 09        	<unknown>
8000169e: 00 80        	<unknown>
800016a0: 0c 09        	<unknown>
800016a2: 00 80        	<unknown>
800016a4: 0c 09        	<unknown>
800016a6: 00 80        	<unknown>
800016a8: 0c 09        	<unknown>
800016aa: 00 80        	<unknown>
800016ac: 0c 09        	<unknown>
800016ae: 00 80        	<unknown>
800016b0: 0c 09        	<unknown>
800016b2: 00 80        	<unknown>
800016b4: 0c 09        	<unknown>
800016b6: 00 80        	<unknown>
800016b8: 0c 09        	<unknown>
800016ba: 00 80        	<unknown>
800016bc: 0c 09        	<unknown>
800016be: 00 80        	<unknown>
800016c0: 0c 09        	<unknown>
800016c2: 00 80        	<unknown>
800016c4: 0c 09        	<unknown>
800016c6: 00 80        	<unknown>
800016c8: 0c 09        	<unknown>
800016ca: 00 80        	<unknown>
800016cc: 0c 09        	<unknown>
800016ce: 00 80        	<unknown>
800016d0: 0c 09        	<unknown>
800016d2: 00 80        	<unknown>
800016d4: 0c 09        	<unknown>
800016d6: 00 80        	<unknown>
800016d8: 0c 09        	<unknown>
800016da: 00 80        	<unknown>
800016dc: 0c 09        	<unknown>
800016de: 00 80        	<unknown>
800016e0: 0c 09        	<unknown>
800016e2: 00 80        	<unknown>
800016e4: 0c 09        	<unknown>
800016e6: 00 80        	<unknown>
800016e8: 0c 09        	<unknown>
800016ea: 00 80        	<unknown>
800016ec: c4 08        	<unknown>
800016ee: 00 80        	<unknown>
800016f0: 0c 09        	<unknown>
800016f2: 00 80        	<unknown>
800016f4: 0c 09        	<unknown>
800016f6: 00 80        	<unknown>
800016f8: 0c 09        	<unknown>
800016fa: 00 80        	<unknown>
800016fc: 0c 09        	<unknown>
800016fe: 00 80        	<unknown>
80001700: 0c 09        	<unknown>
80001702: 00 80        	<unknown>
80001704: 0c 09        	<unknown>
80001706: 00 80        	<unknown>
80001708: 0c 09        	<unknown>
8000170a: 00 80        	<unknown>
8000170c: 0c 09        	<unknown>
8000170e: 00 80        	<unknown>
80001710: 0c 09        	<unknown>
80001712: 00 80        	<unknown>
80001714: 28 09        	<unknown>
80001716: 00 80        	<unknown>
80001718: e0 09        	<unknown>
8000171a: 00 80        	<unknown>
8000171c: bc 08        	<unknown>
8000171e: 00 80        	<unknown>
80001720: 0c 09        	<unknown>
80001722: 00 80        	<unknown>
80001724: 0c 09        	<unknown>
80001726: 00 80        	<unknown>
80001728: 0c 09        	<unknown>
8000172a: 00 80        	<unknown>
8000172c: 0c 09        	<unknown>
8000172e: 00 80        	<unknown>
80001730: bc 08        	<unknown>
80001732: 00 80        	<unknown>
80001734: 0c 09        	<unknown>
80001736: 00 80        	<unknown>
80001738: 0c 09        	<unknown>
8000173a: 00 80        	<unknown>
8000173c: 0c 09        	<unknown>
8000173e: 00 80        	<unknown>
80001740: 0c 09        	<unknown>
80001742: 00 80        	<unknown>
80001744: 0c 09        	<unknown>
80001746: 00 80        	<unknown>
80001748: 2c 09        	<unknown>
8000174a: 00 80        	<unknown>
8000174c: 30 0a        	<unknown>
8000174e: 00 80        	<unknown>
80001750: 0c 09        	<unknown>
80001752: 00 80        	<unknown>
80001754: 0c 09        	<unknown>
80001756: 00 80        	<unknown>
80001758: 64 0a        	<unknown>
8000175a: 00 80        	<unknown>
8000175c: 0c 09        	<unknown>
8000175e: 00 80        	<unknown>
80001760: bc 08        	<unknown>
80001762: 00 80        	<unknown>
80001764: 0c 09        	<unknown>
80001766: 00 80        	<unknown>
80001768: 0c 09        	<unknown>
8000176a: 00 80        	<unknown>
8000176c: c4 08        	<unknown>
8000176e: 00 80        	<unknown>

Disassembly of section .rodata1:

80001770 <.rodata1>:
...

Disassembly of section .sbss:

80002000 <alloc_l1>:
...

Disassembly of section .l2:

80002004 <.l2>:
...

Disassembly of section .comment:

80002010 <.comment>:
80002010: 63 6c 61 6e  	bltu	sp, t1, 0x80002708 <.comment+0x6f8>
80002014: 67 20 76 65  	<unknown>
80002018: 72 73        	<unknown>
8000201a: 69 6f        	<unknown>
8000201c: 6e 20        	<unknown>
8000201e: 31 34        	<unknown>
80002020: 2e 30        	<unknown>
80002022: 2e 36        	<unknown>
80002024: 20 28        	<unknown>
80002026: 68 74        	<unknown>
80002028: 74 70        	<unknown>
8000202a: 73 3a 2f 2f  	csrrc	s4, 754, t5
8000202e: 67 69 74 68  	<unknown>
80002032: 75 62        	<unknown>
80002034: 2e 63        	<unknown>
80002036: 6f 6d 2f 70  	jal	s10, 0x800f8738 <.comment+0xf6728>
8000203a: 75 6c        	<unknown>
8000203c: 70 2d        	<unknown>
8000203e: 70 6c        	<unknown>
80002040: 61 74        	<unknown>
80002042: 66 6f        	<unknown>
80002044: 72 6d        	<unknown>
80002046: 2f 73 6e 69  	<unknown>
8000204a: 74 63        	<unknown>
8000204c: 68 2d        	<unknown>
8000204e: 6c 6c        	<unknown>
80002050: 76 6d        	<unknown>
80002052: 2e 67        	<unknown>
80002054: 69 74        	<unknown>
80002056: 20 30        	<unknown>
80002058: 31 63        	<unknown>
8000205a: 35 39        	<unknown>
8000205c: 38 30        	<unknown>
8000205e: 31 35        	<unknown>
80002060: 32 61        	<unknown>
80002062: 33 65 39 38  	<unknown>
80002066: 35 61        	<unknown>
80002068: 65 32        	<unknown>
8000206a: 62 31        	<unknown>
8000206c: 39 66        	<unknown>
8000206e: 66 61        	<unknown>
80002070: 34 31        	<unknown>
80002072: 64 34        	<unknown>
80002074: 65 66        	<unknown>
80002076: 37 63 36 38  	lui	t1, 230246
8000207a: 37 36 66 63  	lui	a2, 407139
8000207e: 31 29        	<unknown>
80002080: 00           	<unknown>

Disassembly of section .riscv.attributes:

00000000 <.riscv.attributes>:
       0: 41 a0        	<unknown>
       2: 00 00        	<unknown>
       4: 00 72        	<unknown>
       6: 69 73        	<unknown>
       8: 63 76 00 01  	bgeu	zero, a6, 0x14 <__l1_start+0x14>
       c: 96 00        	<unknown>
       e: 00 00        	<unknown>
      10: 04 10        	<unknown>
      12: 05 72        	<unknown>
      14: 76 33        	<unknown>
      16: 32 69        	<unknown>
      18: 32 70        	<unknown>
      1a: 30 5f        	<unknown>
      1c: 6d 32        	<unknown>
      1e: 70 30        	<unknown>
      20: 5f 61 32 70  	<unknown>
      24: 30 5f        	<unknown>
      26: 7a 65        	<unknown>
      28: 78 70        	<unknown>
      2a: 61 75        	<unknown>
      2c: 78 76        	<unknown>
      2e: 65 63        	<unknown>
      30: 68 61        	<unknown>
      32: 6c 66        	<unknown>
      34: 69 6e        	<unknown>
      36: 78 31        	<unknown>
      38: 70 30        	<unknown>
      3a: 5f 7a 65 78  	<unknown>
      3e: 70 61        	<unknown>
      40: 75 78        	<unknown>
      42: 76 65        	<unknown>
      44: 63 71 75 61  	bgeu	a0, s7, 0x646 <__l1_start+0x646>
      48: 72 74        	<unknown>
      4a: 65 72        	<unknown>
      4c: 69 6e        	<unknown>
      4e: 78 31        	<unknown>
      50: 70 30        	<unknown>
      52: 5f 7a 66 69  	<unknown>
      56: 6e 78        	<unknown>
      58: 31 70        	<unknown>
      5a: 30 5f        	<unknown>
      5c: 7a 71        	<unknown>
      5e: 75 61        	<unknown>
      60: 72 74        	<unknown>
      62: 65 72        	<unknown>
      64: 69 6e        	<unknown>
      66: 78 31        	<unknown>
      68: 70 30        	<unknown>
      6a: 5f 7a 76 65  	<unknown>
      6e: 63 68 61 6c  	bltu	sp, t1, 0x73e <__l1_start+0x73e>
      72: 66 69        	<unknown>
      74: 6e 78        	<unknown>
      76: 31 70        	<unknown>
      78: 30 5f        	<unknown>
      7a: 7a 76        	<unknown>
      7c: 65 63        	<unknown>
      7e: 71 75        	<unknown>
      80: 61 72        	<unknown>
      82: 74 65        	<unknown>
      84: 72 69        	<unknown>
      86: 6e 78        	<unknown>
      88: 31 70        	<unknown>
      8a: 30 5f        	<unknown>
      8c: 7a 68        	<unknown>
      8e: 69 6e        	<unknown>
      90: 78 31        	<unknown>
      92: 70 30        	<unknown>
      94: 5f 78 6d 65  	<unknown>
      98: 6d 70        	<unknown>
      9a: 6f 6f 6c 30  	jal	t5, 0xc63a0 <__l1_alloc_base+0xa3aa0>
      9e: 70 31        	<unknown>
      a0: 00 41        	<unknown>
      a2: a0 00        	<unknown>
      a4: 00 00        	<unknown>
      a6: 72 69        	<unknown>
      a8: 73 63 76 00  	csrrsi	t1, 7, 12
      ac: 01 96        	<unknown>
      ae: 00 00        	<unknown>
      b0: 00 04        	<unknown>
      b2: 10 05        	<unknown>
      b4: 72 76        	<unknown>
      b6: 33 32 69 32  	<unknown>
      ba: 70 30        	<unknown>
      bc: 5f 6d 32 70  	<unknown>
      c0: 30 5f        	<unknown>
      c2: 61 32        	<unknown>
      c4: 70 30        	<unknown>
      c6: 5f 7a 65 78  	<unknown>
      ca: 70 61        	<unknown>
      cc: 75 78        	<unknown>
      ce: 76 65        	<unknown>
      d0: 63 68 61 6c  	bltu	sp, t1, 0x7a0 <__l1_start+0x7a0>
      d4: 66 69        	<unknown>
      d6: 6e 78        	<unknown>
      d8: 31 70        	<unknown>
      da: 30 5f        	<unknown>
      dc: 7a 65        	<unknown>
      de: 78 70        	<unknown>
      e0: 61 75        	<unknown>
      e2: 78 76        	<unknown>
      e4: 65 63        	<unknown>
      e6: 71 75        	<unknown>
      e8: 61 72        	<unknown>
      ea: 74 65        	<unknown>
      ec: 72 69        	<unknown>
      ee: 6e 78        	<unknown>
      f0: 31 70        	<unknown>
      f2: 30 5f        	<unknown>
      f4: 7a 66        	<unknown>
      f6: 69 6e        	<unknown>
      f8: 78 31        	<unknown>
      fa: 70 30        	<unknown>
      fc: 5f 7a 71 75  	<unknown>
     100: 61 72        	<unknown>
     102: 74 65        	<unknown>
     104: 72 69        	<unknown>
     106: 6e 78        	<unknown>
     108: 31 70        	<unknown>
     10a: 30 5f        	<unknown>
     10c: 7a 76        	<unknown>
     10e: 65 63        	<unknown>
     110: 68 61        	<unknown>
     112: 6c 66        	<unknown>
     114: 69 6e        	<unknown>
     116: 78 31        	<unknown>
     118: 70 30        	<unknown>
     11a: 5f 7a 76 65  	<unknown>
     11e: 63 71 75 61  	bgeu	a0, s7, 0x720 <__l1_start+0x720>
     122: 72 74        	<unknown>
     124: 65 72        	<unknown>
     126: 69 6e        	<unknown>
     128: 78 31        	<unknown>
     12a: 70 30        	<unknown>
     12c: 5f 7a 68 69  	<unknown>
     130: 6e 78        	<unknown>
     132: 31 70        	<unknown>
     134: 30 5f        	<unknown>
     136: 78 6d        	<unknown>
     138: 65 6d        	<unknown>
     13a: 70 6f        	<unknown>
     13c: 6f 6c 30 70  	jal	s8, 0x703e <__l1_start+0x703e>
     140: 31 00        	<unknown>
     142: 41 a0        	<unknown>
     144: 00 00        	<unknown>
     146: 00 72        	<unknown>
     148: 69 73        	<unknown>
     14a: 63 76 00 01  	bgeu	zero, a6, 0x156 <__l1_start+0x156>
     14e: 96 00        	<unknown>
     150: 00 00        	<unknown>
     152: 04 10        	<unknown>
     154: 05 72        	<unknown>
     156: 76 33        	<unknown>
     158: 32 69        	<unknown>
     15a: 32 70        	<unknown>
     15c: 30 5f        	<unknown>
     15e: 6d 32        	<unknown>
     160: 70 30        	<unknown>
     162: 5f 61 32 70  	<unknown>
     166: 30 5f        	<unknown>
     168: 7a 65        	<unknown>
     16a: 78 70        	<unknown>
     16c: 61 75        	<unknown>
     16e: 78 76        	<unknown>
     170: 65 63        	<unknown>
     172: 68 61        	<unknown>
     174: 6c 66        	<unknown>
     176: 69 6e        	<unknown>
     178: 78 31        	<unknown>
     17a: 70 30        	<unknown>
     17c: 5f 7a 65 78  	<unknown>
     180: 70 61        	<unknown>
     182: 75 78        	<unknown>
     184: 76 65        	<unknown>
     186: 63 71 75 61  	bgeu	a0, s7, 0x788 <__l1_start+0x788>
     18a: 72 74        	<unknown>
     18c: 65 72        	<unknown>
     18e: 69 6e        	<unknown>
     190: 78 31        	<unknown>
     192: 70 30        	<unknown>
     194: 5f 7a 66 69  	<unknown>
     198: 6e 78        	<unknown>
     19a: 31 70        	<unknown>
     19c: 30 5f        	<unknown>
     19e: 7a 71        	<unknown>
     1a0: 75 61        	<unknown>
     1a2: 72 74        	<unknown>
     1a4: 65 72        	<unknown>
     1a6: 69 6e        	<unknown>
     1a8: 78 31        	<unknown>
     1aa: 70 30        	<unknown>
     1ac: 5f 7a 76 65  	<unknown>
     1b0: 63 68 61 6c  	bltu	sp, t1, 0x880 <__l1_start+0x880>
     1b4: 66 69        	<unknown>
     1b6: 6e 78        	<unknown>
     1b8: 31 70        	<unknown>
     1ba: 30 5f        	<unknown>
     1bc: 7a 76        	<unknown>
     1be: 65 63        	<unknown>
     1c0: 71 75        	<unknown>
     1c2: 61 72        	<unknown>
     1c4: 74 65        	<unknown>
     1c6: 72 69        	<unknown>
     1c8: 6e 78        	<unknown>
     1ca: 31 70        	<unknown>
     1cc: 30 5f        	<unknown>
     1ce: 7a 68        	<unknown>
     1d0: 69 6e        	<unknown>
     1d2: 78 31        	<unknown>
     1d4: 70 30        	<unknown>
     1d6: 5f 78 6d 65  	<unknown>
     1da: 6d 70        	<unknown>
     1dc: 6f 6f 6c 30  	jal	t5, 0xc64e2 <__l1_alloc_base+0xa3be2>
     1e0: 70 31        	<unknown>
     1e2: 00 41        	<unknown>
     1e4: a0 00        	<unknown>
     1e6: 00 00        	<unknown>
     1e8: 72 69        	<unknown>
     1ea: 73 63 76 00  	csrrsi	t1, 7, 12
     1ee: 01 96        	<unknown>
     1f0: 00 00        	<unknown>
     1f2: 00 04        	<unknown>
     1f4: 10 05        	<unknown>
     1f6: 72 76        	<unknown>
     1f8: 33 32 69 32  	<unknown>
     1fc: 70 30        	<unknown>
     1fe: 5f 6d 32 70  	<unknown>
     202: 30 5f        	<unknown>
     204: 61 32        	<unknown>
     206: 70 30        	<unknown>
     208: 5f 7a 65 78  	<unknown>
     20c: 70 61        	<unknown>
     20e: 75 78        	<unknown>
     210: 76 65        	<unknown>
     212: 63 68 61 6c  	bltu	sp, t1, 0x8e2 <__l1_start+0x8e2>
     216: 66 69        	<unknown>
     218: 6e 78        	<unknown>
     21a: 31 70        	<unknown>
     21c: 30 5f        	<unknown>
     21e: 7a 65        	<unknown>
     220: 78 70        	<unknown>
     222: 61 75        	<unknown>
     224: 78 76        	<unknown>
     226: 65 63        	<unknown>
     228: 71 75        	<unknown>
     22a: 61 72        	<unknown>
     22c: 74 65        	<unknown>
     22e: 72 69        	<unknown>
     230: 6e 78        	<unknown>
     232: 31 70        	<unknown>
     234: 30 5f        	<unknown>
     236: 7a 66        	<unknown>
     238: 69 6e        	<unknown>
     23a: 78 31        	<unknown>
     23c: 70 30        	<unknown>
     23e: 5f 7a 71 75  	<unknown>
     242: 61 72        	<unknown>
     244: 74 65        	<unknown>
     246: 72 69        	<unknown>
     248: 6e 78        	<unknown>
     24a: 31 70        	<unknown>
     24c: 30 5f        	<unknown>
     24e: 7a 76        	<unknown>
     250: 65 63        	<unknown>
     252: 68 61        	<unknown>
     254: 6c 66        	<unknown>
     256: 69 6e        	<unknown>
     258: 78 31        	<unknown>
     25a: 70 30        	<unknown>
     25c: 5f 7a 76 65  	<unknown>
     260: 63 71 75 61  	bgeu	a0, s7, 0x862 <__l1_start+0x862>
     264: 72 74        	<unknown>
     266: 65 72        	<unknown>
     268: 69 6e        	<unknown>
     26a: 78 31        	<unknown>
     26c: 70 30        	<unknown>
     26e: 5f 7a 68 69  	<unknown>
     272: 6e 78        	<unknown>
     274: 31 70        	<unknown>
     276: 30 5f        	<unknown>
     278: 78 6d        	<unknown>
     27a: 65 6d        	<unknown>
     27c: 70 6f        	<unknown>
     27e: 6f 6c 30 70  	jal	s8, 0x7180 <__l1_start+0x7180>
     282: 31 00        	<unknown>
     284: 41 a0        	<unknown>
     286: 00 00        	<unknown>
     288: 00 72        	<unknown>
     28a: 69 73        	<unknown>
     28c: 63 76 00 01  	bgeu	zero, a6, 0x298 <__l1_start+0x298>
     290: 96 00        	<unknown>
     292: 00 00        	<unknown>
     294: 04 10        	<unknown>
     296: 05 72        	<unknown>
     298: 76 33        	<unknown>
     29a: 32 69        	<unknown>
     29c: 32 70        	<unknown>
     29e: 30 5f        	<unknown>
     2a0: 6d 32        	<unknown>
     2a2: 70 30        	<unknown>
     2a4: 5f 61 32 70  	<unknown>
     2a8: 30 5f        	<unknown>
     2aa: 7a 65        	<unknown>
     2ac: 78 70        	<unknown>
     2ae: 61 75        	<unknown>
     2b0: 78 76        	<unknown>
     2b2: 65 63        	<unknown>
     2b4: 68 61        	<unknown>
     2b6: 6c 66        	<unknown>
     2b8: 69 6e        	<unknown>
     2ba: 78 31        	<unknown>
     2bc: 70 30        	<unknown>
     2be: 5f 7a 65 78  	<unknown>
     2c2: 70 61        	<unknown>
     2c4: 75 78        	<unknown>
     2c6: 76 65        	<unknown>
     2c8: 63 71 75 61  	bgeu	a0, s7, 0x8ca <__l1_start+0x8ca>
     2cc: 72 74        	<unknown>
     2ce: 65 72        	<unknown>
     2d0: 69 6e        	<unknown>
     2d2: 78 31        	<unknown>
     2d4: 70 30        	<unknown>
     2d6: 5f 7a 66 69  	<unknown>
     2da: 6e 78        	<unknown>
     2dc: 31 70        	<unknown>
     2de: 30 5f        	<unknown>
     2e0: 7a 71        	<unknown>
     2e2: 75 61        	<unknown>
     2e4: 72 74        	<unknown>
     2e6: 65 72        	<unknown>
     2e8: 69 6e        	<unknown>
     2ea: 78 31        	<unknown>
     2ec: 70 30        	<unknown>
     2ee: 5f 7a 76 65  	<unknown>
     2f2: 63 68 61 6c  	bltu	sp, t1, 0x9c2 <__l1_start+0x9c2>
     2f6: 66 69        	<unknown>
     2f8: 6e 78        	<unknown>
     2fa: 31 70        	<unknown>
     2fc: 30 5f        	<unknown>
     2fe: 7a 76        	<unknown>
     300: 65 63        	<unknown>
     302: 71 75        	<unknown>
     304: 61 72        	<unknown>
     306: 74 65        	<unknown>
     308: 72 69        	<unknown>
     30a: 6e 78        	<unknown>
     30c: 31 70        	<unknown>
     30e: 30 5f        	<unknown>
     310: 7a 68        	<unknown>
     312: 69 6e        	<unknown>
     314: 78 31        	<unknown>
     316: 70 30        	<unknown>
     318: 5f 78 6d 65  	<unknown>
     31c: 6d 70        	<unknown>
     31e: 6f 6f 6c 30  	jal	t5, 0xc6624 <__l1_alloc_base+0xa3d24>
     322: 70 31        	<unknown>
     324: 00 41        	<unknown>
     326: a0 00        	<unknown>
     328: 00 00        	<unknown>
     32a: 72 69        	<unknown>
     32c: 73 63 76 00  	csrrsi	t1, 7, 12
     330: 01 96        	<unknown>
     332: 00 00        	<unknown>
     334: 00 04        	<unknown>
     336: 10 05        	<unknown>
     338: 72 76        	<unknown>
     33a: 33 32 69 32  	<unknown>
     33e: 70 30        	<unknown>
     340: 5f 6d 32 70  	<unknown>
     344: 30 5f        	<unknown>
     346: 61 32        	<unknown>
     348: 70 30        	<unknown>
     34a: 5f 7a 65 78  	<unknown>
     34e: 70 61        	<unknown>
     350: 75 78        	<unknown>
     352: 76 65        	<unknown>
     354: 63 68 61 6c  	bltu	sp, t1, 0xa24 <__l1_start+0xa24>
     358: 66 69        	<unknown>
     35a: 6e 78        	<unknown>
     35c: 31 70        	<unknown>
     35e: 30 5f        	<unknown>
     360: 7a 65        	<unknown>
     362: 78 70        	<unknown>
     364: 61 75        	<unknown>
     366: 78 76        	<unknown>
     368: 65 63        	<unknown>
     36a: 71 75        	<unknown>
     36c: 61 72        	<unknown>
     36e: 74 65        	<unknown>
     370: 72 69        	<unknown>
     372: 6e 78        	<unknown>
     374: 31 70        	<unknown>
     376: 30 5f        	<unknown>
     378: 7a 66        	<unknown>
     37a: 69 6e        	<unknown>
     37c: 78 31        	<unknown>
     37e: 70 30        	<unknown>
     380: 5f 7a 71 75  	<unknown>
     384: 61 72        	<unknown>
     386: 74 65        	<unknown>
     388: 72 69        	<unknown>
     38a: 6e 78        	<unknown>
     38c: 31 70        	<unknown>
     38e: 30 5f        	<unknown>
     390: 7a 76        	<unknown>
     392: 65 63        	<unknown>
     394: 68 61        	<unknown>
     396: 6c 66        	<unknown>
     398: 69 6e        	<unknown>
     39a: 78 31        	<unknown>
     39c: 70 30        	<unknown>
     39e: 5f 7a 76 65  	<unknown>
     3a2: 63 71 75 61  	bgeu	a0, s7, 0x9a4 <__l1_start+0x9a4>
     3a6: 72 74        	<unknown>
     3a8: 65 72        	<unknown>
     3aa: 69 6e        	<unknown>
     3ac: 78 31        	<unknown>
     3ae: 70 30        	<unknown>
     3b0: 5f 7a 68 69  	<unknown>
     3b4: 6e 78        	<unknown>
     3b6: 31 70        	<unknown>
     3b8: 30 5f        	<unknown>
     3ba: 78 6d        	<unknown>
     3bc: 65 6d        	<unknown>
     3be: 70 6f        	<unknown>
     3c0: 6f 6c 30 70  	jal	s8, 0x72c2 <__l1_start+0x72c2>
     3c4: 31 00        	<unknown>

Disassembly of section .debug_loclists:

00000000 <.debug_loclists>:
       0: 2f 00 00 00  	<unknown>
       4: 05 00        	<unknown>
       6: 04 00        	<unknown>
       8: 03 00 00 00  	lb	zero, 0(zero)
       c: 0c 00        	<unknown>
       e: 00 00        	<unknown>
      10: 15 00        	<unknown>
      12: 00 00        	<unknown>
      14: 1b 00 00 00  	<unknown>
      18: 04 14        	<unknown>
      1a: 74 04        	<unknown>
      1c: 10 80        	<unknown>
      1e: 02 9f        	<unknown>
      20: 00 04        	<unknown>
      22: 14 2c        	<unknown>
      24: 01 58        	<unknown>
      26: 00 04        	<unknown>
      28: 24 50        	<unknown>
      2a: 02 30        	<unknown>
      2c: 9f 04 50 68  	<unknown>
      30: 01 58        	<unknown>
      32: 00 a0        	<unknown>
      34: 03 00 00 05  	lb	zero, 80(zero)
      38: 00 04        	<unknown>
      3a: 00 2f        	<unknown>
      3c: 00 00        	<unknown>
      3e: 00 bc        	<unknown>
      40: 00 00        	<unknown>
      42: 00 c2        	<unknown>
      44: 00 00        	<unknown>
      46: 00 c8        	<unknown>
      48: 00 00        	<unknown>
      4a: 00 ce        	<unknown>
      4c: 00 00        	<unknown>
      4e: 00 d4        	<unknown>
      50: 00 00        	<unknown>
      52: 00 e6        	<unknown>
      54: 00 00        	<unknown>
      56: 00 ec        	<unknown>
      58: 00 00        	<unknown>
      5a: 00 f4        	<unknown>
      5c: 00 00        	<unknown>
      5e: 00 07        	<unknown>
      60: 01 00        	<unknown>
      62: 00 14        	<unknown>
      64: 01 00        	<unknown>
      66: 00 22        	<unknown>
      68: 01 00        	<unknown>
      6a: 00 35        	<unknown>
      6c: 01 00        	<unknown>
      6e: 00 51        	<unknown>
      70: 01 00        	<unknown>
      72: 00 5f        	<unknown>
      74: 01 00        	<unknown>
      76: 00 67        	<unknown>
      78: 01 00        	<unknown>
      7a: 00 6f        	<unknown>
      7c: 01 00        	<unknown>
      7e: 00 77        	<unknown>
      80: 01 00        	<unknown>
      82: 00 7f        	<unknown>
      84: 01 00        	<unknown>
      86: 00 87        	<unknown>
      88: 01 00        	<unknown>
      8a: 00 91        	<unknown>
      8c: 01 00        	<unknown>
      8e: 00 a7        	<unknown>
      90: 01 00        	<unknown>
      92: 00 b6        	<unknown>
      94: 01 00        	<unknown>
      96: 00 cc        	<unknown>
      98: 01 00        	<unknown>
      9a: 00 eb        	<unknown>
      9c: 01 00        	<unknown>
      9e: 00 f3        	<unknown>
      a0: 01 00        	<unknown>
      a2: 00 fb        	<unknown>
      a4: 01 00        	<unknown>
      a6: 00 11        	<unknown>
      a8: 02 00        	<unknown>
      aa: 00 27        	<unknown>
      ac: 02 00        	<unknown>
      ae: 00 2f        	<unknown>
      b0: 02 00        	<unknown>
      b2: 00 64        	<unknown>
      b4: 02 00        	<unknown>
      b6: 00 7a        	<unknown>
      b8: 02 00        	<unknown>
      ba: 00 82        	<unknown>
      bc: 02 00        	<unknown>
      be: 00 91        	<unknown>
      c0: 02 00        	<unknown>
      c2: 00 a0        	<unknown>
      c4: 02 00        	<unknown>
      c6: 00 af        	<unknown>
      c8: 02 00        	<unknown>
      ca: 00 be        	<unknown>
      cc: 02 00        	<unknown>
      ce: 00 d4        	<unknown>
      d0: 02 00        	<unknown>
      d2: 00 ea        	<unknown>
      d4: 02 00        	<unknown>
      d6: 00 f2        	<unknown>
      d8: 02 00        	<unknown>
      da: 00 27        	<unknown>
      dc: 03 00 00 3d  	lb	zero, 976(zero)
      e0: 03 00 00 45  	lb	zero, 1104(zero)
      e4: 03 00 00 54  	lb	zero, 1344(zero)
      e8: 03 00 00 63  	lb	zero, 1584(zero)
      ec: 03 00 00 72  	lb	zero, 1824(zero)
      f0: 03 00 00 7a  	lb	zero, 1952(zero)
      f4: 03 00 00 90  	lb	zero, -1792(zero)
      f8: 03 00 00 04  	lb	zero, 64(zero)
      fc: 00 0c        	<unknown>
      fe: 01 5b        	<unknown>
     100: 00 04        	<unknown>
     102: 08 28        	<unknown>
     104: 01 5d        	<unknown>
     106: 00 04        	<unknown>
     108: 08 28        	<unknown>
     10a: 01 5d        	<unknown>
     10c: 00 04        	<unknown>
     10e: 10 1c        	<unknown>
     110: 01 5b        	<unknown>
     112: 00 04        	<unknown>
     114: 28 44        	<unknown>
     116: 01 5a        	<unknown>
     118: 04 60        	<unknown>
     11a: 70 01        	<unknown>
     11c: 5a 04        	<unknown>
     11e: b4 01        	<unknown>
     120: e0 01        	<unknown>
     122: 01 5a        	<unknown>
     124: 00 04        	<unknown>
     126: 28 34        	<unknown>
     128: 01 5b        	<unknown>
     12a: 00 04        	<unknown>
     12c: 30 34        	<unknown>
     12e: 03 7b 04 9f  	<unknown>
     132: 00 04        	<unknown>
     134: 38 50        	<unknown>
     136: 01 5b        	<unknown>
     138: 04 60        	<unknown>
     13a: a4 01        	<unknown>
     13c: 01 5b        	<unknown>
     13e: 04 b4        	<unknown>
     140: 01 80        	<unknown>
     142: 02 01        	<unknown>
     144: 5b 00 04 60  	<unknown>
     148: 70 01        	<unknown>
     14a: 5a 04        	<unknown>
     14c: b4 01        	<unknown>
     14e: e0 01        	<unknown>
     150: 01 5a        	<unknown>
     152: 00 04        	<unknown>
     154: 60 94        	<unknown>
     156: 01 01        	<unknown>
     158: 5b 04 b4 01  	<unknown>
     15c: f8 01        	<unknown>
     15e: 01 5b        	<unknown>
     160: 00 04        	<unknown>
     162: 64 74        	<unknown>
     164: 01 5c        	<unknown>
     166: 04 78        	<unknown>
     168: 94 01        	<unknown>
     16a: 01 5c        	<unknown>
     16c: 04 b4        	<unknown>
     16e: 01 f8        	<unknown>
     170: 01 01        	<unknown>
     172: 5c 00        	<unknown>
     174: 04 60        	<unknown>
     176: 70 02        	<unknown>
     178: 30 9f        	<unknown>
     17a: 04 74        	<unknown>
     17c: 94 01        	<unknown>
     17e: 01 5a        	<unknown>
     180: 04 b4        	<unknown>
     182: 01 e0        	<unknown>
     184: 01 02        	<unknown>
     186: 30 9f        	<unknown>
     188: 04 e0        	<unknown>
     18a: 01 f8        	<unknown>
     18c: 01 01        	<unknown>
     18e: 5a 00        	<unknown>
     190: 04 78        	<unknown>
     192: 94 01        	<unknown>
     194: 01 5c        	<unknown>
     196: 04 e0        	<unknown>
     198: 01 f8        	<unknown>
     19a: 01 01        	<unknown>
     19c: 5c 00        	<unknown>
     19e: 04 e4        	<unknown>
     1a0: 01 f8        	<unknown>
     1a2: 01 01        	<unknown>
     1a4: 5e 00        	<unknown>
     1a6: 04 f8        	<unknown>
     1a8: 01 80        	<unknown>
     1aa: 02 01        	<unknown>
     1ac: 5b 00 04 8c  	<unknown>
     1b0: 02 98        	<unknown>
     1b2: 02 01        	<unknown>
     1b4: 5a 00        	<unknown>
     1b6: 04 98        	<unknown>
     1b8: 02 a4        	<unknown>
     1ba: 02 01        	<unknown>
     1bc: 5a 00        	<unknown>
     1be: 04 98        	<unknown>
     1c0: 02 a4        	<unknown>
     1c2: 02 01        	<unknown>
     1c4: 5a 00        	<unknown>
     1c6: 04 a0        	<unknown>
     1c8: 02 a4        	<unknown>
     1ca: 02 03        	<unknown>
     1cc: 7a 04        	<unknown>
     1ce: 9f 00 04 a8  	<unknown>
     1d2: 02 c0        	<unknown>
     1d4: 02 01        	<unknown>
     1d6: 5b 04 d0 02  	<unknown>
     1da: 98 03        	<unknown>
     1dc: 01 5b        	<unknown>
     1de: 04 a8        	<unknown>
     1e0: 03 f8 03 01  	p.lb	a6, a6(t2)
     1e4: 5b 00 04 d0  	<unknown>
     1e8: 02 88        	<unknown>
     1ea: 03 01 5b 04  	lb	sp, 69(s6)
     1ee: a8 03        	<unknown>
     1f0: f4 03        	<unknown>
     1f2: 01 5b        	<unknown>
     1f4: 00 04        	<unknown>
     1f6: d8 02        	<unknown>
     1f8: e8 02        	<unknown>
     1fa: 01 5a        	<unknown>
     1fc: 04 ec        	<unknown>
     1fe: 02 88        	<unknown>
     200: 03 01 5a 04  	lb	sp, 69(s4)
     204: a8 03        	<unknown>
     206: f4 03        	<unknown>
     208: 01 5a        	<unknown>
     20a: 00 04        	<unknown>
     20c: d0 02        	<unknown>
     20e: e4 02        	<unknown>
     210: 02 30        	<unknown>
     212: 9f 04 e8 02  	<unknown>
     216: 88 03        	<unknown>
     218: 01 5c        	<unknown>
     21a: 04 a8        	<unknown>
     21c: 03 dc 03 02  	lhu	s8, 32(t2)
     220: 30 9f        	<unknown>
     222: 04 dc        	<unknown>
     224: 03 f4 03 01  	p.lb	s0, a6(t2)
     228: 5c 00        	<unknown>
     22a: 04 e0        	<unknown>
     22c: 03 f4 03 01  	p.lb	s0, a6(t2)
     230: 5e 00        	<unknown>
     232: 04 f4        	<unknown>
     234: 03 f8 03 01  	p.lb	a6, a6(t2)
     238: 5b 00 04 94  	<unknown>
     23c: 04 ec        	<unknown>
     23e: 04 01        	<unknown>
     240: 5a 04        	<unknown>
     242: fc 04        	<unknown>
     244: 80 05        	<unknown>
     246: 01 5a        	<unknown>
     248: 04 8c        	<unknown>
     24a: 05 ac        	<unknown>
     24c: 05 01        	<unknown>
     24e: 5a 00        	<unknown>
     250: 04 94        	<unknown>
     252: 04 98        	<unknown>
     254: 04 01        	<unknown>
     256: 5b 04 98 04  	<unknown>
     25a: f0 04        	<unknown>
     25c: 01 5c        	<unknown>
     25e: 04 fc        	<unknown>
     260: 04 ac        	<unknown>
     262: 05 01        	<unknown>
     264: 5c 00        	<unknown>
     266: 04 9c        	<unknown>
     268: 04 bc        	<unknown>
     26a: 05 01        	<unknown>
     26c: 5b 00 04 a0  	<unknown>
     270: 04 b4        	<unknown>
     272: 04 0b        	<unknown>
     274: 93 04 7e 00  	addi	s1, t3, 7
     278: 10 ff        	<unknown>
     27a: 01 1a        	<unknown>
     27c: 9f 93 04 04  	<unknown>
     280: b4 04        	<unknown>
     282: e8 04        	<unknown>
     284: 03 5e 93 04  	lhu	t3, 73(t1)
     288: 04 fc        	<unknown>
     28a: 04 8c        	<unknown>
     28c: 05 0b        	<unknown>
     28e: 93 04 7e 00  	addi	s1, t3, 7
     292: 10 ff        	<unknown>
     294: 01 1a        	<unknown>
     296: 9f 93 04 04  	<unknown>
     29a: 8c 05        	<unknown>
     29c: 94 05        	<unknown>
     29e: 03 5e 93 04  	lhu	t3, 73(t1)
     2a2: 00 04        	<unknown>
     2a4: c0 04        	<unknown>
     2a6: cc 04        	<unknown>
     2a8: 01 5f        	<unknown>
     2aa: 04 cc        	<unknown>
     2ac: 04 e8        	<unknown>
     2ae: 04 01        	<unknown>
     2b0: 5d 04        	<unknown>
     2b2: 8c 05        	<unknown>
     2b4: 9c 05        	<unknown>
     2b6: 01 5d        	<unknown>
     2b8: 00 04        	<unknown>
     2ba: c0 04        	<unknown>
     2bc: d0 04        	<unknown>
     2be: 01 5d        	<unknown>
     2c0: 00 04        	<unknown>
     2c2: b8 04        	<unknown>
     2c4: fc 04        	<unknown>
     2c6: 01 5b        	<unknown>
     2c8: 04 8c        	<unknown>
     2ca: 05 bc        	<unknown>
     2cc: 05 01        	<unknown>
     2ce: 5b 00 04 b8  	<unknown>
     2d2: 04 e8        	<unknown>
     2d4: 04 01        	<unknown>
     2d6: 5e 04        	<unknown>
     2d8: 8c 05        	<unknown>
     2da: 94 05        	<unknown>
     2dc: 01 5e        	<unknown>
     2de: 00 04        	<unknown>
     2e0: b8 04        	<unknown>
     2e2: fc 04        	<unknown>
     2e4: 01 5b        	<unknown>
     2e6: 04 8c        	<unknown>
     2e8: 05 bc        	<unknown>
     2ea: 05 01        	<unknown>
     2ec: 5b 00 04 b8  	<unknown>
     2f0: 04 ec        	<unknown>
     2f2: 04 01        	<unknown>
     2f4: 5a 04        	<unknown>
     2f6: 8c 05        	<unknown>
     2f8: ac 05        	<unknown>
     2fa: 01 5a        	<unknown>
     2fc: 00 04        	<unknown>
     2fe: bc 05        	<unknown>
     300: 94 06        	<unknown>
     302: 01 5a        	<unknown>
     304: 04 a4        	<unknown>
     306: 06 a8        	<unknown>
     308: 06 01        	<unknown>
     30a: 5a 04        	<unknown>
     30c: b4 06        	<unknown>
     30e: d0 06        	<unknown>
     310: 01 5a        	<unknown>
     312: 00 04        	<unknown>
     314: bc 05        	<unknown>
     316: 94 06        	<unknown>
     318: 01 5a        	<unknown>
     31a: 04 a4        	<unknown>
     31c: 06 a8        	<unknown>
     31e: 06 01        	<unknown>
     320: 5a 04        	<unknown>
     322: b4 06        	<unknown>
     324: d0 06        	<unknown>
     326: 01 5a        	<unknown>
     328: 00 04        	<unknown>
     32a: c0 05        	<unknown>
     32c: e8 06        	<unknown>
     32e: 01 5b        	<unknown>
     330: 00 04        	<unknown>
     332: c4 05        	<unknown>
     334: d8 05        	<unknown>
     336: 0b 93 04 7d  	p.lh	t1, 2000(s1!)
     33a: 00 10        	<unknown>
     33c: ff 01 1a 9f  	<unknown>
     340: 93 04 04 e0  	addi	s1, s0, -512
     344: 05 90        	<unknown>
     346: 06 03        	<unknown>
     348: 5d 93        	<unknown>
     34a: 04 04        	<unknown>
     34c: a4 06        	<unknown>
     34e: b4 06        	<unknown>
     350: 0b 93 04 7d  	p.lh	t1, 2000(s1!)
     354: 00 10        	<unknown>
     356: ff 01 1a 9f  	<unknown>
     35a: 93 04 04 b4  	addi	s1, s0, -1216
     35e: 06 bc        	<unknown>
     360: 06 03        	<unknown>
     362: 5d 93        	<unknown>
     364: 04 00        	<unknown>
     366: 04 e8        	<unknown>
     368: 05 f4        	<unknown>
     36a: 05 01        	<unknown>
     36c: 5e 04        	<unknown>
     36e: f4 05        	<unknown>
     370: 90 06        	<unknown>
     372: 01 5c        	<unknown>
     374: 04 b4        	<unknown>
     376: 06 c4        	<unknown>
     378: 06 01        	<unknown>
     37a: 5c 00        	<unknown>
     37c: 04 e8        	<unknown>
     37e: 05 f8        	<unknown>
     380: 05 01        	<unknown>
     382: 5c 00        	<unknown>
     384: 04 e0        	<unknown>
     386: 05 a4        	<unknown>
     388: 06 01        	<unknown>
     38a: 5b 04 b4 06  	<unknown>
     38e: e8 06        	<unknown>
     390: 01 5b        	<unknown>
     392: 00 04        	<unknown>
     394: e0 05        	<unknown>
     396: 90 06        	<unknown>
     398: 01 5d        	<unknown>
     39a: 04 b4        	<unknown>
     39c: 06 bc        	<unknown>
     39e: 06 01        	<unknown>
     3a0: 5d 00        	<unknown>
     3a2: 04 e0        	<unknown>
     3a4: 05 a4        	<unknown>
     3a6: 06 01        	<unknown>
     3a8: 5b 04 b4 06  	<unknown>
     3ac: e8 06        	<unknown>
     3ae: 01 5b        	<unknown>
     3b0: 00 04        	<unknown>
     3b2: e8 06        	<unknown>
     3b4: 84 07        	<unknown>
     3b6: 01 5a        	<unknown>
     3b8: 00 04        	<unknown>
     3ba: 80 07        	<unknown>
     3bc: a0 07        	<unknown>
     3be: 01 62        	<unknown>
     3c0: 04 a0        	<unknown>
     3c2: 07 d0 07 01  	<unknown>
     3c6: 59 04        	<unknown>
     3c8: e0 07        	<unknown>
     3ca: f0 07        	<unknown>
     3cc: 01 62        	<unknown>
     3ce: 00 04        	<unknown>
     3d0: 84 08        	<unknown>
     3d2: 90 08        	<unknown>
     3d4: 01 5a        	<unknown>
     3d6: 00 7a        	<unknown>
     3d8: 08 00        	<unknown>
     3da: 00 05        	<unknown>
     3dc: 00 04        	<unknown>
     3de: 00 3f        	<unknown>
     3e0: 00 00        	<unknown>
     3e2: 00 fc        	<unknown>
     3e4: 00 00        	<unknown>
     3e6: 00 0c        	<unknown>
     3e8: 01 00        	<unknown>
     3ea: 00 12        	<unknown>
     3ec: 01 00        	<unknown>
     3ee: 00 2e        	<unknown>
     3f0: 01 00        	<unknown>
     3f2: 00 3c        	<unknown>
     3f4: 01 00        	<unknown>
     3f6: 00 4a        	<unknown>
     3f8: 01 00        	<unknown>
     3fa: 00 ca        	<unknown>
     3fc: 01 00        	<unknown>
     3fe: 00 f9        	<unknown>
     400: 02 00        	<unknown>
     402: 00 95        	<unknown>
     404: 03 00 00 ff  	lb	zero, -16(zero)
     408: 03 00 00 08  	lb	zero, 128(zero)
     40c: 04 00        	<unknown>
     40e: 00 53        	<unknown>
     410: 04 00        	<unknown>
     412: 00 96        	<unknown>
     414: 04 00        	<unknown>
     416: 00 9e        	<unknown>
     418: 04 00        	<unknown>
     41a: 00 a6        	<unknown>
     41c: 04 00        	<unknown>
     41e: 00 b6        	<unknown>
     420: 04 00        	<unknown>
     422: 00 be        	<unknown>
     424: 04 00        	<unknown>
     426: 00 e8        	<unknown>
     428: 04 00        	<unknown>
     42a: 00 02        	<unknown>
     42c: 05 00        	<unknown>
     42e: 00 18        	<unknown>
     430: 05 00        	<unknown>
     432: 00 20        	<unknown>
     434: 05 00        	<unknown>
     436: 00 57        	<unknown>
     438: 05 00        	<unknown>
     43a: 00 78        	<unknown>
     43c: 05 00        	<unknown>
     43e: 00 80        	<unknown>
     440: 05 00        	<unknown>
     442: 00 88        	<unknown>
     444: 05 00        	<unknown>
     446: 00 97        	<unknown>
     448: 05 00        	<unknown>
     44a: 00 ad        	<unknown>
     44c: 05 00        	<unknown>
     44e: 00 b5        	<unknown>
     450: 05 00        	<unknown>
     452: 00 bd        	<unknown>
     454: 05 00        	<unknown>
     456: 00 cc        	<unknown>
     458: 05 00        	<unknown>
     45a: 00 db        	<unknown>
     45c: 05 00        	<unknown>
     45e: 00 f1        	<unknown>
     460: 05 00        	<unknown>
     462: 00 f9        	<unknown>
     464: 05 00        	<unknown>
     466: 00 08        	<unknown>
     468: 06 00        	<unknown>
     46a: 00 17        	<unknown>
     46c: 06 00        	<unknown>
     46e: 00 26        	<unknown>
     470: 06 00        	<unknown>
     472: 00 35        	<unknown>
     474: 06 00        	<unknown>
     476: 00 3d        	<unknown>
     478: 06 00        	<unknown>
     47a: 00 45        	<unknown>
     47c: 06 00        	<unknown>
     47e: 00 5b        	<unknown>
     480: 06 00        	<unknown>
     482: 00 63        	<unknown>
     484: 06 00        	<unknown>
     486: 00 72        	<unknown>
     488: 06 00        	<unknown>
     48a: 00 81        	<unknown>
     48c: 06 00        	<unknown>
     48e: 00 90        	<unknown>
     490: 06 00        	<unknown>
     492: 00 a6        	<unknown>
     494: 06 00        	<unknown>
     496: 00 b5        	<unknown>
     498: 06 00        	<unknown>
     49a: 00 cb        	<unknown>
     49c: 06 00        	<unknown>
     49e: 00 df        	<unknown>
     4a0: 06 00        	<unknown>
     4a2: 00 e7        	<unknown>
     4a4: 06 00        	<unknown>
     4a6: 00 ef        	<unknown>
     4a8: 06 00        	<unknown>
     4aa: 00 05        	<unknown>
     4ac: 07 00 00 0d  	flb	ft0, 208(zero)
     4b0: 07 00 00 39  	flb	ft0, 912(zero)
     4b4: 07 00 00 6b  	flb	ft0, 1712(zero)
     4b8: 07 00 00 c0  	flb	ft0, -1024(zero)
     4bc: 07 00 00 d4  	flb	ft0, -704(zero)
     4c0: 07 00 00 dc  	flb	ft0, -576(zero)
     4c4: 07 00 00 e4  	flb	ft0, -448(zero)
     4c8: 07 00 00 f3  	flb	ft0, -208(zero)
     4cc: 07 00 00 fb  	flb	ft0, -80(zero)
     4d0: 07 00 00 03  	flb	ft0, 48(zero)
     4d4: 08 00        	<unknown>
     4d6: 00 0d        	<unknown>
     4d8: 08 00        	<unknown>
     4da: 00 48        	<unknown>
     4dc: 08 00        	<unknown>
     4de: 00 04        	<unknown>
     4e0: 00 0c        	<unknown>
     4e2: 01 5a        	<unknown>
     4e4: 04 0c        	<unknown>
     4e6: 48 01        	<unknown>
     4e8: 55 04        	<unknown>
     4ea: 48 50        	<unknown>
     4ec: 01 5d        	<unknown>
     4ee: 00 04        	<unknown>
     4f0: 50 5c        	<unknown>
     4f2: 01 5a        	<unknown>
     4f4: 00 04        	<unknown>
     4f6: 5c ac        	<unknown>
     4f8: 01 01        	<unknown>
     4fa: 5a 04        	<unknown>
     4fc: ac 01        	<unknown>
     4fe: b0 01        	<unknown>
     500: 01 62        	<unknown>
     502: 04 b0        	<unknown>
     504: 01 b4        	<unknown>
     506: 01 01        	<unknown>
     508: 5a 04        	<unknown>
     50a: b8 01        	<unknown>
     50c: 8c 0f        	<unknown>
     50e: 01 62        	<unknown>
     510: 00 04        	<unknown>
     512: 5c a4        	<unknown>
     514: 01 01        	<unknown>
     516: 5b 04 a4 01  	<unknown>
     51a: 88 0f        	<unknown>
     51c: 01 59        	<unknown>
     51e: 00 04        	<unknown>
     520: 5c a0        	<unknown>
     522: 01 01        	<unknown>
     524: 5c 04        	<unknown>
     526: a0 01        	<unknown>
     528: 84 0f        	<unknown>
     52a: 01 58        	<unknown>
     52c: 00 04        	<unknown>
     52e: 5c 9c        	<unknown>
     530: 01 01        	<unknown>
     532: 5d 04        	<unknown>
     534: 9c 01        	<unknown>
     536: e0 01        	<unknown>
     538: 01 65        	<unknown>
     53a: 04 e4        	<unknown>
     53c: 01 a4        	<unknown>
     53e: 02 01        	<unknown>
     540: 65 04        	<unknown>
     542: a4 03        	<unknown>
     544: b4 03        	<unknown>
     546: 01 6b        	<unknown>
     548: 04 b4        	<unknown>
     54a: 03 cc 03 01  	lbu	s8, 16(t2)
     54e: 5b 04 a8 04  	<unknown>
     552: b4 04        	<unknown>
     554: 01 6b        	<unknown>
     556: 04 b4        	<unknown>
     558: 04 dc        	<unknown>
     55a: 04 01        	<unknown>
     55c: 5b 04 dc 04  	<unknown>
     560: e0 04        	<unknown>
     562: 01 6b        	<unknown>
     564: 04 e8        	<unknown>
     566: 04 fc        	<unknown>
     568: 04 01        	<unknown>
     56a: 6b 04 fc 04  	<unknown>
     56e: 80 05        	<unknown>
     570: 01 5b        	<unknown>
     572: 04 84        	<unknown>
     574: 05 bc        	<unknown>
     576: 05 01        	<unknown>
     578: 6b 04 ec 05  	<unknown>
     57c: f4 05        	<unknown>
     57e: 01 6b        	<unknown>
     580: 04 80        	<unknown>
     582: 06 d4        	<unknown>
     584: 06 01        	<unknown>
     586: 6b 04 dc 06  	<unknown>
     58a: e0 06        	<unknown>
     58c: 01 6b        	<unknown>
     58e: 04 e8        	<unknown>
     590: 06 8c        	<unknown>
     592: 07 01 6b 04  	flb	ft2, 70(s6)
     596: 8c 07        	<unknown>
     598: 94 07        	<unknown>
     59a: 03 8b 01 9f  	lb	s6, -1552(gp)
     59e: 04 94        	<unknown>
     5a0: 07 d0 0e 01  	<unknown>
     5a4: 6b 04 dc 0e  	<unknown>
     5a8: 98 0f        	<unknown>
     5aa: 01 65        	<unknown>
     5ac: 00 04        	<unknown>
     5ae: 5c 98        	<unknown>
     5b0: 01 01        	<unknown>
     5b2: 5e 04        	<unknown>
     5b4: 98 01        	<unknown>
     5b6: fc 03        	<unknown>
     5b8: 02 72        	<unknown>
     5ba: 18 04        	<unknown>
     5bc: 94 04        	<unknown>
     5be: 98 04        	<unknown>
     5c0: 01 5b        	<unknown>
     5c2: 04 98        	<unknown>
     5c4: 04 bc        	<unknown>
     5c6: 04 02        	<unknown>
     5c8: 72 18        	<unknown>
     5ca: 04 d0        	<unknown>
     5cc: 04 d4        	<unknown>
     5ce: 04 01        	<unknown>
     5d0: 5a 04        	<unknown>
     5d2: d4 04        	<unknown>
     5d4: d8 07        	<unknown>
     5d6: 02 72        	<unknown>
     5d8: 18 04        	<unknown>
     5da: d8 07        	<unknown>
     5dc: dc 07        	<unknown>
     5de: 07 72 18 94  	<unknown>
     5e2: 04 23        	<unknown>
     5e4: 04 9f        	<unknown>
     5e6: 04 dc        	<unknown>
     5e8: 07 e0 07 03  	<unknown>
     5ec: 7a 04        	<unknown>
     5ee: 9f 04 e0 07  	<unknown>
     5f2: f4 07        	<unknown>
     5f4: 07 72 18 94  	<unknown>
     5f8: 04 23        	<unknown>
     5fa: 04 9f        	<unknown>
     5fc: 04 f4        	<unknown>
     5fe: 07 90 08 02  	<unknown>
     602: 72 18        	<unknown>
     604: 04 90        	<unknown>
     606: 08 94        	<unknown>
     608: 08 07        	<unknown>
     60a: 72 18        	<unknown>
     60c: 94 04        	<unknown>
     60e: 23 04 9f 04  	sb	s1, 72(t5)
     612: 94 08        	<unknown>
     614: 98 08        	<unknown>
     616: 03 7b 04 9f  	<unknown>
     61a: 04 98        	<unknown>
     61c: 08 ac        	<unknown>
     61e: 08 07        	<unknown>
     620: 72 18        	<unknown>
     622: 94 04        	<unknown>
     624: 23 04 9f 04  	sb	s1, 72(t5)
     628: ac 08        	<unknown>
     62a: b4 08        	<unknown>
     62c: 02 72        	<unknown>
     62e: 18 04        	<unknown>
     630: b4 08        	<unknown>
     632: cc 08        	<unknown>
     634: 01 63        	<unknown>
     636: 04 cc        	<unknown>
     638: 08 a8        	<unknown>
     63a: 09 02        	<unknown>
     63c: 72 18        	<unknown>
     63e: 04 a8        	<unknown>
     640: 09 d0        	<unknown>
     642: 09 01        	<unknown>
     644: 63 04 8c 0b  	beq	s8, s8, 0x6ec <__l1_start+0x6ec>
     648: 9c 0b        	<unknown>
     64a: 02 72        	<unknown>
     64c: 18 04        	<unknown>
     64e: 9c 0b        	<unknown>
     650: e8 0b        	<unknown>
     652: 01 66        	<unknown>
     654: 04 e8        	<unknown>
     656: 0b ec 0b 02  	<unknown>
     65a: 72 18        	<unknown>
     65c: 04 ec        	<unknown>
     65e: 0b f0 0b 07  	<unknown>
     662: 72 18        	<unknown>
     664: 94 04        	<unknown>
     666: 23 04 9f 04  	sb	s1, 72(t5)
     66a: f0 0b        	<unknown>
     66c: f4 0b        	<unknown>
     66e: 03 7b 04 9f  	<unknown>
     672: 04 f8        	<unknown>
     674: 0b fc 0b 01  	p.lb	s8, a6(s7!)
     678: 5b 04 fc 0b  	<unknown>
     67c: 98 0c        	<unknown>
     67e: 02 72        	<unknown>
     680: 18 04        	<unknown>
     682: 98 0c        	<unknown>
     684: c8 0c        	<unknown>
     686: 01 63        	<unknown>
     688: 04 c8        	<unknown>
     68a: 0c cc        	<unknown>
     68c: 0c 02        	<unknown>
     68e: 72 18        	<unknown>
     690: 04 d8        	<unknown>
     692: 0c dc        	<unknown>
     694: 0c 01        	<unknown>
     696: 66 04        	<unknown>
     698: dc 0c        	<unknown>
     69a: e0 0c        	<unknown>
     69c: 02 72        	<unknown>
     69e: 18 04        	<unknown>
     6a0: e0 0c        	<unknown>
     6a2: e4 0c        	<unknown>
     6a4: 07 72 18 94  	<unknown>
     6a8: 04 23        	<unknown>
     6aa: 04 9f        	<unknown>
     6ac: 04 e4        	<unknown>
     6ae: 0c e8        	<unknown>
     6b0: 0c 03        	<unknown>
     6b2: 7a 04        	<unknown>
     6b4: 9f 04 ec 0c  	<unknown>
     6b8: f0 0c        	<unknown>
     6ba: 01 5a        	<unknown>
     6bc: 04 f0        	<unknown>
     6be: 0c 9c        	<unknown>
     6c0: 0d 02        	<unknown>
     6c2: 72 18        	<unknown>
     6c4: 04 f4        	<unknown>
     6c6: 0d f8        	<unknown>
     6c8: 0d 01        	<unknown>
     6ca: 5a 04        	<unknown>
     6cc: f8 0d        	<unknown>
     6ce: cc 0e        	<unknown>
     6d0: 02 72        	<unknown>
     6d2: 18 04        	<unknown>
     6d4: d8 0e        	<unknown>
     6d6: b8 0f        	<unknown>
     6d8: 02 72        	<unknown>
     6da: 18 00        	<unknown>
     6dc: 04 a4        	<unknown>
     6de: 01 e0        	<unknown>
     6e0: 01 02        	<unknown>
     6e2: 30 9f        	<unknown>
     6e4: 04 e4        	<unknown>
     6e6: 01 f4        	<unknown>
     6e8: 01 01        	<unknown>
     6ea: 64 04        	<unknown>
     6ec: f4 01        	<unknown>
     6ee: 90 02        	<unknown>
     6f0: 01 63        	<unknown>
     6f2: 04 90        	<unknown>
     6f4: 02 f0        	<unknown>
     6f6: 06 01        	<unknown>
     6f8: 64 04        	<unknown>
     6fa: f0 06        	<unknown>
     6fc: f8 06        	<unknown>
     6fe: 01 63        	<unknown>
     700: 04 f8        	<unknown>
     702: 06 fc        	<unknown>
     704: 06 01        	<unknown>
     706: 64 04        	<unknown>
     708: fc 06        	<unknown>
     70a: 90 07        	<unknown>
     70c: 01 63        	<unknown>
     70e: 04 90        	<unknown>
     710: 07 f0 08 01  	<unknown>
     714: 64 04        	<unknown>
     716: 9c 09        	<unknown>
     718: dc 0a        	<unknown>
     71a: 01 64        	<unknown>
     71c: 04 84        	<unknown>
     71e: 0b 90 0b 01  	p.lh	zero, 16(s7!)
     722: 64 04        	<unknown>
     724: 98 0b        	<unknown>
     726: a4 0b        	<unknown>
     728: 01 5c        	<unknown>
     72a: 04 a4        	<unknown>
     72c: 0b c8 0b 01  	p.lbu	a6, 16(s7!)
     730: 64 04        	<unknown>
     732: c8 0b        	<unknown>
     734: cc 0b        	<unknown>
     736: 01 5c        	<unknown>
     738: 04 cc        	<unknown>
     73a: 0b b8 0d 01  	<unknown>
     73e: 64 04        	<unknown>
     740: b8 0d        	<unknown>
     742: dc 0d        	<unknown>
     744: 01 63        	<unknown>
     746: 04 dc        	<unknown>
     748: 0d ec        	<unknown>
     74a: 0d 01        	<unknown>
     74c: 64 04        	<unknown>
     74e: ec 0d        	<unknown>
     750: a0 0e        	<unknown>
     752: 01 63        	<unknown>
     754: 04 a0        	<unknown>
     756: 0e a4        	<unknown>
     758: 0e 01        	<unknown>
     75a: 5c 04        	<unknown>
     75c: a4 0e        	<unknown>
     75e: c0 0e        	<unknown>
     760: 01 63        	<unknown>
     762: 04 c0        	<unknown>
     764: 0e c8        	<unknown>
     766: 0e 01        	<unknown>
     768: 64 04        	<unknown>
     76a: c8 0e        	<unknown>
     76c: cc 0e        	<unknown>
     76e: 01 63        	<unknown>
     770: 04 cc        	<unknown>
     772: 0e 94        	<unknown>
     774: 0f 01 64 00  	<unknown>
     778: 04 a4        	<unknown>
     77a: 02 a8        	<unknown>
     77c: 02 01        	<unknown>
     77e: 6c 04        	<unknown>
     780: ac 02        	<unknown>
     782: d0 02        	<unknown>
     784: 01 6c        	<unknown>
     786: 04 e8        	<unknown>
     788: 02 8c        	<unknown>
     78a: 04 01        	<unknown>
     78c: 6c 04        	<unknown>
     78e: a4 04        	<unknown>
     790: bc 05        	<unknown>
     792: 01 6c        	<unknown>
     794: 04 ec        	<unknown>
     796: 05 f4        	<unknown>
     798: 05 01        	<unknown>
     79a: 6c 04        	<unknown>
     79c: 80 06        	<unknown>
     79e: d4 06        	<unknown>
     7a0: 01 6c        	<unknown>
     7a2: 04 d8        	<unknown>
     7a4: 06 e0        	<unknown>
     7a6: 06 01        	<unknown>
     7a8: 6c 04        	<unknown>
     7aa: e4 06        	<unknown>
     7ac: 8c 07        	<unknown>
     7ae: 01 6c        	<unknown>
     7b0: 04 94        	<unknown>
     7b2: 07 f0 08 01  	<unknown>
     7b6: 6c 04        	<unknown>
     7b8: 9c 09        	<unknown>
     7ba: dc 0a        	<unknown>
     7bc: 01 6c        	<unknown>
     7be: 04 8c        	<unknown>
     7c0: 0b 90 0b 01  	p.lh	zero, 16(s7!)
     7c4: 6c 04        	<unknown>
     7c6: ec 0b        	<unknown>
     7c8: c0 0c        	<unknown>
     7ca: 01 6c        	<unknown>
     7cc: 04 cc        	<unknown>
     7ce: 0c d8        	<unknown>
     7d0: 0c 01        	<unknown>
     7d2: 6c 04        	<unknown>
     7d4: e0 0c        	<unknown>
     7d6: 94 0d        	<unknown>
     7d8: 01 6c        	<unknown>
     7da: 04 9c        	<unknown>
     7dc: 0d a8        	<unknown>
     7de: 0d 01        	<unknown>
     7e0: 6c 00        	<unknown>
     7e2: 04 d0        	<unknown>
     7e4: 02 e8        	<unknown>
     7e6: 02 02        	<unknown>
     7e8: 31 9f        	<unknown>
     7ea: 00 04        	<unknown>
     7ec: e8 02        	<unknown>
     7ee: a4 03        	<unknown>
     7f0: 02 30        	<unknown>
     7f2: 9f 04 a4 03  	<unknown>
     7f6: f4 03        	<unknown>
     7f8: 01 65        	<unknown>
     7fa: 04 f4        	<unknown>
     7fc: 03 84 04 02  	lb	s0, 32(s1)
     800: 30 9f        	<unknown>
     802: 04 a4        	<unknown>
     804: 04 e0        	<unknown>
     806: 04 01        	<unknown>
     808: 65 04        	<unknown>
     80a: e0 04        	<unknown>
     80c: e8 04        	<unknown>
     80e: 02 30        	<unknown>
     810: 9f 04 e8 04  	<unknown>
     814: 9c 09        	<unknown>
     816: 01 65        	<unknown>
     818: 04 9c        	<unknown>
     81a: 09 d0        	<unknown>
     81c: 09 02        	<unknown>
     81e: 38 9f        	<unknown>
     820: 04 d0        	<unknown>
     822: 09 b8        	<unknown>
     824: 0c 01        	<unknown>
     826: 65 04        	<unknown>
     828: cc 0c        	<unknown>
     82a: c4 0e        	<unknown>
     82c: 01 65        	<unknown>
     82e: 04 c8        	<unknown>
     830: 0e d0        	<unknown>
     832: 0e 01        	<unknown>
     834: 65 00        	<unknown>
     836: 04 a4        	<unknown>
     838: 03 f4 03 02  	<unknown>
     83c: 30 9f        	<unknown>
     83e: 04 a8        	<unknown>
     840: 04 d0        	<unknown>
     842: 04 02        	<unknown>
     844: 30 9f        	<unknown>
     846: 04 d0        	<unknown>
     848: 04 e0        	<unknown>
     84a: 04 01        	<unknown>
     84c: 66 04        	<unknown>
     84e: e8 04        	<unknown>
     850: 84 05        	<unknown>
     852: 02 30        	<unknown>
     854: 9f 04 84 05  	<unknown>
     858: f0 08        	<unknown>
     85a: 01 66        	<unknown>
     85c: 04 9c        	<unknown>
     85e: 09 90        	<unknown>
     860: 0b 01 66 04  	p.lb	sp, 70(a2!)
     864: ec 0b        	<unknown>
     866: d8 0c        	<unknown>
     868: 01 66        	<unknown>
     86a: 04 e0        	<unknown>
     86c: 0c b0        	<unknown>
     86e: 0d 01        	<unknown>
     870: 66 04        	<unknown>
     872: b4 0d        	<unknown>
     874: e4 0d        	<unknown>
     876: 01 66        	<unknown>
     878: 00 04        	<unknown>
     87a: 84 04        	<unknown>
     87c: 88 04        	<unknown>
     87e: 01 5a        	<unknown>
     880: 00 04        	<unknown>
     882: c4 04        	<unknown>
     884: c8 04        	<unknown>
     886: 01 66        	<unknown>
     888: 00 04        	<unknown>
     88a: a8 06        	<unknown>
     88c: b0 06        	<unknown>
     88e: 02 3a        	<unknown>
     890: 9f 04 b0 06  	<unknown>
     894: d4 06        	<unknown>
     896: 01 60        	<unknown>
     898: 00 04        	<unknown>
     89a: b8 08        	<unknown>
     89c: cc 08        	<unknown>
     89e: 01 5a        	<unknown>
     8a0: 00 04        	<unknown>
     8a2: cc 08        	<unknown>
     8a4: d8 08        	<unknown>
     8a6: 02 31        	<unknown>
     8a8: 9f 04 d8 08  	<unknown>
     8ac: f0 08        	<unknown>
     8ae: 02 32        	<unknown>
     8b0: 9f 04 84 09  	<unknown>
     8b4: 88 09        	<unknown>
     8b6: 03 87 03 9f  	lb	a4, -1552(t2)
     8ba: 04 98        	<unknown>
     8bc: 0b b8 0b 01  	<unknown>
     8c0: 63 04 b8 0b  	beq	a6, s11, 0x968 <__l1_start+0x968>
     8c4: c0 0b        	<unknown>
     8c6: 03 83 01 9f  	lb	t1, -1552(gp)
     8ca: 00 04        	<unknown>
     8cc: f0 09        	<unknown>
     8ce: f4 09        	<unknown>
     8d0: 03 7b 7f 9f  	<unknown>
     8d4: 04 f8        	<unknown>
     8d6: 09 88        	<unknown>
     8d8: 0a 01        	<unknown>
     8da: 5b 04 94 0a  	<unknown>
     8de: 98 0a        	<unknown>
     8e0: 03 7b 7f 9f  	<unknown>
     8e4: 00 04        	<unknown>
     8e6: d8 09        	<unknown>
     8e8: e4 09        	<unknown>
     8ea: 01 60        	<unknown>
     8ec: 04 f8        	<unknown>
     8ee: 09 fc        	<unknown>
     8f0: 09 01        	<unknown>
     8f2: 5d 04        	<unknown>
     8f4: fc 09        	<unknown>
     8f6: 98 0a        	<unknown>
     8f8: 01 5c        	<unknown>
     8fa: 00 04        	<unknown>
     8fc: d8 09        	<unknown>
     8fe: e4 09        	<unknown>
     900: 01 60        	<unknown>
     902: 00 04        	<unknown>
     904: d8 09        	<unknown>
     906: cc 0a        	<unknown>
     908: 01 60        	<unknown>
     90a: 04 cc        	<unknown>
     90c: 0a 84        	<unknown>
     90e: 0b 02 72 04  	p.lb	tp, 71(tp!)
     912: 04 84        	<unknown>
     914: 0b 8c 0b 01  	p.lb	s8, 16(s7!)
     918: 60 04        	<unknown>
     91a: 9c 0d        	<unknown>
     91c: b0 0d        	<unknown>
     91e: 01 60        	<unknown>
     920: 04 b0        	<unknown>
     922: 0d b4        	<unknown>
     924: 0d 03        	<unknown>
     926: 87 7f 9f 04  	<unknown>
     92a: b4 0d        	<unknown>
     92c: d4 0d        	<unknown>
     92e: 01 67        	<unknown>
     930: 04 dc        	<unknown>
     932: 0d e8        	<unknown>
     934: 0d 03        	<unknown>
     936: 87 7f 9f 00  	<unknown>
     93a: 04 9c        	<unknown>
     93c: 0a c4        	<unknown>
     93e: 0a 01        	<unknown>
     940: 5b 04 84 0b  	<unknown>
     944: 8c 0b        	<unknown>
     946: 02 72        	<unknown>
     948: 08 04        	<unknown>
     94a: a4 0d        	<unknown>
     94c: 8c 0e        	<unknown>
     94e: 02 72        	<unknown>
     950: 08 04        	<unknown>
     952: 8c 0e        	<unknown>
     954: 9c 0e        	<unknown>
     956: 03 7c 01 9f  	<unknown>
     95a: 00 04        	<unknown>
     95c: f8 0b        	<unknown>
     95e: 90 0c        	<unknown>
     960: 01 5a        	<unknown>
     962: 00 04        	<unknown>
     964: ec 0c        	<unknown>
     966: f4 0c        	<unknown>
     968: 01 5e        	<unknown>
     96a: 00 04        	<unknown>
     96c: c8 0f        	<unknown>
     96e: d8 0f        	<unknown>
     970: 01 5a        	<unknown>
     972: 04 d8        	<unknown>
     974: 0f 94 10 01  	<unknown>
     978: 5b 00 04 c8  	<unknown>
     97c: 0f d4 0f 01  	<unknown>
     980: 5b 04 d4 0f  	<unknown>
     984: 8c 10        	<unknown>
     986: 01 55        	<unknown>
     988: 04 8c        	<unknown>
     98a: 10 94        	<unknown>
     98c: 10 01        	<unknown>
     98e: 5d 00        	<unknown>
     990: 04 94        	<unknown>
     992: 10 a0        	<unknown>
     994: 10 01        	<unknown>
     996: 5a 00        	<unknown>
     998: 04 a0        	<unknown>
     99a: 10 a8        	<unknown>
     99c: 10 01        	<unknown>
     99e: 5b 00 04 b0  	<unknown>
     9a2: 10 c4        	<unknown>
     9a4: 10 01        	<unknown>
     9a6: 5a 04        	<unknown>
     9a8: c4 10        	<unknown>
     9aa: f8 10        	<unknown>
     9ac: 01 5b        	<unknown>
     9ae: 00 04        	<unknown>
     9b0: b0 10        	<unknown>
     9b2: c0 10        	<unknown>
     9b4: 01 5b        	<unknown>
     9b6: 04 c0        	<unknown>
     9b8: 10 f8        	<unknown>
     9ba: 10 01        	<unknown>
     9bc: 5c 00        	<unknown>
     9be: 04 b0        	<unknown>
     9c0: 10 bc        	<unknown>
     9c2: 10 01        	<unknown>
     9c4: 5c 04        	<unknown>
     9c6: bc 10        	<unknown>
     9c8: f0 10        	<unknown>
     9ca: 01 55        	<unknown>
     9cc: 04 f0        	<unknown>
     9ce: 10 f8        	<unknown>
     9d0: 10 01        	<unknown>
     9d2: 5d 00        	<unknown>
     9d4: 04 f8        	<unknown>
     9d6: 10 84        	<unknown>
     9d8: 11 01        	<unknown>
     9da: 5a 00        	<unknown>
     9dc: 04 84        	<unknown>
     9de: 11 94        	<unknown>
     9e0: 11 01        	<unknown>
     9e2: 5a 04        	<unknown>
     9e4: 94 11        	<unknown>
     9e6: a4 11        	<unknown>
     9e8: 01 5b        	<unknown>
     9ea: 00 04        	<unknown>
     9ec: 84 11        	<unknown>
     9ee: 90 11        	<unknown>
     9f0: 01 5b        	<unknown>
     9f2: 04 90        	<unknown>
     9f4: 11 a4        	<unknown>
     9f6: 11 01        	<unknown>
     9f8: 5c 00        	<unknown>
     9fa: 04 84        	<unknown>
     9fc: 11 8c        	<unknown>
     9fe: 11 01        	<unknown>
     a00: 5c 04        	<unknown>
     a02: 8c 11        	<unknown>
     a04: a4 11        	<unknown>
     a06: 01 5d        	<unknown>
     a08: 00 04        	<unknown>
     a0a: 84 11        	<unknown>
     a0c: 88 11        	<unknown>
     a0e: 01 5d        	<unknown>
     a10: 04 88        	<unknown>
     a12: 11 a4        	<unknown>
     a14: 11 01        	<unknown>
     a16: 5e 00        	<unknown>
     a18: 04 a4        	<unknown>
     a1a: 11 d8        	<unknown>
     a1c: 11 01        	<unknown>
     a1e: 5a 00        	<unknown>
     a20: 04 a4        	<unknown>
     a22: 11 e0        	<unknown>
     a24: 11 01        	<unknown>
     a26: 5b 00 04 a4  	<unknown>
     a2a: 11 b0        	<unknown>
     a2c: 11 01        	<unknown>
     a2e: 5c 04        	<unknown>
     a30: b0 11        	<unknown>
     a32: ec 11        	<unknown>
     a34: 01 55        	<unknown>
     a36: 04 ec        	<unknown>
     a38: 11 f4        	<unknown>
     a3a: 11 01        	<unknown>
     a3c: 5d 00        	<unknown>
     a3e: 04 f4        	<unknown>
     a40: 11 80        	<unknown>
     a42: 12 01        	<unknown>
     a44: 5a 00        	<unknown>
     a46: 04 80        	<unknown>
     a48: 12 8c        	<unknown>
     a4a: 12 01        	<unknown>
     a4c: 5b 04 90 12  	<unknown>
     a50: 94 12        	<unknown>
     a52: 01 5b        	<unknown>
     a54: 00 04        	<unknown>
     a56: 98 12        	<unknown>
     a58: dc 12        	<unknown>
     a5a: 01 5a        	<unknown>
     a5c: 04 dc        	<unknown>
     a5e: 12 80        	<unknown>
     a60: 19 01        	<unknown>
     a62: 63 00 04 98  	beqz	s0, 0xfffffbe2 <.comment+0xffffffff7fffdbd2>
     a66: 12 d8        	<unknown>
     a68: 12 01        	<unknown>
     a6a: 5b 04 d8 12  	<unknown>
     a6e: fc 18        	<unknown>
     a70: 01 62        	<unknown>
     a72: 00 04        	<unknown>
     a74: 98 12        	<unknown>
     a76: d4 12        	<unknown>
     a78: 01 5c        	<unknown>
     a7a: 04 d4        	<unknown>
     a7c: 12 bc        	<unknown>
     a7e: 18 01        	<unknown>
     a80: 64 04        	<unknown>
     a82: e4 18        	<unknown>
     a84: e8 18        	<unknown>
     a86: 01 64        	<unknown>
     a88: 00 04        	<unknown>
     a8a: 98 12        	<unknown>
     a8c: d0 12        	<unknown>
     a8e: 01 5d        	<unknown>
     a90: 04 d0        	<unknown>
     a92: 12 f8        	<unknown>
     a94: 18 01        	<unknown>
     a96: 59 00        	<unknown>
     a98: 04 98        	<unknown>
     a9a: 12 a8        	<unknown>
     a9c: 13 01 5e 04  	addi	sp, t3, 69
     aa0: a8 13        	<unknown>
     aa2: c0 13        	<unknown>
     aa4: 01 57        	<unknown>
     aa6: 04 c0        	<unknown>
     aa8: 13 9c 14 01  	slli	s8, s1, 17
     aac: 5e 00        	<unknown>
     aae: 04 98        	<unknown>
     ab0: 12 cc        	<unknown>
     ab2: 17 0d 7f 00  	auipc	s10, 2032
     ab6: a8 ab        	<unknown>
     ab8: 80 80        	<unknown>
     aba: 00 a8        	<unknown>
     abc: af 80 80 00  	<unknown>
     ac0: 9f 00 04 98  	<unknown>
     ac4: 12 cc        	<unknown>
     ac6: 17 01 60 00  	auipc	sp, 1536
     aca: 04 98        	<unknown>
     acc: 12 cc        	<unknown>
     ace: 17 01 61 00  	auipc	sp, 1552
     ad2: 04 98        	<unknown>
     ad4: 12 cc        	<unknown>
     ad6: 12 01        	<unknown>
     ad8: 57 04 cc 12  	<unknown>
     adc: 88 14        	<unknown>
     ade: 01 58        	<unknown>
     ae0: 04 8c        	<unknown>
     ae2: 14 90        	<unknown>
     ae4: 14 01        	<unknown>
     ae6: 58 00        	<unknown>
     ae8: 04 98        	<unknown>
     aea: 12 cc        	<unknown>
     aec: 17 01 6c 00  	auipc	sp, 1728
     af0: 04 dc        	<unknown>
     af2: 12 98        	<unknown>
     af4: 13 02 30 9f  	li	tp, -1549
     af8: 04 98        	<unknown>
     afa: 13 a0 13 01  	slti	zero, t2, 17
     afe: 5d 04        	<unknown>
     b00: a0 13        	<unknown>
     b02: c4 13        	<unknown>
     b04: 01 5a        	<unknown>
     b06: 04 c4        	<unknown>
     b08: 13 e4 13 01  	ori	s0, t2, 17
     b0c: 5d 04        	<unknown>
     b0e: e4 13        	<unknown>
     b10: b0 14        	<unknown>
     b12: 01 5a        	<unknown>
     b14: 04 d8        	<unknown>
     b16: 14 e0        	<unknown>
     b18: 14 01        	<unknown>
     b1a: 5a 00        	<unknown>
     b1c: 04 e4        	<unknown>
     b1e: 13 cc 17 01  	xori	s8, a5, 17
     b22: 64 04        	<unknown>
     b24: cc 17        	<unknown>
     b26: d0 17        	<unknown>
     b28: 01 5c        	<unknown>
     b2a: 04 d0        	<unknown>
     b2c: 17 80 18 01  	auipc	zero, 4488
     b30: 66 04        	<unknown>
     b32: 80 18        	<unknown>
     b34: a0 18        	<unknown>
     b36: 01 65        	<unknown>
     b38: 04 a0        	<unknown>
     b3a: 18 a4        	<unknown>
     b3c: 18 01        	<unknown>
     b3e: 66 04        	<unknown>
     b40: a4 18        	<unknown>
     b42: c0 18        	<unknown>
     b44: 01 65        	<unknown>
     b46: 04 c0        	<unknown>
     b48: 18 e4        	<unknown>
     b4a: 18 01        	<unknown>
     b4c: 64 00        	<unknown>
     b4e: 04 e4        	<unknown>
     b50: 13 b4 14 01  	sltiu	s0, s1, 17
     b54: 5a 04        	<unknown>
     b56: b4 14        	<unknown>
     b58: d8 14        	<unknown>
     b5a: 01 5d        	<unknown>
     b5c: 04 d8        	<unknown>
     b5e: 14 dc        	<unknown>
     b60: 14 01        	<unknown>
     b62: 5a 04        	<unknown>
     b64: dc 14        	<unknown>
     b66: a0 15        	<unknown>
     b68: 01 5d        	<unknown>
     b6a: 04 a0        	<unknown>
     b6c: 15 d4        	<unknown>
     b6e: 15 01        	<unknown>
     b70: 5a 04        	<unknown>
     b72: d4 15        	<unknown>
     b74: ec 15        	<unknown>
     b76: 01 5b        	<unknown>
     b78: 04 f0        	<unknown>
     b7a: 15 c8        	<unknown>
     b7c: 16 01        	<unknown>
     b7e: 5a 04        	<unknown>
     b80: cc 16        	<unknown>
     b82: 98 17        	<unknown>
     b84: 01 5a        	<unknown>
     b86: 04 98        	<unknown>
     b88: 17 9c 17 01  	auipc	s8, 4473
     b8c: 68 04        	<unknown>
     b8e: 9c 17        	<unknown>
     b90: a8 17        	<unknown>
     b92: 01 5a        	<unknown>
     b94: 04 ac        	<unknown>
     b96: 17 f4 17 01  	auipc	s0, 4479
     b9a: 68 04        	<unknown>
     b9c: a0 18        	<unknown>
     b9e: a4 18        	<unknown>
     ba0: 01 68        	<unknown>
     ba2: 00 04        	<unknown>
     ba4: e4 13        	<unknown>
     ba6: cc 17        	<unknown>
     ba8: 0d 7f        	<unknown>
     baa: 00 a8        	<unknown>
     bac: ab 80 80 00  	p.sb	s0, 1(ra!)
     bb0: a8 af        	<unknown>
     bb2: 80 80        	<unknown>
     bb4: 00 9f        	<unknown>
     bb6: 00 04        	<unknown>
     bb8: e4 13        	<unknown>
     bba: cc 17        	<unknown>
     bbc: 01 60        	<unknown>
     bbe: 00 04        	<unknown>
     bc0: e4 13        	<unknown>
     bc2: cc 17        	<unknown>
     bc4: 01 61        	<unknown>
     bc6: 00 04        	<unknown>
     bc8: e4 13        	<unknown>
     bca: 88 14        	<unknown>
     bcc: 01 58        	<unknown>
     bce: 04 8c        	<unknown>
     bd0: 14 e4        	<unknown>
     bd2: 18 01        	<unknown>
     bd4: 58 00        	<unknown>
     bd6: 04 e4        	<unknown>
     bd8: 13 cc 17 01  	xori	s8, a5, 17
     bdc: 6c 00        	<unknown>
     bde: 04 e4        	<unknown>
     be0: 13 bc 18 01  	sltiu	s8, a7, 17
     be4: 64 00        	<unknown>
     be6: 04 e8        	<unknown>
     be8: 13 e4 18 03  	ori	s0, a7, 49
     bec: 72 04        	<unknown>
     bee: 9f 00 04 c4  	<unknown>
     bf2: 17 cc 17 01  	auipc	s8, 4476
     bf6: 68 04        	<unknown>
     bf8: cc 17        	<unknown>
     bfa: e0 17        	<unknown>
     bfc: 12 85        	<unknown>
     bfe: 00 11        	<unknown>
     c00: 7f 88 00 1e  	<unknown>
     c04: 78 00        	<unknown>
     c06: 22 1c        	<unknown>
     c08: 11 7f        	<unknown>
     c0a: 1b 88 00 22  	<unknown>
     c0e: 9f 04 e0 17  	<unknown>
     c12: e4 17        	<unknown>
     c14: 15 85        	<unknown>
     c16: 00 11        	<unknown>
     c18: 7f 88 00 1e  	<unknown>
     c1c: 78 00        	<unknown>
     c1e: 22 1c        	<unknown>
     c20: 11 7f        	<unknown>
     c22: 1b 11 01 88  	<unknown>
     c26: 00 22        	<unknown>
     c28: 22 9f        	<unknown>
     c2a: 00 04        	<unknown>
     c2c: ec 17        	<unknown>
     c2e: f4 17        	<unknown>
     c30: 02 30        	<unknown>
     c32: 9f 04 f4 17  	<unknown>
     c36: 90 18        	<unknown>
     c38: 09 88        	<unknown>
     c3a: 00 88        	<unknown>
     c3c: 00 1c        	<unknown>
     c3e: 11 7f        	<unknown>
     c40: 1b 9f 04 90  	<unknown>
     c44: 18 94        	<unknown>
     c46: 18 0c        	<unknown>
     c48: 88 00        	<unknown>
     c4a: 88 00        	<unknown>
     c4c: 1c 11        	<unknown>
     c4e: 7f 1b 11 01  	<unknown>
     c52: 22 9f        	<unknown>
     c54: 00 5a        	<unknown>
     c56: 02 00        	<unknown>
     c58: 00 05        	<unknown>
     c5a: 00 04        	<unknown>
     c5c: 00 19        	<unknown>
     c5e: 00 00        	<unknown>
     c60: 00 64        	<unknown>
     c62: 00 00        	<unknown>
     c64: 00 6f        	<unknown>
     c66: 00 00        	<unknown>
     c68: 00 7a        	<unknown>
     c6a: 00 00        	<unknown>
     c6c: 00 8f        	<unknown>
     c6e: 00 00        	<unknown>
     c70: 00 a4        	<unknown>
     c72: 00 00        	<unknown>
     c74: 00 ab        	<unknown>
     c76: 00 00        	<unknown>
     c78: 00 b8        	<unknown>
     c7a: 00 00        	<unknown>
     c7c: 00 c4        	<unknown>
     c7e: 00 00        	<unknown>
     c80: 00 e1        	<unknown>
     c82: 00 00        	<unknown>
     c84: 00 e9        	<unknown>
     c86: 00 00        	<unknown>
     c88: 00 0c        	<unknown>
     c8a: 01 00        	<unknown>
     c8c: 00 14        	<unknown>
     c8e: 01 00        	<unknown>
     c90: 00 1c        	<unknown>
     c92: 01 00        	<unknown>
     c94: 00 24        	<unknown>
     c96: 01 00        	<unknown>
     c98: 00 41        	<unknown>
     c9a: 01 00        	<unknown>
     c9c: 00 57        	<unknown>
     c9e: 01 00        	<unknown>
     ca0: 00 78        	<unknown>
     ca2: 01 00        	<unknown>
     ca4: 00 8e        	<unknown>
     ca6: 01 00        	<unknown>
     ca8: 00 96        	<unknown>
     caa: 01 00        	<unknown>
     cac: 00 9e        	<unknown>
     cae: 01 00        	<unknown>
     cb0: 00 a6        	<unknown>
     cb2: 01 00        	<unknown>
     cb4: 00 ae        	<unknown>
     cb6: 01 00        	<unknown>
     cb8: 00 d1        	<unknown>
     cba: 01 00        	<unknown>
     cbc: 00 19        	<unknown>
     cbe: 02 00        	<unknown>
     cc0: 00 31        	<unknown>
     cc2: 02 00        	<unknown>
     cc4: 00 04        	<unknown>
     cc6: 00 1c        	<unknown>
     cc8: 01 5b        	<unknown>
     cca: 04 3c        	<unknown>
     ccc: 44 01        	<unknown>
     cce: 5b 00 04 00  	<unknown>
     cd2: 1c 01        	<unknown>
     cd4: 5c 04        	<unknown>
     cd6: 3c 44        	<unknown>
     cd8: 01 5c        	<unknown>
     cda: 00 04        	<unknown>
     cdc: 14 1c        	<unknown>
     cde: 01 5a        	<unknown>
     ce0: 04 1c        	<unknown>
     ce2: 2c 01        	<unknown>
     ce4: 5d 04        	<unknown>
     ce6: 2c 34        	<unknown>
     ce8: 01 5f        	<unknown>
     cea: 04 34        	<unknown>
     cec: 3c 01        	<unknown>
     cee: 5d 00        	<unknown>
     cf0: 04 3c        	<unknown>
     cf2: 44 01        	<unknown>
     cf4: 5a 04        	<unknown>
     cf6: 44 50        	<unknown>
     cf8: 01 5c        	<unknown>
     cfa: 04 50        	<unknown>
     cfc: 58 01        	<unknown>
     cfe: 5f 04 58 5c  	<unknown>
     d02: 01 5c        	<unknown>
     d04: 00 04        	<unknown>
     d06: 60 98        	<unknown>
     d08: 01 01        	<unknown>
     d0a: 5b 00 04 60  	<unknown>
     d0e: 78 01        	<unknown>
     d10: 5c 04        	<unknown>
     d12: 8c 01        	<unknown>
     d14: 90 01        	<unknown>
     d16: 01 5c        	<unknown>
     d18: 00 04        	<unknown>
     d1a: 70 78        	<unknown>
     d1c: 01 5a        	<unknown>
     d1e: 04 78        	<unknown>
     d20: 8c 01        	<unknown>
     d22: 01 5d        	<unknown>
     d24: 00 04        	<unknown>
     d26: 8c 01        	<unknown>
     d28: a8 01        	<unknown>
     d2a: 01 5a        	<unknown>
     d2c: 04 a8        	<unknown>
     d2e: 01 ac        	<unknown>
     d30: 01 01        	<unknown>
     d32: 5d 04        	<unknown>
     d34: ac 01        	<unknown>
     d36: b4 01        	<unknown>
     d38: 01 5e        	<unknown>
     d3a: 04 b4        	<unknown>
     d3c: 01 b8        	<unknown>
     d3e: 01 01        	<unknown>
     d40: 5d 00        	<unknown>
     d42: 04 bc        	<unknown>
     d44: 01 d4        	<unknown>
     d46: 01 01        	<unknown>
     d48: 5a 00        	<unknown>
     d4a: 04 bc        	<unknown>
     d4c: 01 c0        	<unknown>
     d4e: 01 01        	<unknown>
     d50: 5a 04        	<unknown>
     d52: c0 01        	<unknown>
     d54: c8 01        	<unknown>
     d56: 06 7b        	<unknown>
     d58: 00 7a        	<unknown>
     d5a: 00 22        	<unknown>
     d5c: 9f 04 c8 01  	<unknown>
     d60: cc 01        	<unknown>
     d62: 09 7b        	<unknown>
     d64: 00 11        	<unknown>
     d66: 01 7a        	<unknown>
     d68: 00 22        	<unknown>
     d6a: 22 9f        	<unknown>
     d6c: 00 04        	<unknown>
     d6e: d8 01        	<unknown>
     d70: 80 02        	<unknown>
     d72: 01 5a        	<unknown>
     d74: 00 04        	<unknown>
     d76: dc 01        	<unknown>
     d78: 84 02        	<unknown>
     d7a: 01 5c        	<unknown>
     d7c: 00 04        	<unknown>
     d7e: e4 01        	<unknown>
     d80: 84 02        	<unknown>
     d82: 01 5d        	<unknown>
     d84: 00 04        	<unknown>
     d86: 84 02        	<unknown>
     d88: c4 02        	<unknown>
     d8a: 01 5a        	<unknown>
     d8c: 04 c8        	<unknown>
     d8e: 02 cc        	<unknown>
     d90: 02 01        	<unknown>
     d92: 5d 04        	<unknown>
     d94: cc 02        	<unknown>
     d96: ec 02        	<unknown>
     d98: 01 5a        	<unknown>
     d9a: 04 f0        	<unknown>
     d9c: 02 f4        	<unknown>
     d9e: 02 01        	<unknown>
     da0: 5a 00        	<unknown>
     da2: 04 84        	<unknown>
     da4: 02 a0        	<unknown>
     da6: 02 01        	<unknown>
     da8: 5b 04 bc 02  	<unknown>
     dac: c0 02        	<unknown>
     dae: 01 5b        	<unknown>
     db0: 04 c8        	<unknown>
     db2: 02 f8        	<unknown>
     db4: 02 01        	<unknown>
     db6: 5b 00 04 84  	<unknown>
     dba: 02 cc        	<unknown>
     dbc: 02 01        	<unknown>
     dbe: 5c 04        	<unknown>
     dc0: cc 02        	<unknown>
     dc2: d4 02        	<unknown>
     dc4: 03 7c 7f 9f  	<unknown>
     dc8: 04 d4        	<unknown>
     dca: 02 f0        	<unknown>
     dcc: 02 01        	<unknown>
     dce: 5c 04        	<unknown>
     dd0: f0 02        	<unknown>
     dd2: f8 02        	<unknown>
     dd4: 03 7c 7f 9f  	<unknown>
     dd8: 00 04        	<unknown>
     dda: 90 02        	<unknown>
     ddc: a0 02        	<unknown>
     dde: 01 5a        	<unknown>
     de0: 04 a0        	<unknown>
     de2: 02 bc        	<unknown>
     de4: 02 01        	<unknown>
     de6: 5d 04        	<unknown>
     de8: bc 02        	<unknown>
     dea: c0 02        	<unknown>
     dec: 01 5a        	<unknown>
     dee: 00 04        	<unknown>
     df0: 98 02        	<unknown>
     df2: cc 02        	<unknown>
     df4: 01 5e        	<unknown>
     df6: 00 04        	<unknown>
     df8: d8 02        	<unknown>
     dfa: f0 02        	<unknown>
     dfc: 01 5d        	<unknown>
     dfe: 00 04        	<unknown>
     e00: e0 02        	<unknown>
     e02: f0 02        	<unknown>
     e04: 01 5e        	<unknown>
     e06: 00 04        	<unknown>
     e08: f8 02        	<unknown>
     e0a: fc 02        	<unknown>
     e0c: 01 5b        	<unknown>
     e0e: 00 04        	<unknown>
     e10: f8 02        	<unknown>
     e12: fc 02        	<unknown>
     e14: 01 5a        	<unknown>
     e16: 04 fc        	<unknown>
     e18: 02 88        	<unknown>
     e1a: 03 06 7c 00  	lb	a2, 7(s8)
     e1e: 7a 00        	<unknown>
     e20: 22 9f        	<unknown>
     e22: 04 88        	<unknown>
     e24: 03 8c 03 09  	lb	s8, 144(t2)
     e28: 7c 00        	<unknown>
     e2a: 11 01        	<unknown>
     e2c: 7a 00        	<unknown>
     e2e: 22 22        	<unknown>
     e30: 9f 00 04 98  	<unknown>
     e34: 03 a0 03 01  	lw	zero, 16(t2)
     e38: 5a 04        	<unknown>
     e3a: a0 03        	<unknown>
     e3c: a8 03        	<unknown>
     e3e: 03 7d 7f 9f  	<unknown>
     e42: 04 a8        	<unknown>
     e44: 03 ac 03 01  	lw	s8, 16(t2)
     e48: 5d 04        	<unknown>
     e4a: ac 03        	<unknown>
     e4c: cc 03        	<unknown>
     e4e: 03 7d 7f 9f  	<unknown>
     e52: 04 d0        	<unknown>
     e54: 03 dc 03 01  	lhu	s8, 16(t2)
     e58: 5d 04        	<unknown>
     e5a: dc 03        	<unknown>
     e5c: e4 03        	<unknown>
     e5e: 03 7d 7f 9f  	<unknown>
     e62: 04 e4        	<unknown>
     e64: 03 f0 03 01  	p.lb	zero, a6(t2)
     e68: 5d 04        	<unknown>
     e6a: f4 03        	<unknown>
     e6c: f8 03        	<unknown>
     e6e: 03 7d 7f 9f  	<unknown>
     e72: 04 f8        	<unknown>
     e74: 03 8c 04 01  	lb	s8, 16(s1)
     e78: 5d 00        	<unknown>
     e7a: 04 98        	<unknown>
     e7c: 03 f4 03 03  	<unknown>
     e80: 11 00        	<unknown>
     e82: 9f 04 f4 03  	<unknown>
     e86: 84 04        	<unknown>
     e88: 01 5a        	<unknown>
     e8a: 04 88        	<unknown>
     e8c: 04 90        	<unknown>
     e8e: 04 01        	<unknown>
     e90: 5a 00        	<unknown>
     e92: 04 98        	<unknown>
     e94: 03 cc 03 03  	lbu	s8, 48(t2)
     e98: 11 00        	<unknown>
     e9a: 9f 04 cc 03  	<unknown>
     e9e: dc 03        	<unknown>
     ea0: 01 5c        	<unknown>
     ea2: 04 dc        	<unknown>
     ea4: 03 e4 03 03  	<unknown>
     ea8: 11 00        	<unknown>
     eaa: 9f 04 e4 03  	<unknown>
     eae: 9c 04        	<unknown>
     eb0: 01 5c        	<unknown>
     eb2: 00 1c        	<unknown>
     eb4: 00 00        	<unknown>
     eb6: 00 05        	<unknown>
     eb8: 00 04        	<unknown>
     eba: 00 02        	<unknown>
     ebc: 00 00        	<unknown>
     ebe: 00 08        	<unknown>
     ec0: 00 00        	<unknown>
     ec2: 00 0e        	<unknown>
     ec4: 00 00        	<unknown>
     ec6: 00 04        	<unknown>
     ec8: 00 10        	<unknown>
     eca: 01 5a        	<unknown>
     ecc: 00 04        	<unknown>
     ece: 58 60        	<unknown>
     ed0: 01 5a        	<unknown>
     ed2: 00           	<unknown>

Disassembly of section .debug_abbrev:

00000000 <.debug_abbrev>:
       0: 01 11        	<unknown>
       2: 01 25        	<unknown>
       4: 25 13        	<unknown>
       6: 05 03        	<unknown>
       8: 25 72        	<unknown>
       a: 17 10 17 1b  	auipc	zero, 110961
       e: 25 11        	<unknown>
      10: 1b 12 06 73  	<unknown>
      14: 17 8c 01 17  	auipc	s8, 94232
      18: 00 00        	<unknown>
      1a: 02 34        	<unknown>
      1c: 00 03        	<unknown>
      1e: 25 49        	<unknown>
      20: 13 3f 19 3a  	sltiu	t5, s2, 929
      24: 0b 3b 0b 02  	<unknown>
      28: 18 00        	<unknown>
      2a: 00 03        	<unknown>
      2c: 01 01        	<unknown>
      2e: 49 13        	<unknown>
      30: 00 00        	<unknown>
      32: 04 21        	<unknown>
      34: 00 49        	<unknown>
      36: 13 37 05 00  	sltiu	a4, a0, 0
      3a: 00 05        	<unknown>
      3c: 16 00        	<unknown>
      3e: 49 13        	<unknown>
      40: 03 25 3a 0b  	lw	a0, 179(s4)
      44: 3b 0b 00 00  	<unknown>
      48: 06 24        	<unknown>
      4a: 00 03        	<unknown>
      4c: 25 3e        	<unknown>
      4e: 0b 0b 0b 00  	p.lb	s6, 0(s6!)
      52: 00 07        	<unknown>
      54: 24 00        	<unknown>
      56: 03 25 0b 0b  	lw	a0, 176(s6)
      5a: 3e 0b        	<unknown>
      5c: 00 00        	<unknown>
      5e: 08 2e        	<unknown>
      60: 01 03        	<unknown>
      62: 25 3a        	<unknown>
      64: 0b 3b 0b 49  	<unknown>
      68: 13 20 21 01  	slti	zero, sp, 18
      6c: 00 00        	<unknown>
      6e: 09 34        	<unknown>
      70: 00 03        	<unknown>
      72: 25 3a        	<unknown>
      74: 0b 3b 0b 49  	<unknown>
      78: 13 00 00 0a  	li	zero, 160
      7c: 2e 01        	<unknown>
      7e: 11 1b        	<unknown>
      80: 12 06        	<unknown>
      82: 40 18        	<unknown>
      84: 7a 19        	<unknown>
      86: 03 25 3a 0b  	lw	a0, 179(s4)
      8a: 3b 0b 49 13  	<unknown>
      8e: 3f 19 00 00  	<unknown>
      92: 0b 34 00 02  	<unknown>
      96: 22 03        	<unknown>
      98: 25 3a        	<unknown>
      9a: 0b 3b 0b 49  	<unknown>
      9e: 13 00 00 0c  	li	zero, 192
      a2: 1d 00        	<unknown>
      a4: 31 13        	<unknown>
      a6: 11 1b        	<unknown>
      a8: 12 06        	<unknown>
      aa: 58 0b        	<unknown>
      ac: 59 0b        	<unknown>
      ae: 57 0b 00 00  	pv.add.h	s6, zero, zero
      b2: 0d 48        	<unknown>
      b4: 00 7f        	<unknown>
      b6: 13 7d 1b 00  	andi	s10, s6, 1
      ba: 00 0e        	<unknown>
      bc: 2e 01        	<unknown>
      be: 03 25 3a 0b  	lw	a0, 179(s4)
      c2: 3b 0b 27 19  	<unknown>
      c6: 3c 19        	<unknown>
      c8: 3f 19 00 00  	<unknown>
      cc: 0f 05 00 49  	<unknown>
      d0: 13 00 00 00  	nop
      d4: 01 11        	<unknown>
      d6: 01 25        	<unknown>
      d8: 25 13        	<unknown>
      da: 05 03        	<unknown>
      dc: 25 72        	<unknown>
      de: 17 10 17 1b  	auipc	zero, 110961
      e2: 25 11        	<unknown>
      e4: 1b 12 06 73  	<unknown>
      e8: 17 74 17 8c  	auipc	s0, 573815
      ec: 01 17        	<unknown>
      ee: 00 00        	<unknown>
      f0: 02 34        	<unknown>
      f2: 00 03        	<unknown>
      f4: 25 49        	<unknown>
      f6: 13 3f 19 3a  	sltiu	t5, s2, 929
      fa: 0b 3b 0b 02  	<unknown>
      fe: 18 00        	<unknown>
     100: 00 03        	<unknown>
     102: 16 00        	<unknown>
     104: 49 13        	<unknown>
     106: 03 25 3a 0b  	lw	a0, 179(s4)
     10a: 3b 0b 00 00  	<unknown>
     10e: 04 13        	<unknown>
     110: 01 0b        	<unknown>
     112: 0b 3a 0b 3b  	<unknown>
     116: 0b 00 00 05  	p.lb	zero, 80(zero!)
     11a: 0d 00        	<unknown>
     11c: 03 25 49 13  	lw	a0, 308(s2)
     120: 3a 0b        	<unknown>
     122: 3b 0b 38 0b  	<unknown>
     126: 00 00        	<unknown>
     128: 06 0f        	<unknown>
     12a: 00 49        	<unknown>
     12c: 13 00 00 07  	li	zero, 112
     130: 13 01 03 25  	addi	sp, t1, 592
     134: 0b 0b 3a 0b  	p.lb	s6, 179(s4!)
     138: 3b 0b 00 00  	<unknown>
     13c: 08 24        	<unknown>
     13e: 00 03        	<unknown>
     140: 25 3e        	<unknown>
     142: 0b 0b 0b 00  	p.lb	s6, 0(s6!)
     146: 00 09        	<unknown>
     148: 01 01        	<unknown>
     14a: 49 13        	<unknown>
     14c: 00 00        	<unknown>
     14e: 0a 21        	<unknown>
     150: 00 49        	<unknown>
     152: 13 37 0b 00  	sltiu	a4, s6, 0
     156: 00 0b        	<unknown>
     158: 24 00        	<unknown>
     15a: 03 25 0b 0b  	lw	a0, 176(s6)
     15e: 3e 0b        	<unknown>
     160: 00 00        	<unknown>
     162: 0c 0f        	<unknown>
     164: 00 00        	<unknown>
     166: 00 0d        	<unknown>
     168: 26 00        	<unknown>
     16a: 49 13        	<unknown>
     16c: 00 00        	<unknown>
     16e: 0e 2e        	<unknown>
     170: 01 11        	<unknown>
     172: 1b 12 06 40  	<unknown>
     176: 18 7a        	<unknown>
     178: 19 03        	<unknown>
     17a: 25 3a        	<unknown>
     17c: 0b 3b 0b 27  	<unknown>
     180: 19 3f        	<unknown>
     182: 19 00        	<unknown>
     184: 00 0f        	<unknown>
     186: 05 00        	<unknown>
     188: 02 18        	<unknown>
     18a: 03 25 3a 0b  	lw	a0, 179(s4)
     18e: 3b 0b 49 13  	<unknown>
     192: 00 00        	<unknown>
     194: 10 05        	<unknown>
     196: 00 02        	<unknown>
     198: 22 03        	<unknown>
     19a: 25 3a        	<unknown>
     19c: 0b 3b 0b 49  	<unknown>
     1a0: 13 00 00 11  	li	zero, 272
     1a4: 34 00        	<unknown>
     1a6: 02 22        	<unknown>
     1a8: 03 25 3a 0b  	lw	a0, 179(s4)
     1ac: 3b 0b 49 13  	<unknown>
     1b0: 00 00        	<unknown>
     1b2: 12 2e        	<unknown>
     1b4: 01 03        	<unknown>
     1b6: 25 3a        	<unknown>
     1b8: 0b 3b 0b 27  	<unknown>
     1bc: 19 49        	<unknown>
     1be: 13 20 21 01  	slti	zero, sp, 18
     1c2: 00 00        	<unknown>
     1c4: 13 05 00 03  	li	a0, 48
     1c8: 25 3a        	<unknown>
     1ca: 0b 3b 0b 49  	<unknown>
     1ce: 13 00 00 14  	li	zero, 320
     1d2: 34 00        	<unknown>
     1d4: 03 25 3a 0b  	lw	a0, 179(s4)
     1d8: 3b 0b 49 13  	<unknown>
     1dc: 00 00        	<unknown>
     1de: 15 0b        	<unknown>
     1e0: 01 00        	<unknown>
     1e2: 00 16        	<unknown>
     1e4: 26 00        	<unknown>
     1e6: 00 00        	<unknown>
     1e8: 17 2e 01 11  	auipc	t3, 69650
     1ec: 1b 12 06 40  	<unknown>
     1f0: 18 7a        	<unknown>
     1f2: 19 31        	<unknown>
     1f4: 13 00 00 18  	li	zero, 384
     1f8: 05 00        	<unknown>
     1fa: 02 22        	<unknown>
     1fc: 31 13        	<unknown>
     1fe: 00 00        	<unknown>
     200: 19 34        	<unknown>
     202: 00 02        	<unknown>
     204: 22 31        	<unknown>
     206: 13 00 00 1a  	li	zero, 416
     20a: 1d 01        	<unknown>
     20c: 31 13        	<unknown>
     20e: 55 23        	<unknown>
     210: 58 0b        	<unknown>
     212: 59 0b        	<unknown>
     214: 57 0b 00 00  	pv.add.h	s6, zero, zero
     218: 1b 0b 01 11  	<unknown>
     21c: 1b 12 06 00  	<unknown>
     220: 00 1c        	<unknown>
     222: 1d 01        	<unknown>
     224: 31 13        	<unknown>
     226: 11 1b        	<unknown>
     228: 12 06        	<unknown>
     22a: 58 0b        	<unknown>
     22c: 59 0b        	<unknown>
     22e: 57 0b 00 00  	pv.add.h	s6, zero, zero
     232: 1d 48        	<unknown>
     234: 00 7f        	<unknown>
     236: 13 7d 1b 00  	andi	s10, s6, 1
     23a: 00 1e        	<unknown>
     23c: 2e 01        	<unknown>
     23e: 03 25 3a 0b  	lw	a0, 179(s4)
     242: 3b 0b 27 19  	<unknown>
     246: 49 13        	<unknown>
     248: 3c 19        	<unknown>
     24a: 3f 19 00 00  	<unknown>
     24e: 1f 05 00 49  	<unknown>
     252: 13 00 00 20  	li	zero, 512
     256: 18 00        	<unknown>
     258: 00 00        	<unknown>
     25a: 21 2e        	<unknown>
     25c: 01 03        	<unknown>
     25e: 25 3a        	<unknown>
     260: 0b 3b 0b 27  	<unknown>
     264: 19 49        	<unknown>
     266: 13 3f 19 20  	sltiu	t5, s2, 513
     26a: 21 01        	<unknown>
     26c: 00 00        	<unknown>
     26e: 22 2e        	<unknown>
     270: 01 11        	<unknown>
     272: 1b 12 06 40  	<unknown>
     276: 18 7a        	<unknown>
     278: 19 03        	<unknown>
     27a: 25 3a        	<unknown>
     27c: 0b 3b 0b 27  	<unknown>
     280: 19 49        	<unknown>
     282: 13 3f 19 00  	seqz	t5, s2
     286: 00 23        	<unknown>
     288: 2e 01        	<unknown>
     28a: 03 25 3a 0b  	lw	a0, 179(s4)
     28e: 3b 0b 27 19  	<unknown>
     292: 20 21        	<unknown>
     294: 01 00        	<unknown>
     296: 00 24        	<unknown>
     298: 05 00        	<unknown>
     29a: 02 18        	<unknown>
     29c: 31 13        	<unknown>
     29e: 00 00        	<unknown>
     2a0: 25 48        	<unknown>
     2a2: 00 7f        	<unknown>
     2a4: 13 82 01 19  	addi	tp, gp, 400
     2a8: 81 01        	<unknown>
     2aa: 1b 00 00 26  	<unknown>
     2ae: 2e 01        	<unknown>
     2b0: 03 25 3a 0b  	lw	a0, 179(s4)
     2b4: 3b 0b 27 19  	<unknown>
     2b8: 3f 19 20 21  	<unknown>
     2bc: 01 00        	<unknown>
     2be: 00 27        	<unknown>
     2c0: 2e 00        	<unknown>
     2c2: 11 1b        	<unknown>
     2c4: 12 06        	<unknown>
     2c6: 40 18        	<unknown>
     2c8: 7a 19        	<unknown>
     2ca: 03 25 3a 0b  	lw	a0, 179(s4)
     2ce: 3b 0b 49 13  	<unknown>
     2d2: 3f 19 00 00  	<unknown>
     2d6: 00 01        	<unknown>
     2d8: 11 01        	<unknown>
     2da: 10 17        	<unknown>
     2dc: 11 01        	<unknown>
     2de: 12 01        	<unknown>
     2e0: 03 08 1b 08  	lb	a6, 129(s6)
     2e4: 25 08        	<unknown>
     2e6: 13 05 00 00  	li	a0, 0
     2ea: 02 0a        	<unknown>
     2ec: 00 03        	<unknown>
     2ee: 08 3a        	<unknown>
     2f0: 06 3b        	<unknown>
     2f2: 06 11        	<unknown>
     2f4: 01 00        	<unknown>
     2f6: 00 00        	<unknown>
     2f8: 01 11        	<unknown>
     2fa: 01 25        	<unknown>
     2fc: 25 13        	<unknown>
     2fe: 05 03        	<unknown>
     300: 25 72        	<unknown>
     302: 17 10 17 1b  	auipc	zero, 110961
     306: 25 11        	<unknown>
     308: 1b 12 06 73  	<unknown>
     30c: 17 74 17 8c  	auipc	s0, 573815
     310: 01 17        	<unknown>
     312: 00 00        	<unknown>
     314: 02 24        	<unknown>
     316: 00 03        	<unknown>
     318: 25 3e        	<unknown>
     31a: 0b 0b 0b 00  	p.lb	s6, 0(s6!)
     31e: 00 03        	<unknown>
     320: 16 00        	<unknown>
     322: 49 13        	<unknown>
     324: 03 25 3a 0b  	lw	a0, 179(s4)
     328: 3b 0b 00 00  	<unknown>
     32c: 04 0f        	<unknown>
     32e: 00 49        	<unknown>
     330: 13 00 00 05  	li	zero, 80
     334: 13 01 0b 0b  	addi	sp, s6, 176
     338: 3a 0b        	<unknown>
     33a: 3b 0b 00 00  	<unknown>
     33e: 06 0d        	<unknown>
     340: 00 03        	<unknown>
     342: 25 49        	<unknown>
     344: 13 3a 0b 3b  	sltiu	s4, s6, 944
     348: 0b 38 0b 00  	<unknown>
     34c: 00 07        	<unknown>
     34e: 15 01        	<unknown>
     350: 27 19 00 00  	<unknown>
     354: 08 05        	<unknown>
     356: 00 49        	<unknown>
     358: 13 00 00 09  	li	zero, 144
     35c: 0f 00 00 00  	fence	unknown, unknown
     360: 0a 2e        	<unknown>
     362: 01 11        	<unknown>
     364: 1b 12 06 40  	<unknown>
     368: 18 7a        	<unknown>
     36a: 19 03        	<unknown>
     36c: 25 3a        	<unknown>
     36e: 0b 3b 05 27  	<unknown>
     372: 19 49        	<unknown>
     374: 13 3f 19 00  	seqz	t5, s2
     378: 00 0b        	<unknown>
     37a: 05 00        	<unknown>
     37c: 02 22        	<unknown>
     37e: 03 25 3a 0b  	lw	a0, 179(s4)
     382: 3b 05 49 13  	<unknown>
     386: 00 00        	<unknown>
     388: 0c 34        	<unknown>
     38a: 00 02        	<unknown>
     38c: 18 03        	<unknown>
     38e: 25 3a        	<unknown>
     390: 0b 3b 05 49  	<unknown>
     394: 13 00 00 0d  	li	zero, 208
     398: 34 00        	<unknown>
     39a: 02 22        	<unknown>
     39c: 03 25 3a 0b  	lw	a0, 179(s4)
     3a0: 3b 05 49 13  	<unknown>
     3a4: 00 00        	<unknown>
     3a6: 0e 18        	<unknown>
     3a8: 00 00        	<unknown>
     3aa: 00 0f        	<unknown>
     3ac: 48 00        	<unknown>
     3ae: 7f 13 7d 1b  	<unknown>
     3b2: 00 00        	<unknown>
     3b4: 10 2e        	<unknown>
     3b6: 01 11        	<unknown>
     3b8: 1b 12 06 40  	<unknown>
     3bc: 18 7a        	<unknown>
     3be: 19 03        	<unknown>
     3c0: 25 3a        	<unknown>
     3c2: 0b 3b 05 27  	<unknown>
     3c6: 19 49        	<unknown>
     3c8: 13 00 00 11  	li	zero, 272
     3cc: 1d 01        	<unknown>
     3ce: 31 13        	<unknown>
     3d0: 11 1b        	<unknown>
     3d2: 12 06        	<unknown>
     3d4: 58 0b        	<unknown>
     3d6: 59 05        	<unknown>
     3d8: 57 0b 00 00  	pv.add.h	s6, zero, zero
     3dc: 12 05        	<unknown>
     3de: 00 02        	<unknown>
     3e0: 18 31        	<unknown>
     3e2: 13 00 00 13  	li	zero, 304
     3e6: 34 00        	<unknown>
     3e8: 02 18        	<unknown>
     3ea: 31 13        	<unknown>
     3ec: 00 00        	<unknown>
     3ee: 14 1d        	<unknown>
     3f0: 01 31        	<unknown>
     3f2: 13 11 1b 12  	<unknown>
     3f6: 06 58        	<unknown>
     3f8: 0b 59 0b 57  	p.lhu	s2, 1392(s6!)
     3fc: 0b 00 00 15  	p.lb	zero, 336(zero!)
     400: 0b 01 11 1b  	p.lb	sp, 433(sp!)
     404: 12 06        	<unknown>
     406: 00 00        	<unknown>
     408: 16 0b        	<unknown>
     40a: 01 55        	<unknown>
     40c: 23 00 00 17  	sb	a6, 352(zero)
     410: 1d 01        	<unknown>
     412: 31 13        	<unknown>
     414: 55 23        	<unknown>
     416: 58 0b        	<unknown>
     418: 59 05        	<unknown>
     41a: 57 0b 00 00  	pv.add.h	s6, zero, zero
     41e: 18 05        	<unknown>
     420: 00 02        	<unknown>
     422: 22 31        	<unknown>
     424: 13 00 00 19  	li	zero, 400
     428: 34 00        	<unknown>
     42a: 02 22        	<unknown>
     42c: 31 13        	<unknown>
     42e: 00 00        	<unknown>
     430: 1a 48        	<unknown>
     432: 00 83        	<unknown>
     434: 01 18        	<unknown>
     436: 7d 1b        	<unknown>
     438: 00 00        	<unknown>
     43a: 1b 2e 01 03  	<unknown>
     43e: 25 3a        	<unknown>
     440: 0b 3b 0b 27  	<unknown>
     444: 19 49        	<unknown>
     446: 13 20 21 01  	slti	zero, sp, 18
     44a: 00 00        	<unknown>
     44c: 1c 05        	<unknown>
     44e: 00 03        	<unknown>
     450: 25 3a        	<unknown>
     452: 0b 3b 0b 49  	<unknown>
     456: 13 00 00 1d  	li	zero, 464
     45a: 34 00        	<unknown>
     45c: 03 25 3a 0b  	lw	a0, 179(s4)
     460: 3b 0b 49 13  	<unknown>
     464: 00 00        	<unknown>
     466: 1e 26        	<unknown>
     468: 00 49        	<unknown>
     46a: 13 00 00 1f  	li	zero, 496
     46e: 2e 01        	<unknown>
     470: 11 1b        	<unknown>
     472: 12 06        	<unknown>
     474: 40 18        	<unknown>
     476: 7a 19        	<unknown>
     478: 03 25 3a 0b  	lw	a0, 179(s4)
     47c: 3b 0b 27 19  	<unknown>
     480: 49 13        	<unknown>
     482: 00 00        	<unknown>
     484: 20 05        	<unknown>
     486: 00 02        	<unknown>
     488: 22 03        	<unknown>
     48a: 25 3a        	<unknown>
     48c: 0b 3b 0b 49  	<unknown>
     490: 13 00 00 21  	li	zero, 528
     494: 34 00        	<unknown>
     496: 02 18        	<unknown>
     498: 03 25 3a 0b  	lw	a0, 179(s4)
     49c: 3b 0b 49 13  	<unknown>
     4a0: 00 00        	<unknown>
     4a2: 22 34        	<unknown>
     4a4: 00 02        	<unknown>
     4a6: 22 03        	<unknown>
     4a8: 25 3a        	<unknown>
     4aa: 0b 3b 0b 49  	<unknown>
     4ae: 13 00 00 23  	li	zero, 560
     4b2: 34 00        	<unknown>
     4b4: 03 25 3a 0b  	lw	a0, 179(s4)
     4b8: 3b 05 49 13  	<unknown>
     4bc: 00 00        	<unknown>
     4be: 24 2e        	<unknown>
     4c0: 01 11        	<unknown>
     4c2: 1b 12 06 40  	<unknown>
     4c6: 18 7a        	<unknown>
     4c8: 19 03        	<unknown>
     4ca: 25 3a        	<unknown>
     4cc: 0b 3b 0b 27  	<unknown>
     4d0: 19 00        	<unknown>
     4d2: 00 25        	<unknown>
     4d4: 05 00        	<unknown>
     4d6: 02 18        	<unknown>
     4d8: 03 25 3a 0b  	lw	a0, 179(s4)
     4dc: 3b 0b 49 13  	<unknown>
     4e0: 00 00        	<unknown>
     4e2: 26 48        	<unknown>
     4e4: 00 7f        	<unknown>
     4e6: 13 82 01 19  	addi	tp, gp, 400
     4ea: 81 01        	<unknown>
     4ec: 1b 00 00 27  	<unknown>
     4f0: 48 00        	<unknown>
     4f2: 83 01 18 82  	lb	gp, -2015(a6)
     4f6: 01 19        	<unknown>
     4f8: 81 01        	<unknown>
     4fa: 1b 00 00 28  	<unknown>
     4fe: 0b 01 00 00  	p.lb	sp, 0(zero!)
     502: 29 01        	<unknown>
     504: 01 49        	<unknown>
     506: 13 00 00 2a  	li	zero, 672
     50a: 21 00        	<unknown>
     50c: 49 13        	<unknown>
     50e: 37 0b 00 00  	lui	s6, 0
     512: 2b 24 00 03  	p.sw	a6, 40(zero!)
     516: 25 0b        	<unknown>
     518: 0b 3e 0b 00  	<unknown>
     51c: 00 2c        	<unknown>
     51e: 16 00        	<unknown>
     520: 49 13        	<unknown>
     522: 03 25 00 00  	lw	a0, 0(zero)
     526: 00 01        	<unknown>
     528: 11 01        	<unknown>
     52a: 25 25        	<unknown>
     52c: 13 05 03 25  	addi	a0, t1, 592
     530: 72 17        	<unknown>
     532: 10 17        	<unknown>
     534: 1b 25 11 1b  	<unknown>
     538: 12 06        	<unknown>
     53a: 73 17 00 00  	csrrw	a4, ustatus, zero
     53e: 02 2e        	<unknown>
     540: 01 11        	<unknown>
     542: 1b 12 06 40  	<unknown>
     546: 18 7a        	<unknown>
     548: 19 03        	<unknown>
     54a: 25 3a        	<unknown>
     54c: 0b 3b 0b 27  	<unknown>
     550: 19 3f        	<unknown>
     552: 19 00        	<unknown>
     554: 00 03        	<unknown>
     556: 05 00        	<unknown>
     558: 02 18        	<unknown>
     55a: 03 25 3a 0b  	lw	a0, 179(s4)
     55e: 3b 0b 49 13  	<unknown>
     562: 00 00        	<unknown>
     564: 04 24        	<unknown>
     566: 00 03        	<unknown>
     568: 25 3e        	<unknown>
     56a: 0b 0b 0b 00  	p.lb	s6, 0(s6!)
     56e: 00 00        	<unknown>
     570: 01 11        	<unknown>
     572: 01 25        	<unknown>
     574: 25 13        	<unknown>
     576: 05 03        	<unknown>
     578: 25 72        	<unknown>
     57a: 17 10 17 1b  	auipc	zero, 110961
     57e: 25 11        	<unknown>
     580: 1b 12 06 73  	<unknown>
     584: 17 8c 01 17  	auipc	s8, 94232
     588: 00 00        	<unknown>
     58a: 02 16        	<unknown>
     58c: 00 49        	<unknown>
     58e: 13 03 25 3a  	addi	t1, a0, 930
     592: 0b 3b 0b 00  	<unknown>
     596: 00 03        	<unknown>
     598: 24 00        	<unknown>
     59a: 03 25 3e 0b  	lw	a0, 179(t3)
     59e: 0b 0b 00 00  	p.lb	s6, 0(zero!)
     5a2: 04 0f        	<unknown>
     5a4: 00 49        	<unknown>
     5a6: 13 00 00 05  	li	zero, 80
     5aa: 26 00        	<unknown>
     5ac: 00 00        	<unknown>
     5ae: 06 26        	<unknown>
     5b0: 00 49        	<unknown>
     5b2: 13 00 00 07  	li	zero, 112
     5b6: 2e 01        	<unknown>
     5b8: 11 1b        	<unknown>
     5ba: 12 06        	<unknown>
     5bc: 40 18        	<unknown>
     5be: 7a 19        	<unknown>
     5c0: 03 25 3a 0b  	lw	a0, 179(s4)
     5c4: 3b 0b 27 19  	<unknown>
     5c8: 49 13        	<unknown>
     5ca: 3f 19 00 00  	<unknown>
     5ce: 08 05        	<unknown>
     5d0: 00 02        	<unknown>
     5d2: 18 03        	<unknown>
     5d4: 25 3a        	<unknown>
     5d6: 0b 3b 0b 49  	<unknown>
     5da: 13 00 00 09  	li	zero, 144
     5de: 05 00        	<unknown>
     5e0: 02 22        	<unknown>
     5e2: 03 25 3a 0b  	lw	a0, 179(s4)
     5e6: 3b 0b 49 13  	<unknown>
     5ea: 00 00        	<unknown>
     5ec: 0a 0b        	<unknown>
     5ee: 01 11        	<unknown>
     5f0: 1b 12 06 00  	<unknown>
     5f4: 00 0b        	<unknown>
     5f6: 34 00        	<unknown>
     5f8: 02 22        	<unknown>
     5fa: 03 25 3a 0b  	lw	a0, 179(s4)
     5fe: 3b 0b 49 13  	<unknown>
     602: 00 00        	<unknown>
     604: 0c 34        	<unknown>
     606: 00 02        	<unknown>
     608: 18 03        	<unknown>
     60a: 25 3a        	<unknown>
     60c: 0b 3b 0b 49  	<unknown>
     610: 13 00 00 0d  	li	zero, 208
     614: 34 00        	<unknown>
     616: 03 25 3a 0b  	lw	a0, 179(s4)
     61a: 3b 0b 49 13  	<unknown>
     61e: 00 00        	<unknown>
     620: 0e 0f        	<unknown>
     622: 00 00        	<unknown>
     624: 00 00        	<unknown>
     626: 01 11        	<unknown>
     628: 01 25        	<unknown>
     62a: 25 13        	<unknown>
     62c: 05 03        	<unknown>
     62e: 25 72        	<unknown>
     630: 17 10 17 1b  	auipc	zero, 110961
     634: 25 11        	<unknown>
     636: 1b 12 06 73  	<unknown>
     63a: 17 8c 01 17  	auipc	s8, 94232
     63e: 00 00        	<unknown>
     640: 02 34        	<unknown>
     642: 00 03        	<unknown>
     644: 25 49        	<unknown>
     646: 13 3f 19 3a  	sltiu	t5, s2, 929
     64a: 0b 3b 0b 02  	<unknown>
     64e: 18 00        	<unknown>
     650: 00 03        	<unknown>
     652: 35 00        	<unknown>
     654: 49 13        	<unknown>
     656: 00 00        	<unknown>
     658: 04 16        	<unknown>
     65a: 00 49        	<unknown>
     65c: 13 03 25 3a  	addi	t1, a0, 930
     660: 0b 3b 0b 00  	<unknown>
     664: 00 05        	<unknown>
     666: 24 00        	<unknown>
     668: 03 25 3e 0b  	lw	a0, 179(t3)
     66c: 0b 0b 00 00  	p.lb	s6, 0(zero!)
     670: 06 34        	<unknown>
     672: 00 03        	<unknown>
     674: 25 49        	<unknown>
     676: 13 3f 19 3a  	sltiu	t5, s2, 929
     67a: 0b 3b 0b 88  	<unknown>
     67e: 01 0f        	<unknown>
     680: 02 18        	<unknown>
     682: 00 00        	<unknown>
     684: 07 01 01 49  	flb	ft2, 1168(sp)
     688: 13 00 00 08  	li	zero, 128
     68c: 21 00        	<unknown>
     68e: 49 13        	<unknown>
     690: 37 05 00 00  	lui	a0, 0
     694: 09 24        	<unknown>
     696: 00 03        	<unknown>
     698: 25 0b        	<unknown>
     69a: 0b 3e 0b 00  	<unknown>
     69e: 00 0a        	<unknown>
     6a0: 2e 00        	<unknown>
     6a2: 03 25 3a 0b  	lw	a0, 179(s4)
     6a6: 3b 0b 20 21  	<unknown>
     6aa: 01 00        	<unknown>
     6ac: 00 0b        	<unknown>
     6ae: 2e 01        	<unknown>
     6b0: 03 25 3a 0b  	lw	a0, 179(s4)
     6b4: 3b 0b 27 19  	<unknown>
     6b8: 20 21        	<unknown>
     6ba: 01 00        	<unknown>
     6bc: 00 0c        	<unknown>
     6be: 05 00        	<unknown>
     6c0: 03 25 3a 0b  	lw	a0, 179(s4)
     6c4: 3b 0b 49 13  	<unknown>
     6c8: 00 00        	<unknown>
     6ca: 0d 2e        	<unknown>
     6cc: 01 03        	<unknown>
     6ce: 25 3a        	<unknown>
     6d0: 0b 3b 0b 27  	<unknown>
     6d4: 19 3f        	<unknown>
     6d6: 19 20        	<unknown>
     6d8: 21 01        	<unknown>
     6da: 00 00        	<unknown>
     6dc: 0e 2e        	<unknown>
     6de: 01 11        	<unknown>
     6e0: 1b 12 06 40  	<unknown>
     6e4: 18 7a        	<unknown>
     6e6: 19 03        	<unknown>
     6e8: 25 3a        	<unknown>
     6ea: 0b 3b 0b 27  	<unknown>
     6ee: 19 3f        	<unknown>
     6f0: 19 00        	<unknown>
     6f2: 00 0f        	<unknown>
     6f4: 05 00        	<unknown>
     6f6: 02 22        	<unknown>
     6f8: 03 25 3a 0b  	lw	a0, 179(s4)
     6fc: 3b 0b 49 13  	<unknown>
     700: 00 00        	<unknown>
     702: 10 1d        	<unknown>
     704: 00 31        	<unknown>
     706: 13 11 1b 12  	<unknown>
     70a: 06 58        	<unknown>
     70c: 0b 59 0b 57  	p.lhu	s2, 1392(s6!)
     710: 0b 00 00 11  	p.lb	zero, 272(zero!)
     714: 1d 01        	<unknown>
     716: 31 13        	<unknown>
     718: 11 1b        	<unknown>
     71a: 12 06        	<unknown>
     71c: 58 0b        	<unknown>
     71e: 59 0b        	<unknown>
     720: 57 0b 00 00  	pv.add.h	s6, zero, zero
     724: 12 05        	<unknown>
     726: 00 1c        	<unknown>
     728: 0f 31 13 00  	<unknown>
     72c: 00 13        	<unknown>
     72e: 2e 01        	<unknown>
     730: 11 1b        	<unknown>
     732: 12 06        	<unknown>
     734: 40 18        	<unknown>
     736: 7a 19        	<unknown>
     738: 31 13        	<unknown>
     73a: 00 00        	<unknown>
     73c: 14 05        	<unknown>
     73e: 00 02        	<unknown>
     740: 22 31        	<unknown>
     742: 13 00 00 00  	nop

Disassembly of section .debug_info:

00000000 <.debug_info>:
       0: e7 00 00 00  	jalr	zero
       4: 05 00        	<unknown>
       6: 01 04        	<unknown>
       8: 00 00        	<unknown>
       a: 00 00        	<unknown>
       c: 01 00        	<unknown>
       e: 0c 00        	<unknown>
      10: 01 08        	<unknown>
      12: 00 00        	<unknown>
      14: 00 00        	<unknown>
      16: 00 00        	<unknown>
      18: 00 02        	<unknown>
      1a: 01 74        	<unknown>
      1c: 00 00        	<unknown>
      1e: 00 08        	<unknown>
      20: 00 00        	<unknown>
      22: 00 0c        	<unknown>
      24: 00 00        	<unknown>
      26: 00 02        	<unknown>
      28: 03 32 00 00  	<unknown>
      2c: 00 00        	<unknown>
      2e: 0d 02        	<unknown>
      30: a1 00        	<unknown>
      32: 03 3f 00 00  	<unknown>
      36: 00 04        	<unknown>
      38: 53 00 00 00  	fadd.s	zero, zero, zero, rne
      3c: 00 01        	<unknown>
      3e: 00 05        	<unknown>
      40: 47 00 00 00  	fmsub.s	zero, zero, zero, zero, rne
      44: 06 02        	<unknown>
      46: 30 05        	<unknown>
      48: 4f 00 00 00  	fnmadd.s	zero, zero, zero, zero, rne
      4c: 05 01        	<unknown>
      4e: 4f 06 04 07  	fnmadd.b	a2, s0, a6, zero, rne
      52: 04 07        	<unknown>
      54: 07 08 07 08  	flb	fa6, 128(a4)
      58: 08 03        	<unknown>
      5a: 25 68        	<unknown>
      5c: 00 00        	<unknown>
      5e: 00 09        	<unknown>
      60: 0a 03        	<unknown>
      62: 26 68        	<unknown>
      64: 00 00        	<unknown>
      66: 00 00        	<unknown>
      68: 05 3f        	<unknown>
      6a: 00 00        	<unknown>
      6c: 00 09        	<unknown>
      6e: 03 1e 0a 01  	lh	t3, 16(s4)
      72: 74 00        	<unknown>
      74: 00 00        	<unknown>
      76: 01 52        	<unknown>
      78: 0d 00        	<unknown>
      7a: 10 d6        	<unknown>
      7c: 00 00        	<unknown>
      7e: 00 0b        	<unknown>
      80: 00 0f        	<unknown>
      82: 00 12        	<unknown>
      84: 3f 00 00 00  	<unknown>
      88: 0b 01 10 00  	p.lb	sp, 1(zero!)
      8c: 11 3f        	<unknown>
      8e: 00 00        	<unknown>
      90: 00 0b        	<unknown>
      92: 02 11        	<unknown>
      94: 00 16        	<unknown>
      96: da 00        	<unknown>
      98: 00 00        	<unknown>
      9a: 09 14        	<unknown>
      9c: 00 17        	<unknown>
      9e: 3f 00 00 00  	<unknown>
      a2: 0c 57        	<unknown>
      a4: 00 00        	<unknown>
      a6: 00 02        	<unknown>
      a8: 10 00        	<unknown>
      aa: 00 00        	<unknown>
      ac: 00 11        	<unknown>
      ae: 16 0d        	<unknown>
      b0: c2 00        	<unknown>
      b2: 00 00        	<unknown>
      b4: 03 0d cc 00  	lb	s10, 12(s8)
      b8: 00 00        	<unknown>
      ba: 04 0d        	<unknown>
      bc: cc 00        	<unknown>
      be: 00 00        	<unknown>
      c0: 05 00        	<unknown>
      c2: 0e 0b        	<unknown>
      c4: 04 0b        	<unknown>
      c6: 0f 3f 00 00  	<unknown>
      ca: 00 00        	<unknown>
      cc: 0e 0c        	<unknown>
      ce: 04 0c        	<unknown>
      d0: 0f 3f 00 00  	<unknown>
      d4: 00 00        	<unknown>
      d6: 06 0e        	<unknown>
      d8: 05 04        	<unknown>
      da: 05 e2        	<unknown>
      dc: 00 00        	<unknown>
      de: 00 13        	<unknown>
      e0: 02 2c        	<unknown>
      e2: 05 d6        	<unknown>
      e4: 00 00        	<unknown>
      e6: 00 12        	<unknown>
      e8: 01 4d        	<unknown>
      ea: 00 91        	<unknown>
      ec: 04 00        	<unknown>
      ee: 00 05        	<unknown>
      f0: 00 01        	<unknown>
      f2: 04 d4        	<unknown>
      f4: 00 00        	<unknown>
      f6: 00 01        	<unknown>
      f8: 00 0c        	<unknown>
      fa: 00 01        	<unknown>
      fc: 64 00        	<unknown>
      fe: 00 00        	<unknown>
     100: 0c 01        	<unknown>
     102: 00 00        	<unknown>
     104: 02 02        	<unknown>
     106: 18 04        	<unknown>
     108: 00 00        	<unknown>
     10a: 28 00        	<unknown>
     10c: 00 00        	<unknown>
     10e: 0c 00        	<unknown>
     110: 00 00        	<unknown>
     112: 3f 00 00 00  	<unknown>
     116: 02 03        	<unknown>
     118: 36 00        	<unknown>
     11a: 00 00        	<unknown>
     11c: 04 20        	<unknown>
     11e: 02 a1        	<unknown>
     120: 00 03        	<unknown>
     122: 3e 00        	<unknown>
     124: 00 00        	<unknown>
     126: 0c 03        	<unknown>
     128: 1c 04        	<unknown>
     12a: 04 03        	<unknown>
     12c: 1a 05        	<unknown>
     12e: 04 4c        	<unknown>
     130: 00 00        	<unknown>
     132: 00 03        	<unknown>
     134: 1b 00 00 06  	<unknown>
     138: 51 00        	<unknown>
     13a: 00 00        	<unknown>
     13c: 03 59 00 00  	lhu	s2, 0(zero)
     140: 00 0b        	<unknown>
     142: 03 17 07 0a  	lh	a4, 160(a4)
     146: 08 03        	<unknown>
     148: 14 05        	<unknown>
     14a: 05 71        	<unknown>
     14c: 00 00        	<unknown>
     14e: 00 03        	<unknown>
     150: 15 00        	<unknown>
     152: 05 09        	<unknown>
     154: 85 00        	<unknown>
     156: 00 00        	<unknown>
     158: 03 16 04 00  	lh	a2, 0(s0)
     15c: 03 79 00 00  	p.lb	s2, zero(zero)
     160: 00 08        	<unknown>
     162: 02 30        	<unknown>
     164: 03 81 00 00  	lb	sp, 0(ra)
     168: 00 07        	<unknown>
     16a: 01 4f        	<unknown>
     16c: 08 06        	<unknown>
     16e: 07 04 06 59  	flb	fs0, 1424(a2)
     172: 00 00        	<unknown>
     174: 00 02        	<unknown>
     176: 0d 95        	<unknown>
     178: 00 00        	<unknown>
     17a: 00 04        	<unknown>
     17c: 23 02 a1 01  	sb	s10, 4(sp)
     180: 09 36        	<unknown>
     182: 00 00        	<unknown>
     184: 00 0a        	<unknown>
     186: a1 00        	<unknown>
     188: 00 00        	<unknown>
     18a: 40 00        	<unknown>
     18c: 0b 0e 08 07  	p.lb	t3, 112(a6!)
     190: 0c 06        	<unknown>
     192: 71 00        	<unknown>
     194: 00 00        	<unknown>
     196: 06 b0        	<unknown>
     198: 00 00        	<unknown>
     19a: 00 0d        	<unknown>
     19c: 71 00        	<unknown>
     19e: 00 00        	<unknown>
     1a0: 06 ba        	<unknown>
     1a2: 00 00        	<unknown>
     1a4: 00 08        	<unknown>
     1a6: 0f 08 01 0e  	<unknown>
     1aa: 02 28        	<unknown>
     1ac: 00 00        	<unknown>
     1ae: 00 01        	<unknown>
     1b0: 52 26        	<unknown>
     1b2: 04 3d        	<unknown>
     1b4: 0f 01 5a 11  	<unknown>
     1b8: 04 3d        	<unknown>
     1ba: 35 01        	<unknown>
     1bc: 00 00        	<unknown>
     1be: 10 00        	<unknown>
     1c0: 2c 04        	<unknown>
     1c2: 3d a5        	<unknown>
     1c4: 00 00        	<unknown>
     1c6: 00 0f        	<unknown>
     1c8: 01 5c        	<unknown>
     1ca: 05 04        	<unknown>
     1cc: 3d b0        	<unknown>
     1ce: 00 00        	<unknown>
     1d0: 00 11        	<unknown>
     1d2: 01 1c        	<unknown>
     1d4: 04 40        	<unknown>
     1d6: 4c 00        	<unknown>
     1d8: 00 00        	<unknown>
     1da: 11 02        	<unknown>
     1dc: 2d 04        	<unknown>
     1de: 3f 71 00 00  	<unknown>
     1e2: 00 11        	<unknown>
     1e4: 03 1b 04 43  	lh	s6, 1072(s0)
     1e8: 71 00        	<unknown>
     1ea: 00 00        	<unknown>
     1ec: 00 12        	<unknown>
     1ee: 10 04        	<unknown>
     1f0: 4f a5 00 00  	fnmadd.s	a0, ra, zero, zero, rdn
     1f4: 00 13        	<unknown>
     1f6: 11 04        	<unknown>
     1f8: 4f 35 01 00  	fnmadd.s	a0, sp, zero, zero, rup
     1fc: 00 13        	<unknown>
     1fe: 05 04        	<unknown>
     200: 4f b0 00 00  	fnmadd.s	zero, ra, zero, zero, rup
     204: 00 14        	<unknown>
     206: 12 04        	<unknown>
     208: 51 4c        	<unknown>
     20a: 00 00        	<unknown>
     20c: 00 14        	<unknown>
     20e: 13 04 52 4c  	addi	s0, tp, 1221
     212: 00 00        	<unknown>
     214: 00 15        	<unknown>
     216: 14 14        	<unknown>
     218: 04 65        	<unknown>
     21a: 4c 00        	<unknown>
     21c: 00 00        	<unknown>
     21e: 00 00        	<unknown>
     220: 06 36        	<unknown>
     222: 00 00        	<unknown>
     224: 00 12        	<unknown>
     226: 15 04        	<unknown>
     228: 31 71        	<unknown>
     22a: 00 00        	<unknown>
     22c: 00 13        	<unknown>
     22e: 16 04        	<unknown>
     230: 31 53        	<unknown>
     232: 01 00        	<unknown>
     234: 00 13        	<unknown>
     236: 05 04        	<unknown>
     238: 32 b0        	<unknown>
     23a: 00 00        	<unknown>
     23c: 00 00        	<unknown>
     23e: 0d 58        	<unknown>
     240: 01 00        	<unknown>
     242: 00 06        	<unknown>
     244: 5d 01        	<unknown>
     246: 00 00        	<unknown>
     248: 16 17        	<unknown>
     24a: 03 f0 00 00  	p.lb	zero, zero(ra)
     24e: 00 01        	<unknown>
     250: 52 fb        	<unknown>
     252: 01 00        	<unknown>
     254: 00 18        	<unknown>
     256: 04 03        	<unknown>
     258: 02 00        	<unknown>
     25a: 00 18        	<unknown>
     25c: 05 0b        	<unknown>
     25e: 02 00        	<unknown>
     260: 00 19        	<unknown>
     262: 06 13        	<unknown>
     264: 02 00        	<unknown>
     266: 00 19        	<unknown>
     268: 07 1b 02 00  	<unknown>
     26c: 00 19        	<unknown>
     26e: 0c 23        	<unknown>
     270: 02 00        	<unknown>
     272: 00 19        	<unknown>
     274: 0f 2b 02 00  	<unknown>
     278: 00 1a        	<unknown>
     27a: 02 01        	<unknown>
     27c: 00 00        	<unknown>
     27e: 00 04        	<unknown>
     280: 84 15        	<unknown>
     282: 18 08        	<unknown>
     284: 0a 01        	<unknown>
     286: 00 00        	<unknown>
     288: 18 09        	<unknown>
     28a: 12 01        	<unknown>
     28c: 00 00        	<unknown>
     28e: 19 0a        	<unknown>
     290: 1a 01        	<unknown>
     292: 00 00        	<unknown>
     294: 19 0b        	<unknown>
     296: 22 01        	<unknown>
     298: 00 00        	<unknown>
     29a: 1b 04 34 00  	<unknown>
     29e: 00 00        	<unknown>
     2a0: 19 0d        	<unknown>
     2a2: 2b 01 00 00  	p.sb	zero, 2(zero!)
     2a6: 00 00        	<unknown>
     2a8: 1c 3a        	<unknown>
     2aa: 01 00        	<unknown>
     2ac: 00 05        	<unknown>
     2ae: 0c 00        	<unknown>
     2b0: 00 00        	<unknown>
     2b2: 04 8b        	<unknown>
     2b4: 1e 18        	<unknown>
     2b6: 0e 4a        	<unknown>
     2b8: 01 00        	<unknown>
     2ba: 00 00        	<unknown>
     2bc: 1d de        	<unknown>
     2be: 01 00        	<unknown>
     2c0: 00 06        	<unknown>
     2c2: 1d de        	<unknown>
     2c4: 01 00        	<unknown>
     2c6: 00 07        	<unknown>
     2c8: 00 1e        	<unknown>
     2ca: 17 05 3b ed  	auipc	a0, 971696
     2ce: 01 00        	<unknown>
     2d0: 00 1f        	<unknown>
     2d2: f1 01        	<unknown>
     2d4: 00 00        	<unknown>
     2d6: 20 00        	<unknown>
     2d8: 08 18        	<unknown>
     2da: 05 04        	<unknown>
     2dc: 06 f6        	<unknown>
     2de: 01 00        	<unknown>
     2e0: 00 0d        	<unknown>
     2e2: ba 00        	<unknown>
     2e4: 00 00        	<unknown>
     2e6: 21 19        	<unknown>
     2e8: 04 77        	<unknown>
     2ea: a5 00        	<unknown>
     2ec: 00 00        	<unknown>
     2ee: 13 11 04 77  	<unknown>
     2f2: 35 01        	<unknown>
     2f4: 00 00        	<unknown>
     2f6: 13 05 04 77  	addi	a0, s0, 1904
     2fa: b0 00        	<unknown>
     2fc: 00 00        	<unknown>
     2fe: 14 1a        	<unknown>
     300: 04 79        	<unknown>
     302: 71 00        	<unknown>
     304: 00 00        	<unknown>
     306: 14 1b        	<unknown>
     308: 04 7a        	<unknown>
     30a: 71 00        	<unknown>
     30c: 00 00        	<unknown>
     30e: 14 1c        	<unknown>
     310: 04 84        	<unknown>
     312: a5 00        	<unknown>
     314: 00 00        	<unknown>
     316: 14 1d        	<unknown>
     318: 04 8e        	<unknown>
     31a: a5 00        	<unknown>
     31c: 00 00        	<unknown>
     31e: 00 22        	<unknown>
     320: 08 fc        	<unknown>
     322: 00 00        	<unknown>
     324: 00 01        	<unknown>
     326: 52 27        	<unknown>
     328: 04 92        	<unknown>
     32a: a5 00        	<unknown>
     32c: 00 00        	<unknown>
     32e: 10 10        	<unknown>
     330: 05 04        	<unknown>
     332: 92 b0        	<unknown>
     334: 00 00        	<unknown>
     336: 00 1a        	<unknown>
     338: fb 01 00 00  	<unknown>
     33c: 01 04        	<unknown>
     33e: 93 0a 18 11  	addi	s5, a6, 273
     342: 0b 02 00 00  	p.lb	tp, 0(zero!)
     346: 19 12        	<unknown>
     348: 13 02 00 00  	li	tp, 0
     34c: 19 13        	<unknown>
     34e: 1b 02 00 00  	<unknown>
     352: 1a 02        	<unknown>
     354: 01 00        	<unknown>
     356: 00 02        	<unknown>
     358: 04 84        	<unknown>
     35a: 15 18        	<unknown>
     35c: 14 12        	<unknown>
     35e: 01 00        	<unknown>
     360: 00 19        	<unknown>
     362: 15 1a        	<unknown>
     364: 01 00        	<unknown>
     366: 00 19        	<unknown>
     368: 16 22        	<unknown>
     36a: 01 00        	<unknown>
     36c: 00 1b        	<unknown>
     36e: 09 38        	<unknown>
     370: 00 00        	<unknown>
     372: 00 19        	<unknown>
     374: 17 2b 01 00  	auipc	s6, 18
     378: 00 00        	<unknown>
     37a: 00 1c        	<unknown>
     37c: 3a 01        	<unknown>
     37e: 00 00        	<unknown>
     380: 0a 0c        	<unknown>
     382: 00 00        	<unknown>
     384: 00 04        	<unknown>
     386: 8b 1e 18 18  	p.lh	t4, 385(a6!)
     38a: 4a 01        	<unknown>
     38c: 00 00        	<unknown>
     38e: 00 00        	<unknown>
     390: 1d de        	<unknown>
     392: 01 00        	<unknown>
     394: 00 0b        	<unknown>
     396: 1d de        	<unknown>
     398: 01 00        	<unknown>
     39a: 00 0c        	<unknown>
     39c: 00 12        	<unknown>
     39e: 1e 04        	<unknown>
     3a0: 2d c3        	<unknown>
     3a2: 02 00        	<unknown>
     3a4: 00 13        	<unknown>
     3a6: 16 04        	<unknown>
     3a8: 2d 53        	<unknown>
     3aa: 01 00        	<unknown>
     3ac: 00 00        	<unknown>
     3ae: 03 cb 02 00  	lbu	s6, 0(t0)
     3b2: 00 21        	<unknown>
     3b4: 02 18        	<unknown>
     3b6: 03 d3 02 00  	lhu	t1, 0(t0)
     3ba: 00 20        	<unknown>
     3bc: 01 2b        	<unknown>
     3be: 08 1f        	<unknown>
     3c0: 08 01        	<unknown>
     3c2: 23 22 04 99  	sw	a6, -1660(s0)
     3c6: 13 11 04 99  	<unknown>
     3ca: 35 01        	<unknown>
     3cc: 00 00        	<unknown>
     3ce: 13 16 04 99  	<unknown>
     3d2: 0c 03        	<unknown>
     3d4: 00 00        	<unknown>
     3d6: 13 05 04 99  	addi	a0, s0, -1648
     3da: b0 00        	<unknown>
     3dc: 00 00        	<unknown>
     3de: 14 13        	<unknown>
     3e0: 04 9d        	<unknown>
     3e2: 4c 00        	<unknown>
     3e4: 00 00        	<unknown>
     3e6: 14 09        	<unknown>
     3e8: 04 9c        	<unknown>
     3ea: 4c 00        	<unknown>
     3ec: 00 00        	<unknown>
     3ee: 14 1c        	<unknown>
     3f0: 04 9a        	<unknown>
     3f2: 4c 00        	<unknown>
     3f4: 00 00        	<unknown>
     3f6: 00 0d        	<unknown>
     3f8: a5 00        	<unknown>
     3fa: 00 00        	<unknown>
     3fc: 17 0d a8 00  	auipc	s10, 2688
     400: 00 00        	<unknown>
     402: 01 52        	<unknown>
     404: 7f 03 00 00  	<unknown>
     408: 18 19        	<unknown>
     40a: 83 03 00 00  	lb	t2, 0(zero)
     40e: 18 1a        	<unknown>
     410: 8b 03 00 00  	p.lb	t2, 0(zero!)
     414: 19 1b        	<unknown>
     416: 93 03 00 00  	li	t2, 0
     41a: 19 1c        	<unknown>
     41c: 9b 03 00 00  	<unknown>
     420: 1c b2        	<unknown>
     422: 02 00        	<unknown>
     424: 00 0e        	<unknown>
     426: 04 00        	<unknown>
     428: 00 00        	<unknown>
     42a: 04 c8        	<unknown>
     42c: 21 24        	<unknown>
     42e: 01 5b        	<unknown>
     430: ba 02        	<unknown>
     432: 00 00        	<unknown>
     434: 00 1a        	<unknown>
     436: d7 02 00 00  	pv.add.h	t0, zero, zero
     43a: 03 04 ce 03  	lb	s0, 60(t3)
     43e: 18 22        	<unknown>
     440: db 02 00 00  	<unknown>
     444: 18 21        	<unknown>
     446: e3 02 00 00  	beqz	zero, 0xc4a <__l1_start+0xc4a>
     44a: 18 20        	<unknown>
     44c: eb 02 00 00  	<unknown>
     450: 19 1d        	<unknown>
     452: f3 02 00 00  	<unknown>
     456: 19 1e        	<unknown>
     458: fb 02 00 00  	<unknown>
     45c: 19 1f        	<unknown>
     45e: 03 03 00 00  	lb	t1, 0(zero)
     462: 00 25        	<unknown>
     464: de 01        	<unknown>
     466: 00 00        	<unknown>
     468: 0f 00 26 23  	<unknown>
     46c: 04 bf        	<unknown>
     46e: 13 11 04 bf  	<unknown>
     472: 35 01        	<unknown>
     474: 00 00        	<unknown>
     476: 13 16 04 bf  	<unknown>
     47a: 0c 03        	<unknown>
     47c: 00 00        	<unknown>
     47e: 14 1c        	<unknown>
     480: 04 c1        	<unknown>
     482: a5 00        	<unknown>
     484: 00 00        	<unknown>
     486: 14 24        	<unknown>
     488: 04 c4        	<unknown>
     48a: a4 03        	<unknown>
     48c: 00 00        	<unknown>
     48e: 00 0d        	<unknown>
     490: a9 03        	<unknown>
     492: 00 00        	<unknown>
     494: 03 b1 03 00  	<unknown>
     498: 00 25        	<unknown>
     49a: 04 2b        	<unknown>
     49c: 04 08        	<unknown>
     49e: 04 28        	<unknown>
     4a0: 05 05        	<unknown>
     4a2: 71 00        	<unknown>
     4a4: 00 00        	<unknown>
     4a6: 04 29        	<unknown>
     4a8: 00 05        	<unknown>
     4aa: 1e c3        	<unknown>
     4ac: 02 00        	<unknown>
     4ae: 00 04        	<unknown>
     4b0: 2a 04        	<unknown>
     4b2: 00 0e        	<unknown>
     4b4: 10 ac        	<unknown>
     4b6: 00 00        	<unknown>
     4b8: 00 01        	<unknown>
     4ba: 52 28        	<unknown>
     4bc: 04 d1        	<unknown>
     4be: 10 23        	<unknown>
     4c0: 16 04        	<unknown>
     4c2: d1 0c        	<unknown>
     4c4: 03 00 00 1a  	lb	zero, 416(zero)
     4c8: 7f 03 00 00  	<unknown>
     4cc: 04 04        	<unknown>
     4ce: d1 25        	<unknown>
     4d0: 18 24        	<unknown>
     4d2: 8b 03 00 00  	p.lb	t2, 0(zero!)
     4d6: 19 25        	<unknown>
     4d8: 93 03 00 00  	li	t2, 0
     4dc: 19 26        	<unknown>
     4de: 9b 03 00 00  	<unknown>
     4e2: 1c b2        	<unknown>
     4e4: 02 00        	<unknown>
     4e6: 00 11        	<unknown>
     4e8: 04 00        	<unknown>
     4ea: 00 00        	<unknown>
     4ec: 04 c8        	<unknown>
     4ee: 21 24        	<unknown>
     4f0: 01 5b        	<unknown>
     4f2: ba 02        	<unknown>
     4f4: 00 00        	<unknown>
     4f6: 00 1a        	<unknown>
     4f8: d7 02 00 00  	pv.add.h	t0, zero, zero
     4fc: 05 04        	<unknown>
     4fe: ce 03        	<unknown>
     500: 18 2b        	<unknown>
     502: e3 02 00 00  	beqz	zero, 0xd06 <__l1_start+0xd06>
     506: 18 2a        	<unknown>
     508: eb 02 00 00  	<unknown>
     50c: 19 27        	<unknown>
     50e: f3 02 00 00  	<unknown>
     512: 19 28        	<unknown>
     514: fb 02 00 00  	<unknown>
     518: 19 29        	<unknown>
     51a: 03 03 00 00  	lb	t1, 0(zero)
     51e: 00 00        	<unknown>
     520: 25 de        	<unknown>
     522: 01 00        	<unknown>
     524: 00 12        	<unknown>
     526: 00 0e        	<unknown>
     528: 13 90 00 00  	slli	zero, ra, 0
     52c: 00 01        	<unknown>
     52e: 52 29        	<unknown>
     530: 04 d6        	<unknown>
     532: 10 2c        	<unknown>
     534: 11 04        	<unknown>
     536: d6 35        	<unknown>
     538: 01 00        	<unknown>
     53a: 00 11        	<unknown>
     53c: 2d 12        	<unknown>
     53e: 04 d8        	<unknown>
     540: 4c 00        	<unknown>
     542: 00 00        	<unknown>
     544: 1d de        	<unknown>
     546: 01 00        	<unknown>
     548: 00 14        	<unknown>
     54a: 1d de        	<unknown>
     54c: 01 00        	<unknown>
     54e: 00 15        	<unknown>
     550: 25 de        	<unknown>
     552: 01 00        	<unknown>
     554: 00 16        	<unknown>
     556: 00 27        	<unknown>
     558: 17 0c 00 00  	auipc	s8, 0
     55c: 00 01        	<unknown>
     55e: 52 2a        	<unknown>
     560: 04 ef        	<unknown>
     562: 35 01        	<unknown>
     564: 00 00        	<unknown>
     566: 22 18        	<unknown>
     568: 14 00        	<unknown>
     56a: 00 00        	<unknown>
     56c: 01 52        	<unknown>
     56e: 2b 04 f1 35  	p.sb	t6, 840(sp!)
     572: 01 00        	<unknown>
     574: 00 10        	<unknown>
     576: 2e 2e        	<unknown>
     578: 04 f1        	<unknown>
     57a: b0 00        	<unknown>
     57c: 00 00        	<unknown>
     57e: 00 00        	<unknown>
     580: ae 01        	<unknown>
     582: 00 00        	<unknown>
     584: 05 00        	<unknown>
     586: 01 04        	<unknown>
     588: d7 02 00 00  	pv.add.h	t0, zero, zero
     58c: 01 e3        	<unknown>
     58e: 07 00 00 00  	flb	ft0, 0(zero)
     592: 00 00        	<unknown>
     594: 80 08        	<unknown>
     596: 01 00        	<unknown>
     598: 80 2f        	<unknown>
     59a: 75 73        	<unknown>
     59c: 72 2f        	<unknown>
     59e: 73 63 72 61  	csrrsi	t1, 1559, 4
     5a2: 74 63        	<unknown>
     5a4: 68 32        	<unknown>
     5a6: 2f 6c 61 72  	<unknown>
     5aa: 61 69        	<unknown>
     5ac: 6e 38        	<unknown>
     5ae: 2f 79 69 63  	<unknown>
     5b2: 7a 68        	<unknown>
     5b4: 61 6e        	<unknown>
     5b6: 67 2f 74 65  	<unknown>
     5ba: 72 61        	<unknown>
     5bc: 70 6f        	<unknown>
     5be: 6f 6c 5f 64  	jal	s8, 0xf7402 <__l1_alloc_base+0xd4b02>
     5c2: 72 61        	<unknown>
     5c4: 6d 5f        	<unknown>
     5c6: 73 75 62 6d  	csrrci	a0, 1750, 4
     5ca: 6f 64 75 6c  	jal	s0, 0x57490 <__l1_alloc_base+0x34b90>
     5ce: 65 5f        	<unknown>
     5d0: 72 65        	<unknown>
     5d2: 62 61        	<unknown>
     5d4: 73 65 5f 30  	csrrsi	a0, mtvec, 30
     5d8: 35 30        	<unknown>
     5da: 32 5f        	<unknown>
     5dc: 32 30        	<unknown>
     5de: 32 34        	<unknown>
     5e0: 2f 6d 65 6d  	<unknown>
     5e4: 70 6f        	<unknown>
     5e6: 6f 6c 2f 73  	jal	s8, 0xf6d18 <__l1_alloc_base+0xd4418>
     5ea: 6f 66 74 77  	jal	a2, 0x47560 <__l1_alloc_base+0x24c60>
     5ee: 61 72        	<unknown>
     5f0: 65 2f        	<unknown>
     5f2: 72 75        	<unknown>
     5f4: 6e 74        	<unknown>
     5f6: 69 6d        	<unknown>
     5f8: 65 2f        	<unknown>
     5fa: 63 72 74 30  	bgeu	s0, t2, 0x8fe <__l1_start+0x8fe>
     5fe: 2e 53        	<unknown>
     600: 00 2f        	<unknown>
     602: 75 73        	<unknown>
     604: 72 2f        	<unknown>
     606: 73 63 72 61  	csrrsi	t1, 1559, 4
     60a: 74 63        	<unknown>
     60c: 68 32        	<unknown>
     60e: 2f 6c 61 72  	<unknown>
     612: 61 69        	<unknown>
     614: 6e 38        	<unknown>
     616: 2f 79 69 63  	<unknown>
     61a: 7a 68        	<unknown>
     61c: 61 6e        	<unknown>
     61e: 67 2f 74 65  	<unknown>
     622: 72 61        	<unknown>
     624: 70 6f        	<unknown>
     626: 6f 6c 5f 64  	jal	s8, 0xf746a <__l1_alloc_base+0xd4b6a>
     62a: 72 61        	<unknown>
     62c: 6d 5f        	<unknown>
     62e: 73 75 62 6d  	csrrci	a0, 1750, 4
     632: 6f 64 75 6c  	jal	s0, 0x574f8 <__l1_alloc_base+0x34bf8>
     636: 65 5f        	<unknown>
     638: 72 65        	<unknown>
     63a: 62 61        	<unknown>
     63c: 73 65 5f 30  	csrrsi	a0, mtvec, 30
     640: 35 30        	<unknown>
     642: 32 5f        	<unknown>
     644: 32 30        	<unknown>
     646: 32 34        	<unknown>
     648: 2f 6d 65 6d  	<unknown>
     64c: 70 6f        	<unknown>
     64e: 6f 6c 2f 73  	jal	s8, 0xf6d80 <__l1_alloc_base+0xd4480>
     652: 6f 66 74 77  	jal	a2, 0x475c8 <__l1_alloc_base+0x24cc8>
     656: 61 72        	<unknown>
     658: 65 2f        	<unknown>
     65a: 61 70        	<unknown>
     65c: 70 73        	<unknown>
     65e: 2f 62 61 72  	<unknown>
     662: 65 6d        	<unknown>
     664: 65 74        	<unknown>
     666: 61 6c        	<unknown>
     668: 00 63        	<unknown>
     66a: 6c 61        	<unknown>
     66c: 6e 67        	<unknown>
     66e: 20 76        	<unknown>
     670: 65 72        	<unknown>
     672: 73 69 6f 6e  	csrrsi	s2, 1766, 30
     676: 20 31        	<unknown>
     678: 34 2e        	<unknown>
     67a: 30 2e        	<unknown>
     67c: 36 20        	<unknown>
     67e: 28 68        	<unknown>
     680: 74 74        	<unknown>
     682: 70 73        	<unknown>
     684: 3a 2f        	<unknown>
     686: 2f 67 69 74  	<unknown>
     68a: 68 75        	<unknown>
     68c: 62 2e        	<unknown>
     68e: 63 6f 6d 2f  	bltu	s10, s6, 0x98c <__l1_start+0x98c>
     692: 70 75        	<unknown>
     694: 6c 70        	<unknown>
     696: 2d 70        	<unknown>
     698: 6c 61        	<unknown>
     69a: 74 66        	<unknown>
     69c: 6f 72 6d 2f  	jal	tp, 0xd7992 <__l1_alloc_base+0xb5092>
     6a0: 73 6e 69 74  	csrrsi	t3, 1862, 18
     6a4: 63 68 2d 6c  	bltu	s10, sp, 0xd74 <__l1_start+0xd74>
     6a8: 6c 76        	<unknown>
     6aa: 6d 2e        	<unknown>
     6ac: 67 69 74 20  	<unknown>
     6b0: 30 31        	<unknown>
     6b2: 63 35 39 38  	<unknown>
     6b6: 30 31        	<unknown>
     6b8: 35 32        	<unknown>
     6ba: 61 33        	<unknown>
     6bc: 65 39        	<unknown>
     6be: 38 35        	<unknown>
     6c0: 61 65        	<unknown>
     6c2: 32 62        	<unknown>
     6c4: 31 39        	<unknown>
     6c6: 66 66        	<unknown>
     6c8: 61 34        	<unknown>
     6ca: 31 64        	<unknown>
     6cc: 34 65        	<unknown>
     6ce: 66 37        	<unknown>
     6d0: 63 36 38 37  	<unknown>
     6d4: 36 66        	<unknown>
     6d6: 63 31 29 00  	<unknown>
     6da: 01 80        	<unknown>
     6dc: 02 73        	<unknown>
     6de: 74 61        	<unknown>
     6e0: 72 74        	<unknown>
     6e2: 00 00        	<unknown>
     6e4: 00 00        	<unknown>
     6e6: 00 0a        	<unknown>
     6e8: 00 00        	<unknown>
     6ea: 00 00        	<unknown>
     6ec: 00 00        	<unknown>
     6ee: 80 02        	<unknown>
     6f0: 72 65        	<unknown>
     6f2: 73 65 74 5f  	csrrsi	a0, 1527, 8
     6f6: 76 65        	<unknown>
     6f8: 63 74 6f 72  	bgeu	t5, t1, 0xe20 <__l1_start+0xe20>
     6fc: 00 00        	<unknown>
     6fe: 00 00        	<unknown>
     700: 00 14        	<unknown>
     702: 00 00        	<unknown>
     704: 00 0c        	<unknown>
     706: 00 00        	<unknown>
     708: 80 02        	<unknown>
     70a: 6a 75        	<unknown>
     70c: 6d 70        	<unknown>
     70e: 5f 6d 61 69  	<unknown>
     712: 6e 00        	<unknown>
     714: 00 00        	<unknown>
     716: 00 00        	<unknown>
     718: 4e 00        	<unknown>
     71a: 00 00        	<unknown>
     71c: e4 00        	<unknown>
     71e: 00 80        	<unknown>
     720: 02 65        	<unknown>
     722: 6f 63 00 00  	jal	t1, 0x6722 <__l1_start+0x6722>
     726: 00 00        	<unknown>
     728: 00 51        	<unknown>
     72a: 00 00        	<unknown>
     72c: 00 e8        	<unknown>
     72e: 00 00        	<unknown>
     730: 80 00        	<unknown>
     732: e3 06 00 00  	beqz	zero, 0xf3e <__l1_start+0xf3e>
     736: 05 00        	<unknown>
     738: 01 04        	<unknown>
     73a: f8 02        	<unknown>
     73c: 00 00        	<unknown>
     73e: 01 00        	<unknown>
     740: 0c 00        	<unknown>
     742: 01 28        	<unknown>
     744: 01 00        	<unknown>
     746: 00 61        	<unknown>
     748: 08 00        	<unknown>
     74a: 00 02        	<unknown>
     74c: 00 a0        	<unknown>
     74e: 0c 00        	<unknown>
     750: 00 94        	<unknown>
     752: 00 00        	<unknown>
     754: 00 85        	<unknown>
     756: 00 00        	<unknown>
     758: 00 e3        	<unknown>
     75a: 03 00 00 02  	lb	zero, 32(zero)
     75e: 28 07        	<unknown>
     760: 01 02        	<unknown>
     762: 27 07 01 03  	fsb	fa6, 46(sp)
     766: 3b 00 00 00  	<unknown>
     76a: 04 01        	<unknown>
     76c: 2e 02        	<unknown>
     76e: 03 07 04 04  	lb	a4, 64(s0)
     772: 44 00        	<unknown>
     774: 00 00        	<unknown>
     776: 02 05        	<unknown>
     778: 08 01        	<unknown>
     77a: 03 50 00 00  	lhu	zero, 0(zero)
     77e: 00 07        	<unknown>
     780: 03 52 03 3b  	lhu	tp, 944(t1)
     784: 00 00        	<unknown>
     786: 00 06        	<unknown>
     788: 02 e8        	<unknown>
     78a: 02 08        	<unknown>
     78c: 05 04        	<unknown>
     78e: 02 09        	<unknown>
     790: 07 04 02 0a  	flb	fs0, 160(tp)
     794: 05 02        	<unknown>
     796: 02 0b        	<unknown>
     798: 08 01        	<unknown>
     79a: 02 0c        	<unknown>
     79c: 07 02 04 71  	flb	ft4, 1808(s0)
     7a0: 00 00        	<unknown>
     7a2: 00 03        	<unknown>
     7a4: 79 00        	<unknown>
     7a6: 00 00        	<unknown>
     7a8: 0f 04 65 05  	<unknown>
     7ac: 08 04        	<unknown>
     7ae: 62 06        	<unknown>
     7b0: 0d 90        	<unknown>
     7b2: 00 00        	<unknown>
     7b4: 00 04        	<unknown>
     7b6: 63 00 06 0e  	beqz	a2, 0x896 <__l1_start+0x896>
     7ba: a1 00        	<unknown>
     7bc: 00 00        	<unknown>
     7be: 04 64        	<unknown>
     7c0: 04 00        	<unknown>
     7c2: 04 95        	<unknown>
     7c4: 00 00        	<unknown>
     7c6: 00 07        	<unknown>
     7c8: 08 44        	<unknown>
     7ca: 00 00        	<unknown>
     7cc: 00 08        	<unknown>
     7ce: a1 00        	<unknown>
     7d0: 00 00        	<unknown>
     7d2: 00 09        	<unknown>
     7d4: 0a 00        	<unknown>
     7d6: 5c 00        	<unknown>
     7d8: 00 00        	<unknown>
     7da: 01 52        	<unknown>
     7dc: 29 04        	<unknown>
     7de: f2 02        	<unknown>
     7e0: 58 00        	<unknown>
     7e2: 00 00        	<unknown>
     7e4: 0b 00 35 04  	p.lb	zero, 67(a0!)
     7e8: f2 02        	<unknown>
     7ea: d7 02 00 00  	pv.add.h	t0, zero, zero
     7ee: 0c 02        	<unknown>
     7f0: 91 07        	<unknown>
     7f2: 1c 04        	<unknown>
     7f4: f5 02        	<unknown>
     7f6: a4 06        	<unknown>
     7f8: 00 00        	<unknown>
     7fa: 0c 02        	<unknown>
     7fc: 91 08        	<unknown>
     7fe: 36 04        	<unknown>
     800: f3 02 b4 06  	<unknown>
     804: 00 00        	<unknown>
     806: 0d 01        	<unknown>
     808: 39 04        	<unknown>
     80a: f6 02        	<unknown>
     80c: c2 06        	<unknown>
     80e: 00 00        	<unknown>
     810: 0e 0f        	<unknown>
     812: e6 00        	<unknown>
     814: 00 00        	<unknown>
     816: 01 00        	<unknown>
     818: 10 02        	<unknown>
     81a: 5c 07        	<unknown>
     81c: 00 00        	<unknown>
     81e: 01 52        	<unknown>
     820: 2a 04        	<unknown>
     822: c2 01        	<unknown>
     824: 58 00        	<unknown>
     826: 00 00        	<unknown>
     828: 0b 02 1a 04  	p.lb	tp, 65(s4!)
     82c: c2 01        	<unknown>
     82e: 7c 06        	<unknown>
     830: 00 00        	<unknown>
     832: 0b 03 1c 04  	p.lb	t1, 65(s8!)
     836: c2 01        	<unknown>
     838: 3f 00 00 00  	<unknown>
     83c: 0b 04 1e 04  	p.lb	s0, 65(t3!)
     840: c2 01        	<unknown>
     842: 9f 06 00 00  	<unknown>
     846: 0b 05 35 04  	p.lb	a0, 67(a0!)
     84a: c3 01 d7 02  	<unknown>
     84e: 00 00        	<unknown>
     850: 0b 06 36 04  	p.lb	a2, 67(a2!)
     854: c3 01 b4 06  	fmadd.b	gp, s0, a1, zero, rne
     858: 00 00        	<unknown>
     85a: 0d 07        	<unknown>
     85c: 1d 04        	<unknown>
     85e: c5 01        	<unknown>
     860: 33 00 00 00  	add	zero, zero, zero
     864: 0d 08        	<unknown>
     866: 25 04        	<unknown>
     868: c4 01        	<unknown>
     86a: 3b 00 00 00  	<unknown>
     86e: 0d 09        	<unknown>
     870: 3a 04        	<unknown>
     872: c4 01        	<unknown>
     874: 3b 00 00 00  	<unknown>
     878: 0d 0a        	<unknown>
     87a: 24 04        	<unknown>
     87c: c4 01        	<unknown>
     87e: 3b 00 00 00  	<unknown>
     882: 0d 0b        	<unknown>
     884: 3b 04 c4 01  	<unknown>
     888: 3b 00 00 00  	<unknown>
     88c: 11 a4        	<unknown>
     88e: 02 00        	<unknown>
     890: 00 03        	<unknown>
     892: 08 00        	<unknown>
     894: 00 00        	<unknown>
     896: 04 fd        	<unknown>
     898: 01 09        	<unknown>
     89a: 12 01        	<unknown>
     89c: 5a ac        	<unknown>
     89e: 02 00        	<unknown>
     8a0: 00 00        	<unknown>
     8a2: 11 b9        	<unknown>
     8a4: 02 00        	<unknown>
     8a6: 00 04        	<unknown>
     8a8: 24 00        	<unknown>
     8aa: 00 00        	<unknown>
     8ac: 04 fe        	<unknown>
     8ae: 01 0f        	<unknown>
     8b0: 13 01 65 c9  	addi	sp, a0, -874
     8b4: 02 00        	<unknown>
     8b6: 00 14        	<unknown>
     8b8: a4 02        	<unknown>
     8ba: 00 00        	<unknown>
     8bc: 05 08        	<unknown>
     8be: 00 00        	<unknown>
     8c0: 00 04        	<unknown>
     8c2: a0 0a        	<unknown>
     8c4: 12 01        	<unknown>
     8c6: 5a ac        	<unknown>
     8c8: 02 00        	<unknown>
     8ca: 00 00        	<unknown>
     8cc: 00 15        	<unknown>
     8ce: 06 0c        	<unknown>
     8d0: 00 00        	<unknown>
     8d2: 00 0d        	<unknown>
     8d4: 0c 3c        	<unknown>
     8d6: 04 00        	<unknown>
     8d8: 02 c2        	<unknown>
     8da: 06 00        	<unknown>
     8dc: 00 00        	<unknown>
     8de: 11 a4        	<unknown>
     8e0: 02 00        	<unknown>
     8e2: 00 07        	<unknown>
     8e4: 0c 00        	<unknown>
     8e6: 00 00        	<unknown>
     8e8: 04 0f        	<unknown>
     8ea: 02 0b        	<unknown>
     8ec: 12 01        	<unknown>
     8ee: 5a ac        	<unknown>
     8f0: 02 00        	<unknown>
     8f2: 00 00        	<unknown>
     8f4: 11 b9        	<unknown>
     8f6: 02 00        	<unknown>
     8f8: 00 08        	<unknown>
     8fa: 28 00        	<unknown>
     8fc: 00 00        	<unknown>
     8fe: 04 10        	<unknown>
     900: 02 15        	<unknown>
     902: 13 01 66 c9  	addi	sp, a2, -874
     906: 02 00        	<unknown>
     908: 00 14        	<unknown>
     90a: a4 02        	<unknown>
     90c: 00 00        	<unknown>
     90e: 09 08        	<unknown>
     910: 00 00        	<unknown>
     912: 00 04        	<unknown>
     914: a0 0a        	<unknown>
     916: 12 01        	<unknown>
     918: 5a ac        	<unknown>
     91a: 02 00        	<unknown>
     91c: 00 00        	<unknown>
     91e: 00 16        	<unknown>
     920: 00 0d        	<unknown>
     922: 0d 23        	<unknown>
     924: 04 12        	<unknown>
     926: 02 c2        	<unknown>
     928: 06 00        	<unknown>
     92a: 00 00        	<unknown>
     92c: 16 01        	<unknown>
     92e: 0d 0e        	<unknown>
     930: 22 04        	<unknown>
     932: 48 02        	<unknown>
     934: 3b 00 00 00  	<unknown>
     938: 16 02        	<unknown>
     93a: 0d 16        	<unknown>
     93c: 3d 04        	<unknown>
     93e: 73 02 c2 06  	<unknown>
     942: 00 00        	<unknown>
     944: 00 15        	<unknown>
     946: 0a 1c        	<unknown>
     948: 00 00        	<unknown>
     94a: 00 0d        	<unknown>
     94c: 0f 3d 04 6e  	<unknown>
     950: 02 c7        	<unknown>
     952: 06 00        	<unknown>
     954: 00 00        	<unknown>
     956: 16 03        	<unknown>
     958: 0d 17        	<unknown>
     95a: 3d 04        	<unknown>
     95c: 86 02        	<unknown>
     95e: d0 06        	<unknown>
     960: 00 00        	<unknown>
     962: 00 00        	<unknown>
     964: 16 04        	<unknown>
     966: 0d 10        	<unknown>
     968: 3f 04 9b 02  	<unknown>
     96c: 3b 00 00 00  	<unknown>
     970: 00 16        	<unknown>
     972: 05 0d        	<unknown>
     974: 14 40        	<unknown>
     976: 04 af        	<unknown>
     978: 02 d7        	<unknown>
     97a: 02 00        	<unknown>
     97c: 00 0d        	<unknown>
     97e: 15 3f        	<unknown>
     980: 04 b0        	<unknown>
     982: 02 3b        	<unknown>
     984: 00 00        	<unknown>
     986: 00 17        	<unknown>
     988: e1 02        	<unknown>
     98a: 00 00        	<unknown>
     98c: 06 04        	<unknown>
     98e: b0 02        	<unknown>
     990: 18 18        	<unknown>
     992: 13 e9 02 00  	ori	s2, t0, 0
     996: 00 18        	<unknown>
     998: 11 f1        	<unknown>
     99a: 02 00        	<unknown>
     99c: 00 19        	<unknown>
     99e: 12 f9        	<unknown>
     9a0: 02 00        	<unknown>
     9a2: 00 00        	<unknown>
     9a4: 00 1a        	<unknown>
     9a6: 01 62        	<unknown>
     9a8: 0b 1a 01 62  	p.lh	s4, 1568(sp!)
     9ac: 0c 1a        	<unknown>
     9ae: 01 62        	<unknown>
     9b0: 0d 1a        	<unknown>
     9b2: 01 62        	<unknown>
     9b4: 0e 1a        	<unknown>
     9b6: 01 62        	<unknown>
     9b8: 0f 1a 01 62  	<unknown>
     9bc: 10 0f        	<unknown>
     9be: 02 03        	<unknown>
     9c0: 00 00        	<unknown>
     9c2: 11 0f        	<unknown>
     9c4: 02 03        	<unknown>
     9c6: 00 00        	<unknown>
     9c8: 12 1a        	<unknown>
     9ca: 01 62        	<unknown>
     9cc: 13 1a 01 62  	<unknown>
     9d0: 14 1a        	<unknown>
     9d2: 01 62        	<unknown>
     9d4: 15 00        	<unknown>
     9d6: 1b 10 04 9b  	<unknown>
     9da: b5 02        	<unknown>
     9dc: 00 00        	<unknown>
     9de: 1c 12        	<unknown>
     9e0: 04 9b        	<unknown>
     9e2: 44 00        	<unknown>
     9e4: 00 00        	<unknown>
     9e6: 00 02        	<unknown>
     9e8: 11 02        	<unknown>
     9ea: 01 1b        	<unknown>
     9ec: 13 04 9e 3b  	addi	s0, t3, 953
     9f0: 00 00        	<unknown>
     9f2: 00 1c        	<unknown>
     9f4: 14 04        	<unknown>
     9f6: 9e d2        	<unknown>
     9f8: 02 00        	<unknown>
     9fa: 00 1d        	<unknown>
     9fc: 15 04        	<unknown>
     9fe: 9f 3b 00 00  	<unknown>
     a02: 00 00        	<unknown>
     a04: 04 d7        	<unknown>
     a06: 02 00        	<unknown>
     a08: 00 04        	<unknown>
     a0a: dc 02        	<unknown>
     a0c: 00 00        	<unknown>
     a0e: 1e 44        	<unknown>
     a10: 00 00        	<unknown>
     a12: 00 1b        	<unknown>
     a14: 16 04        	<unknown>
     a16: 92 3b        	<unknown>
     a18: 00 00        	<unknown>
     a1a: 00 1c        	<unknown>
     a1c: 14 04        	<unknown>
     a1e: 92 d7        	<unknown>
     a20: 02 00        	<unknown>
     a22: 00 1c        	<unknown>
     a24: 17 04 92 33  	auipc	s0, 211232
     a28: 00 00        	<unknown>
     a2a: 00 1d        	<unknown>
     a2c: 18 04        	<unknown>
     a2e: 93 d7 02 00  	srli	a5, t0, 0
     a32: 00 00        	<unknown>
     a34: 1f 23 88 03  	<unknown>
     a38: 00 00        	<unknown>
     a3a: 01 52        	<unknown>
     a3c: 33 04 f4 33  	<unknown>
     a40: 00 00        	<unknown>
     a42: 00 20        	<unknown>
     a44: 29 1a        	<unknown>
     a46: 04 f4        	<unknown>
     a48: 7c 06        	<unknown>
     a4a: 00 00        	<unknown>
     a4c: 20 2a        	<unknown>
     a4e: 1c 04        	<unknown>
     a50: f4 3f        	<unknown>
     a52: 00 00        	<unknown>
     a54: 00 20        	<unknown>
     a56: 2b 1d 04 f4  	p.sh	zero, -166(s0!)
     a5a: 33 00 00 00  	add	zero, zero, zero
     a5e: 20 2c        	<unknown>
     a60: 1e 04        	<unknown>
     a62: f5 33        	<unknown>
     a64: 00 00        	<unknown>
     a66: 00 20        	<unknown>
     a68: 2d 3d        	<unknown>
     a6a: 04 f5        	<unknown>
     a6c: 5c 00        	<unknown>
     a6e: 00 00        	<unknown>
     a70: 20 2e        	<unknown>
     a72: 21 04        	<unknown>
     a74: f5 b5        	<unknown>
     a76: 02 00        	<unknown>
     a78: 00 20        	<unknown>
     a7a: 2f 22 04 f6  	<unknown>
     a7e: 5c 00        	<unknown>
     a80: 00 00        	<unknown>
     a82: 20 30        	<unknown>
     a84: 23 04 f6 3b  	sb	t6, 936(a2)
     a88: 00 00        	<unknown>
     a8a: 00 20        	<unknown>
     a8c: 31 24        	<unknown>
     a8e: 04 f7        	<unknown>
     a90: 3b 00 00 00  	<unknown>
     a94: 20 32        	<unknown>
     a96: 25 04        	<unknown>
     a98: f7 3b 00 00  	<unknown>
     a9c: 00 21        	<unknown>
     a9e: 02 91        	<unknown>
     aa0: 04 1f        	<unknown>
     aa2: 04 f8        	<unknown>
     aa4: da 06        	<unknown>
     aa6: 00 00        	<unknown>
     aa8: 22 33        	<unknown>
     aaa: 20 04        	<unknown>
     aac: f9 33        	<unknown>
     aae: 00 00        	<unknown>
     ab0: 00 16        	<unknown>
     ab2: 07 23 44 04  	flw	ft6, 68(s0)
     ab6: 03 01 dc 02  	lb	sp, 45(s8)
     aba: 00 00        	<unknown>
     abc: 00 17        	<unknown>
     abe: ff 05 00 00  	<unknown>
     ac2: 08 04        	<unknown>
     ac4: 0b 01 0a 12  	p.lb	sp, 288(s4!)
     ac8: 01 63        	<unknown>
     aca: 07 06 00 00  	flb	fa2, 0(zero)
     ace: 12 01        	<unknown>
     ad0: 62 0f        	<unknown>
     ad2: 06 00        	<unknown>
     ad4: 00 18        	<unknown>
     ad6: 34 17        	<unknown>
     ad8: 06 00        	<unknown>
     ada: 00 12        	<unknown>
     adc: 01 59        	<unknown>
     ade: 1f 06 00 00  	<unknown>
     ae2: 18 3c        	<unknown>
     ae4: 27 06 00 00  	fsb	ft0, 12(zero)
     ae8: 18 35        	<unknown>
     aea: 2f 06 00 00  	<unknown>
     aee: 18 36        	<unknown>
     af0: 37 06 00 00  	lui	a2, 0
     af4: 18 37        	<unknown>
     af6: 3f 06 00 00  	<unknown>
     afa: 18 38        	<unknown>
     afc: 47 06 00 00  	fmsub.s	a2, zero, zero, zero, rne
     b00: 18 39        	<unknown>
     b02: 4f 06 00 00  	fnmadd.s	a2, zero, zero, zero, rne
     b06: 18 3a        	<unknown>
     b08: 57 06 00 00  	pv.add.h	a2, zero, zero
     b0c: 19 3b        	<unknown>
     b0e: 5f 06 00 00  	<unknown>
     b12: 15 24        	<unknown>
     b14: 28 00        	<unknown>
     b16: 00 00        	<unknown>
     b18: 19 3d        	<unknown>
     b1a: 68 06        	<unknown>
     b1c: 00 00        	<unknown>
     b1e: 00 15        	<unknown>
     b20: 25 34        	<unknown>
     b22: 00 00        	<unknown>
     b24: 00 19        	<unknown>
     b26: 3e 72        	<unknown>
     b28: 06 00        	<unknown>
     b2a: 00 00        	<unknown>
     b2c: 00 1a        	<unknown>
     b2e: 01 63        	<unknown>
     b30: 26 1a        	<unknown>
     b32: 01 63        	<unknown>
     b34: 27 1a 01 63  	<unknown>
     b38: 28 00        	<unknown>
     b3a: 24 16        	<unknown>
     b3c: 10 00        	<unknown>
     b3e: 00 00        	<unknown>
     b40: 01 52        	<unknown>
     b42: 2b 04 79 25  	p.sb	s7, 584(s2!)
     b46: 01 5a        	<unknown>
     b48: 41 04        	<unknown>
     b4a: 79 44        	<unknown>
     b4c: 00 00        	<unknown>
     b4e: 00 25        	<unknown>
     b50: 01 5b        	<unknown>
     b52: 1c 04        	<unknown>
     b54: 79 a1        	<unknown>
     b56: 00 00        	<unknown>
     b58: 00 25        	<unknown>
     b5a: 01 5c        	<unknown>
     b5c: 1d 04        	<unknown>
     b5e: 79 33        	<unknown>
     b60: 00 00        	<unknown>
     b62: 00 25        	<unknown>
     b64: 01 5d        	<unknown>
     b66: 1e 04        	<unknown>
     b68: 7a 33        	<unknown>
     b6a: 00 00        	<unknown>
     b6c: 00 00        	<unknown>
     b6e: 0a 17        	<unknown>
     b70: 58 00        	<unknown>
     b72: 00 00        	<unknown>
     b74: 01 52        	<unknown>
     b76: 2c 04        	<unknown>
     b78: fb 02 58 00  	<unknown>
     b7c: 00 00        	<unknown>
     b7e: 0b 18 1c 04  	p.lh	a6, 65(s8!)
     b82: fb 02 3f 00  	<unknown>
     b86: 00 00        	<unknown>
     b88: 0b 19 35 04  	p.lh	s2, 67(a0!)
     b8c: fb 02 d7 02  	<unknown>
     b90: 00 00        	<unknown>
     b92: 0c 02        	<unknown>
     b94: 91 00        	<unknown>
     b96: 36 04        	<unknown>
     b98: fc 02        	<unknown>
     b9a: b4 06        	<unknown>
     b9c: 00 00        	<unknown>
     b9e: 0d 1a        	<unknown>
     ba0: 39 04        	<unknown>
     ba2: fe 02        	<unknown>
     ba4: c2 06        	<unknown>
     ba6: 00 00        	<unknown>
     ba8: 0e 0f        	<unknown>
     baa: e6 00        	<unknown>
     bac: 00 00        	<unknown>
     bae: 18 00        	<unknown>
     bb0: 24 19        	<unknown>
     bb2: 10 00        	<unknown>
     bb4: 00 00        	<unknown>
     bb6: 01 52        	<unknown>
     bb8: 2d 04        	<unknown>
     bba: 68 25        	<unknown>
     bbc: 01 5a        	<unknown>
     bbe: 41 04        	<unknown>
     bc0: 68 44        	<unknown>
     bc2: 00 00        	<unknown>
     bc4: 00 20        	<unknown>
     bc6: 1b 1c 04 68  	<unknown>
     bca: a1 00        	<unknown>
     bcc: 00 00        	<unknown>
     bce: 25 01        	<unknown>
     bd0: 5c 1d        	<unknown>
     bd2: 04 68        	<unknown>
     bd4: 33 00 00 00  	add	zero, zero, zero
     bd8: 25 01        	<unknown>
     bda: 5d 1e        	<unknown>
     bdc: 04 69        	<unknown>
     bde: 33 00 00 00  	add	zero, zero, zero
     be2: 00 0a        	<unknown>
     be4: 1a 54        	<unknown>
     be6: 00 00        	<unknown>
     be8: 00 01        	<unknown>
     bea: 52 2e        	<unknown>
     bec: 04 03        	<unknown>
     bee: 03 58 00 00  	lhu	a6, 0(zero)
     bf2: 00 0b        	<unknown>
     bf4: 1c 1c        	<unknown>
     bf6: 04 03        	<unknown>
     bf8: 03 3f 00 00  	<unknown>
     bfc: 00 0b        	<unknown>
     bfe: 1d 42        	<unknown>
     c00: 04 03        	<unknown>
     c02: 03 33 00 00  	<unknown>
     c06: 00 0b        	<unknown>
     c08: 1e 35        	<unknown>
     c0a: 04 03        	<unknown>
     c0c: 03 d7 02 00  	lhu	a4, 0(t0)
     c10: 00 0c        	<unknown>
     c12: 02 91        	<unknown>
     c14: 00 36        	<unknown>
     c16: 04 04        	<unknown>
     c18: 03 b4 06 00  	<unknown>
     c1c: 00 0d        	<unknown>
     c1e: 1f 39 04 06  	<unknown>
     c22: 03 c2 06 00  	lbu	tp, 0(a3)
     c26: 00 0e        	<unknown>
     c28: 0f e6 00 00  	<unknown>
     c2c: 00 1b        	<unknown>
     c2e: 00 0a        	<unknown>
     c30: 1c 20        	<unknown>
     c32: 00 00        	<unknown>
     c34: 00 01        	<unknown>
     c36: 52 2f        	<unknown>
     c38: 04 0b        	<unknown>
     c3a: 03 58 00 00  	lhu	a6, 0(zero)
     c3e: 00 0b        	<unknown>
     c40: 20 1c        	<unknown>
     c42: 04 0b        	<unknown>
     c44: 03 3f 00 00  	<unknown>
     c48: 00 0b        	<unknown>
     c4a: 21 42        	<unknown>
     c4c: 04 0b        	<unknown>
     c4e: 03 33 00 00  	<unknown>
     c52: 00 0b        	<unknown>
     c54: 22 35        	<unknown>
     c56: 04 0b        	<unknown>
     c58: 03 d7 02 00  	lhu	a4, 0(t0)
     c5c: 00 0b        	<unknown>
     c5e: 23 36 04 0b  	<unknown>
     c62: 03 b4 06 00  	<unknown>
     c66: 00 26        	<unknown>
     c68: e6 00        	<unknown>
     c6a: 00 00        	<unknown>
     c6c: 1d 00        	<unknown>
     c6e: 0a 1e        	<unknown>
     c70: 5c 00        	<unknown>
     c72: 00 00        	<unknown>
     c74: 01 52        	<unknown>
     c76: 30 04        	<unknown>
     c78: 0f 03 58 00  	<unknown>
     c7c: 00 00        	<unknown>
     c7e: 0b 24 1a 04  	p.lw	s0, 65(s4!)
     c82: 0f 03 90 00  	<unknown>
     c86: 00 00        	<unknown>
     c88: 0b 25 0e 04  	p.lw	a0, 64(t3!)
     c8c: 0f 03 a1 00  	<unknown>
     c90: 00 00        	<unknown>
     c92: 0b 26 35 04  	p.lw	a2, 67(a0!)
     c96: 10 03        	<unknown>
     c98: d7 02 00 00  	pv.add.h	t0, zero, zero
     c9c: 0c 02        	<unknown>
     c9e: 91 08        	<unknown>
     ca0: 43 04 13 03  	<unknown>
     ca4: d5 06        	<unknown>
     ca6: 00 00        	<unknown>
     ca8: 0c 02        	<unknown>
     caa: 91 10        	<unknown>
     cac: 36 04        	<unknown>
     cae: 11 03        	<unknown>
     cb0: b4 06        	<unknown>
     cb2: 00 00        	<unknown>
     cb4: 0d 27        	<unknown>
     cb6: 39 04        	<unknown>
     cb8: 14 03        	<unknown>
     cba: c2 06        	<unknown>
     cbc: 00 00        	<unknown>
     cbe: 0e 0f        	<unknown>
     cc0: e6 00        	<unknown>
     cc2: 00 00        	<unknown>
     cc4: 1f 00 24 20  	<unknown>
     cc8: 14 00        	<unknown>
     cca: 00 00        	<unknown>
     ccc: 01 52        	<unknown>
     cce: 31 04        	<unknown>
     cd0: 84 25        	<unknown>
     cd2: 01 5a        	<unknown>
     cd4: 41 04        	<unknown>
     cd6: 84 44        	<unknown>
     cd8: 00 00        	<unknown>
     cda: 00 20        	<unknown>
     cdc: 28 1c        	<unknown>
     cde: 04 84        	<unknown>
     ce0: a1 00        	<unknown>
     ce2: 00 00        	<unknown>
     ce4: 25 01        	<unknown>
     ce6: 5c 1d        	<unknown>
     ce8: 04 84        	<unknown>
     cea: 33 00 00 00  	add	zero, zero, zero
     cee: 25 01        	<unknown>
     cf0: 5d 1e        	<unknown>
     cf2: 04 85        	<unknown>
     cf4: 33 00 00 00  	add	zero, zero, zero
     cf8: 27 01 56 21  	fsb	fs5, 514(a2)
     cfc: 00 24        	<unknown>
     cfe: 22 04        	<unknown>
     d00: 00 00        	<unknown>
     d02: 00 01        	<unknown>
     d04: 52 32        	<unknown>
     d06: 04 70        	<unknown>
     d08: 25 01        	<unknown>
     d0a: 5a 41        	<unknown>
     d0c: 04 70        	<unknown>
     d0e: 44 00        	<unknown>
     d10: 00 00        	<unknown>
     d12: 25 01        	<unknown>
     d14: 5b 1c 04 70  	<unknown>
     d18: a1 00        	<unknown>
     d1a: 00 00        	<unknown>
     d1c: 25 01        	<unknown>
     d1e: 5c 1d        	<unknown>
     d20: 04 70        	<unknown>
     d22: 33 00 00 00  	add	zero, zero, zero
     d26: 25 01        	<unknown>
     d28: 5d 1e        	<unknown>
     d2a: 04 71        	<unknown>
     d2c: 33 00 00 00  	add	zero, zero, zero
     d30: 00 1b        	<unknown>
     d32: 19 04        	<unknown>
     d34: a7 33 00 00  	<unknown>
     d38: 00 1c        	<unknown>
     d3a: 1a 04        	<unknown>
     d3c: a7 7c 06 00  	<unknown>
     d40: 00 1c        	<unknown>
     d42: 1c 04        	<unknown>
     d44: a7 3f 00 00  	<unknown>
     d48: 00 1c        	<unknown>
     d4a: 1d 04        	<unknown>
     d4c: a7 33 00 00  	<unknown>
     d50: 00 1c        	<unknown>
     d52: 1e 04        	<unknown>
     d54: a8 33        	<unknown>
     d56: 00 00        	<unknown>
     d58: 00 1c        	<unknown>
     d5a: 1f 04 a8 3f  	<unknown>
     d5e: 00 00        	<unknown>
     d60: 00 1c        	<unknown>
     d62: 20 04        	<unknown>
     d64: a8 33        	<unknown>
     d66: 00 00        	<unknown>
     d68: 00 1c        	<unknown>
     d6a: 21 04        	<unknown>
     d6c: a8 b5        	<unknown>
     d6e: 02 00        	<unknown>
     d70: 00 1c        	<unknown>
     d72: 22 04        	<unknown>
     d74: a9 3b        	<unknown>
     d76: 00 00        	<unknown>
     d78: 00 1c        	<unknown>
     d7a: 23 04 a9 3b  	sb	s10, 936(s2)
     d7e: 00 00        	<unknown>
     d80: 00 1c        	<unknown>
     d82: 24 04        	<unknown>
     d84: aa 3b        	<unknown>
     d86: 00 00        	<unknown>
     d88: 00 1c        	<unknown>
     d8a: 25 04        	<unknown>
     d8c: aa 3b        	<unknown>
     d8e: 00 00        	<unknown>
     d90: 00 1d        	<unknown>
     d92: 26 04        	<unknown>
     d94: ab 9f 06 00  	p.sh	zero, 31(a3!)
     d98: 00 28        	<unknown>
     d9a: 1d 15        	<unknown>
     d9c: 04 df        	<unknown>
     d9e: 33 00 00 00  	add	zero, zero, zero
     da2: 00 28        	<unknown>
     da4: 1d 15        	<unknown>
     da6: 04 e5        	<unknown>
     da8: 33 00 00 00  	add	zero, zero, zero
     dac: 00 00        	<unknown>
     dae: 03 84 06 00  	lb	s0, 0(a3)
     db2: 00 1b        	<unknown>
     db4: 04 5e        	<unknown>
     db6: 04 89        	<unknown>
     db8: 06 00        	<unknown>
     dba: 00 07        	<unknown>
     dbc: 08 44        	<unknown>
     dbe: 00 00        	<unknown>
     dc0: 00 08        	<unknown>
     dc2: a1 00        	<unknown>
     dc4: 00 00        	<unknown>
     dc6: 08 33        	<unknown>
     dc8: 00 00        	<unknown>
     dca: 00 08        	<unknown>
     dcc: 33 00 00 00  	add	zero, zero, zero
     dd0: 00 1e        	<unknown>
     dd2: 33 00 00 00  	add	zero, zero, zero
     dd6: 29 44        	<unknown>
     dd8: 00 00        	<unknown>
     dda: 00 2a        	<unknown>
     ddc: b0 06        	<unknown>
     dde: 00 00        	<unknown>
     de0: 01 00        	<unknown>
     de2: 2b 34 08 07  	<unknown>
     de6: 03 bc 06 00  	<unknown>
     dea: 00 38        	<unknown>
     dec: 05 0e        	<unknown>
     dee: 2c a1        	<unknown>
     df0: 00 00        	<unknown>
     df2: 00 37        	<unknown>
     df4: 1e 58        	<unknown>
     df6: 00 00        	<unknown>
     df8: 00 1e        	<unknown>
     dfa: cc 06        	<unknown>
     dfc: 00 00        	<unknown>
     dfe: 02 3e        	<unknown>
     e00: 05 04        	<unknown>
     e02: 1e 3b        	<unknown>
     e04: 00 00        	<unknown>
     e06: 00 1e        	<unknown>
     e08: 71 00        	<unknown>
     e0a: 00 00        	<unknown>
     e0c: 29 44        	<unknown>
     e0e: 00 00        	<unknown>
     e10: 00 2a        	<unknown>
     e12: b0 06        	<unknown>
     e14: 00 00        	<unknown>
     e16: 20 00        	<unknown>
     e18: 00 3a        	<unknown>
     e1a: 00 00        	<unknown>
     e1c: 00 05        	<unknown>
     e1e: 00 01        	<unknown>
     e20: 04 27        	<unknown>
     e22: 05 00        	<unknown>
     e24: 00 01        	<unknown>
     e26: 00 0c        	<unknown>
     e28: 00 01        	<unknown>
     e2a: 44 02        	<unknown>
     e2c: 00 00        	<unknown>
     e2e: c5 14        	<unknown>
     e30: 00 00        	<unknown>
     e32: 02 00        	<unknown>
     e34: 0c 00        	<unknown>
     e36: 00 00        	<unknown>
     e38: 40 01        	<unknown>
     e3a: 00 00        	<unknown>
     e3c: 02 00        	<unknown>
     e3e: 0c 00        	<unknown>
     e40: 00 00        	<unknown>
     e42: 01 52        	<unknown>
     e44: 03 01 09 03  	lb	sp, 48(s2)
     e48: 01 5a        	<unknown>
     e4a: 04 01        	<unknown>
     e4c: 09 39        	<unknown>
     e4e: 00 00        	<unknown>
     e50: 00 00        	<unknown>
     e52: 04 05        	<unknown>
     e54: 08 01        	<unknown>
     e56: 00 48        	<unknown>
     e58: 02 00        	<unknown>
     e5a: 00 05        	<unknown>
     e5c: 00 01        	<unknown>
     e5e: 04 70        	<unknown>
     e60: 05 00        	<unknown>
     e62: 00 01        	<unknown>
     e64: 00 0c        	<unknown>
     e66: 00 01        	<unknown>
     e68: 64 02        	<unknown>
     e6a: 00 00        	<unknown>
     e6c: 40 15        	<unknown>
     e6e: 00 00        	<unknown>
     e70: 02 00        	<unknown>
     e72: 1c 02        	<unknown>
     e74: 00 00        	<unknown>
     e76: 4c 01        	<unknown>
     e78: 00 00        	<unknown>
     e7a: 61 0c        	<unknown>
     e7c: 00 00        	<unknown>
     e7e: 02 2f        	<unknown>
     e80: 00 00        	<unknown>
     e82: 00 05        	<unknown>
     e84: 02 52        	<unknown>
     e86: 02 37        	<unknown>
     e88: 00 00        	<unknown>
     e8a: 00 04        	<unknown>
     e8c: 01 e8        	<unknown>
     e8e: 03 03 07 04  	lb	t1, 64(a4)
     e92: 04 27        	<unknown>
     e94: 00 00        	<unknown>
     e96: 00 04        	<unknown>
     e98: 45 00        	<unknown>
     e9a: 00 00        	<unknown>
     e9c: 03 06 08 01  	lb	a2, 16(a6)
     ea0: 02 37        	<unknown>
     ea2: 00 00        	<unknown>
     ea4: 00 07        	<unknown>
     ea6: 03 2e 04 56  	lw	t3, 1376(s0)
     eaa: 00 00        	<unknown>
     eac: 00 05        	<unknown>
     eae: 04 5c        	<unknown>
     eb0: 00 00        	<unknown>
     eb2: 00 06        	<unknown>
     eb4: 61 00        	<unknown>
     eb6: 00 00        	<unknown>
     eb8: 03 08 08 01  	lb	a6, 16(a6)
     ebc: 07 00 60 00  	flb	ft0, 6(zero)
     ec0: 00 00        	<unknown>
     ec2: 01 52        	<unknown>
     ec4: 09 04        	<unknown>
     ec6: 09 2e        	<unknown>
     ec8: 02 00        	<unknown>
     eca: 00 08        	<unknown>
     ecc: 01 5a        	<unknown>
     ece: 12 04        	<unknown>
     ed0: 09 2e        	<unknown>
     ed2: 02 00        	<unknown>
     ed4: 00 09        	<unknown>
     ed6: 00 13        	<unknown>
     ed8: 04 09        	<unknown>
     eda: 51 00        	<unknown>
     edc: 00 00        	<unknown>
     ede: 09 01        	<unknown>
     ee0: 14 04        	<unknown>
     ee2: 09 49        	<unknown>
     ee4: 00 00        	<unknown>
     ee6: 00 0a        	<unknown>
     ee8: 01 28        	<unknown>
     eea: 00 00        	<unknown>
     eec: 00 0b        	<unknown>
     eee: 02 15        	<unknown>
     ef0: 04 12        	<unknown>
     ef2: 40 00        	<unknown>
     ef4: 00 00        	<unknown>
     ef6: 0c 01        	<unknown>
     ef8: 5b 16 04 11  	<unknown>
     efc: 37 02 00 00  	lui	tp, 0
     f00: 00 0a        	<unknown>
     f02: 02 20        	<unknown>
     f04: 00 00        	<unknown>
     f06: 00 0c        	<unknown>
     f08: 01 5b        	<unknown>
     f0a: 16 04        	<unknown>
     f0c: 0c 41        	<unknown>
     f0e: 02 00        	<unknown>
     f10: 00 0b        	<unknown>
     f12: 03 15 04 0d  	lh	a0, 208(s0)
     f16: 3b 00 00 00  	<unknown>
     f1a: 00 00        	<unknown>
     f1c: 07 03 5c 00  	flb	ft6, 5(s8)
     f20: 00 00        	<unknown>
     f22: 01 52        	<unknown>
     f24: 0a 04        	<unknown>
     f26: 19 2e        	<unknown>
     f28: 02 00        	<unknown>
     f2a: 00 08        	<unknown>
     f2c: 01 5a        	<unknown>
     f2e: 12 04        	<unknown>
     f30: 19 2e        	<unknown>
     f32: 02 00        	<unknown>
     f34: 00 09        	<unknown>
     f36: 04 17        	<unknown>
     f38: 04 19        	<unknown>
     f3a: 2f 02 00 00  	<unknown>
     f3e: 09 05        	<unknown>
     f40: 14 04        	<unknown>
     f42: 19 49        	<unknown>
     f44: 00 00        	<unknown>
     f46: 00 0a        	<unknown>
     f48: 04 1c        	<unknown>
     f4a: 00 00        	<unknown>
     f4c: 00 0b        	<unknown>
     f4e: 06 15        	<unknown>
     f50: 04 24        	<unknown>
     f52: 40 00        	<unknown>
     f54: 00 00        	<unknown>
     f56: 00 0a        	<unknown>
     f58: 05 28        	<unknown>
     f5a: 00 00        	<unknown>
     f5c: 00 0d        	<unknown>
     f5e: 18 04        	<unknown>
     f60: 1b 27 00 00  	<unknown>
     f64: 00 0b        	<unknown>
     f66: 07 15 04 20  	<unknown>
     f6a: 3b 00 00 00  	<unknown>
     f6e: 00 00        	<unknown>
     f70: 07 06 1c 00  	flb	fa2, 1(s8)
     f74: 00 00        	<unknown>
     f76: 01 52        	<unknown>
     f78: 0b 04 2b 37  	p.lb	s0, 882(s6!)
     f7c: 00 00        	<unknown>
     f7e: 00 09        	<unknown>
     f80: 08 16        	<unknown>
     f82: 04 2b        	<unknown>
     f84: 37 02 00 00  	lui	tp, 0
     f88: 0b 09 19 04  	p.lb	s2, 65(s2!)
     f8c: 2c 37        	<unknown>
     f8e: 02 00        	<unknown>
     f90: 00 00        	<unknown>
     f92: 07 07 2c 00  	flb	fa4, 2(s8)
     f96: 00 00        	<unknown>
     f98: 01 52        	<unknown>
     f9a: 0c 04        	<unknown>
     f9c: 32 2f        	<unknown>
     f9e: 02 00        	<unknown>
     fa0: 00 09        	<unknown>
     fa2: 0a 1a        	<unknown>
     fa4: 04 32        	<unknown>
     fa6: 37 02 00 00  	lui	tp, 0
     faa: 08 01        	<unknown>
     fac: 5b 1b 04 32  	<unknown>
     fb0: 37 02 00 00  	lui	tp, 0
     fb4: 0b 0b 1c 04  	p.lb	s6, 65(s8!)
     fb8: 33 61 00 00  	or	sp, zero, zero
     fbc: 00 0b        	<unknown>
     fbe: 0c 1d        	<unknown>
     fc0: 04 33        	<unknown>
     fc2: 61 00        	<unknown>
     fc4: 00 00        	<unknown>
     fc6: 00 07        	<unknown>
     fc8: 08 74        	<unknown>
     fca: 00 00        	<unknown>
     fcc: 00 01        	<unknown>
     fce: 52 0e        	<unknown>
     fd0: 04 3d        	<unknown>
     fd2: 2f 02 00 00  	<unknown>
     fd6: 09 0d        	<unknown>
     fd8: 1a 04        	<unknown>
     fda: 3d 51        	<unknown>
     fdc: 00 00        	<unknown>
     fde: 00 09        	<unknown>
     fe0: 0e 1b        	<unknown>
     fe2: 04 3d        	<unknown>
     fe4: 51 00        	<unknown>
     fe6: 00 00        	<unknown>
     fe8: 09 0f        	<unknown>
     fea: 1e 04        	<unknown>
     fec: 3d 49        	<unknown>
     fee: 00 00        	<unknown>
     ff0: 00 0a        	<unknown>
     ff2: 09 3c        	<unknown>
     ff4: 00 00        	<unknown>
     ff6: 00 0b        	<unknown>
     ff8: 10 1f        	<unknown>
     ffa: 04 3f        	<unknown>
     ffc: 41 02        	<unknown>
     ffe: 00 00        	<unknown>
    1000: 0c 01        	<unknown>
    1002: 5b 20 04 40  	<unknown>
    1006: 41 02        	<unknown>
    1008: 00 00        	<unknown>
    100a: 0b 11 21 04  	p.lh	sp, 66(sp!)
    100e: 41 41        	<unknown>
    1010: 02 00        	<unknown>
    1012: 00 00        	<unknown>
    1014: 0a 0a        	<unknown>
    1016: 18 00        	<unknown>
    1018: 00 00        	<unknown>
    101a: 0b 12 1c 04  	p.lh	tp, 65(s8!)
    101e: 4e 61        	<unknown>
    1020: 00 00        	<unknown>
    1022: 00 0b        	<unknown>
    1024: 13 1d 04 4f  	<unknown>
    1028: 61 00        	<unknown>
    102a: 00 00        	<unknown>
    102c: 00 00        	<unknown>
    102e: 07 0b 20 00  	flb	fs6, 2(zero)
    1032: 00 00        	<unknown>
    1034: 01 52        	<unknown>
    1036: 0f 04 57 40  	<unknown>
    103a: 00 00        	<unknown>
    103c: 00 08        	<unknown>
    103e: 01 5a        	<unknown>
    1040: 12 04        	<unknown>
    1042: 57 40 00 00  	pv.add.sc.h	zero, zero, zero
    1046: 00 09        	<unknown>
    1048: 14 13        	<unknown>
    104a: 04 57        	<unknown>
    104c: 37 02 00 00  	lui	tp, 0
    1050: 0b 15 15 04  	p.lh	a0, 65(a0!)
    1054: 58 40        	<unknown>
    1056: 00 00        	<unknown>
    1058: 00 00        	<unknown>
    105a: 07 0c 84 00  	flb	fs8, 8(s0)
    105e: 00 00        	<unknown>
    1060: 01 52        	<unknown>
    1062: 10 04        	<unknown>
    1064: 5e 33        	<unknown>
    1066: 02 00        	<unknown>
    1068: 00 09        	<unknown>
    106a: 16 22        	<unknown>
    106c: 04 5e        	<unknown>
    106e: 37 02 00 00  	lui	tp, 0
    1072: 0b 17 23 04  	p.lh	a4, 66(t1!)
    1076: 5f 33 02 00  	<unknown>
    107a: 00 0b        	<unknown>
    107c: 18 24        	<unknown>
    107e: 04 60        	<unknown>
    1080: 2f 02 00 00  	<unknown>
    1084: 00 0e        	<unknown>
    1086: 03 0d 05 04  	lb	s10, 64(a0)
    108a: 03 11 05 04  	lh	sp, 64(a0)
    108e: 04 3c        	<unknown>
    1090: 02 00        	<unknown>
    1092: 00 06        	<unknown>
    1094: 45 00        	<unknown>
    1096: 00 00        	<unknown>
    1098: 04 46        	<unknown>
    109a: 02 00        	<unknown>
    109c: 00 06        	<unknown>
    109e: 27 00 00 00  	fsb	ft0, 0(zero)
    10a2: 00 87        	<unknown>
    10a4: 01 00        	<unknown>
    10a6: 00 05        	<unknown>
    10a8: 00 01        	<unknown>
    10aa: 04 26        	<unknown>
    10ac: 06 00        	<unknown>
    10ae: 00 01        	<unknown>
    10b0: 00 0c        	<unknown>
    10b2: 00 01        	<unknown>
    10b4: 00 03        	<unknown>
    10b6: 00 00        	<unknown>
    10b8: af 19 00 00  	<unknown>
    10bc: 02 03        	<unknown>
    10be: 8c 00        	<unknown>
    10c0: 00 00        	<unknown>
    10c2: 88 01        	<unknown>
    10c4: 00 00        	<unknown>
    10c6: bf 0e 00 00  	<unknown>
    10ca: 02 03        	<unknown>
    10cc: 32 00        	<unknown>
    10ce: 00 00        	<unknown>
    10d0: 03 0d 02 a1  	lb	s10, -1520(tp)
    10d4: 00 03        	<unknown>
    10d6: 37 00 00 00  	lui	zero, 0
    10da: 04 3f        	<unknown>
    10dc: 00 00        	<unknown>
    10de: 00 06        	<unknown>
    10e0: 02 30        	<unknown>
    10e2: 04 47        	<unknown>
    10e4: 00 00        	<unknown>
    10e6: 00 05        	<unknown>
    10e8: 01 4f        	<unknown>
    10ea: 05 04        	<unknown>
    10ec: 07 04 06 07  	flb	fs0, 112(a2)
    10f0: 58 00        	<unknown>
    10f2: 00 00        	<unknown>
    10f4: 03 0e 80 08  	lb	t3, 136(zero)
    10f8: 02 a1        	<unknown>
    10fa: 01 07        	<unknown>
    10fc: 32 00        	<unknown>
    10fe: 00 00        	<unknown>
    1100: 08 65        	<unknown>
    1102: 00 00        	<unknown>
    1104: 00 00        	<unknown>
    1106: 04 00        	<unknown>
    1108: 09 08        	<unknown>
    110a: 08 07        	<unknown>
    110c: 06 09        	<unknown>
    110e: 58 00        	<unknown>
    1110: 00 00        	<unknown>
    1112: 03 10 80 08  	lh	zero, 136(zero)
    1116: 02 a1        	<unknown>
    1118: 02 0a        	<unknown>
    111a: 0a 04        	<unknown>
    111c: 7e 0b        	<unknown>
    111e: 0b 04 82 0c  	p.lb	s0, 200(tp!)
    1122: 0c 04        	<unknown>
    1124: 82 37        	<unknown>
    1126: 00 00        	<unknown>
    1128: 00 00        	<unknown>
    112a: 0a 0d        	<unknown>
    112c: 04 83        	<unknown>
    112e: 0d 0e        	<unknown>
    1130: 03 24 0c 0f  	lw	s0, 240(s8)
    1134: 03 24 37 00  	lw	s0, 3(a4)
    1138: 00 00        	<unknown>
    113a: 00 0e        	<unknown>
    113c: 03 58 00 00  	lhu	a6, 0(zero)
    1140: 00 01        	<unknown>
    1142: 52 10        	<unknown>
    1144: 03 13 0f 00  	lh	t1, 0(t5)
    1148: 0c 03        	<unknown>
    114a: 13 37 00 00  	sltiu	a4, zero, 0
    114e: 00 10        	<unknown>
    1150: 76 00        	<unknown>
    1152: 00 00        	<unknown>
    1154: 04 08        	<unknown>
    1156: 00 00        	<unknown>
    1158: 00 03        	<unknown>
    115a: 1a 05        	<unknown>
    115c: 11 87        	<unknown>
    115e: 00 00        	<unknown>
    1160: 00 05        	<unknown>
    1162: 0c 00        	<unknown>
    1164: 00 00        	<unknown>
    1166: 03 17 05 11  	lh	a4, 272(a0)
    116a: 7a 00        	<unknown>
    116c: 00 00        	<unknown>
    116e: 05 0c        	<unknown>
    1170: 00 00        	<unknown>
    1172: 00 04        	<unknown>
    1174: 83 24 12 ff  	lw	s1, -15(tp)
    1178: ff ff ff ff  	<unknown>
    117c: ff ff ff ff  	<unknown>
    1180: 01 7e        	<unknown>
    1182: 00 00        	<unknown>
    1184: 00 00        	<unknown>
    1186: 00 10        	<unknown>
    1188: 76 00        	<unknown>
    118a: 00 00        	<unknown>
    118c: 06 04        	<unknown>
    118e: 00 00        	<unknown>
    1190: 00 03        	<unknown>
    1192: 18 05        	<unknown>
    1194: 11 8b        	<unknown>
    1196: 00 00        	<unknown>
    1198: 00 07        	<unknown>
    119a: 30 00        	<unknown>
    119c: 00 00        	<unknown>
    119e: 03 21 03 12  	lw	sp, 288(t1)
    11a2: 80 02        	<unknown>
    11a4: 8f 00 00 00  	<unknown>
    11a8: 11 87        	<unknown>
    11aa: 00 00        	<unknown>
    11ac: 00 08        	<unknown>
    11ae: 0c 00        	<unknown>
    11b0: 00 00        	<unknown>
    11b2: 03 29 05 11  	lw	s2, 272(a0)
    11b6: 7a 00        	<unknown>
    11b8: 00 00        	<unknown>
    11ba: 08 0c        	<unknown>
    11bc: 00 00        	<unknown>
    11be: 00 04        	<unknown>
    11c0: 83 24 12 ff  	lw	s1, -15(tp)
    11c4: ff ff ff ff  	<unknown>
    11c8: ff ff ff ff  	<unknown>
    11cc: 01 7e        	<unknown>
    11ce: 00 00        	<unknown>
    11d0: 00 00        	<unknown>
    11d2: 00 10        	<unknown>
    11d4: 76 00        	<unknown>
    11d6: 00 00        	<unknown>
    11d8: 09 04        	<unknown>
    11da: 00 00        	<unknown>
    11dc: 00 03        	<unknown>
    11de: 2d 03        	<unknown>
    11e0: 00 00        	<unknown>
    11e2: 13 0a 34 00  	addi	s4, s0, 3
    11e6: 00 00        	<unknown>
    11e8: 01 52        	<unknown>
    11ea: 8b 00 00 00  	p.lb	ra, 0(zero!)
    11ee: 14 01        	<unknown>
    11f0: 8f 00 00 00  	<unknown>
    11f4: 11 87        	<unknown>
    11f6: 00 00        	<unknown>
    11f8: 00 0b        	<unknown>
    11fa: 0c 00        	<unknown>
    11fc: 00 00        	<unknown>
    11fe: 03 29 05 11  	lw	s2, 272(a0)
    1202: 7a 00        	<unknown>
    1204: 00 00        	<unknown>
    1206: 0b 0c 00 00  	p.lb	s8, 0(zero!)
    120a: 00 04        	<unknown>
    120c: 83 24 12 ff  	lw	s1, -15(tp)
    1210: ff ff ff ff  	<unknown>
    1214: ff ff ff ff  	<unknown>
    1218: 01 7e        	<unknown>
    121a: 00 00        	<unknown>
    121c: 00 00        	<unknown>
    121e: 00 10        	<unknown>
    1220: 76 00        	<unknown>
    1222: 00 00        	<unknown>
    1224: 0c 04        	<unknown>
    1226: 00 00        	<unknown>
    1228: 00 03        	<unknown>
    122a: 2d 03        	<unknown>
    122c: 00 00        	<unknown>

Disassembly of section .debug_str_offsets:

00000000 <.debug_str_offsets>:
       0: 58 00        	<unknown>
       2: 00 00        	<unknown>
       4: 05 00        	<unknown>
       6: 00 00        	<unknown>
       8: 00 00        	<unknown>
       a: 00 00        	<unknown>
       c: 71 00        	<unknown>
       e: 00 00        	<unknown>
      10: 8b 00 00 00  	p.lb	ra, 0(zero!)
      14: f3 00 00 00  	<unknown>
      18: fa 00        	<unknown>
      1a: 00 00        	<unknown>
      1c: 07 01 00 00  	flb	ft2, 0(zero)
      20: 09 01        	<unknown>
      22: 00 00        	<unknown>
      24: 12 01        	<unknown>
      26: 00 00        	<unknown>
      28: 26 01        	<unknown>
      2a: 00 00        	<unknown>
      2c: 3a 01        	<unknown>
      2e: 00 00        	<unknown>
      30: a4 02        	<unknown>
      32: 00 00        	<unknown>
      34: 47 01 00 00  	fmsub.s	sp, zero, zero, zero, rne
      38: 5c 01        	<unknown>
      3a: 00 00        	<unknown>
      3c: 6c 01        	<unknown>
      3e: 00 00        	<unknown>
      40: 03 01 00 00  	lb	sp, 0(zero)
      44: 71 01        	<unknown>
      46: 00 00        	<unknown>
      48: 32 01        	<unknown>
      4a: 00 00        	<unknown>
      4c: 7b 01 00 00  	<unknown>
      50: 81 01        	<unknown>
      52: 00 00        	<unknown>
      54: 83 01 00 00  	lb	gp, 0(zero)
      58: 0d 07        	<unknown>
      5a: 00 00        	<unknown>
      5c: c0 00        	<unknown>
      5e: 00 00        	<unknown>
      60: 05 00        	<unknown>
      62: 00 00        	<unknown>
      64: 00 00        	<unknown>
      66: 00 00        	<unknown>
      68: 8b 01 00 00  	p.lb	gp, 0(zero!)
      6c: 8b 00 00 00  	p.lb	ra, 0(zero!)
      70: 1e 03        	<unknown>
      72: 00 00        	<unknown>
      74: f4 01        	<unknown>
      76: 00 00        	<unknown>
      78: 6e 02        	<unknown>
      7a: 00 00        	<unknown>
      7c: fa 00        	<unknown>
      7e: 00 00        	<unknown>
      80: 07 01 00 00  	flb	ft2, 0(zero)
      84: 09 01        	<unknown>
      86: 00 00        	<unknown>
      88: 00 02        	<unknown>
      8a: 00 00        	<unknown>
      8c: 05 02        	<unknown>
      8e: 00 00        	<unknown>
      90: 13 02 00 00  	li	tp, 0
      94: 21 02        	<unknown>
      96: 00 00        	<unknown>
      98: 2b 03 00 00  	p.sb	zero, 6(zero!)
      9c: 12 01        	<unknown>
      9e: 00 00        	<unknown>
      a0: a1 02        	<unknown>
      a2: 00 00        	<unknown>
      a4: 29 02        	<unknown>
      a6: 00 00        	<unknown>
      a8: fd 02        	<unknown>
      aa: 00 00        	<unknown>
      ac: 39 02        	<unknown>
      ae: 00 00        	<unknown>
      b0: 3e 02        	<unknown>
      b2: 00 00        	<unknown>
      b4: 43 02 00 00  	fmadd.s	tp, zero, zero, zero, rne
      b8: 4d 02        	<unknown>
      ba: 00 00        	<unknown>
      bc: 8d 02        	<unknown>
      be: 00 00        	<unknown>
      c0: c2 04        	<unknown>
      c2: 00 00        	<unknown>
      c4: 03 01 00 00  	lb	sp, 0(zero)
      c8: 5b 02 00 00  	<unknown>
      cc: 69 02        	<unknown>
      ce: 00 00        	<unknown>
      d0: 73 02 00 00  	<unknown>
      d4: 7e 02        	<unknown>
      d6: 00 00        	<unknown>
      d8: 88 02        	<unknown>
      da: 00 00        	<unknown>
      dc: 91 02        	<unknown>
      de: 00 00        	<unknown>
      e0: 98 02        	<unknown>
      e2: 00 00        	<unknown>
      e4: a6 02        	<unknown>
      e6: 00 00        	<unknown>
      e8: a8 02        	<unknown>
      ea: 00 00        	<unknown>
      ec: b0 02        	<unknown>
      ee: 00 00        	<unknown>
      f0: bc 02        	<unknown>
      f2: 00 00        	<unknown>
      f4: c8 02        	<unknown>
      f6: 00 00        	<unknown>
      f8: d8 02        	<unknown>
      fa: 00 00        	<unknown>
      fc: ea 02        	<unknown>
      fe: 00 00        	<unknown>
     100: f5 02        	<unknown>
     102: 00 00        	<unknown>
     104: 03 03 00 00  	lb	t1, 0(zero)
     108: 0f 03 00 00  	<unknown>
     10c: 1a 03        	<unknown>
     10e: 00 00        	<unknown>
     110: 27 03 00 00  	fsb	ft0, 6(zero)
     114: 3e 03        	<unknown>
     116: 00 00        	<unknown>
     118: 36 03        	<unknown>
     11a: 00 00        	<unknown>
     11c: 43 03 00 00  	fmadd.s	t1, zero, zero, zero, rne
     120: 18 01        	<unknown>
     122: 00 00        	<unknown>
     124: 05 00        	<unknown>
     126: 00 00        	<unknown>
     128: 00 00        	<unknown>
     12a: 00 00        	<unknown>
     12c: 4b 03 00 00  	fnmsub.s	t1, zero, zero, zero, rne
     130: 8b 00 00 00  	p.lb	ra, 0(zero!)
     134: fa 00        	<unknown>
     136: 00 00        	<unknown>
     138: e3 02 00 00  	beqz	zero, 0x93c <__l1_start+0x93c>
     13c: a1 02        	<unknown>
     13e: 00 00        	<unknown>
     140: b5 03        	<unknown>
     142: 00 00        	<unknown>
     144: b7 03 00 00  	lui	t2, 0
     148: 03 01 00 00  	lb	sp, 0(zero)
     14c: c1 03        	<unknown>
     14e: 00 00        	<unknown>
     150: d8 03        	<unknown>
     152: 00 00        	<unknown>
     154: 98 02        	<unknown>
     156: 00 00        	<unknown>
     158: cf 03 00 00  	fnmadd.s	t2, zero, zero, zero, rne
     15c: d9 04        	<unknown>
     15e: 00 00        	<unknown>
     160: de 03        	<unknown>
     162: 00 00        	<unknown>
     164: e2 03        	<unknown>
     166: 00 00        	<unknown>
     168: f4 03        	<unknown>
     16a: 00 00        	<unknown>
     16c: fe 03        	<unknown>
     16e: 00 00        	<unknown>
     170: 04 04        	<unknown>
     172: 00 00        	<unknown>
     174: 07 04 00 00  	flb	fs0, 0(zero)
     178: 0d 04        	<unknown>
     17a: 00 00        	<unknown>
     17c: 0d 07        	<unknown>
     17e: 00 00        	<unknown>
     180: 11 04        	<unknown>
     182: 00 00        	<unknown>
     184: 1c 04        	<unknown>
     186: 00 00        	<unknown>
     188: 11 02        	<unknown>
     18a: 00 00        	<unknown>
     18c: 24 04        	<unknown>
     18e: 00 00        	<unknown>
     190: 31 04        	<unknown>
     192: 00 00        	<unknown>
     194: 35 04        	<unknown>
     196: 00 00        	<unknown>
     198: b8 04        	<unknown>
     19a: 00 00        	<unknown>
     19c: 6d 04        	<unknown>
     19e: 00 00        	<unknown>
     1a0: 42 04        	<unknown>
     1a2: 00 00        	<unknown>
     1a4: 49 04        	<unknown>
     1a6: 00 00        	<unknown>
     1a8: 28 06        	<unknown>
     1aa: 00 00        	<unknown>
     1ac: 4d 04        	<unknown>
     1ae: 00 00        	<unknown>
     1b0: 3e 03        	<unknown>
     1b2: 00 00        	<unknown>
     1b4: 56 04        	<unknown>
     1b6: 00 00        	<unknown>
     1b8: 5b 04 00 00  	<unknown>
     1bc: 61 04        	<unknown>
     1be: 00 00        	<unknown>
     1c0: 67 04 00 00  	jalr	s0, zero
     1c4: 71 04        	<unknown>
     1c6: 00 00        	<unknown>
     1c8: 83 04 00 00  	lb	s1, 0(zero)
     1cc: c2 04        	<unknown>
     1ce: 00 00        	<unknown>
     1d0: 95 04        	<unknown>
     1d2: 00 00        	<unknown>
     1d4: a0 04        	<unknown>
     1d6: 00 00        	<unknown>
     1d8: aa 04        	<unknown>
     1da: 00 00        	<unknown>
     1dc: b3 04 00 00  	add	s1, zero, zero
     1e0: c0 04        	<unknown>
     1e2: 00 00        	<unknown>
     1e4: bf 04 00 00  	<unknown>
     1e8: ca 04        	<unknown>
     1ea: 00 00        	<unknown>
     1ec: d4 04        	<unknown>
     1ee: 00 00        	<unknown>
     1f0: dd 04        	<unknown>
     1f2: 00 00        	<unknown>
     1f4: e7 04 00 00  	jalr	s1, zero
     1f8: 12 01        	<unknown>
     1fa: 00 00        	<unknown>
     1fc: 2a 04        	<unknown>
     1fe: 00 00        	<unknown>
     200: f2 04        	<unknown>
     202: 00 00        	<unknown>
     204: f5 04        	<unknown>
     206: 00 00        	<unknown>
     208: ff 04 00 00  	<unknown>
     20c: 07 05 00 00  	flb	fa0, 0(zero)
     210: 2a 06        	<unknown>
     212: 00 00        	<unknown>
     214: 0b 05 00 00  	p.lb	a0, 0(zero!)
     218: 15 05        	<unknown>
     21a: 00 00        	<unknown>
     21c: 17 05 00 00  	auipc	a0, 0
     220: ca 03        	<unknown>
     222: 00 00        	<unknown>
     224: f1 00        	<unknown>
     226: 00 00        	<unknown>
     228: 38 05        	<unknown>
     22a: 00 00        	<unknown>
     22c: 1d 05        	<unknown>
     22e: 00 00        	<unknown>
     230: 27 05 00 00  	fsb	ft0, 10(zero)
     234: 2d 05        	<unknown>
     236: 00 00        	<unknown>
     238: f8 03        	<unknown>
     23a: 00 00        	<unknown>
     23c: 1c 00        	<unknown>
     23e: 00 00        	<unknown>
     240: 05 00        	<unknown>
     242: 00 00        	<unknown>
     244: 00 00        	<unknown>
     246: 00 00        	<unknown>
     248: 3a 05        	<unknown>
     24a: 00 00        	<unknown>
     24c: 8b 00 00 00  	p.lb	ra, 0(zero!)
     250: a4 05        	<unknown>
     252: 00 00        	<unknown>
     254: 1d 05        	<unknown>
     256: 00 00        	<unknown>
     258: a1 02        	<unknown>
     25a: 00 00        	<unknown>
     25c: 98 00        	<unknown>
     25e: 00 00        	<unknown>
     260: 05 00        	<unknown>
     262: 00 00        	<unknown>
     264: 00 00        	<unknown>
     266: 00 00        	<unknown>
     268: ad 05        	<unknown>
     26a: 00 00        	<unknown>
     26c: 8b 00 00 00  	p.lb	ra, 0(zero!)
     270: fa 00        	<unknown>
     272: 00 00        	<unknown>
     274: b5 03        	<unknown>
     276: 00 00        	<unknown>
     278: b7 03 00 00  	lui	t2, 0
     27c: a1 02        	<unknown>
     27e: 00 00        	<unknown>
     280: e3 02 00 00  	beqz	zero, 0xa84 <__l1_start+0xa84>
     284: 98 02        	<unknown>
     286: 00 00        	<unknown>
     288: 17 06 00 00  	auipc	a2, 0
     28c: 1e 06        	<unknown>
     28e: 00 00        	<unknown>
     290: 25 06        	<unknown>
     292: 00 00        	<unknown>
     294: 2c 06        	<unknown>
     296: 00 00        	<unknown>
     298: 03 01 00 00  	lb	sp, 0(zero)
     29c: 33 06 00 00  	add	a2, zero, zero
     2a0: 3a 06        	<unknown>
     2a2: 00 00        	<unknown>
     2a4: 41 06        	<unknown>
     2a6: 00 00        	<unknown>
     2a8: ca 03        	<unknown>
     2aa: 00 00        	<unknown>
     2ac: 46 06        	<unknown>
     2ae: 00 00        	<unknown>
     2b0: 4b 06 00 00  	fnmsub.s	a2, zero, zero, zero, rne
     2b4: 28 06        	<unknown>
     2b6: 00 00        	<unknown>
     2b8: 49 03        	<unknown>
     2ba: 00 00        	<unknown>
     2bc: 11 02        	<unknown>
     2be: 00 00        	<unknown>
     2c0: 4f 06 00 00  	fnmadd.s	a2, zero, zero, zero, rne
     2c4: 54 06        	<unknown>
     2c6: 00 00        	<unknown>
     2c8: 38 05        	<unknown>
     2ca: 00 00        	<unknown>
     2cc: 59 06        	<unknown>
     2ce: 00 00        	<unknown>
     2d0: 5c 06        	<unknown>
     2d2: 00 00        	<unknown>
     2d4: 5f 06 00 00  	<unknown>
     2d8: 62 06        	<unknown>
     2da: 00 00        	<unknown>
     2dc: 2a 06        	<unknown>
     2de: 00 00        	<unknown>
     2e0: 65 06        	<unknown>
     2e2: 00 00        	<unknown>
     2e4: 68 06        	<unknown>
     2e6: 00 00        	<unknown>
     2e8: 6b 06 00 00  	<unknown>
     2ec: 0d 04        	<unknown>
     2ee: 00 00        	<unknown>
     2f0: 77 01 00 00  	<unknown>
     2f4: 6f 06 00 00  	jal	a2, 0x2f4 <__l1_start+0x2f4>
     2f8: 48 00        	<unknown>
     2fa: 00 00        	<unknown>
     2fc: 05 00        	<unknown>
     2fe: 00 00        	<unknown>
     300: 00 00        	<unknown>
     302: 00 00        	<unknown>
     304: 74 06        	<unknown>
     306: 00 00        	<unknown>
     308: 8b 00 00 00  	p.lb	ra, 0(zero!)
     30c: eb 06 00 00  	<unknown>
     310: fa 00        	<unknown>
     312: 00 00        	<unknown>
     314: 07 01 00 00  	flb	ft2, 0(zero)
     318: 09 01        	<unknown>
     31a: 00 00        	<unknown>
     31c: e7 06 00 00  	jalr	a3, zero
     320: 12 01        	<unknown>
     322: 00 00        	<unknown>
     324: f3 06 00 00  	<unknown>
     328: 03 07 00 00  	lb	a4, 0(zero)
     32c: 0f 07 00 00  	<unknown>
     330: 32 01        	<unknown>
     332: 00 00        	<unknown>
     334: 17 07 00 00  	auipc	a4, 0
     338: 5c 01        	<unknown>
     33a: 00 00        	<unknown>
     33c: 71 01        	<unknown>
     33e: 00 00        	<unknown>
     340: 47 01 00 00  	fmsub.s	sp, zero, zero, zero, rne

Disassembly of section .debug_str:

00000000 <.debug_str>:
       0: 63 6c 61 6e  	bltu	sp, t1, 0x6f8 <__l1_start+0x6f8>
       4: 67 20 76 65  	<unknown>
       8: 72 73        	<unknown>
       a: 69 6f        	<unknown>
       c: 6e 20        	<unknown>
       e: 31 34        	<unknown>
      10: 2e 30        	<unknown>
      12: 2e 36        	<unknown>
      14: 20 28        	<unknown>
      16: 68 74        	<unknown>
      18: 74 70        	<unknown>
      1a: 73 3a 2f 2f  	csrrc	s4, 754, t5
      1e: 67 69 74 68  	<unknown>
      22: 75 62        	<unknown>
      24: 2e 63        	<unknown>
      26: 6f 6d 2f 70  	jal	s10, 0xf6728 <__l1_alloc_base+0xd3e28>
      2a: 75 6c        	<unknown>
      2c: 70 2d        	<unknown>
      2e: 70 6c        	<unknown>
      30: 61 74        	<unknown>
      32: 66 6f        	<unknown>
      34: 72 6d        	<unknown>
      36: 2f 73 6e 69  	<unknown>
      3a: 74 63        	<unknown>
      3c: 68 2d        	<unknown>
      3e: 6c 6c        	<unknown>
      40: 76 6d        	<unknown>
      42: 2e 67        	<unknown>
      44: 69 74        	<unknown>
      46: 20 30        	<unknown>
      48: 31 63        	<unknown>
      4a: 35 39        	<unknown>
      4c: 38 30        	<unknown>
      4e: 31 35        	<unknown>
      50: 32 61        	<unknown>
      52: 33 65 39 38  	<unknown>
      56: 35 61        	<unknown>
      58: 65 32        	<unknown>
      5a: 62 31        	<unknown>
      5c: 39 66        	<unknown>
      5e: 66 61        	<unknown>
      60: 34 31        	<unknown>
      62: 64 34        	<unknown>
      64: 65 66        	<unknown>
      66: 37 63 36 38  	lui	t1, 230246
      6a: 37 36 66 63  	lui	a2, 407139
      6e: 31 29        	<unknown>
      70: 00 67        	<unknown>
      72: 76 73        	<unknown>
      74: 6f 63 5f 74  	jal	t1, 0xf6fb8 <__l1_alloc_base+0xd46b8>
      78: 65 73        	<unknown>
      7a: 74 5f        	<unknown>
      7c: 62 61        	<unknown>
      7e: 72 72        	<unknown>
      80: 69 65        	<unknown>
      82: 72 2f        	<unknown>
      84: 6d 61        	<unknown>
      86: 69 6e        	<unknown>
      88: 2e 63        	<unknown>
      8a: 00 2f        	<unknown>
      8c: 75 73        	<unknown>
      8e: 72 2f        	<unknown>
      90: 73 63 72 61  	csrrsi	t1, 1559, 4
      94: 74 63        	<unknown>
      96: 68 32        	<unknown>
      98: 2f 6c 61 72  	<unknown>
      9c: 61 69        	<unknown>
      9e: 6e 38        	<unknown>
      a0: 2f 79 69 63  	<unknown>
      a4: 7a 68        	<unknown>
      a6: 61 6e        	<unknown>
      a8: 67 2f 74 65  	<unknown>
      ac: 72 61        	<unknown>
      ae: 70 6f        	<unknown>
      b0: 6f 6c 5f 64  	jal	s8, 0xf6ef4 <__l1_alloc_base+0xd45f4>
      b4: 72 61        	<unknown>
      b6: 6d 5f        	<unknown>
      b8: 73 75 62 6d  	csrrci	a0, 1750, 4
      bc: 6f 64 75 6c  	jal	s0, 0x56f82 <__l1_alloc_base+0x34682>
      c0: 65 5f        	<unknown>
      c2: 72 65        	<unknown>
      c4: 62 61        	<unknown>
      c6: 73 65 5f 30  	csrrsi	a0, mtvec, 30
      ca: 35 30        	<unknown>
      cc: 32 5f        	<unknown>
      ce: 32 30        	<unknown>
      d0: 32 34        	<unknown>
      d2: 2f 6d 65 6d  	<unknown>
      d6: 70 6f        	<unknown>
      d8: 6f 6c 2f 73  	jal	s8, 0xf680a <__l1_alloc_base+0xd3f0a>
      dc: 6f 66 74 77  	jal	a2, 0x47052 <__l1_alloc_base+0x24752>
      e0: 61 72        	<unknown>
      e2: 65 2f        	<unknown>
      e4: 61 70        	<unknown>
      e6: 70 73        	<unknown>
      e8: 2f 62 61 72  	<unknown>
      ec: 65 6d        	<unknown>
      ee: 65 74        	<unknown>
      f0: 61 6c        	<unknown>
      f2: 00 72        	<unknown>
      f4: 65 73        	<unknown>
      f6: 75 6c        	<unknown>
      f8: 74 00        	<unknown>
      fa: 75 6e        	<unknown>
      fc: 73 69 67 6e  	csrrsi	s2, 1766, 14
     100: 65 64        	<unknown>
     102: 20 69        	<unknown>
     104: 6e 74        	<unknown>
     106: 00 5f        	<unknown>
     108: 5f 75 69 6e  	<unknown>
     10c: 74 33        	<unknown>
     10e: 32 5f        	<unknown>
     110: 74 00        	<unknown>
     112: 5f 5f 41 52  	<unknown>
     116: 52 41        	<unknown>
     118: 59 5f        	<unknown>
     11a: 53 49 5a 45  	<unknown>
     11e: 5f 54 59 50  	<unknown>
     122: 45 5f        	<unknown>
     124: 5f 00 6d 65  	<unknown>
     128: 6d 70        	<unknown>
     12a: 6f 6f 6c 5f  	jal	t5, 0xc6720 <__l1_alloc_base+0xa3e20>
     12e: 67 65 74 5f  	<unknown>
     132: 63 6f 72 65  	bltu	tp, s7, 0x790 <__l1_start+0x790>
     136: 5f 69 64 00  	<unknown>
     13a: 6d 65        	<unknown>
     13c: 6d 70        	<unknown>
     13e: 6f 6f 6c 5f  	jal	t5, 0xc6734 <__l1_alloc_base+0xa3e34>
     142: 69 64        	<unknown>
     144: 5f 74 00 6d  	<unknown>
     148: 65 6d        	<unknown>
     14a: 70 6f        	<unknown>
     14c: 6f 6c 5f 62  	jal	s8, 0xf6f70 <__l1_alloc_base+0xd4670>
     150: 61 72        	<unknown>
     152: 72 69        	<unknown>
     154: 65 72        	<unknown>
     156: 5f 69 6e 69  	<unknown>
     15a: 74 00        	<unknown>
     15c: 6d 65        	<unknown>
     15e: 6d 70        	<unknown>
     160: 6f 6f 6c 5f  	jal	t5, 0xc6756 <__l1_alloc_base+0xa3e56>
     164: 62 61        	<unknown>
     166: 72 72        	<unknown>
     168: 69 65        	<unknown>
     16a: 72 00        	<unknown>
     16c: 6d 61        	<unknown>
     16e: 69 6e        	<unknown>
     170: 00 6e        	<unknown>
     172: 75 6d        	<unknown>
     174: 5f 63 6f 72  	<unknown>
     178: 65 73        	<unknown>
     17a: 00 65        	<unknown>
     17c: 72 72        	<unknown>
     17e: 6f 72 00 5f  	jal	tp, 0x776e <__l1_start+0x776e>
     182: 5f 69 6e 74  	<unknown>
     186: 33 32 5f 74  	<unknown>
     18a: 00 2f        	<unknown>
     18c: 75 73        	<unknown>
     18e: 72 2f        	<unknown>
     190: 73 63 72 61  	csrrsi	t1, 1559, 4
     194: 74 63        	<unknown>
     196: 68 32        	<unknown>
     198: 2f 6c 61 72  	<unknown>
     19c: 61 69        	<unknown>
     19e: 6e 38        	<unknown>
     1a0: 2f 79 69 63  	<unknown>
     1a4: 7a 68        	<unknown>
     1a6: 61 6e        	<unknown>
     1a8: 67 2f 74 65  	<unknown>
     1ac: 72 61        	<unknown>
     1ae: 70 6f        	<unknown>
     1b0: 6f 6c 5f 64  	jal	s8, 0xf6ff4 <__l1_alloc_base+0xd46f4>
     1b4: 72 61        	<unknown>
     1b6: 6d 5f        	<unknown>
     1b8: 73 75 62 6d  	csrrci	a0, 1750, 4
     1bc: 6f 64 75 6c  	jal	s0, 0x57082 <__l1_alloc_base+0x34782>
     1c0: 65 5f        	<unknown>
     1c2: 72 65        	<unknown>
     1c4: 62 61        	<unknown>
     1c6: 73 65 5f 30  	csrrsi	a0, mtvec, 30
     1ca: 35 30        	<unknown>
     1cc: 32 5f        	<unknown>
     1ce: 32 30        	<unknown>
     1d0: 32 34        	<unknown>
     1d2: 2f 6d 65 6d  	<unknown>
     1d6: 70 6f        	<unknown>
     1d8: 6f 6c 2f 73  	jal	s8, 0xf690a <__l1_alloc_base+0xd400a>
     1dc: 6f 66 74 77  	jal	a2, 0x47152 <__l1_alloc_base+0x24852>
     1e0: 61 72        	<unknown>
     1e2: 65 2f        	<unknown>
     1e4: 72 75        	<unknown>
     1e6: 6e 74        	<unknown>
     1e8: 69 6d        	<unknown>
     1ea: 65 2f        	<unknown>
     1ec: 61 6c        	<unknown>
     1ee: 6c 6f        	<unknown>
     1f0: 63 2e 63 00  	<unknown>
     1f4: 66 69        	<unknown>
     1f6: 72 73        	<unknown>
     1f8: 74 5f        	<unknown>
     1fa: 62 6c        	<unknown>
     1fc: 6f 63 6b 00  	jal	t1, 0xb6202 <__l1_alloc_base+0x93902>
     200: 6e 65        	<unknown>
     202: 78 74        	<unknown>
     204: 00 61        	<unknown>
     206: 6c 6c        	<unknown>
     208: 6f 63 5f 62  	jal	t1, 0xf702c <__l1_alloc_base+0xd472c>
     20c: 6c 6f        	<unknown>
     20e: 63 6b 5f 73  	bltu	t5, s5, 0x944 <__l1_start+0x944>
     212: 00 61        	<unknown>
     214: 6c 6c        	<unknown>
     216: 6f 63 5f 62  	jal	t1, 0xf703a <__l1_alloc_base+0xd473a>
     21a: 6c 6f        	<unknown>
     21c: 63 6b 5f 74  	bltu	t5, t0, 0x972 <__l1_start+0x972>
     220: 00 61        	<unknown>
     222: 6c 6c        	<unknown>
     224: 6f 63 5f 74  	jal	t1, 0xf7168 <__l1_alloc_base+0xd4868>
     228: 00 61        	<unknown>
     22a: 6c 6c        	<unknown>
     22c: 6f 63 61 74  	jal	t1, 0x16972 <__l1_start+0x16972>
     230: 65 5f        	<unknown>
     232: 6d 65        	<unknown>
     234: 6d 6f        	<unknown>
     236: 72 79        	<unknown>
     238: 00 63        	<unknown>
     23a: 75 72        	<unknown>
     23c: 72 00        	<unknown>
     23e: 70 72        	<unknown>
     240: 65 76        	<unknown>
     242: 00 6e        	<unknown>
     244: 65 77        	<unknown>
     246: 5f 62 6c 6f  	<unknown>
     24a: 63 6b 00 63  	bltu	zero, a6, 0x880 <__l1_start+0x880>
     24e: 61 6e        	<unknown>
     250: 61 72        	<unknown>
     252: 79 5f        	<unknown>
     254: 65 6e        	<unknown>
     256: 63 6f 64 65  	bltu	s0, s6, 0x8b4 <__l1_start+0x8b4>
     25a: 00 64        	<unknown>
     25c: 6f 6d 61 69  	jal	s10, 0x168f2 <__l1_start+0x168f2>
     260: 6e 5f        	<unknown>
     262: 6d 61        	<unknown>
     264: 6c 6c        	<unknown>
     266: 6f 63 00 64  	jal	t1, 0x68a6 <__l1_start+0x68a6>
     26a: 61 74        	<unknown>
     26c: 61 5f        	<unknown>
     26e: 73 69 7a 65  	csrrsi	s2, 1623, 20
     272: 00 62        	<unknown>
     274: 6c 6f        	<unknown>
     276: 63 6b 5f 73  	bltu	t5, s5, 0x9ac <__l1_start+0x9ac>
     27a: 69 7a        	<unknown>
     27c: 65 00        	<unknown>
     27e: 62 6c        	<unknown>
     280: 6f 63 6b 5f  	jal	t1, 0xb6876 <__l1_alloc_base+0x93f76>
     284: 70 74        	<unknown>
     286: 72 00        	<unknown>
     288: 64 61        	<unknown>
     28a: 74 61        	<unknown>
     28c: 5f 70 74 72  	<unknown>
     290: 00 63        	<unknown>
     292: 61 6e        	<unknown>
     294: 61 72        	<unknown>
     296: 79 00        	<unknown>
     298: 75 6e        	<unknown>
     29a: 73 69 67 6e  	csrrsi	s2, 1766, 14
     29e: 65 64        	<unknown>
     2a0: 20 63        	<unknown>
     2a2: 68 61        	<unknown>
     2a4: 72 00        	<unknown>
     2a6: 5f 5f 75 69  	<unknown>
     2aa: 6e 74        	<unknown>
     2ac: 38 5f        	<unknown>
     2ae: 74 00        	<unknown>
     2b0: 66 72        	<unknown>
     2b2: 65 65        	<unknown>
     2b4: 5f 6d 65 6d  	<unknown>
     2b8: 6f 72 79 00  	jal	tp, 0x97abe <__l1_alloc_base+0x751be>
     2bc: 64 6f        	<unknown>
     2be: 6d 61        	<unknown>
     2c0: 69 6e        	<unknown>
     2c2: 5f 66 72 65  	<unknown>
     2c6: 65 00        	<unknown>
     2c8: 63 61 6e 61  	bltu	t3, s6, 0x8ca <__l1_start+0x8ca>
     2cc: 72 79        	<unknown>
     2ce: 5f 61 6e 64  	<unknown>
     2d2: 5f 73 69 7a  	<unknown>
     2d6: 65 00        	<unknown>
     2d8: 63 61 6e 61  	bltu	t3, s6, 0x8da <__l1_start+0x8da>
     2dc: 72 79        	<unknown>
     2de: 5f 61 6e 64  	<unknown>
     2e2: 5f 73 69 7a  	<unknown>
     2e6: 65 5f        	<unknown>
     2e8: 74 00        	<unknown>
     2ea: 61 6c        	<unknown>
     2ec: 6c 6f        	<unknown>
     2ee: 63 5f 69 6e  	bge	s2, t1, 0x9ec <__l1_start+0x9ec>
     2f2: 69 74        	<unknown>
     2f4: 00 73        	<unknown>
     2f6: 69 6d        	<unknown>
     2f8: 70 6c        	<unknown>
     2fa: 65 5f        	<unknown>
     2fc: 6d 61        	<unknown>
     2fe: 6c 6c        	<unknown>
     300: 6f 63 00 73  	jal	t1, 0x6a30 <__l1_start+0x6a30>
     304: 69 6d        	<unknown>
     306: 70 6c        	<unknown>
     308: 65 5f        	<unknown>
     30a: 66 72        	<unknown>
     30c: 65 65        	<unknown>
     30e: 00 61        	<unknown>
     310: 6c 6c        	<unknown>
     312: 6f 63 5f 64  	jal	t1, 0xf7156 <__l1_alloc_base+0xd4856>
     316: 75 6d        	<unknown>
     318: 70 00        	<unknown>
     31a: 67 65 74 5f  	<unknown>
     31e: 61 6c        	<unknown>
     320: 6c 6f        	<unknown>
     322: 63 5f 6c 31  	bge	s8, s6, 0x640 <__l1_start+0x640>
     326: 00 67        	<unknown>
     328: 65 74        	<unknown>
     32a: 5f 61 6c 6c  	<unknown>
     32e: 6f 63 5f 74  	jal	t1, 0xf7272 <__l1_alloc_base+0xd4972>
     332: 69 6c        	<unknown>
     334: 65 00        	<unknown>
     336: 61 6c        	<unknown>
     338: 69 67        	<unknown>
     33a: 6e 65        	<unknown>
     33c: 64 5f        	<unknown>
     33e: 62 61        	<unknown>
     340: 73 65 00 74  	csrrsi	a0, 1856, 0
     344: 69 6c        	<unknown>
     346: 65 5f        	<unknown>
     348: 69 64        	<unknown>
     34a: 00 2f        	<unknown>
     34c: 75 73        	<unknown>
     34e: 72 2f        	<unknown>
     350: 73 63 72 61  	csrrsi	t1, 1559, 4
     354: 74 63        	<unknown>
     356: 68 32        	<unknown>
     358: 2f 6c 61 72  	<unknown>
     35c: 61 69        	<unknown>
     35e: 6e 38        	<unknown>
     360: 2f 79 69 63  	<unknown>
     364: 7a 68        	<unknown>
     366: 61 6e        	<unknown>
     368: 67 2f 74 65  	<unknown>
     36c: 72 61        	<unknown>
     36e: 70 6f        	<unknown>
     370: 6f 6c 5f 64  	jal	s8, 0xf71b4 <__l1_alloc_base+0xd48b4>
     374: 72 61        	<unknown>
     376: 6d 5f        	<unknown>
     378: 73 75 62 6d  	csrrci	a0, 1750, 4
     37c: 6f 64 75 6c  	jal	s0, 0x57242 <__l1_alloc_base+0x34942>
     380: 65 5f        	<unknown>
     382: 72 65        	<unknown>
     384: 62 61        	<unknown>
     386: 73 65 5f 30  	csrrsi	a0, mtvec, 30
     38a: 35 30        	<unknown>
     38c: 32 5f        	<unknown>
     38e: 32 30        	<unknown>
     390: 32 34        	<unknown>
     392: 2f 6d 65 6d  	<unknown>
     396: 70 6f        	<unknown>
     398: 6f 6c 2f 73  	jal	s8, 0xf6aca <__l1_alloc_base+0xd41ca>
     39c: 6f 66 74 77  	jal	a2, 0x47312 <__l1_alloc_base+0x24a12>
     3a0: 61 72        	<unknown>
     3a2: 65 2f        	<unknown>
     3a4: 72 75        	<unknown>
     3a6: 6e 74        	<unknown>
     3a8: 69 6d        	<unknown>
     3aa: 65 2f        	<unknown>
     3ac: 70 72        	<unknown>
     3ae: 69 6e        	<unknown>
     3b0: 74 66        	<unknown>
     3b2: 2e 63        	<unknown>
     3b4: 00 5f        	<unknown>
     3b6: 5f 75 69 6e  	<unknown>
     3ba: 74 70        	<unknown>
     3bc: 74 72        	<unknown>
     3be: 5f 74 00 75  	<unknown>
     3c2: 6e 73        	<unknown>
     3c4: 69 67        	<unknown>
     3c6: 6e 65        	<unknown>
     3c8: 64 20        	<unknown>
     3ca: 6c 6f        	<unknown>
     3cc: 6e 67        	<unknown>
     3ce: 00 75        	<unknown>
     3d0: 6e 73        	<unknown>
     3d2: 69 67        	<unknown>
     3d4: 6e 65        	<unknown>
     3d6: 64 20        	<unknown>
     3d8: 73 68 6f 72  	csrrsi	a6, mhpmevent6h, 30
     3dc: 74 00        	<unknown>
     3de: 61 72        	<unknown>
     3e0: 67 00 6f 75  	jr	1878(t5)
     3e4: 74 5f        	<unknown>
     3e6: 66 63        	<unknown>
     3e8: 74 5f        	<unknown>
     3ea: 77 72 61 70  	<unknown>
     3ee: 5f 74 79 70  	<unknown>
     3f2: 65 00        	<unknown>
     3f4: 5f 69 73 5f  	<unknown>
     3f8: 64 69        	<unknown>
     3fa: 67 69 74 00  	<unknown>
     3fe: 5f 42 6f 6f  	<unknown>
     402: 6c 00        	<unknown>
     404: 63 68 00 5f  	bltu	zero, a6, 0x9f4 <__l1_start+0x9f4>
     408: 61 74        	<unknown>
     40a: 6f 69 00 73  	jal	s2, 0x6b3a <__l1_start+0x6b3a>
     40e: 74 72        	<unknown>
     410: 00 5f        	<unknown>
     412: 73 74 72 6e  	csrrci	s0, 1767, 4
     416: 6c 65        	<unknown>
     418: 6e 5f        	<unknown>
     41a: 73 00 6d 61  	<unknown>
     41e: 78 73        	<unknown>
     420: 69 7a        	<unknown>
     422: 65 00        	<unknown>
     424: 5f 6e 74 6f  	<unknown>
     428: 61 5f        	<unknown>
     42a: 66 6f        	<unknown>
     42c: 72 6d        	<unknown>
     42e: 61 74        	<unknown>
     430: 00 6f        	<unknown>
     432: 75 74        	<unknown>
     434: 00 6f        	<unknown>
     436: 75 74        	<unknown>
     438: 5f 66 63 74  	<unknown>
     43c: 5f 74 79 70  	<unknown>
     440: 65 00        	<unknown>
     442: 6d 61        	<unknown>
     444: 78 6c        	<unknown>
     446: 65 6e        	<unknown>
     448: 00 62        	<unknown>
     44a: 75 66        	<unknown>
     44c: 00 6e        	<unknown>
     44e: 65 67        	<unknown>
     450: 61 74        	<unknown>
     452: 69 76        	<unknown>
     454: 65 00        	<unknown>
     456: 70 72        	<unknown>
     458: 65 63        	<unknown>
     45a: 00 77        	<unknown>
     45c: 69 64        	<unknown>
     45e: 74 68        	<unknown>
     460: 00 66        	<unknown>
     462: 6c 61        	<unknown>
     464: 67 73 00 73  	<unknown>
     468: 74 61        	<unknown>
     46a: 72 74        	<unknown>
     46c: 5f 69 64 78  	<unknown>
     470: 00 44        	<unknown>
     472: 57 5f 41 54  	<unknown>
     476: 45 5f        	<unknown>
     478: 75 6e        	<unknown>
     47a: 73 69 67 6e  	csrrsi	s2, 1766, 14
     47e: 65 64        	<unknown>
     480: 5f 38 00 44  	<unknown>
     484: 57 5f 41 54  	<unknown>
     488: 45 5f        	<unknown>
     48a: 75 6e        	<unknown>
     48c: 73 69 67 6e  	csrrsi	s2, 1766, 14
     490: 65 64        	<unknown>
     492: 5f 31 00 5f  	<unknown>
     496: 76 73        	<unknown>
     498: 6e 70        	<unknown>
     49a: 72 69        	<unknown>
     49c: 6e 74        	<unknown>
     49e: 66 00        	<unknown>
     4a0: 5f 6f 75 74  	<unknown>
     4a4: 5f 63 68 61  	<unknown>
     4a8: 72 00        	<unknown>
     4aa: 73 70 72 69  	csrci	1687, 4
     4ae: 6e 74        	<unknown>
     4b0: 66 5f        	<unknown>
     4b2: 00 5f        	<unknown>
     4b4: 6f 75 74 5f  	jal	a0, 0x482aa <__l1_alloc_base+0x259aa>
     4b8: 62 75        	<unknown>
     4ba: 66 66        	<unknown>
     4bc: 65 72        	<unknown>
     4be: 00 76        	<unknown>
     4c0: 73 6e 70 72  	csrrsi	t3, mhpmevent7h, 0
     4c4: 69 6e        	<unknown>
     4c6: 74 66        	<unknown>
     4c8: 5f 00 66 63  	<unknown>
     4cc: 74 70        	<unknown>
     4ce: 72 69        	<unknown>
     4d0: 6e 74        	<unknown>
     4d2: 66 00        	<unknown>
     4d4: 5f 6f 75 74  	<unknown>
     4d8: 5f 66 63 74  	<unknown>
     4dc: 00 5f        	<unknown>
     4de: 6f 75 74 5f  	jal	a0, 0x482d4 <__l1_alloc_base+0x259d4>
     4e2: 6e 75        	<unknown>
     4e4: 6c 6c        	<unknown>
     4e6: 00 5f        	<unknown>
     4e8: 6e 74        	<unknown>
     4ea: 6f 61 5f 6c  	jal	sp, 0xf73ae <__l1_alloc_base+0xd4aae>
     4ee: 6f 6e 67 00  	jal	t3, 0x764f4 <__l1_alloc_base+0x53bf4>
     4f2: 76 61        	<unknown>
     4f4: 00 5f        	<unknown>
     4f6: 5f 62 75 69  	<unknown>
     4fa: 6c 74        	<unknown>
     4fc: 69 6e        	<unknown>
     4fe: 5f 76 61 5f  	<unknown>
     502: 6c 69        	<unknown>
     504: 73 74 00 72  	csrrci	s0, 1824, 0
     508: 65 74        	<unknown>
     50a: 00 70        	<unknown>
     50c: 72 65        	<unknown>
     50e: 63 69 73 69  	bltu	t1, s7, 0xba0 <__l1_start+0xba0>
     512: 6f 6e 00 77  	jal	t3, 0x6c82 <__l1_start+0x6c82>
     516: 00 76        	<unknown>
     518: 61 6c        	<unknown>
     51a: 75 65        	<unknown>
     51c: 00 63        	<unknown>
     51e: 68 61        	<unknown>
     520: 72 61        	<unknown>
     522: 63 74 65 72  	bgeu	a0, t1, 0xc4a <__l1_start+0xc4a>
     526: 00 63        	<unknown>
     528: 6f 75 6e 74  	jal	a0, 0xe7c6e <__l1_alloc_base+0xc536e>
     52c: 00 6f        	<unknown>
     52e: 75 74        	<unknown>
     530: 5f 66 63 74  	<unknown>
     534: 5f 77 72 61  	<unknown>
     538: 70 00        	<unknown>
     53a: 2f 75 73 72  	<unknown>
     53e: 2f 73 63 72  	<unknown>
     542: 61 74        	<unknown>
     544: 63 68 32 2f  	bltu	tp, s3, 0x834 <__l1_start+0x834>
     548: 6c 61        	<unknown>
     54a: 72 61        	<unknown>
     54c: 69 6e        	<unknown>
     54e: 38 2f        	<unknown>
     550: 79 69        	<unknown>
     552: 63 7a 68 61  	bgeu	a6, s6, 0xb66 <__l1_start+0xb66>
     556: 6e 67        	<unknown>
     558: 2f 74 65 72  	<unknown>
     55c: 61 70        	<unknown>
     55e: 6f 6f 6c 5f  	jal	t5, 0xc6b54 <__l1_alloc_base+0xa4254>
     562: 64 72        	<unknown>
     564: 61 6d        	<unknown>
     566: 5f 73 75 62  	<unknown>
     56a: 6d 6f        	<unknown>
     56c: 64 75        	<unknown>
     56e: 6c 65        	<unknown>
     570: 5f 72 65 62  	<unknown>
     574: 61 73        	<unknown>
     576: 65 5f        	<unknown>
     578: 30 35        	<unknown>
     57a: 30 32        	<unknown>
     57c: 5f 32 30 32  	<unknown>
     580: 34 2f        	<unknown>
     582: 6d 65        	<unknown>
     584: 6d 70        	<unknown>
     586: 6f 6f 6c 2f  	jal	t5, 0xc687c <__l1_alloc_base+0xa3f7c>
     58a: 73 6f 66 74  	csrrsi	t5, 1862, 12
     58e: 77 61 72 65  	<unknown>
     592: 2f 72 75 6e  	<unknown>
     596: 74 69        	<unknown>
     598: 6d 65        	<unknown>
     59a: 2f 73 65 72  	<unknown>
     59e: 69 61        	<unknown>
     5a0: 6c 2e        	<unknown>
     5a2: 63 00 5f 70  	beq	t5, t0, 0xca2 <__l1_start+0xca2>
     5a6: 75 74        	<unknown>
     5a8: 63 68 61 72  	bltu	sp, t1, 0xcd8 <__l1_start+0xcd8>
     5ac: 00 2f        	<unknown>
     5ae: 75 73        	<unknown>
     5b0: 72 2f        	<unknown>
     5b2: 73 63 72 61  	csrrsi	t1, 1559, 4
     5b6: 74 63        	<unknown>
     5b8: 68 32        	<unknown>
     5ba: 2f 6c 61 72  	<unknown>
     5be: 61 69        	<unknown>
     5c0: 6e 38        	<unknown>
     5c2: 2f 79 69 63  	<unknown>
     5c6: 7a 68        	<unknown>
     5c8: 61 6e        	<unknown>
     5ca: 67 2f 74 65  	<unknown>
     5ce: 72 61        	<unknown>
     5d0: 70 6f        	<unknown>
     5d2: 6f 6c 5f 64  	jal	s8, 0xf7416 <__l1_alloc_base+0xd4b16>
     5d6: 72 61        	<unknown>
     5d8: 6d 5f        	<unknown>
     5da: 73 75 62 6d  	csrrci	a0, 1750, 4
     5de: 6f 64 75 6c  	jal	s0, 0x574a4 <__l1_alloc_base+0x34ba4>
     5e2: 65 5f        	<unknown>
     5e4: 72 65        	<unknown>
     5e6: 62 61        	<unknown>
     5e8: 73 65 5f 30  	csrrsi	a0, mtvec, 30
     5ec: 35 30        	<unknown>
     5ee: 32 5f        	<unknown>
     5f0: 32 30        	<unknown>
     5f2: 32 34        	<unknown>
     5f4: 2f 6d 65 6d  	<unknown>
     5f8: 70 6f        	<unknown>
     5fa: 6f 6c 2f 73  	jal	s8, 0xf6d2c <__l1_alloc_base+0xd442c>
     5fe: 6f 66 74 77  	jal	a2, 0x47574 <__l1_alloc_base+0x24c74>
     602: 61 72        	<unknown>
     604: 65 2f        	<unknown>
     606: 72 75        	<unknown>
     608: 6e 74        	<unknown>
     60a: 69 6d        	<unknown>
     60c: 65 2f        	<unknown>
     60e: 73 74 72 69  	csrrci	s0, 1687, 4
     612: 6e 67        	<unknown>
     614: 2e 63        	<unknown>
     616: 00 6d        	<unknown>
     618: 65 6d        	<unknown>
     61a: 63 70 79 00  	bgeu	s2, t2, 0x61a <__l1_start+0x61a>
     61e: 6d 65        	<unknown>
     620: 6d 73        	<unknown>
     622: 65 74        	<unknown>
     624: 00 73        	<unknown>
     626: 74 72        	<unknown>
     628: 6c 65        	<unknown>
     62a: 6e 00        	<unknown>
     62c: 73 74 72 63  	csrrci	s0, 1591, 4
     630: 6d 70        	<unknown>
     632: 00 6d        	<unknown>
     634: 65 6d        	<unknown>
     636: 63 6d 70 00  	bltu	zero, t2, 0x650 <__l1_start+0x650>
     63a: 73 74 72 63  	csrrci	s0, 1591, 4
     63e: 70 79        	<unknown>
     640: 00 61        	<unknown>
     642: 74 6f        	<unknown>
     644: 6c 00        	<unknown>
     646: 64 65        	<unknown>
     648: 73 74 00 73  	csrrci	s0, mhpmevent16h, 0
     64c: 72 63        	<unknown>
     64e: 00 62        	<unknown>
     650: 79 74        	<unknown>
     652: 65 00        	<unknown>
     654: 77 6f 72 64  	<unknown>
     658: 00 73        	<unknown>
     65a: 31 00        	<unknown>
     65c: 73 32 00 63  	csrrc	tp, 1584, zero
     660: 31 00        	<unknown>
     662: 63 32 00 75  	<unknown>
     666: 31 00        	<unknown>
     668: 75 32        	<unknown>
     66a: 00 65        	<unknown>
     66c: 6e 64        	<unknown>
     66e: 00 73        	<unknown>
     670: 69 67        	<unknown>
     672: 6e 00        	<unknown>
     674: 2f 75 73 72  	<unknown>
     678: 2f 73 63 72  	<unknown>
     67c: 61 74        	<unknown>
     67e: 63 68 32 2f  	bltu	tp, s3, 0x96e <__l1_start+0x96e>
     682: 6c 61        	<unknown>
     684: 72 61        	<unknown>
     686: 69 6e        	<unknown>
     688: 38 2f        	<unknown>
     68a: 79 69        	<unknown>
     68c: 63 7a 68 61  	bgeu	a6, s6, 0xca0 <__l1_start+0xca0>
     690: 6e 67        	<unknown>
     692: 2f 74 65 72  	<unknown>
     696: 61 70        	<unknown>
     698: 6f 6f 6c 5f  	jal	t5, 0xc6c8e <__l1_alloc_base+0xa438e>
     69c: 64 72        	<unknown>
     69e: 61 6d        	<unknown>
     6a0: 5f 73 75 62  	<unknown>
     6a4: 6d 6f        	<unknown>
     6a6: 64 75        	<unknown>
     6a8: 6c 65        	<unknown>
     6aa: 5f 72 65 62  	<unknown>
     6ae: 61 73        	<unknown>
     6b0: 65 5f        	<unknown>
     6b2: 30 35        	<unknown>
     6b4: 30 32        	<unknown>
     6b6: 5f 32 30 32  	<unknown>
     6ba: 34 2f        	<unknown>
     6bc: 6d 65        	<unknown>
     6be: 6d 70        	<unknown>
     6c0: 6f 6f 6c 2f  	jal	t5, 0xc69b6 <__l1_alloc_base+0xa40b6>
     6c4: 73 6f 66 74  	csrrsi	t5, 1862, 12
     6c8: 77 61 72 65  	<unknown>
     6cc: 2f 72 75 6e  	<unknown>
     6d0: 74 69        	<unknown>
     6d2: 6d 65        	<unknown>
     6d4: 2f 73 79 6e  	<unknown>
     6d8: 63 68 72 6f  	bltu	tp, s7, 0xdc8 <__l1_start+0xdc8>
     6dc: 6e 69        	<unknown>
     6de: 7a 61        	<unknown>
     6e0: 74 69        	<unknown>
     6e2: 6f 6e 2e 63  	jal	t3, 0xe6d14 <__l1_alloc_base+0xc4414>
     6e6: 00 6c        	<unknown>
     6e8: 6f 67 5f 62  	jal	a4, 0xf750c <__l1_alloc_base+0xd4c0c>
     6ec: 61 72        	<unknown>
     6ee: 72 69        	<unknown>
     6f0: 65 72        	<unknown>
     6f2: 00 70        	<unknown>
     6f4: 61 72        	<unknown>
     6f6: 74 69        	<unknown>
     6f8: 61 6c        	<unknown>
     6fa: 5f 62 61 72  	<unknown>
     6fe: 72 69        	<unknown>
     700: 65 72        	<unknown>
     702: 00 6d        	<unknown>
     704: 65 6d        	<unknown>
     706: 70 6f        	<unknown>
     708: 6f 6c 5f 77  	jal	s8, 0xf767c <__l1_alloc_base+0xd4d7c>
     70c: 66 69        	<unknown>
     70e: 00 77        	<unknown>
     710: 61 6b        	<unknown>
     712: 65 5f        	<unknown>
     714: 75 70        	<unknown>
     716: 00 77        	<unknown>
     718: 61 6b        	<unknown>
     71a: 65 5f        	<unknown>
     71c: 75 70        	<unknown>
     71e: 5f 61 6c 6c  	<unknown>
     722: 00           	<unknown>

Disassembly of section .debug_addr:

00000000 <.debug_addr>:
       0: 1c 00        	<unknown>
       2: 00 00        	<unknown>
       4: 05 00        	<unknown>
       6: 04 00        	<unknown>
       8: 00 00        	<unknown>
       a: 02 00        	<unknown>
       c: 08 01        	<unknown>
       e: 00 80        	<unknown>
      10: 0c 01        	<unknown>
      12: 00 80        	<unknown>
      14: 28 01        	<unknown>
      16: 00 80        	<unknown>
      18: 4c 01        	<unknown>
      1a: 00 80        	<unknown>
      1c: 64 01        	<unknown>
      1e: 00 80        	<unknown>
      20: 68 00        	<unknown>
      22: 00 00        	<unknown>
      24: 05 00        	<unknown>
      26: 04 00        	<unknown>
      28: 00 20        	<unknown>
      2a: 00 80        	<unknown>
      2c: 00 28        	<unknown>
      2e: 02 00        	<unknown>
      30: 7c 01        	<unknown>
      32: 00 80        	<unknown>
      34: a4 01        	<unknown>
      36: 00 80        	<unknown>
      38: 40 02        	<unknown>
      3a: 00 80        	<unknown>
      3c: 74 02        	<unknown>
      3e: 00 80        	<unknown>
      40: cc 01        	<unknown>
      42: 00 80        	<unknown>
      44: 20 02        	<unknown>
      46: 00 80        	<unknown>
      48: 94 02        	<unknown>
      4a: 00 80        	<unknown>
      4c: 38 03        	<unknown>
      4e: 00 80        	<unknown>
      50: 70 03        	<unknown>
      52: 00 80        	<unknown>
      54: bc 02        	<unknown>
      56: 00 80        	<unknown>
      58: 14 03        	<unknown>
      5a: 00 80        	<unknown>
      5c: 90 03        	<unknown>
      5e: 00 80        	<unknown>
      60: 9c 03        	<unknown>
      62: 00 80        	<unknown>
      64: 00 04        	<unknown>
      66: 00 80        	<unknown>
      68: 38 04        	<unknown>
      6a: 00 80        	<unknown>
      6c: 40 04        	<unknown>
      6e: 00 80        	<unknown>
      70: a8 04        	<unknown>
      72: 00 80        	<unknown>
      74: e4 04        	<unknown>
      76: 00 80        	<unknown>
      78: 0c 05        	<unknown>
      7a: 00 80        	<unknown>
      7c: 30 05        	<unknown>
      7e: 00 80        	<unknown>
      80: 54 05        	<unknown>
      82: 00 80        	<unknown>
      84: 74 05        	<unknown>
      86: 00 80        	<unknown>
      88: 80 05        	<unknown>
      8a: 00 80        	<unknown>
      8c: a8 00        	<unknown>
      8e: 00 00        	<unknown>
      90: 05 00        	<unknown>
      92: 04 00        	<unknown>
      94: 94 05        	<unknown>
      96: 00 80        	<unknown>
      98: e4 05        	<unknown>
      9a: 00 80        	<unknown>
      9c: f0 05        	<unknown>
      9e: 00 80        	<unknown>
      a0: fc 06        	<unknown>
      a2: 00 80        	<unknown>
      a4: 10 07        	<unknown>
      a6: 00 80        	<unknown>
      a8: 28 07        	<unknown>
      aa: 00 80        	<unknown>
      ac: 90 07        	<unknown>
      ae: 00 80        	<unknown>
      b0: 4c 07        	<unknown>
      b2: 00 80        	<unknown>
      b4: 60 07        	<unknown>
      b6: 00 80        	<unknown>
      b8: 78 07        	<unknown>
      ba: 00 80        	<unknown>
      bc: c4 09        	<unknown>
      be: 00 80        	<unknown>
      c0: 98 06        	<unknown>
      c2: 00 80        	<unknown>
      c4: 20 09        	<unknown>
      c6: 00 80        	<unknown>
      c8: 18 0a        	<unknown>
      ca: 00 80        	<unknown>
      cc: 04 0b        	<unknown>
      ce: 00 80        	<unknown>
      d0: 44 0b        	<unknown>
      d2: 00 80        	<unknown>
      d4: 70 0b        	<unknown>
      d6: 00 80        	<unknown>
      d8: d4 0b        	<unknown>
      da: 00 80        	<unknown>
      dc: 28 0c        	<unknown>
      de: 00 80        	<unknown>
      e0: 60 0c        	<unknown>
      e2: 00 80        	<unknown>
      e4: c8 0c        	<unknown>
      e6: 00 80        	<unknown>
      e8: 0c 0d        	<unknown>
      ea: 00 80        	<unknown>
      ec: 4c 0d        	<unknown>
      ee: 00 80        	<unknown>
      f0: 5c 0d        	<unknown>
      f2: 00 80        	<unknown>
      f4: a8 0d        	<unknown>
      f6: 00 80        	<unknown>
      f8: b4 0d        	<unknown>
      fa: 00 80        	<unknown>
      fc: c4 0d        	<unknown>
      fe: 00 80        	<unknown>
     100: 0c 0e        	<unknown>
     102: 00 80        	<unknown>
     104: 18 0e        	<unknown>
     106: 00 80        	<unknown>
     108: 30 0e        	<unknown>
     10a: 00 80        	<unknown>
     10c: 38 0e        	<unknown>
     10e: 00 80        	<unknown>
     110: 88 0e        	<unknown>
     112: 00 80        	<unknown>
     114: 94 0e        	<unknown>
     116: 00 80        	<unknown>
     118: a0 0e        	<unknown>
     11a: 00 80        	<unknown>
     11c: a8 0e        	<unknown>
     11e: 00 80        	<unknown>
     120: ac 0e        	<unknown>
     122: 00 80        	<unknown>
     124: 58 11        	<unknown>
     126: 00 80        	<unknown>
     128: 80 11        	<unknown>
     12a: 00 80        	<unknown>
     12c: 74 11        	<unknown>
     12e: 00 80        	<unknown>
     130: a4 11        	<unknown>
     132: 00 80        	<unknown>
     134: e8 11        	<unknown>
     136: 00 80        	<unknown>
     138: 08 00        	<unknown>
     13a: 00 00        	<unknown>
     13c: 05 00        	<unknown>
     13e: 04 00        	<unknown>
     140: 34 12        	<unknown>
     142: 00 80        	<unknown>
     144: 38 00        	<unknown>
     146: 00 00        	<unknown>
     148: 05 00        	<unknown>
     14a: 04 00        	<unknown>
     14c: 40 12        	<unknown>
     14e: 00 80        	<unknown>
     150: 54 12        	<unknown>
     152: 00 80        	<unknown>
     154: 7c 12        	<unknown>
     156: 00 80        	<unknown>
     158: a0 12        	<unknown>
     15a: 00 80        	<unknown>
     15c: b0 12        	<unknown>
     15e: 00 80        	<unknown>
     160: d0 12        	<unknown>
     162: 00 80        	<unknown>
     164: fc 12        	<unknown>
     166: 00 80        	<unknown>
     168: 18 13        	<unknown>
     16a: 00 80        	<unknown>
     16c: 44 13        	<unknown>
     16e: 00 80        	<unknown>
     170: 50 13        	<unknown>
     172: 00 80        	<unknown>
     174: 94 13        	<unknown>
     176: 00 80        	<unknown>
     178: b8 13        	<unknown>
     17a: 00 80        	<unknown>
     17c: d8 13        	<unknown>
     17e: 00 80        	<unknown>
     180: 38 00        	<unknown>
     182: 00 00        	<unknown>
     184: 05 00        	<unknown>
     186: 04 00        	<unknown>
     188: 00 04        	<unknown>
     18a: 02 00        	<unknown>
     18c: 00 08        	<unknown>
     18e: 02 00        	<unknown>
     190: 00 18        	<unknown>
     192: 02 00        	<unknown>
     194: 5c 14        	<unknown>
     196: 00 80        	<unknown>
     198: 60 14        	<unknown>
     19a: 00 80        	<unknown>
     19c: 70 14        	<unknown>
     19e: 00 80        	<unknown>
     1a0: 7c 14        	<unknown>
     1a2: 00 80        	<unknown>
     1a4: 80 14        	<unknown>
     1a6: 00 80        	<unknown>
     1a8: a0 14        	<unknown>
     1aa: 00 80        	<unknown>
     1ac: ac 14        	<unknown>
     1ae: 00 80        	<unknown>
     1b0: b4 14        	<unknown>
     1b2: 00 80        	<unknown>
     1b4: d4 14        	<unknown>
     1b6: 00 80        	<unknown>
     1b8: e0 14        	<unknown>
     1ba: 00 80        	<unknown>

Disassembly of section .debug_frame:

00000000 <.debug_frame>:
       0: 10 00        	<unknown>
       2: 00 00        	<unknown>
       4: ff ff ff ff  	<unknown>
       8: 04 00        	<unknown>
       a: 04 00        	<unknown>
       c: 01 7c        	<unknown>
       e: 01 0c        	<unknown>
      10: 02 00        	<unknown>
      12: 00 00        	<unknown>
      14: 18 00        	<unknown>
      16: 00 00        	<unknown>
      18: 00 00        	<unknown>
      1a: 00 00        	<unknown>
      1c: 08 01        	<unknown>
      1e: 00 80        	<unknown>
      20: 74 00        	<unknown>
      22: 00 00        	<unknown>
      24: 44 0e        	<unknown>
      26: 10 4c        	<unknown>
      28: 81 01        	<unknown>
      2a: 88 02        	<unknown>
      2c: 89 03        	<unknown>
      2e: 00 00        	<unknown>
      30: 10 00        	<unknown>
      32: 00 00        	<unknown>
      34: ff ff ff ff  	<unknown>
      38: 04 00        	<unknown>
      3a: 04 00        	<unknown>
      3c: 01 7c        	<unknown>
      3e: 01 0c        	<unknown>
      40: 02 00        	<unknown>
      42: 00 00        	<unknown>
      44: 0c 00        	<unknown>
      46: 00 00        	<unknown>
      48: 30 00        	<unknown>
      4a: 00 00        	<unknown>
      4c: 7c 01        	<unknown>
      4e: 00 80        	<unknown>
      50: 28 00        	<unknown>
      52: 00 00        	<unknown>
      54: 14 00        	<unknown>
      56: 00 00        	<unknown>
      58: 30 00        	<unknown>
      5a: 00 00        	<unknown>
      5c: a4 01        	<unknown>
      5e: 00 80        	<unknown>
      60: f0 00        	<unknown>
      62: 00 00        	<unknown>
      64: 44 0e        	<unknown>
      66: 10 44        	<unknown>
      68: 81 01        	<unknown>
      6a: 00 00        	<unknown>
      6c: 14 00        	<unknown>
      6e: 00 00        	<unknown>
      70: 30 00        	<unknown>
      72: 00 00        	<unknown>
      74: 94 02        	<unknown>
      76: 00 80        	<unknown>
      78: fc 00        	<unknown>
      7a: 00 00        	<unknown>
      7c: 44 0e        	<unknown>
      7e: 10 44        	<unknown>
      80: 81 01        	<unknown>
      82: 00 00        	<unknown>
      84: 0c 00        	<unknown>
      86: 00 00        	<unknown>
      88: 30 00        	<unknown>
      8a: 00 00        	<unknown>
      8c: 90 03        	<unknown>
      8e: 00 80        	<unknown>
      90: a8 00        	<unknown>
      92: 00 00        	<unknown>
      94: 0c 00        	<unknown>
      96: 00 00        	<unknown>
      98: 30 00        	<unknown>
      9a: 00 00        	<unknown>
      9c: 38 04        	<unknown>
      9e: 00 80        	<unknown>
      a0: ac 00        	<unknown>
      a2: 00 00        	<unknown>
      a4: 18 00        	<unknown>
      a6: 00 00        	<unknown>
      a8: 30 00        	<unknown>
      aa: 00 00        	<unknown>
      ac: e4 04        	<unknown>
      ae: 00 80        	<unknown>
      b0: 90 00        	<unknown>
      b2: 00 00        	<unknown>
      b4: 44 0e        	<unknown>
      b6: 10 50        	<unknown>
      b8: 81 01        	<unknown>
      ba: 88 02        	<unknown>
      bc: 89 03        	<unknown>
      be: 92 04        	<unknown>
      c0: 0c 00        	<unknown>
      c2: 00 00        	<unknown>
      c4: 30 00        	<unknown>
      c6: 00 00        	<unknown>
      c8: 74 05        	<unknown>
      ca: 00 80        	<unknown>
      cc: 0c 00        	<unknown>
      ce: 00 00        	<unknown>
      d0: 0c 00        	<unknown>
      d2: 00 00        	<unknown>
      d4: 30 00        	<unknown>
      d6: 00 00        	<unknown>
      d8: 80 05        	<unknown>
      da: 00 80        	<unknown>
      dc: 14 00        	<unknown>
      de: 00 00        	<unknown>
      e0: 10 00        	<unknown>
      e2: 00 00        	<unknown>
      e4: ff ff ff ff  	<unknown>
      e8: 04 00        	<unknown>
      ea: 04 00        	<unknown>
      ec: 01 7c        	<unknown>
      ee: 01 0c        	<unknown>
      f0: 02 00        	<unknown>
      f2: 00 00        	<unknown>
      f4: 14 00        	<unknown>
      f6: 00 00        	<unknown>
      f8: e0 00        	<unknown>
      fa: 00 00        	<unknown>
      fc: 94 05        	<unknown>
      fe: 00 80        	<unknown>
     100: 5c 00        	<unknown>
     102: 00 00        	<unknown>
     104: 44 0e        	<unknown>
     106: 30 44        	<unknown>
     108: 81 09        	<unknown>
     10a: 00 00        	<unknown>
     10c: 2c 00        	<unknown>
     10e: 00 00        	<unknown>
     110: e0 00        	<unknown>
     112: 00 00        	<unknown>
     114: f0 05        	<unknown>
     116: 00 80        	<unknown>
     118: 5c 07        	<unknown>
     11a: 00 00        	<unknown>
     11c: 44 0e        	<unknown>
     11e: 50 74        	<unknown>
     120: 81 01        	<unknown>
     122: 88 02        	<unknown>
     124: 89 03        	<unknown>
     126: 92 04        	<unknown>
     128: 93 05 94 06  	addi	a1, s0, 105
     12c: 95 07        	<unknown>
     12e: 96 08        	<unknown>
     130: 97 09 98 0a  	auipc	s3, 43392
     134: 99 0b        	<unknown>
     136: 9a 0c        	<unknown>
     138: 9b 0d 00 00  	<unknown>
     13c: 0c 00        	<unknown>
     13e: 00 00        	<unknown>
     140: e0 00        	<unknown>
     142: 00 00        	<unknown>
     144: 4c 0d        	<unknown>
     146: 00 80        	<unknown>
     148: 10 00        	<unknown>
     14a: 00 00        	<unknown>
     14c: 14 00        	<unknown>
     14e: 00 00        	<unknown>
     150: e0 00        	<unknown>
     152: 00 00        	<unknown>
     154: 5c 0d        	<unknown>
     156: 00 80        	<unknown>
     158: 58 00        	<unknown>
     15a: 00 00        	<unknown>
     15c: 44 0e        	<unknown>
     15e: 20 44        	<unknown>
     160: 81 07        	<unknown>
     162: 00 00        	<unknown>
     164: 0c 00        	<unknown>
     166: 00 00        	<unknown>
     168: e0 00        	<unknown>
     16a: 00 00        	<unknown>
     16c: b4 0d        	<unknown>
     16e: 00 80        	<unknown>
     170: 10 00        	<unknown>
     172: 00 00        	<unknown>
     174: 14 00        	<unknown>
     176: 00 00        	<unknown>
     178: e0 00        	<unknown>
     17a: 00 00        	<unknown>
     17c: c4 0d        	<unknown>
     17e: 00 80        	<unknown>
     180: 54 00        	<unknown>
     182: 00 00        	<unknown>
     184: 44 0e        	<unknown>
     186: 20 44        	<unknown>
     188: 81 07        	<unknown>
     18a: 00 00        	<unknown>
     18c: 0c 00        	<unknown>
     18e: 00 00        	<unknown>
     190: e0 00        	<unknown>
     192: 00 00        	<unknown>
     194: 18 0e        	<unknown>
     196: 00 80        	<unknown>
     198: 20 00        	<unknown>
     19a: 00 00        	<unknown>
     19c: 14 00        	<unknown>
     19e: 00 00        	<unknown>
     1a0: e0 00        	<unknown>
     1a2: 00 00        	<unknown>
     1a4: 38 0e        	<unknown>
     1a6: 00 80        	<unknown>
     1a8: 5c 00        	<unknown>
     1aa: 00 00        	<unknown>
     1ac: 44 0e        	<unknown>
     1ae: 30 44        	<unknown>
     1b0: 81 07        	<unknown>
     1b2: 00 00        	<unknown>
     1b4: 0c 00        	<unknown>
     1b6: 00 00        	<unknown>
     1b8: e0 00        	<unknown>
     1ba: 00 00        	<unknown>
     1bc: 94 0e        	<unknown>
     1be: 00 80        	<unknown>
     1c0: 14 00        	<unknown>
     1c2: 00 00        	<unknown>
     1c4: 0c 00        	<unknown>
     1c6: 00 00        	<unknown>
     1c8: e0 00        	<unknown>
     1ca: 00 00        	<unknown>
     1cc: a8 0e        	<unknown>
     1ce: 00 80        	<unknown>
     1d0: 04 00        	<unknown>
     1d2: 00 00        	<unknown>
     1d4: 28 00        	<unknown>
     1d6: 00 00        	<unknown>
     1d8: e0 00        	<unknown>
     1da: 00 00        	<unknown>
     1dc: ac 0e        	<unknown>
     1de: 00 80        	<unknown>
     1e0: 88 03        	<unknown>
     1e2: 00 00        	<unknown>
     1e4: 44 0e        	<unknown>
     1e6: 50 6c        	<unknown>
     1e8: 81 01        	<unknown>
     1ea: 88 02        	<unknown>
     1ec: 89 03        	<unknown>
     1ee: 92 04        	<unknown>
     1f0: 93 05 94 06  	addi	a1, s0, 105
     1f4: 95 07        	<unknown>
     1f6: 96 08        	<unknown>
     1f8: 97 09 98 0a  	auipc	s3, 43392
     1fc: 99 0b        	<unknown>
     1fe: 00 00        	<unknown>
     200: 10 00        	<unknown>
     202: 00 00        	<unknown>
     204: ff ff ff ff  	<unknown>
     208: 04 00        	<unknown>
     20a: 04 00        	<unknown>
     20c: 01 7c        	<unknown>
     20e: 01 0c        	<unknown>
     210: 02 00        	<unknown>
     212: 00 00        	<unknown>
     214: 0c 00        	<unknown>
     216: 00 00        	<unknown>
     218: 00 02        	<unknown>
     21a: 00 00        	<unknown>
     21c: 34 12        	<unknown>
     21e: 00 80        	<unknown>
     220: 0c 00        	<unknown>
     222: 00 00        	<unknown>
     224: 10 00        	<unknown>
     226: 00 00        	<unknown>
     228: ff ff ff ff  	<unknown>
     22c: 04 00        	<unknown>
     22e: 04 00        	<unknown>
     230: 01 7c        	<unknown>
     232: 01 0c        	<unknown>
     234: 02 00        	<unknown>
     236: 00 00        	<unknown>
     238: 0c 00        	<unknown>
     23a: 00 00        	<unknown>
     23c: 24 02        	<unknown>
     23e: 00 00        	<unknown>
     240: 40 12        	<unknown>
     242: 00 80        	<unknown>
     244: 60 00        	<unknown>
     246: 00 00        	<unknown>
     248: 0c 00        	<unknown>
     24a: 00 00        	<unknown>
     24c: 24 02        	<unknown>
     24e: 00 00        	<unknown>
     250: a0 12        	<unknown>
     252: 00 80        	<unknown>
     254: 5c 00        	<unknown>
     256: 00 00        	<unknown>
     258: 0c 00        	<unknown>
     25a: 00 00        	<unknown>
     25c: 24 02        	<unknown>
     25e: 00 00        	<unknown>
     260: fc 12        	<unknown>
     262: 00 80        	<unknown>
     264: 1c 00        	<unknown>
     266: 00 00        	<unknown>
     268: 0c 00        	<unknown>
     26a: 00 00        	<unknown>
     26c: 24 02        	<unknown>
     26e: 00 00        	<unknown>
     270: 18 13        	<unknown>
     272: 00 80        	<unknown>
     274: 2c 00        	<unknown>
     276: 00 00        	<unknown>
     278: 0c 00        	<unknown>
     27a: 00 00        	<unknown>
     27c: 24 02        	<unknown>
     27e: 00 00        	<unknown>
     280: 44 13        	<unknown>
     282: 00 80        	<unknown>
     284: 74 00        	<unknown>
     286: 00 00        	<unknown>
     288: 0c 00        	<unknown>
     28a: 00 00        	<unknown>
     28c: 24 02        	<unknown>
     28e: 00 00        	<unknown>
     290: b8 13        	<unknown>
     292: 00 80        	<unknown>
     294: 20 00        	<unknown>
     296: 00 00        	<unknown>
     298: 0c 00        	<unknown>
     29a: 00 00        	<unknown>
     29c: 24 02        	<unknown>
     29e: 00 00        	<unknown>
     2a0: d8 13        	<unknown>
     2a2: 00 80        	<unknown>
     2a4: 84 00        	<unknown>
     2a6: 00 00        	<unknown>
     2a8: 10 00        	<unknown>
     2aa: 00 00        	<unknown>
     2ac: ff ff ff ff  	<unknown>
     2b0: 04 00        	<unknown>
     2b2: 04 00        	<unknown>
     2b4: 01 7c        	<unknown>
     2b6: 01 0c        	<unknown>
     2b8: 02 00        	<unknown>
     2ba: 00 00        	<unknown>
     2bc: 0c 00        	<unknown>
     2be: 00 00        	<unknown>
     2c0: a8 02        	<unknown>
     2c2: 00 00        	<unknown>
     2c4: 5c 14        	<unknown>
     2c6: 00 80        	<unknown>
     2c8: 58 00        	<unknown>
     2ca: 00 00        	<unknown>
     2cc: 0c 00        	<unknown>
     2ce: 00 00        	<unknown>
     2d0: a8 02        	<unknown>
     2d2: 00 00        	<unknown>
     2d4: b4 14        	<unknown>
     2d6: 00 80        	<unknown>
     2d8: 34 00        	<unknown>
     2da: 00 00        	<unknown>

Disassembly of section .debug_line:

00000000 <.debug_line>:
       0: 08 01        	<unknown>
       2: 00 00        	<unknown>
       4: 05 00        	<unknown>
       6: 04 00        	<unknown>
       8: 93 00 00 00  	li	ra, 0
       c: 01 01        	<unknown>
       e: 01 fb        	<unknown>
      10: 0e 0d        	<unknown>
      12: 00 01        	<unknown>
      14: 01 01        	<unknown>
      16: 01 00        	<unknown>
      18: 00 00        	<unknown>
      1a: 01 00        	<unknown>
      1c: 00 01        	<unknown>
      1e: 01 01        	<unknown>
      20: 1f 03 00 00  	<unknown>
      24: 00 00        	<unknown>
      26: 68 00        	<unknown>
      28: 00 00        	<unknown>
      2a: b8 00        	<unknown>
      2c: 00 00        	<unknown>
      2e: 03 01 1f 02  	lb	sp, 33(t5)
      32: 0f 05 1e 05  	<unknown>
      36: 11 01        	<unknown>
      38: 00 00        	<unknown>
      3a: 00 ff        	<unknown>
      3c: 68 c6        	<unknown>
      3e: 1f b7 fb 48  	<unknown>
      42: 9a 51        	<unknown>
      44: 20 9c        	<unknown>
      46: d5 bf        	<unknown>
      48: 04 28        	<unknown>
      4a: 7a 2b        	<unknown>
      4c: 01 00        	<unknown>
      4e: 00 01        	<unknown>
      50: f7 02 4d 06  	<unknown>
      54: 82 a9        	<unknown>
      56: 18 b4        	<unknown>
      58: 1f 94 e8 be  	<unknown>
      5c: 9c d9        	<unknown>
      5e: 04 61        	<unknown>
      60: 72 01        	<unknown>
      62: 00 00        	<unknown>
      64: 01 ab        	<unknown>
      66: 91 4e        	<unknown>
      68: 28 76        	<unknown>
      6a: 01 b2        	<unknown>
      6c: 38 5e        	<unknown>
      6e: 57 88 0e 65  	<unknown>
      72: 99 aa        	<unknown>
      74: 6b ae 01 00  	<unknown>
      78: 00 02        	<unknown>
      7a: 54 e2        	<unknown>
      7c: 7b 38 e5 d5  	<unknown>
      80: de cf        	<unknown>
      82: dc bd        	<unknown>
      84: 4c 9d        	<unknown>
      86: 62 b6        	<unknown>
      88: 1f 65 c0 01  	<unknown>
      8c: 00 00        	<unknown>
      8e: 02 72        	<unknown>
      90: 4e 98        	<unknown>
      92: 8c 16        	<unknown>
      94: 50 e3        	<unknown>
      96: 59 1c        	<unknown>
      98: 48 35        	<unknown>
      9a: 4f 08 5e aa  	<unknown>
      9e: 36 04        	<unknown>
      a0: 00 00        	<unknown>
      a2: 05 02        	<unknown>
      a4: 08 01        	<unknown>
      a6: 00 80        	<unknown>
      a8: 03 0f 01 04  	lb	t5, 64(sp)
      ac: 03 05 03 0a  	lb	a0, 160(t1)
      b0: 03 17 09 04  	lh	a4, 64(s2)
      b4: 00 01        	<unknown>
      b6: 04 00        	<unknown>
      b8: 03 6d 09 10  	<unknown>
      bc: 00 01        	<unknown>
      be: 05 0f        	<unknown>
      c0: 03 04 09 0c  	lb	s0, 192(s2)
      c4: 00 01        	<unknown>
      c6: 05 17        	<unknown>
      c8: 03 06 09 04  	lb	a2, 64(s2)
      cc: 00 01        	<unknown>
      ce: 05 03        	<unknown>
      d0: 06 03        	<unknown>
      d2: 00 09        	<unknown>
      d4: 04 00        	<unknown>
      d6: 01 05        	<unknown>
      d8: 13 03 00 09  	li	t1, 144
      dc: 0c 00        	<unknown>
      de: 01 05        	<unknown>
      e0: 03 06 03 03  	lb	a2, 48(t1)
      e4: 09 04        	<unknown>
      e6: 00 01        	<unknown>
      e8: 06 03        	<unknown>
      ea: 5f 09 0c 00  	<unknown>
      ee: 01 05        	<unknown>
      f0: 09 06        	<unknown>
      f2: 03 24 09 08  	lw	s0, 128(s2)
      f6: 00 01        	<unknown>
      f8: 05 03        	<unknown>
      fa: 03 07 09 04  	lb	a4, 64(s2)
      fe: 00 01        	<unknown>
     100: 03 01 09 0c  	lb	sp, 192(s2)
     104: 00 01        	<unknown>
     106: 09 18        	<unknown>
     108: 00 00        	<unknown>
     10a: 01 01        	<unknown>
     10c: d3 06 00 00  	fadd.s	a3, zero, zero, rne
     110: 05 00        	<unknown>
     112: 04 00        	<unknown>
     114: a8 00        	<unknown>
     116: 00 00        	<unknown>
     118: 01 01        	<unknown>
     11a: 01 fb        	<unknown>
     11c: 0e 0d        	<unknown>
     11e: 00 01        	<unknown>
     120: 01 01        	<unknown>
     122: 01 00        	<unknown>
     124: 00 00        	<unknown>
     126: 01 00        	<unknown>
     128: 00 01        	<unknown>
     12a: 01 01        	<unknown>
     12c: 1f 03 00 00  	<unknown>
     130: 00 00        	<unknown>
     132: 68 00        	<unknown>
     134: 00 00        	<unknown>
     136: b8 00        	<unknown>
     138: 00 00        	<unknown>
     13a: 03 01 1f 02  	lb	sp, 33(t5)
     13e: 0f 05 1e 06  	<unknown>
     142: da 01        	<unknown>
     144: 00 00        	<unknown>
     146: 00 b6        	<unknown>
     148: 27 75 98 69  	<unknown>
     14c: 0f 63 4d 61  	<unknown>
     150: 80 41        	<unknown>
     152: 4c 10        	<unknown>
     154: c7 d9 6c 2b  	<unknown>
     158: 01 00        	<unknown>
     15a: 00 01        	<unknown>
     15c: f7 02 4d 06  	<unknown>
     160: 82 a9        	<unknown>
     162: 18 b4        	<unknown>
     164: 1f 94 e8 be  	<unknown>
     168: 9c d9        	<unknown>
     16a: 04 61        	<unknown>
     16c: 72 01        	<unknown>
     16e: 00 00        	<unknown>
     170: 01 ab        	<unknown>
     172: 91 4e        	<unknown>
     174: 28 76        	<unknown>
     176: 01 b2        	<unknown>
     178: 38 5e        	<unknown>
     17a: 57 88 0e 65  	<unknown>
     17e: 99 aa        	<unknown>
     180: 6b 43 02 00  	<unknown>
     184: 00 02        	<unknown>
     186: e9 c0        	<unknown>
     188: 83 40 08 ad  	lbu	ra, -1328(a6)
     18c: cc a9        	<unknown>
     18e: 8d 0c        	<unknown>
     190: 85 62        	<unknown>
     192: 29 40        	<unknown>
     194: e8 72        	<unknown>
     196: 33 02 00 00  	add	tp, zero, zero
     19a: 02 b6        	<unknown>
     19c: 27 75 98 69  	<unknown>
     1a0: 0f 63 4d 61  	<unknown>
     1a4: 80 41        	<unknown>
     1a6: 4c 10        	<unknown>
     1a8: c7 d9 6c 53  	<unknown>
     1ac: 02 00        	<unknown>
     1ae: 00 02        	<unknown>
     1b0: fd 23        	<unknown>
     1b2: 51 8b        	<unknown>
     1b4: f9 d9        	<unknown>
     1b6: 82 39        	<unknown>
     1b8: 38 21        	<unknown>
     1ba: d0 bf        	<unknown>
     1bc: 57 5b ba 4d  	pv.cmpleu.sc.b	s6, s4, s11
     1c0: 04 04        	<unknown>
     1c2: 00 05        	<unknown>
     1c4: 02 7c        	<unknown>
     1c6: 01 00        	<unknown>
     1c8: 80 03        	<unknown>
     1ca: 3c 01        	<unknown>
     1cc: 05 1b        	<unknown>
     1ce: 0a 03        	<unknown>
     1d0: 02 09        	<unknown>
     1d2: 00 00        	<unknown>
     1d4: 01 05        	<unknown>
     1d6: 35 03        	<unknown>
     1d8: 04 09        	<unknown>
     1da: 08 00        	<unknown>
     1dc: 01 05        	<unknown>
     1de: 1e 06        	<unknown>
     1e0: 03 00 09 04  	lb	zero, 64(s2)
     1e4: 00 01        	<unknown>
     1e6: 05 10        	<unknown>
     1e8: 06 03        	<unknown>
     1ea: 01 09        	<unknown>
     1ec: 04 00        	<unknown>
     1ee: 01 05        	<unknown>
     1f0: 13 03 03 09  	addi	t1, t1, 144
     1f4: 04 00        	<unknown>
     1f6: 01 05        	<unknown>
     1f8: 0e 03        	<unknown>
     1fa: 01 09        	<unknown>
     1fc: 04 00        	<unknown>
     1fe: 01 05        	<unknown>
     200: 13 06 03 00  	mv	a2, t1
     204: 09 04        	<unknown>
     206: 00 01        	<unknown>
     208: 05 16        	<unknown>
     20a: 06 03        	<unknown>
     20c: 01 09        	<unknown>
     20e: 04 00        	<unknown>
     210: 01 05        	<unknown>
     212: 01 03        	<unknown>
     214: 01 09        	<unknown>
     216: 04 00        	<unknown>
     218: 01 05        	<unknown>
     21a: 00 03        	<unknown>
     21c: 2d 09        	<unknown>
     21e: 04 00        	<unknown>
     220: 01 06        	<unknown>
     222: 03 89 7f 09  	lb	s2, 151(t6)
     226: 04 00        	<unknown>
     228: 01 05        	<unknown>
     22a: 19 06        	<unknown>
     22c: 0a 03        	<unknown>
     22e: fa 00        	<unknown>
     230: 09 04        	<unknown>
     232: 00 01        	<unknown>
     234: 05 12        	<unknown>
     236: 03 04 09 08  	lb	s0, 128(s2)
     23a: 00 01        	<unknown>
     23c: 05 07        	<unknown>
     23e: 06 03        	<unknown>
     240: 00 09        	<unknown>
     242: 04 00        	<unknown>
     244: 01 05        	<unknown>
     246: 05 06        	<unknown>
     248: 03 01 09 04  	lb	sp, 64(s2)
     24c: 00 01        	<unknown>
     24e: 06 03        	<unknown>
     250: 81 7f        	<unknown>
     252: 09 10        	<unknown>
     254: 00 01        	<unknown>
     256: 05 01        	<unknown>
     258: 06 03        	<unknown>
     25a: 90 01        	<unknown>
     25c: 09 04        	<unknown>
     25e: 00 01        	<unknown>
     260: 05 00        	<unknown>
     262: 06 03        	<unknown>
     264: f0 7e        	<unknown>
     266: 09 0c        	<unknown>
     268: 00 01        	<unknown>
     26a: 05 0f        	<unknown>
     26c: 06 03        	<unknown>
     26e: d5 00        	<unknown>
     270: 09 04        	<unknown>
     272: 00 01        	<unknown>
     274: 05 19        	<unknown>
     276: 06 03        	<unknown>
     278: 00 09        	<unknown>
     27a: 04 00        	<unknown>
     27c: 01 05        	<unknown>
     27e: 03 03 00 09  	lb	t1, 144(zero)
     282: 04 00        	<unknown>
     284: 01 03        	<unknown>
     286: ab 7f 09 04  	<unknown>
     28a: 00 01        	<unknown>
     28c: 05 0f        	<unknown>
     28e: 03 d5 00 09  	lhu	a0, 144(ra)
     292: 08 00        	<unknown>
     294: 01 05        	<unknown>
     296: 19 03        	<unknown>
     298: 00 09        	<unknown>
     29a: 04 00        	<unknown>
     29c: 01 05        	<unknown>
     29e: 03 03 00 09  	lb	t1, 144(zero)
     2a2: 04 00        	<unknown>
     2a4: 01 05        	<unknown>
     2a6: 09 06        	<unknown>
     2a8: 03 07 09 04  	lb	a4, 64(s2)
     2ac: 00 01        	<unknown>
     2ae: 05 00        	<unknown>
     2b0: 06 03        	<unknown>
     2b2: a4 7f        	<unknown>
     2b4: 09 04        	<unknown>
     2b6: 00 01        	<unknown>
     2b8: 05 14        	<unknown>
     2ba: 06 03        	<unknown>
     2bc: df 00 09 04  	<unknown>
     2c0: 00 01        	<unknown>
     2c2: 05 05        	<unknown>
     2c4: 03 27 09 08  	lw	a4, 128(s2)
     2c8: 00 01        	<unknown>
     2ca: 06 03        	<unknown>
     2cc: fa 7e        	<unknown>
     2ce: 09 10        	<unknown>
     2d0: 00 01        	<unknown>
     2d2: 05 01        	<unknown>
     2d4: 06 03        	<unknown>
     2d6: 90 01        	<unknown>
     2d8: 09 04        	<unknown>
     2da: 00 01        	<unknown>
     2dc: 05 09        	<unknown>
     2de: 03 4c 09 0c  	lbu	s8, 192(s2)
     2e2: 00 01        	<unknown>
     2e4: 05 00        	<unknown>
     2e6: 06 03        	<unknown>
     2e8: a4 7f        	<unknown>
     2ea: 09 04        	<unknown>
     2ec: 00 01        	<unknown>
     2ee: 05 1c        	<unknown>
     2f0: 06 03        	<unknown>
     2f2: e1 00        	<unknown>
     2f4: 09 04        	<unknown>
     2f6: 00 01        	<unknown>
     2f8: 05 41        	<unknown>
     2fa: 03 04 09 08  	lb	s0, 128(s2)
     2fe: 00 01        	<unknown>
     300: 05 24        	<unknown>
     302: 03 01 09 04  	lb	sp, 64(s2)
     306: 00 01        	<unknown>
     308: 05 17        	<unknown>
     30a: 06 03        	<unknown>
     30c: 00 09        	<unknown>
     30e: 04 00        	<unknown>
     310: 01 05        	<unknown>
     312: 1f 06 03 01  	<unknown>
     316: 09 04        	<unknown>
     318: 00 01        	<unknown>
     31a: 05 17        	<unknown>
     31c: 06 03        	<unknown>
     31e: 00 09        	<unknown>
     320: 04 00        	<unknown>
     322: 01 05        	<unknown>
     324: 1c 06        	<unknown>
     326: 03 04 09 04  	lb	s0, 64(s2)
     32a: 00 01        	<unknown>
     32c: 05 41        	<unknown>
     32e: 03 7a 09 08  	<unknown>
     332: 00 01        	<unknown>
     334: 05 24        	<unknown>
     336: 03 01 09 04  	lb	sp, 64(s2)
     33a: 00 01        	<unknown>
     33c: 05 17        	<unknown>
     33e: 06 03        	<unknown>
     340: 00 09        	<unknown>
     342: 04 00        	<unknown>
     344: 01 05        	<unknown>
     346: 1f 06 03 01  	<unknown>
     34a: 09 04        	<unknown>
     34c: 00 01        	<unknown>
     34e: 05 17        	<unknown>
     350: 06 03        	<unknown>
     352: 00 09        	<unknown>
     354: 04 00        	<unknown>
     356: 01 05        	<unknown>
     358: 14 06        	<unknown>
     35a: 03 02 09 04  	lb	tp, 64(s2)
     35e: 00 01        	<unknown>
     360: 05 10        	<unknown>
     362: 03 4a 09 04  	lbu	s4, 64(s2)
     366: 00 01        	<unknown>
     368: 05 18        	<unknown>
     36a: 06 03        	<unknown>
     36c: 00 09        	<unknown>
     36e: 04 00        	<unknown>
     370: 01 05        	<unknown>
     372: 16 03        	<unknown>
     374: 00 09        	<unknown>
     376: 04 00        	<unknown>
     378: 01 05        	<unknown>
     37a: 1c 06        	<unknown>
     37c: 03 d8 00 09  	lhu	a6, 144(ra)
     380: 04 00        	<unknown>
     382: 01 05        	<unknown>
     384: 33 03 03 09  	<unknown>
     388: 04 00        	<unknown>
     38a: 01 05        	<unknown>
     38c: 01 03        	<unknown>
     38e: 02 09        	<unknown>
     390: 04 00        	<unknown>
     392: 01 05        	<unknown>
     394: 00 03        	<unknown>
     396: 02 09        	<unknown>
     398: 0c 00        	<unknown>
     39a: 01 06        	<unknown>
     39c: 03 ee 7e 09  	<unknown>
     3a0: 04 00        	<unknown>
     3a2: 01 05        	<unknown>
     3a4: 19 06        	<unknown>
     3a6: 0a 03        	<unknown>
     3a8: fa 00        	<unknown>
     3aa: 09 04        	<unknown>
     3ac: 00 01        	<unknown>
     3ae: 05 12        	<unknown>
     3b0: 03 04 09 08  	lb	s0, 128(s2)
     3b4: 00 01        	<unknown>
     3b6: 05 07        	<unknown>
     3b8: 06 03        	<unknown>
     3ba: 00 09        	<unknown>
     3bc: 04 00        	<unknown>
     3be: 01 05        	<unknown>
     3c0: 05 06        	<unknown>
     3c2: 03 01 09 04  	lb	sp, 64(s2)
     3c6: 00 01        	<unknown>
     3c8: 06 03        	<unknown>
     3ca: 81 7f        	<unknown>
     3cc: 09 10        	<unknown>
     3ce: 00 01        	<unknown>
     3d0: 05 03        	<unknown>
     3d2: 06 03        	<unknown>
     3d4: 93 01 09 04  	addi	gp, s2, 64
     3d8: 00 01        	<unknown>
     3da: 05 00        	<unknown>
     3dc: 06 03        	<unknown>
     3de: ed 7e        	<unknown>
     3e0: 09 0c        	<unknown>
     3e2: 00 01        	<unknown>
     3e4: 05 0f        	<unknown>
     3e6: 06 03        	<unknown>
     3e8: d5 00        	<unknown>
     3ea: 09 08        	<unknown>
     3ec: 00 01        	<unknown>
     3ee: 05 19        	<unknown>
     3f0: 06 03        	<unknown>
     3f2: 00 09        	<unknown>
     3f4: 04 00        	<unknown>
     3f6: 01 05        	<unknown>
     3f8: 03 03 00 09  	lb	t1, 144(zero)
     3fc: 04 00        	<unknown>
     3fe: 01 03        	<unknown>
     400: ab 7f 09 04  	<unknown>
     404: 00 01        	<unknown>
     406: 05 0f        	<unknown>
     408: 03 d5 00 09  	lhu	a0, 144(ra)
     40c: 08 00        	<unknown>
     40e: 01 05        	<unknown>
     410: 19 03        	<unknown>
     412: 00 09        	<unknown>
     414: 04 00        	<unknown>
     416: 01 05        	<unknown>
     418: 03 03 00 09  	lb	t1, 144(zero)
     41c: 04 00        	<unknown>
     41e: 01 05        	<unknown>
     420: 09 06        	<unknown>
     422: 03 07 09 04  	lb	a4, 64(s2)
     426: 00 01        	<unknown>
     428: 05 00        	<unknown>
     42a: 06 03        	<unknown>
     42c: a4 7f        	<unknown>
     42e: 09 04        	<unknown>
     430: 00 01        	<unknown>
     432: 05 14        	<unknown>
     434: 06 03        	<unknown>
     436: df 00 09 04  	<unknown>
     43a: 00 01        	<unknown>
     43c: 05 05        	<unknown>
     43e: 03 27 09 08  	lw	a4, 128(s2)
     442: 00 01        	<unknown>
     444: 06 03        	<unknown>
     446: fa 7e        	<unknown>
     448: 09 10        	<unknown>
     44a: 00 01        	<unknown>
     44c: 05 03        	<unknown>
     44e: 06 03        	<unknown>
     450: 93 01 09 04  	addi	gp, s2, 64
     454: 00 01        	<unknown>
     456: 05 09        	<unknown>
     458: 03 49 09 0c  	lbu	s2, 192(s2)
     45c: 00 01        	<unknown>
     45e: 05 00        	<unknown>
     460: 06 03        	<unknown>
     462: a4 7f        	<unknown>
     464: 09 04        	<unknown>
     466: 00 01        	<unknown>
     468: 05 1c        	<unknown>
     46a: 06 03        	<unknown>
     46c: e1 00        	<unknown>
     46e: 09 04        	<unknown>
     470: 00 01        	<unknown>
     472: 05 41        	<unknown>
     474: 03 04 09 0c  	lb	s0, 192(s2)
     478: 00 01        	<unknown>
     47a: 05 24        	<unknown>
     47c: 03 01 09 04  	lb	sp, 64(s2)
     480: 00 01        	<unknown>
     482: 05 17        	<unknown>
     484: 06 03        	<unknown>
     486: 00 09        	<unknown>
     488: 04 00        	<unknown>
     48a: 01 05        	<unknown>
     48c: 1f 06 03 01  	<unknown>
     490: 09 04        	<unknown>
     492: 00 01        	<unknown>
     494: 05 1c        	<unknown>
     496: 03 04 09 04  	lb	s0, 64(s2)
     49a: 00 01        	<unknown>
     49c: 05 17        	<unknown>
     49e: 03 7c 09 04  	<unknown>
     4a2: 00 01        	<unknown>
     4a4: 05 1c        	<unknown>
     4a6: 03 04 09 04  	lb	s0, 64(s2)
     4aa: 00 01        	<unknown>
     4ac: 05 41        	<unknown>
     4ae: 03 7a 09 08  	<unknown>
     4b2: 00 01        	<unknown>
     4b4: 05 24        	<unknown>
     4b6: 03 01 09 04  	lb	sp, 64(s2)
     4ba: 00 01        	<unknown>
     4bc: 05 17        	<unknown>
     4be: 06 03        	<unknown>
     4c0: 00 09        	<unknown>
     4c2: 04 00        	<unknown>
     4c4: 01 05        	<unknown>
     4c6: 1f 06 03 01  	<unknown>
     4ca: 09 04        	<unknown>
     4cc: 00 01        	<unknown>
     4ce: 05 17        	<unknown>
     4d0: 06 03        	<unknown>
     4d2: 00 09        	<unknown>
     4d4: 04 00        	<unknown>
     4d6: 01 05        	<unknown>
     4d8: 14 06        	<unknown>
     4da: 03 02 09 04  	lb	tp, 64(s2)
     4de: 00 01        	<unknown>
     4e0: 05 10        	<unknown>
     4e2: 03 4a 09 04  	lbu	s4, 64(s2)
     4e6: 00 01        	<unknown>
     4e8: 05 18        	<unknown>
     4ea: 06 03        	<unknown>
     4ec: 00 09        	<unknown>
     4ee: 04 00        	<unknown>
     4f0: 01 05        	<unknown>
     4f2: 16 03        	<unknown>
     4f4: 00 09        	<unknown>
     4f6: 04 00        	<unknown>
     4f8: 01 05        	<unknown>
     4fa: 1c 06        	<unknown>
     4fc: 03 d8 00 09  	lhu	a6, 144(ra)
     500: 04 00        	<unknown>
     502: 01 05        	<unknown>
     504: 33 03 03 09  	<unknown>
     508: 04 00        	<unknown>
     50a: 01 05        	<unknown>
     50c: 03 03 05 09  	lb	t1, 144(a0)
     510: 04 00        	<unknown>
     512: 01 05        	<unknown>
     514: 00 03        	<unknown>
     516: 2c 09        	<unknown>
     518: 0c 00        	<unknown>
     51a: 01 05        	<unknown>
     51c: 2e 0a        	<unknown>
     51e: 03 02 09 04  	lb	tp, 64(s2)
     522: 00 01        	<unknown>
     524: 05 15        	<unknown>
     526: 03 04 09 04  	lb	s0, 64(s2)
     52a: 00 01        	<unknown>
     52c: 05 0a        	<unknown>
     52e: 03 e9 7e 09  	<unknown>
     532: 04 00        	<unknown>
     534: 01 05        	<unknown>
     536: 1e 03        	<unknown>
     538: 9a 01        	<unknown>
     53a: 09 04        	<unknown>
     53c: 00 01        	<unknown>
     53e: 05 07        	<unknown>
     540: 06 03        	<unknown>
     542: 00 09        	<unknown>
     544: 04 00        	<unknown>
     546: 01 03        	<unknown>
     548: b8 7e        	<unknown>
     54a: 09 04        	<unknown>
     54c: 00 01        	<unknown>
     54e: 05 0a        	<unknown>
     550: 06 03        	<unknown>
     552: a0 01        	<unknown>
     554: 09 14        	<unknown>
     556: 00 01        	<unknown>
     558: 05 0f        	<unknown>
     55a: 06 03        	<unknown>
     55c: 00 09        	<unknown>
     55e: 04 00        	<unknown>
     560: 01 05        	<unknown>
     562: 12 06        	<unknown>
     564: 03 02 09 08  	lb	tp, 128(s2)
     568: 00 01        	<unknown>
     56a: 05 03        	<unknown>
     56c: 03 7e 09 04  	<unknown>
     570: 00 01        	<unknown>
     572: 05 1a        	<unknown>
     574: 03 06 09 04  	lb	a2, 64(s2)
     578: 00 01        	<unknown>
     57a: 05 07        	<unknown>
     57c: 06 03        	<unknown>
     57e: 00 09        	<unknown>
     580: 04 00        	<unknown>
     582: 01 05        	<unknown>
     584: 15 06        	<unknown>
     586: 03 06 09 04  	lb	a2, 64(s2)
     58a: 00 01        	<unknown>
     58c: 05 00        	<unknown>
     58e: 06 03        	<unknown>
     590: d4 7e        	<unknown>
     592: 09 04        	<unknown>
     594: 00 01        	<unknown>
     596: 05 07        	<unknown>
     598: 06 03        	<unknown>
     59a: b0 01        	<unknown>
     59c: 09 04        	<unknown>
     59e: 00 01        	<unknown>
     5a0: 05 1f        	<unknown>
     5a2: 03 02 09 04  	lb	tp, 64(s2)
     5a6: 00 01        	<unknown>
     5a8: 05 17        	<unknown>
     5aa: 06 03        	<unknown>
     5ac: 00 09        	<unknown>
     5ae: 04 00        	<unknown>
     5b0: 01 05        	<unknown>
     5b2: 09 03        	<unknown>
     5b4: 00 09        	<unknown>
     5b6: 04 00        	<unknown>
     5b8: 01 05        	<unknown>
     5ba: 12 06        	<unknown>
     5bc: 03 06 09 04  	lb	a2, 64(s2)
     5c0: 00 01        	<unknown>
     5c2: 05 01        	<unknown>
     5c4: 03 17 09 04  	lh	a4, 64(s2)
     5c8: 00 01        	<unknown>
     5ca: 05 05        	<unknown>
     5cc: 03 7a 09 04  	<unknown>
     5d0: 00 01        	<unknown>
     5d2: 05 24        	<unknown>
     5d4: 03 5f 09 10  	lhu	t5, 256(s2)
     5d8: 00 01        	<unknown>
     5da: 05 1c        	<unknown>
     5dc: 06 03        	<unknown>
     5de: 00 09        	<unknown>
     5e0: 04 00        	<unknown>
     5e2: 01 05        	<unknown>
     5e4: 15 03        	<unknown>
     5e6: 00 09        	<unknown>
     5e8: 04 00        	<unknown>
     5ea: 01 05        	<unknown>
     5ec: 1d 06        	<unknown>
     5ee: 03 01 09 04  	lb	sp, 64(s2)
     5f2: 00 01        	<unknown>
     5f4: 05 00        	<unknown>
     5f6: 06 03        	<unknown>
     5f8: d7 7e 09 04  	pv.cmpeq.sci.b	t4, s2, 0
     5fc: 00 01        	<unknown>
     5fe: 05 07        	<unknown>
     600: 06 03        	<unknown>
     602: b0 01        	<unknown>
     604: 09 04        	<unknown>
     606: 00 01        	<unknown>
     608: 05 18        	<unknown>
     60a: 03 0b 09 04  	lb	s6, 64(s2)
     60e: 00 01        	<unknown>
     610: 05 01        	<unknown>
     612: 03 14 09 04  	lh	s0, 64(s2)
     616: 00 01        	<unknown>
     618: 05 12        	<unknown>
     61a: 03 65 09 04  	<unknown>
     61e: 00 01        	<unknown>
     620: 03 01 09 08  	lb	sp, 128(s2)
     624: 00 01        	<unknown>
     626: 05 01        	<unknown>
     628: 03 1a 09 04  	lh	s4, 64(s2)
     62c: 00 01        	<unknown>
     62e: 05 00        	<unknown>
     630: 03 02 09 04  	lb	tp, 64(s2)
     634: 00 01        	<unknown>
     636: 05 2e        	<unknown>
     638: 0a 03        	<unknown>
     63a: 70 09        	<unknown>
     63c: 00 00        	<unknown>
     63e: 01 05        	<unknown>
     640: 15 03        	<unknown>
     642: 04 09        	<unknown>
     644: 04 00        	<unknown>
     646: 01 05        	<unknown>
     648: 0a 03        	<unknown>
     64a: e9 7e        	<unknown>
     64c: 09 04        	<unknown>
     64e: 00 01        	<unknown>
     650: 05 1e        	<unknown>
     652: 03 9a 01 09  	lh	s4, 144(gp)
     656: 04 00        	<unknown>
     658: 01 05        	<unknown>
     65a: 07 06 03 00  	flb	fa2, 0(t1)
     65e: 09 04        	<unknown>
     660: 00 01        	<unknown>
     662: 03 b8 7e 09  	<unknown>
     666: 04 00        	<unknown>
     668: 01 05        	<unknown>
     66a: 0a 06        	<unknown>
     66c: 03 a0 01 09  	lw	zero, 144(gp)
     670: 18 00        	<unknown>
     672: 01 05        	<unknown>
     674: 0f 06 03 00  	<unknown>
     678: 09 04        	<unknown>
     67a: 00 01        	<unknown>
     67c: 05 12        	<unknown>
     67e: 06 03        	<unknown>
     680: 02 09        	<unknown>
     682: 08 00        	<unknown>
     684: 01 05        	<unknown>
     686: 03 03 7e 09  	lb	t1, 151(t3)
     68a: 04 00        	<unknown>
     68c: 01 05        	<unknown>
     68e: 1a 03        	<unknown>
     690: 06 09        	<unknown>
     692: 04 00        	<unknown>
     694: 01 05        	<unknown>
     696: 07 06 03 00  	flb	fa2, 0(t1)
     69a: 09 04        	<unknown>
     69c: 00 01        	<unknown>
     69e: 05 15        	<unknown>
     6a0: 06 03        	<unknown>
     6a2: 06 09        	<unknown>
     6a4: 04 00        	<unknown>
     6a6: 01 05        	<unknown>
     6a8: 00 06        	<unknown>
     6aa: 03 d4 7e 09  	lhu	s0, 151(t4)
     6ae: 04 00        	<unknown>
     6b0: 01 05        	<unknown>
     6b2: 07 06 03 b0  	flb	fa2, -1280(t1)
     6b6: 01 09        	<unknown>
     6b8: 04 00        	<unknown>
     6ba: 01 05        	<unknown>
     6bc: 1f 03 02 09  	<unknown>
     6c0: 04 00        	<unknown>
     6c2: 01 05        	<unknown>
     6c4: 17 06 03 00  	auipc	a2, 48
     6c8: 09 04        	<unknown>
     6ca: 00 01        	<unknown>
     6cc: 05 09        	<unknown>
     6ce: 03 00 09 04  	lb	zero, 64(s2)
     6d2: 00 01        	<unknown>
     6d4: 05 12        	<unknown>
     6d6: 06 03        	<unknown>
     6d8: 06 09        	<unknown>
     6da: 04 00        	<unknown>
     6dc: 01 05        	<unknown>
     6de: 42 03        	<unknown>
     6e0: 19 09        	<unknown>
     6e2: 04 00        	<unknown>
     6e4: 01 05        	<unknown>
     6e6: 05 03        	<unknown>
     6e8: 78 09        	<unknown>
     6ea: 04 00        	<unknown>
     6ec: 01 05        	<unknown>
     6ee: 24 03        	<unknown>
     6f0: 5f 09 10 00  	<unknown>
     6f4: 01 05        	<unknown>
     6f6: 1c 06        	<unknown>
     6f8: 03 00 09 04  	lb	zero, 64(s2)
     6fc: 00 01        	<unknown>
     6fe: 05 15        	<unknown>
     700: 03 00 09 04  	lb	zero, 64(s2)
     704: 00 01        	<unknown>
     706: 05 1d        	<unknown>
     708: 06 03        	<unknown>
     70a: 01 09        	<unknown>
     70c: 04 00        	<unknown>
     70e: 01 05        	<unknown>
     710: 00 06        	<unknown>
     712: 03 d7 7e 09  	lhu	a4, 151(t4)
     716: 04 00        	<unknown>
     718: 01 05        	<unknown>
     71a: 07 06 03 b0  	flb	fa2, -1280(t1)
     71e: 01 09        	<unknown>
     720: 04 00        	<unknown>
     722: 01 05        	<unknown>
     724: 18 03        	<unknown>
     726: 0b 09 04 00  	p.lb	s2, 0(s0!)
     72a: 01 05        	<unknown>
     72c: 42 03        	<unknown>
     72e: 16 09        	<unknown>
     730: 08 00        	<unknown>
     732: 01 05        	<unknown>
     734: 12 03        	<unknown>
     736: 63 09 04 00  	beqz	s0, 0x748 <__l1_start+0x748>
     73a: 01 03        	<unknown>
     73c: 01 09        	<unknown>
     73e: 08 00        	<unknown>
     740: 01 05        	<unknown>
     742: 42 03        	<unknown>
     744: 1c 09        	<unknown>
     746: 04 00        	<unknown>
     748: 01 05        	<unknown>
     74a: 00 03        	<unknown>
     74c: 05 09        	<unknown>
     74e: 04 00        	<unknown>
     750: 01 05        	<unknown>
     752: 20 0a        	<unknown>
     754: 03 02 09 04  	lb	tp, 64(s2)
     758: 00 01        	<unknown>
     75a: 05 03        	<unknown>
     75c: 03 02 09 14  	lb	tp, 320(s2)
     760: 00 01        	<unknown>
     762: 06 03        	<unknown>
     764: a6 7e        	<unknown>
     766: 09 10        	<unknown>
     768: 00 01        	<unknown>
     76a: 06 03        	<unknown>
     76c: dd 01        	<unknown>
     76e: 09 08        	<unknown>
     770: 00 01        	<unknown>
     772: 05 00        	<unknown>
     774: 06 03        	<unknown>
     776: a3 7e 09 04  	<unknown>
     77a: 00 01        	<unknown>
     77c: 05 48        	<unknown>
     77e: 06 03        	<unknown>
     780: df 01 09 04  	<unknown>
     784: 00 01        	<unknown>
     786: 05 05        	<unknown>
     788: 06 03        	<unknown>
     78a: 00 09        	<unknown>
     78c: 04 00        	<unknown>
     78e: 01 05        	<unknown>
     790: 0f 06 03 03  	<unknown>
     794: 09 10        	<unknown>
     796: 00 01        	<unknown>
     798: 05 09        	<unknown>
     79a: 06 03        	<unknown>
     79c: 00 09        	<unknown>
     79e: 04 00        	<unknown>
     7a0: 01 05        	<unknown>
     7a2: 07 06 03 01  	flb	fa2, 16(t1)
     7a6: 09 04        	<unknown>
     7a8: 00 01        	<unknown>
     7aa: 05 01        	<unknown>
     7ac: 03 07 09 24  	lb	a4, 576(s2)
     7b0: 00 01        	<unknown>
     7b2: 05 00        	<unknown>
     7b4: 03 05 09 18  	lb	a0, 384(s2)
     7b8: 00 01        	<unknown>
     7ba: 05 1b        	<unknown>
     7bc: 0a 03        	<unknown>
     7be: 00 09        	<unknown>
     7c0: 00 00        	<unknown>
     7c2: 01 05        	<unknown>
     7c4: 00 03        	<unknown>
     7c6: 02 09        	<unknown>
     7c8: 0c 00        	<unknown>
     7ca: 01 05        	<unknown>
     7cc: 3b 0a 03 00  	<unknown>
     7d0: 09 00        	<unknown>
     7d2: 00 01        	<unknown>
     7d4: 05 33        	<unknown>
     7d6: 06 03        	<unknown>
     7d8: 00 09        	<unknown>
     7da: 10 00        	<unknown>
     7dc: 01 09        	<unknown>
     7de: 04 00        	<unknown>
     7e0: 00 01        	<unknown>
     7e2: 01 7a        	<unknown>
     7e4: 00 00        	<unknown>
     7e6: 00 05        	<unknown>
     7e8: 00 04        	<unknown>
     7ea: 00 25        	<unknown>
     7ec: 00 00        	<unknown>
     7ee: 00 01        	<unknown>
     7f0: 01 01        	<unknown>
     7f2: fb 0e 0d 00  	<unknown>
     7f6: 01 01        	<unknown>
     7f8: 01 01        	<unknown>
     7fa: 00 00        	<unknown>
     7fc: 00 01        	<unknown>
     7fe: 00 00        	<unknown>
     800: 01 01        	<unknown>
     802: 01 1f        	<unknown>
     804: 01 00        	<unknown>
     806: 00 00        	<unknown>
     808: 00 02        	<unknown>
     80a: 01 1f        	<unknown>
     80c: 02 0f        	<unknown>
     80e: 01 64        	<unknown>
     810: 02 00        	<unknown>
     812: 00 00        	<unknown>
     814: 04 00        	<unknown>
     816: 00 05        	<unknown>
     818: 02 00        	<unknown>
     81a: 00 00        	<unknown>
     81c: 80 03        	<unknown>
     81e: 12 01        	<unknown>
     820: 4b 4e 4c 4b  	<unknown>
     824: 4b 4b 4b 4b  	<unknown>
     828: 4b 4b 4b 4b  	<unknown>
     82c: 4b 4b 4b 4b  	<unknown>
     830: 4b 4b 4b 4b  	<unknown>
     834: 4b 4b 4b 4b  	<unknown>
     838: 4b 4b 4b 4b  	<unknown>
     83c: 4b 4b 4b 4b  	<unknown>
     840: 4b 83 4c 4b  	<unknown>
     844: 4c 4b        	<unknown>
     846: 4b 4b 4b 4b  	<unknown>
     84a: 4c 4b        	<unknown>
     84c: 4c 4b        	<unknown>
     84e: 4b 4c 4b 4c  	fnmsub.h	s8, s6, tp, s1, rmm
     852: 4b 83 83 4c  	fnmsub.h	t1, t2, s0, s1, rne
     856: 85 83        	<unknown>
     858: 4b 4b 4b 83  	<unknown>
     85c: 02 04        	<unknown>
     85e: 00 01        	<unknown>
     860: 01 60        	<unknown>
     862: 0c 00        	<unknown>
     864: 00 05        	<unknown>
     866: 00 04        	<unknown>
     868: 00 a8        	<unknown>
     86a: 00 00        	<unknown>
     86c: 00 01        	<unknown>
     86e: 01 01        	<unknown>
     870: fb 0e 0d 00  	<unknown>
     874: 01 01        	<unknown>
     876: 01 01        	<unknown>
     878: 00 00        	<unknown>
     87a: 00 01        	<unknown>
     87c: 00 00        	<unknown>
     87e: 01 01        	<unknown>
     880: 01 1f        	<unknown>
     882: 03 00 00 00  	lb	zero, 0(zero)
     886: 00 68        	<unknown>
     888: 00 00        	<unknown>
     88a: 00 b8        	<unknown>
     88c: 00 00        	<unknown>
     88e: 00 03        	<unknown>
     890: 01 1f        	<unknown>
     892: 02 0f        	<unknown>
     894: 05 1e        	<unknown>
     896: 06 cc        	<unknown>
     898: 02 00        	<unknown>
     89a: 00 00        	<unknown>
     89c: ae 94        	<unknown>
     89e: f7 9e 11 c5  	<unknown>
     8a2: 99 c1        	<unknown>
     8a4: 04 4f        	<unknown>
     8a6: 50 17        	<unknown>
     8a8: ef 94 80 74  	jal	s1, 0x9ff0 <__l1_start+0x9ff0>
     8ac: 36 03        	<unknown>
     8ae: 00 00        	<unknown>
     8b0: 01 24        	<unknown>
     8b2: 99 dd        	<unknown>
     8b4: 23 61 b9 15  	<unknown>
     8b8: 72 4b        	<unknown>
     8ba: 07 32 82 be  	<unknown>
     8be: a3 a7 bc 2b  	sw	s11, 687(s9)
     8c2: 01 00        	<unknown>
     8c4: 00 01        	<unknown>
     8c6: f7 02 4d 06  	<unknown>
     8ca: 82 a9        	<unknown>
     8cc: 18 b4        	<unknown>
     8ce: 1f 94 e8 be  	<unknown>
     8d2: 9c d9        	<unknown>
     8d4: 04 61        	<unknown>
     8d6: 72 01        	<unknown>
     8d8: 00 00        	<unknown>
     8da: 01 ab        	<unknown>
     8dc: 91 4e        	<unknown>
     8de: 28 76        	<unknown>
     8e0: 01 b2        	<unknown>
     8e2: 38 5e        	<unknown>
     8e4: 57 88 0e 65  	<unknown>
     8e8: 99 aa        	<unknown>
     8ea: 6b 25 03 00  	<unknown>
     8ee: 00 02        	<unknown>
     8f0: ae 94        	<unknown>
     8f2: f7 9e 11 c5  	<unknown>
     8f6: 99 c1        	<unknown>
     8f8: 04 4f        	<unknown>
     8fa: 50 17        	<unknown>
     8fc: ef 94 80 74  	jal	s1, 0xa044 <__l1_start+0xa044>
     900: 65 03        	<unknown>
     902: 00 00        	<unknown>
     904: 01 4d        	<unknown>
     906: e3 cb d9 31  	blt	s3, t4, 0x141c <__l1_start+0x141c>
     90a: b5 89        	<unknown>
     90c: d2 91        	<unknown>
     90e: e5 c3        	<unknown>
     910: 93 87 ae cf  	addi	a5, t4, -774
     914: 82 04        	<unknown>
     916: 04 00        	<unknown>
     918: 05 02        	<unknown>
     91a: 94 05        	<unknown>
     91c: 00 80        	<unknown>
     91e: 03 f1 05 01  	p.lb	sp, a6(a1)
     922: 05 03        	<unknown>
     924: 0a 03        	<unknown>
     926: 02 09        	<unknown>
     928: 2c 00        	<unknown>
     92a: 01 05        	<unknown>
     92c: 13 03 02 09  	addi	t1, tp, 144
     930: 04 00        	<unknown>
     932: 01 05        	<unknown>
     934: 03 03 02 09  	lb	t1, 144(tp)
     938: 20 00        	<unknown>
     93a: 01 05        	<unknown>
     93c: 00 03        	<unknown>
     93e: cb 7d 09 0c  	fnmsub.h	s11, s2, zero, ra
     942: 00 01        	<unknown>
     944: 05 07        	<unknown>
     946: 0a 03        	<unknown>
     948: 04 09        	<unknown>
     94a: 48 00        	<unknown>
     94c: 01 06        	<unknown>
     94e: 03 b9 7c 09  	<unknown>
     952: 04 00        	<unknown>
     954: 01 05        	<unknown>
     956: 03 06 03 cc  	lb	a2, -832(t1)
     95a: 03 09 38 00  	lb	s2, 3(a6)
     95e: 01 05        	<unknown>
     960: 0a 06        	<unknown>
     962: 03 00 09 04  	lb	zero, 64(s2)
     966: 00 01        	<unknown>
     968: 05 03        	<unknown>
     96a: 03 00 09 04  	lb	zero, 64(s2)
     96e: 00 01        	<unknown>
     970: 05 1f        	<unknown>
     972: 06 03        	<unknown>
     974: 04 09        	<unknown>
     976: 08 00        	<unknown>
     978: 01 05        	<unknown>
     97a: 07 06 03 00  	flb	fa2, 0(t1)
     97e: 09 04        	<unknown>
     980: 00 01        	<unknown>
     982: 05 0d        	<unknown>
     984: 06 03        	<unknown>
     986: 01 09        	<unknown>
     988: 10 00        	<unknown>
     98a: 01 05        	<unknown>
     98c: 07 03 01 09  	flb	ft6, 144(sp)
     990: 04 00        	<unknown>
     992: 01 05        	<unknown>
     994: 0a 03        	<unknown>
     996: 7a 09        	<unknown>
     998: 08 00        	<unknown>
     99a: 01 05        	<unknown>
     99c: 03 06 03 00  	lb	a2, 0(t1)
     9a0: 09 04        	<unknown>
     9a2: 00 01        	<unknown>
     9a4: 03 b4 7c 09  	<unknown>
     9a8: 08 00        	<unknown>
     9aa: 01 05        	<unknown>
     9ac: 05 06        	<unknown>
     9ae: 03 f9 03 09  	<unknown>
     9b2: 10 00        	<unknown>
     9b4: 01 05        	<unknown>
     9b6: 0f 03 62 09  	<unknown>
     9ba: 04 00        	<unknown>
     9bc: 01 05        	<unknown>
     9be: 07 06 03 00  	flb	fa2, 0(t1)
     9c2: 09 04        	<unknown>
     9c4: 00 01        	<unknown>
     9c6: 03 a5 7c 09  	lw	a0, 151(s9)
     9ca: 08 00        	<unknown>
     9cc: 01 05        	<unknown>
     9ce: 3c 06        	<unknown>
     9d0: 03 9b 01 09  	lh	s6, 144(gp)
     9d4: 2c 00        	<unknown>
     9d6: 01 05        	<unknown>
     9d8: 09 03        	<unknown>
     9da: e2 02        	<unknown>
     9dc: 09 08        	<unknown>
     9de: 00 01        	<unknown>
     9e0: 06 03        	<unknown>
     9e2: 83 7c 09 08  	<unknown>
     9e6: 00 01        	<unknown>
     9e8: 05 0b        	<unknown>
     9ea: 06 03        	<unknown>
     9ec: a1 01        	<unknown>
     9ee: 09 04        	<unknown>
     9f0: 00 01        	<unknown>
     9f2: 05 22        	<unknown>
     9f4: 06 03        	<unknown>
     9f6: 00 09        	<unknown>
     9f8: 04 00        	<unknown>
     9fa: 01 05        	<unknown>
     9fc: 14 06        	<unknown>
     9fe: 03 7f 09 04  	<unknown>
     a02: 00 01        	<unknown>
     a04: 05 2a        	<unknown>
     a06: 03 01 09 04  	lb	sp, 64(s2)
     a0a: 00 01        	<unknown>
     a0c: 05 2e        	<unknown>
     a0e: 06 03        	<unknown>
     a10: 00 09        	<unknown>
     a12: 04 00        	<unknown>
     a14: 01 05        	<unknown>
     a16: 11 03        	<unknown>
     a18: 00 09        	<unknown>
     a1a: 04 00        	<unknown>
     a1c: 01 05        	<unknown>
     a1e: 3c 06        	<unknown>
     a20: 03 7a 09 04  	<unknown>
     a24: 00 01        	<unknown>
     a26: 05 03        	<unknown>
     a28: 03 05 09 08  	lb	a0, 128(s2)
     a2c: 00 01        	<unknown>
     a2e: 06 03        	<unknown>
     a30: e0 7e        	<unknown>
     a32: 09 04        	<unknown>
     a34: 00 01        	<unknown>
     a36: 05 09        	<unknown>
     a38: 06 03        	<unknown>
     a3a: 8c 04        	<unknown>
     a3c: 09 04        	<unknown>
     a3e: 00 01        	<unknown>
     a40: 05 0d        	<unknown>
     a42: 03 01 09 08  	lb	sp, 128(s2)
     a46: 00 01        	<unknown>
     a48: 03 01 09 04  	lb	sp, 64(s2)
     a4c: 00 01        	<unknown>
     a4e: 05 15        	<unknown>
     a50: 03 01 09 04  	lb	sp, 64(s2)
     a54: 00 01        	<unknown>
     a56: 05 3c        	<unknown>
     a58: 03 8c 7d 09  	lb	s8, 151(s11)
     a5c: 04 00        	<unknown>
     a5e: 01 05        	<unknown>
     a60: 0b 03 f4 02  	p.lb	t1, 47(s0!)
     a64: 09 0c        	<unknown>
     a66: 00 01        	<unknown>
     a68: 06 03        	<unknown>
     a6a: f1 7b        	<unknown>
     a6c: 09 04        	<unknown>
     a6e: 00 01        	<unknown>
     a70: 06 03        	<unknown>
     a72: a1 01        	<unknown>
     a74: 09 04        	<unknown>
     a76: 00 01        	<unknown>
     a78: 05 22        	<unknown>
     a7a: 06 03        	<unknown>
     a7c: 00 09        	<unknown>
     a7e: 04 00        	<unknown>
     a80: 01 05        	<unknown>
     a82: 14 06        	<unknown>
     a84: 03 7f 09 04  	<unknown>
     a88: 00 01        	<unknown>
     a8a: 05 2a        	<unknown>
     a8c: 03 01 09 04  	lb	sp, 64(s2)
     a90: 00 01        	<unknown>
     a92: 05 2e        	<unknown>
     a94: 06 03        	<unknown>
     a96: 00 09        	<unknown>
     a98: 04 00        	<unknown>
     a9a: 01 05        	<unknown>
     a9c: 11 03        	<unknown>
     a9e: 00 09        	<unknown>
     aa0: 04 00        	<unknown>
     aa2: 01 05        	<unknown>
     aa4: 3c 06        	<unknown>
     aa6: 03 7a 09 04  	<unknown>
     aaa: 00 01        	<unknown>
     aac: 05 03        	<unknown>
     aae: 03 05 09 08  	lb	a0, 128(s2)
     ab2: 00 01        	<unknown>
     ab4: 05 10        	<unknown>
     ab6: 03 df 02 09  	lhu	t5, 144(t0)
     aba: 08 00        	<unknown>
     abc: 01 05        	<unknown>
     abe: 15 03        	<unknown>
     ac0: 01 09        	<unknown>
     ac2: 08 00        	<unknown>
     ac4: 01 05        	<unknown>
     ac6: 0b 03 01 09  	p.lb	t1, 144(sp!)
     aca: 08 00        	<unknown>
     acc: 01 06        	<unknown>
     ace: 03 ff 7b 09  	<unknown>
     ad2: 04 00        	<unknown>
     ad4: 01 05        	<unknown>
     ad6: 09 06        	<unknown>
     ad8: 03 8c 04 09  	lb	s8, 144(s1)
     adc: 1c 00        	<unknown>
     ade: 01 06        	<unknown>
     ae0: 03 00 09 04  	lb	zero, 64(s2)
     ae4: 00 01        	<unknown>
     ae6: 05 12        	<unknown>
     ae8: 06 03        	<unknown>
     aea: 05 09        	<unknown>
     aec: 0c 00        	<unknown>
     aee: 01 06        	<unknown>
     af0: 03 ef 7b 09  	<unknown>
     af4: 08 00        	<unknown>
     af6: 01 05        	<unknown>
     af8: 1f 06 03 92  	<unknown>
     afc: 04 09        	<unknown>
     afe: 04 00        	<unknown>
     b00: 01 05        	<unknown>
     b02: 15 03        	<unknown>
     b04: 01 09        	<unknown>
     b06: 04 00        	<unknown>
     b08: 01 06        	<unknown>
     b0a: 03 ed 7b 09  	<unknown>
     b0e: 04 00        	<unknown>
     b10: 01 05        	<unknown>
     b12: 0d 06        	<unknown>
     b14: 03 99 04 09  	lh	s2, 144(s1)
     b18: 0c 00        	<unknown>
     b1a: 01 05        	<unknown>
     b1c: 0f 03 7b 09  	<unknown>
     b20: 04 00        	<unknown>
     b22: 01 06        	<unknown>
     b24: 03 ec 7b 09  	<unknown>
     b28: 04 00        	<unknown>
     b2a: 01 05        	<unknown>
     b2c: 09 06        	<unknown>
     b2e: 03 8c 04 09  	lb	s8, 144(s1)
     b32: 0c 00        	<unknown>
     b34: 01 06        	<unknown>
     b36: 03 f4 7b 09  	<unknown>
     b3a: 08 00        	<unknown>
     b3c: 01 05        	<unknown>
     b3e: 05 06        	<unknown>
     b40: 03 99 04 09  	lh	s2, 144(s1)
     b44: 14 00        	<unknown>
     b46: 01 06        	<unknown>
     b48: 03 e7 7b 09  	<unknown>
     b4c: 1c 00        	<unknown>
     b4e: 01 03        	<unknown>
     b50: 99 04        	<unknown>
     b52: 09 04        	<unknown>
     b54: 00 01        	<unknown>
     b56: 05 0b        	<unknown>
     b58: 06 03        	<unknown>
     b5a: 04 09        	<unknown>
     b5c: 18 00        	<unknown>
     b5e: 01 06        	<unknown>
     b60: 03 00 09 04  	lb	zero, 64(s2)
     b64: 00 01        	<unknown>
     b66: 03 e3 7b 09  	<unknown>
     b6a: 08 00        	<unknown>
     b6c: 01 06        	<unknown>
     b6e: 03 a5 04 09  	lw	a0, 144(s1)
     b72: 0c 00        	<unknown>
     b74: 01 06        	<unknown>
     b76: 03 00 09 04  	lb	zero, 64(s2)
     b7a: 00 01        	<unknown>
     b7c: 03 db 7b 09  	lhu	s6, 151(s7)
     b80: 08 00        	<unknown>
     b82: 01 05        	<unknown>
     b84: 0d 06        	<unknown>
     b86: 03 bf 04 09  	<unknown>
     b8a: 1c 00        	<unknown>
     b8c: 01 05        	<unknown>
     b8e: 05 06        	<unknown>
     b90: 03 00 09 04  	lb	zero, 64(s2)
     b94: 00 01        	<unknown>
     b96: 03 c1 7b 09  	lbu	sp, 151(s7)
     b9a: 0c 00        	<unknown>
     b9c: 01 05        	<unknown>
     b9e: 0f 06 03 d1  	<unknown>
     ba2: 04 09        	<unknown>
     ba4: 1c 00        	<unknown>
     ba6: 01 06        	<unknown>
     ba8: 03 af 7b 09  	lw	t5, 151(s7)
     bac: 04 00        	<unknown>
     bae: 01 05        	<unknown>
     bb0: 0b 06 03 d4  	p.lb	a2, -704(t1!)
     bb4: 04 09        	<unknown>
     bb6: 04 00        	<unknown>
     bb8: 01 06        	<unknown>
     bba: 03 ac 7b 09  	lw	s8, 151(s7)
     bbe: 08 00        	<unknown>
     bc0: 01 05        	<unknown>
     bc2: 1c 06        	<unknown>
     bc4: 03 d9 04 09  	lhu	s2, 144(s1)
     bc8: 04 00        	<unknown>
     bca: 01 06        	<unknown>
     bcc: 03 a7 7b 09  	lw	a4, 151(s7)
     bd0: 08 00        	<unknown>
     bd2: 01 03        	<unknown>
     bd4: d9 04        	<unknown>
     bd6: 09 04        	<unknown>
     bd8: 00 01        	<unknown>
     bda: 03 a7 7b 09  	lw	a4, 151(s7)
     bde: 0c 00        	<unknown>
     be0: 01 05        	<unknown>
     be2: 1b 06 03 de  	<unknown>
     be6: 05 09        	<unknown>
     be8: 18 00        	<unknown>
     bea: 01 05        	<unknown>
     bec: 07 06 03 00  	flb	fa2, 0(t1)
     bf0: 09 04        	<unknown>
     bf2: 00 01        	<unknown>
     bf4: 05 1f        	<unknown>
     bf6: 06 03        	<unknown>
     bf8: 05 09        	<unknown>
     bfa: 08 00        	<unknown>
     bfc: 01 05        	<unknown>
     bfe: 00 06        	<unknown>
     c00: 03 9d 7a 09  	lh	s10, 151(s5)
     c04: 04 00        	<unknown>
     c06: 01 05        	<unknown>
     c08: 0f 06 03 da  	<unknown>
     c0c: 04 09        	<unknown>
     c0e: 1c 00        	<unknown>
     c10: 01 06        	<unknown>
     c12: 03 a6 7b 09  	lw	a2, 151(s7)
     c16: 04 00        	<unknown>
     c18: 01 05        	<unknown>
     c1a: 11 06        	<unknown>
     c1c: 03 de 04 09  	lhu	t3, 144(s1)
     c20: 04 00        	<unknown>
     c22: 01 05        	<unknown>
     c24: 0b 06 03 00  	p.lb	a2, 0(t1!)
     c28: 09 04        	<unknown>
     c2a: 00 01        	<unknown>
     c2c: 03 a2 7b 09  	lw	tp, 151(s7)
     c30: 04 00        	<unknown>
     c32: 01 05        	<unknown>
     c34: 1c 06        	<unknown>
     c36: 03 e3 04 09  	<unknown>
     c3a: 04 00        	<unknown>
     c3c: 01 05        	<unknown>
     c3e: 13 03 02 09  	addi	t1, tp, 144
     c42: 10 00        	<unknown>
     c44: 01 05        	<unknown>
     c46: 0d 06        	<unknown>
     c48: 03 00 09 04  	lb	zero, 64(s2)
     c4c: 00 01        	<unknown>
     c4e: 05 1a        	<unknown>
     c50: 06 03        	<unknown>
     c52: 08 09        	<unknown>
     c54: 04 00        	<unknown>
     c56: 01 05        	<unknown>
     c58: 14 06        	<unknown>
     c5a: 03 00 09 04  	lb	zero, 64(s2)
     c5e: 00 01        	<unknown>
     c60: 05 24        	<unknown>
     c62: 06 03        	<unknown>
     c64: 06 09        	<unknown>
     c66: 04 00        	<unknown>
     c68: 01 05        	<unknown>
     c6a: 1d 06        	<unknown>
     c6c: 03 00 09 04  	lb	zero, 64(s2)
     c70: 00 01        	<unknown>
     c72: 05 26        	<unknown>
     c74: 06 03        	<unknown>
     c76: 01 09        	<unknown>
     c78: 04 00        	<unknown>
     c7a: 01 05        	<unknown>
     c7c: 00 06        	<unknown>
     c7e: 03 8c 7b 09  	lb	s8, 151(s7)
     c82: 04 00        	<unknown>
     c84: 01 05        	<unknown>
     c86: 1f 03 f4 04  	<unknown>
     c8a: 09 08        	<unknown>
     c8c: 00 01        	<unknown>
     c8e: 05 37        	<unknown>
     c90: 03 00 09 04  	lb	zero, 64(s2)
     c94: 00 01        	<unknown>
     c96: 03 8c 7b 09  	lb	s8, 151(s7)
     c9a: 08 00        	<unknown>
     c9c: 01 05        	<unknown>
     c9e: 13 06 03 fc  	addi	a2, t1, -64
     ca2: 04 09        	<unknown>
     ca4: 08 00        	<unknown>
     ca6: 01 05        	<unknown>
     ca8: 0d 06        	<unknown>
     caa: 03 00 09 04  	lb	zero, 64(s2)
     cae: 00 01        	<unknown>
     cb0: 05 1a        	<unknown>
     cb2: 06 03        	<unknown>
     cb4: 06 09        	<unknown>
     cb6: 04 00        	<unknown>
     cb8: 01 05        	<unknown>
     cba: 14 06        	<unknown>
     cbc: 03 00 09 04  	lb	zero, 64(s2)
     cc0: 00 01        	<unknown>
     cc2: 05 16        	<unknown>
     cc4: 06 03        	<unknown>
     cc6: 05 09        	<unknown>
     cc8: 04 00        	<unknown>
     cca: 01 05        	<unknown>
     ccc: 0f 06 03 00  	<unknown>
     cd0: 09 04        	<unknown>
     cd2: 00 01        	<unknown>
     cd4: 05 18        	<unknown>
     cd6: 06 03        	<unknown>
     cd8: 01 09        	<unknown>
     cda: 04 00        	<unknown>
     cdc: 01 05        	<unknown>
     cde: 00 06        	<unknown>
     ce0: 03 f8 7a 09  	<unknown>
     ce4: 04 00        	<unknown>
     ce6: 01 05        	<unknown>
     ce8: 11 03        	<unknown>
     cea: 88 05        	<unknown>
     cec: 09 08        	<unknown>
     cee: 00 01        	<unknown>
     cf0: 03 f8 7a 09  	<unknown>
     cf4: 04 00        	<unknown>
     cf6: 01 05        	<unknown>
     cf8: 1e 06        	<unknown>
     cfa: 03 ee 04 09  	<unknown>
     cfe: 14 00        	<unknown>
     d00: 01 05        	<unknown>
     d02: 2c 03        	<unknown>
     d04: 02 09        	<unknown>
     d06: 08 00        	<unknown>
     d08: 01 05        	<unknown>
     d0a: 11 03        	<unknown>
     d0c: 7f 09 0c 00  	<unknown>
     d10: 01 05        	<unknown>
     d12: 13 03 2e 09  	addi	t1, t3, 146
     d16: 08 00        	<unknown>
     d18: 01 05        	<unknown>
     d1a: 0b 06 03 00  	p.lb	a2, 0(t1!)
     d1e: 09 08        	<unknown>
     d20: 00 01        	<unknown>
     d22: 03 e3 7a 09  	<unknown>
     d26: 04 00        	<unknown>
     d28: 01 05        	<unknown>
     d2a: 09 06        	<unknown>
     d2c: 03 9e 05 09  	lh	t3, 144(a1)
     d30: 04 00        	<unknown>
     d32: 01 06        	<unknown>
     d34: 03 e2 7a 09  	<unknown>
     d38: 04 00        	<unknown>
     d3a: 01 03        	<unknown>
     d3c: 9e 05        	<unknown>
     d3e: 09 08        	<unknown>
     d40: 00 01        	<unknown>
     d42: 05 1f        	<unknown>
     d44: 06 03        	<unknown>
     d46: 01 09        	<unknown>
     d48: 08 00        	<unknown>
     d4a: 01 05        	<unknown>
     d4c: 0b 06 03 00  	p.lb	a2, 0(t1!)
     d50: 09 04        	<unknown>
     d52: 00 01        	<unknown>
     d54: 05 14        	<unknown>
     d56: 06 03        	<unknown>
     d58: 7f 09 10 00  	<unknown>
     d5c: 01 05        	<unknown>
     d5e: 09 06        	<unknown>
     d60: 03 00 09 04  	lb	zero, 64(s2)
     d64: 00 01        	<unknown>
     d66: 05 11        	<unknown>
     d68: 06 03        	<unknown>
     d6a: 05 09        	<unknown>
     d6c: 04 00        	<unknown>
     d6e: 01 05        	<unknown>
     d70: 0d 03        	<unknown>
     d72: 27 09 10 00  	fsb	ft1, 18(zero)
     d76: 01 06        	<unknown>
     d78: 03 b6 7a 09  	<unknown>
     d7c: 04 00        	<unknown>
     d7e: 01 05        	<unknown>
     d80: 35 06        	<unknown>
     d82: 03 d4 05 09  	lhu	s0, 144(a1)
     d86: 04 00        	<unknown>
     d88: 01 05        	<unknown>
     d8a: 0f 03 7f 09  	<unknown>
     d8e: 08 00        	<unknown>
     d90: 01 05        	<unknown>
     d92: 17 03 5c 09  	auipc	t1, 38336
     d96: 24 00        	<unknown>
     d98: 01 05        	<unknown>
     d9a: 11 03        	<unknown>
     d9c: e5 7b        	<unknown>
     d9e: 09 08        	<unknown>
     da0: 00 01        	<unknown>
     da2: 06 03        	<unknown>
     da4: ec 7e        	<unknown>
     da6: 09 04        	<unknown>
     da8: 00 01        	<unknown>
     daa: 05 14        	<unknown>
     dac: 03 94 01 09  	lh	s0, 144(gp)
     db0: 04 00        	<unknown>
     db2: 01 03        	<unknown>
     db4: ec 7e        	<unknown>
     db6: 09 04        	<unknown>
     db8: 00 01        	<unknown>
     dba: 05 26        	<unknown>
     dbc: 06 03        	<unknown>
     dbe: b0 05        	<unknown>
     dc0: 09 04        	<unknown>
     dc2: 00 01        	<unknown>
     dc4: 06 03        	<unknown>
     dc6: d0 7a        	<unknown>
     dc8: 09 04        	<unknown>
     dca: 00 01        	<unknown>
     dcc: 05 03        	<unknown>
     dce: 06 03        	<unknown>
     dd0: 94 01        	<unknown>
     dd2: 09 04        	<unknown>
     dd4: 00 01        	<unknown>
     dd6: 06 03        	<unknown>
     dd8: ec 7e        	<unknown>
     dda: 09 04        	<unknown>
     ddc: 00 01        	<unknown>
     dde: 05 22        	<unknown>
     de0: 03 94 01 09  	lh	s0, 144(gp)
     de4: 04 00        	<unknown>
     de6: 01 05        	<unknown>
     de8: 11 03        	<unknown>
     dea: 00 09        	<unknown>
     dec: 04 00        	<unknown>
     dee: 01 05        	<unknown>
     df0: 14 03        	<unknown>
     df2: 00 09        	<unknown>
     df4: 04 00        	<unknown>
     df6: 01 03        	<unknown>
     df8: ec 7e        	<unknown>
     dfa: 09 08        	<unknown>
     dfc: 00 01        	<unknown>
     dfe: 05 11        	<unknown>
     e00: 03 94 01 09  	lh	s0, 144(gp)
     e04: 04 00        	<unknown>
     e06: 01 05        	<unknown>
     e08: 14 03        	<unknown>
     e0a: 00 09        	<unknown>
     e0c: 04 00        	<unknown>
     e0e: 01 05        	<unknown>
     e10: 1b 06 03 02  	<unknown>
     e14: 09 08        	<unknown>
     e16: 00 01        	<unknown>
     e18: 05 11        	<unknown>
     e1a: 03 9c 04 09  	lh	s8, 144(s1)
     e1e: 04 00        	<unknown>
     e20: 01 05        	<unknown>
     e22: 0b 06 03 00  	p.lb	a2, 0(t1!)
     e26: 09 0c        	<unknown>
     e28: 00 01        	<unknown>
     e2a: 03 ce 7a 09  	lbu	t3, 151(s5)
     e2e: 0c 00        	<unknown>
     e30: 01 05        	<unknown>
     e32: 13 06 03 b5  	addi	a2, t1, -1200
     e36: 05 09        	<unknown>
     e38: 04 00        	<unknown>
     e3a: 01 05        	<unknown>
     e3c: 0b 06 03 00  	p.lb	a2, 0(t1!)
     e40: 09 08        	<unknown>
     e42: 00 01        	<unknown>
     e44: 05 09        	<unknown>
     e46: 06 03        	<unknown>
     e48: 01 09        	<unknown>
     e4a: 04 00        	<unknown>
     e4c: 01 06        	<unknown>
     e4e: 03 ca 7a 09  	lbu	s4, 151(s5)
     e52: 04 00        	<unknown>
     e54: 01 03        	<unknown>
     e56: b6 05        	<unknown>
     e58: 09 08        	<unknown>
     e5a: 00 01        	<unknown>
     e5c: 05 1f        	<unknown>
     e5e: 06 03        	<unknown>
     e60: 01 09        	<unknown>
     e62: 0c 00        	<unknown>
     e64: 01 05        	<unknown>
     e66: 0b 06 03 00  	p.lb	a2, 0(t1!)
     e6a: 09 04        	<unknown>
     e6c: 00 01        	<unknown>
     e6e: 05 14        	<unknown>
     e70: 06 03        	<unknown>
     e72: 7f 09 10 00  	<unknown>
     e76: 01 05        	<unknown>
     e78: 09 06        	<unknown>
     e7a: 03 00 09 04  	lb	zero, 64(s2)
     e7e: 00 01        	<unknown>
     e80: 03 ca 7a 09  	lbu	s4, 151(s5)
     e84: 04 00        	<unknown>
     e86: 01 05        	<unknown>
     e88: 0f 06 03 bb  	<unknown>
     e8c: 05 09        	<unknown>
     e8e: 04 00        	<unknown>
     e90: 01 05        	<unknown>
     e92: 18 06        	<unknown>
     e94: 03 00 09 08  	lb	zero, 128(s2)
     e98: 00 01        	<unknown>
     e9a: 03 c5 7a 09  	lbu	a0, 151(s5)
     e9e: 08 00        	<unknown>
     ea0: 01 05        	<unknown>
     ea2: 0a 06        	<unknown>
     ea4: 03 c5 03 09  	lbu	a0, 144(t2)
     ea8: 04 00        	<unknown>
     eaa: 01 05        	<unknown>
     eac: 13 03 d8 01  	addi	t1, a6, 29
     eb0: 09 04        	<unknown>
     eb2: 00 01        	<unknown>
     eb4: 05 11        	<unknown>
     eb6: 03 06 09 04  	lb	a2, 64(s2)
     eba: 00 01        	<unknown>
     ebc: 05 2d        	<unknown>
     ebe: 06 03        	<unknown>
     ec0: 00 09        	<unknown>
     ec2: 08 00        	<unknown>
     ec4: 01 05        	<unknown>
     ec6: 07 03 00 09  	flb	ft6, 144(zero)
     eca: 04 00        	<unknown>
     ecc: 01 03        	<unknown>
     ece: dd 7a        	<unknown>
     ed0: 09 0c        	<unknown>
     ed2: 00 01        	<unknown>
     ed4: 05 0b        	<unknown>
     ed6: 06 03        	<unknown>
     ed8: a5 05        	<unknown>
     eda: 09 04        	<unknown>
     edc: 00 01        	<unknown>
     ede: 05 09        	<unknown>
     ee0: 03 01 09 08  	lb	sp, 128(s2)
     ee4: 00 01        	<unknown>
     ee6: 06 03        	<unknown>
     ee8: da 7a        	<unknown>
     eea: 09 04        	<unknown>
     eec: 00 01        	<unknown>
     eee: 05 1f        	<unknown>
     ef0: 06 03        	<unknown>
     ef2: a7 05 09 08  	fsb	ft0, 139(s2)
     ef6: 00 01        	<unknown>
     ef8: 05 0b        	<unknown>
     efa: 06 03        	<unknown>
     efc: 00 09        	<unknown>
     efe: 04 00        	<unknown>
     f00: 01 05        	<unknown>
     f02: 14 06        	<unknown>
     f04: 03 7f 09 10  	p.lh	t5, zero(s2)
     f08: 00 01        	<unknown>
     f0a: 05 09        	<unknown>
     f0c: 06 03        	<unknown>
     f0e: 00 09        	<unknown>
     f10: 04 00        	<unknown>
     f12: 01 03        	<unknown>
     f14: da 7a        	<unknown>
     f16: 09 04        	<unknown>
     f18: 00 01        	<unknown>
     f1a: 05 3d        	<unknown>
     f1c: 06 03        	<unknown>
     f1e: f3 04 09 0c  	<unknown>
     f22: 00 01        	<unknown>
     f24: 05 00        	<unknown>
     f26: 06 03        	<unknown>
     f28: 8d 7b        	<unknown>
     f2a: 09 04        	<unknown>
     f2c: 00 01        	<unknown>
     f2e: 05 2b        	<unknown>
     f30: 06 03        	<unknown>
     f32: f7 04 09 08  	<unknown>
     f36: 00 01        	<unknown>
     f38: 05 11        	<unknown>
     f3a: 03 7f 09 0c  	<unknown>
     f3e: 00 01        	<unknown>
     f40: 06 03        	<unknown>
     f42: 8a 7b        	<unknown>
     f44: 09 08        	<unknown>
     f46: 00 01        	<unknown>
     f48: 05 36        	<unknown>
     f4a: 06 03        	<unknown>
     f4c: 83 05 09 04  	lb	a1, 64(s2)
     f50: 00 01        	<unknown>
     f52: 05 11        	<unknown>
     f54: 06 03        	<unknown>
     f56: 00 09        	<unknown>
     f58: 08 00        	<unknown>
     f5a: 01 05        	<unknown>
     f5c: 00 03        	<unknown>
     f5e: fd 7a        	<unknown>
     f60: 09 04        	<unknown>
     f62: 00 01        	<unknown>
     f64: 05 35        	<unknown>
     f66: 06 03        	<unknown>
     f68: 87 05 09 44  	flb	fa1, 1088(s2)
     f6c: 00 01        	<unknown>
     f6e: 05 00        	<unknown>
     f70: 06 03        	<unknown>
     f72: f9 7a        	<unknown>
     f74: 09 04        	<unknown>
     f76: 00 01        	<unknown>
     f78: 05 11        	<unknown>
     f7a: 06 03        	<unknown>
     f7c: 8b 05 09 08  	p.lb	a1, 128(s2!)
     f80: 00 01        	<unknown>
     f82: 05 00        	<unknown>
     f84: 06 03        	<unknown>
     f86: f5 7a        	<unknown>
     f88: 09 04        	<unknown>
     f8a: 00 01        	<unknown>
     f8c: 05 18        	<unknown>
     f8e: 06 03        	<unknown>
     f90: bb 05 09 30  	<unknown>
     f94: 00 01        	<unknown>
     f96: 05 07        	<unknown>
     f98: 06 03        	<unknown>
     f9a: 00 09        	<unknown>
     f9c: 04 00        	<unknown>
     f9e: 01 03        	<unknown>
     fa0: c5 7a        	<unknown>
     fa2: 09 08        	<unknown>
     fa4: 00 01        	<unknown>
     fa6: 05 20        	<unknown>
     fa8: 06 03        	<unknown>
     faa: bc 05        	<unknown>
     fac: 09 04        	<unknown>
     fae: 00 01        	<unknown>
     fb0: 05 09        	<unknown>
     fb2: 06 03        	<unknown>
     fb4: 00 09        	<unknown>
     fb6: 04 00        	<unknown>
     fb8: 01 05        	<unknown>
     fba: 0f 06 03 7f  	<unknown>
     fbe: 09 14        	<unknown>
     fc0: 00 01        	<unknown>
     fc2: 05 18        	<unknown>
     fc4: 06 03        	<unknown>
     fc6: 00 09        	<unknown>
     fc8: 04 00        	<unknown>
     fca: 01 03        	<unknown>
     fcc: c5 7a        	<unknown>
     fce: 09 04        	<unknown>
     fd0: 00 01        	<unknown>
     fd2: 03 bb 05 09  	<unknown>
     fd6: 04 00        	<unknown>
     fd8: 01 05        	<unknown>
     fda: 37 03 00 09  	lui	t1, 36864
     fde: 04 00        	<unknown>
     fe0: 01 05        	<unknown>
     fe2: 07 03 00 09  	flb	ft6, 144(zero)
     fe6: 08 00        	<unknown>
     fe8: 01 03        	<unknown>
     fea: c5 7a        	<unknown>
     fec: 09 04        	<unknown>
     fee: 00 01        	<unknown>
     ff0: 05 13        	<unknown>
     ff2: 06 03        	<unknown>
     ff4: b5 05        	<unknown>
     ff6: 09 0c        	<unknown>
     ff8: 00 01        	<unknown>
     ffa: 05 0b        	<unknown>
     ffc: 03 0a 09 14  	lb	s4, 320(s2)
    1000: 00 01        	<unknown>
    1002: 05 09        	<unknown>
    1004: 03 01 09 08  	lb	sp, 128(s2)
    1008: 00 01        	<unknown>
    100a: 06 03        	<unknown>
    100c: c0 7a        	<unknown>
    100e: 09 0c        	<unknown>
    1010: 00 01        	<unknown>
    1012: 05 1f        	<unknown>
    1014: 06 03        	<unknown>
    1016: c1 05        	<unknown>
    1018: 09 04        	<unknown>
    101a: 00 01        	<unknown>
    101c: 05 0b        	<unknown>
    101e: 06 03        	<unknown>
    1020: 00 09        	<unknown>
    1022: 04 00        	<unknown>
    1024: 01 05        	<unknown>
    1026: 14 06        	<unknown>
    1028: 03 7f 09 10  	p.lh	t5, zero(s2)
    102c: 00 01        	<unknown>
    102e: 05 09        	<unknown>
    1030: 06 03        	<unknown>
    1032: 00 09        	<unknown>
    1034: 04 00        	<unknown>
    1036: 01 03        	<unknown>
    1038: c0 7a        	<unknown>
    103a: 09 04        	<unknown>
    103c: 00 01        	<unknown>
    103e: 05 03        	<unknown>
    1040: 06 03        	<unknown>
    1042: ea 05        	<unknown>
    1044: 09 2c        	<unknown>
    1046: 00 01        	<unknown>
    1048: 03 03 09 10  	lb	t1, 256(s2)
    104c: 00 01        	<unknown>
    104e: 05 00        	<unknown>
    1050: 03 8d 7b 09  	lb	s10, 151(s7)
    1054: 40 00        	<unknown>
    1056: 01 05        	<unknown>
    1058: 07 0a 03 04  	flb	fs4, 64(t1)
    105c: 09 00        	<unknown>
    105e: 00 01        	<unknown>
    1060: 05 05        	<unknown>
    1062: 03 01 09 04  	lb	sp, 64(s2)
    1066: 00 01        	<unknown>
    1068: 05 01        	<unknown>
    106a: 03 02 09 08  	lb	tp, 128(s2)
    106e: 00 01        	<unknown>
    1070: 05 00        	<unknown>
    1072: 03 fa 04 09  	<unknown>
    1076: 04 00        	<unknown>
    1078: 01 05        	<unknown>
    107a: 03 0a 03 02  	lb	s4, 32(t1)
    107e: 09 2c        	<unknown>
    1080: 00 01        	<unknown>
    1082: 05 13        	<unknown>
    1084: 03 01 09 04  	lb	sp, 64(s2)
    1088: 00 01        	<unknown>
    108a: 05 03        	<unknown>
    108c: 03 02 09 1c  	lb	tp, 448(s2)
    1090: 00 01        	<unknown>
    1092: 05 00        	<unknown>
    1094: 03 e9 7a 09  	<unknown>
    1098: 0c 00        	<unknown>
    109a: 01 05        	<unknown>
    109c: 07 0a 03 01  	flb	fs4, 16(t1)
    10a0: 09 00        	<unknown>
    10a2: 00 01        	<unknown>
    10a4: 05 05        	<unknown>
    10a6: 03 01 09 04  	lb	sp, 64(s2)
    10aa: 00 01        	<unknown>
    10ac: 05 1b        	<unknown>
    10ae: 06 03        	<unknown>
    10b0: 00 09        	<unknown>
    10b2: 04 00        	<unknown>
    10b4: 01 05        	<unknown>
    10b6: 01 06        	<unknown>
    10b8: 03 02 09 04  	lb	tp, 64(s2)
    10bc: 00 01        	<unknown>
    10be: 05 00        	<unknown>
    10c0: 03 96 05 09  	lh	a2, 144(a1)
    10c4: 04 00        	<unknown>
    10c6: 01 05        	<unknown>
    10c8: 03 0a 03 02  	lb	s4, 32(t1)
    10cc: 09 2c        	<unknown>
    10ce: 00 01        	<unknown>
    10d0: 05 13        	<unknown>
    10d2: 03 01 09 04  	lb	sp, 64(s2)
    10d6: 00 01        	<unknown>
    10d8: 05 03        	<unknown>
    10da: 03 02 09 18  	lb	tp, 384(s2)
    10de: 00 01        	<unknown>
    10e0: 05 00        	<unknown>
    10e2: 03 03 09 0c  	lb	t1, 192(s2)
    10e6: 00 01        	<unknown>
    10e8: 05 0a        	<unknown>
    10ea: 0a 03        	<unknown>
    10ec: 01 09        	<unknown>
    10ee: 10 00        	<unknown>
    10f0: 01 05        	<unknown>
    10f2: 00 03        	<unknown>
    10f4: 04 09        	<unknown>
    10f6: 10 00        	<unknown>
    10f8: 01 05        	<unknown>
    10fa: 03 0a 03 02  	lb	s4, 32(t1)
    10fe: 09 24        	<unknown>
    1100: 00 01        	<unknown>
    1102: 05 2a        	<unknown>
    1104: 03 01 09 04  	lb	sp, 64(s2)
    1108: 00 01        	<unknown>
    110a: 05 13        	<unknown>
    110c: 03 01 09 08  	lb	sp, 128(s2)
    1110: 00 01        	<unknown>
    1112: 05 03        	<unknown>
    1114: 03 03 09 20  	lb	t1, 512(s2)
    1118: 00 01        	<unknown>
    111a: 05 00        	<unknown>
    111c: 03 ee 7a 09  	<unknown>
    1120: 0c 00        	<unknown>
    1122: 01 05        	<unknown>
    1124: 07 0a 03 03  	flb	fs4, 48(t1)
    1128: 09 00        	<unknown>
    112a: 00 01        	<unknown>
    112c: 05 0b        	<unknown>
    112e: 03 03 09 04  	lb	t1, 64(s2)
    1132: 00 01        	<unknown>
    1134: 05 39        	<unknown>
    1136: 06 03        	<unknown>
    1138: 00 09        	<unknown>
    113a: 04 00        	<unknown>
    113c: 01 05        	<unknown>
    113e: 05 06        	<unknown>
    1140: 03 7f 09 04  	<unknown>
    1144: 00 01        	<unknown>
    1146: 05 01        	<unknown>
    1148: 03 03 09 04  	lb	t1, 64(s2)
    114c: 00 01        	<unknown>
    114e: 05 00        	<unknown>
    1150: 03 64 09 04  	<unknown>
    1154: 00 01        	<unknown>
    1156: 05 01        	<unknown>
    1158: 0a 03        	<unknown>
    115a: 05 09        	<unknown>
    115c: 00 00        	<unknown>
    115e: 01 05        	<unknown>
    1160: 00 03        	<unknown>
    1162: 81 01        	<unknown>
    1164: 09 04        	<unknown>
    1166: 00 01        	<unknown>
    1168: 05 08        	<unknown>
    116a: 0a 03        	<unknown>
    116c: 05 09        	<unknown>
    116e: 44 00        	<unknown>
    1170: 01 05        	<unknown>
    1172: 07 06 03 00  	flb	fa2, 0(t1)
    1176: 09 04        	<unknown>
    1178: 00 01        	<unknown>
    117a: 03 84 7e 09  	lb	s0, 151(t4)
    117e: 04 00        	<unknown>
    1180: 01 05        	<unknown>
    1182: 0f 06 03 81  	<unknown>
    1186: 02 09        	<unknown>
    1188: 08 00        	<unknown>
    118a: 01 05        	<unknown>
    118c: 22 06        	<unknown>
    118e: 03 00 09 08  	lb	zero, 128(s2)
    1192: 00 01        	<unknown>
    1194: 03 ff 7d 09  	<unknown>
    1198: 08 00        	<unknown>
    119a: 01 05        	<unknown>
    119c: 1b 06 03 84  	<unknown>
    11a0: 02 09        	<unknown>
    11a2: 1c 00        	<unknown>
    11a4: 01 05        	<unknown>
    11a6: 0e 06        	<unknown>
    11a8: 03 00 09 04  	lb	zero, 64(s2)
    11ac: 00 01        	<unknown>
    11ae: 05 12        	<unknown>
    11b0: 03 00 09 04  	lb	zero, 64(s2)
    11b4: 00 01        	<unknown>
    11b6: 05 0e        	<unknown>
    11b8: 06 03        	<unknown>
    11ba: 04 09        	<unknown>
    11bc: 08 00        	<unknown>
    11be: 01 05        	<unknown>
    11c0: 14 06        	<unknown>
    11c2: 03 00 09 08  	lb	zero, 128(s2)
    11c6: 00 01        	<unknown>
    11c8: 05 05        	<unknown>
    11ca: 03 00 09 10  	lb	zero, 256(s2)
    11ce: 00 01        	<unknown>
    11d0: 05 0d        	<unknown>
    11d2: 06 03        	<unknown>
    11d4: 7f 09 04 00  	<unknown>
    11d8: 01 06        	<unknown>
    11da: 03 f9 7d 09  	<unknown>
    11de: 08 00        	<unknown>
    11e0: 01 05        	<unknown>
    11e2: 1b 06 03 84  	<unknown>
    11e6: 02 09        	<unknown>
    11e8: 08 00        	<unknown>
    11ea: 01 06        	<unknown>
    11ec: 03 fc 7d 09  	<unknown>
    11f0: 08 00        	<unknown>
    11f2: 01 05        	<unknown>
    11f4: 0f 06 03 ae  	<unknown>
    11f8: 01 09        	<unknown>
    11fa: 08 00        	<unknown>
    11fc: 01 05        	<unknown>
    11fe: 07 06 03 00  	flb	fa2, 0(t1)
    1202: 09 04        	<unknown>
    1204: 00 01        	<unknown>
    1206: 03 d2 7e 09  	lhu	tp, 151(t4)
    120a: 04 00        	<unknown>
    120c: 01 05        	<unknown>
    120e: 0f 06 03 af  	<unknown>
    1212: 01 09        	<unknown>
    1214: 04 00        	<unknown>
    1216: 01 05        	<unknown>
    1218: 2a 06        	<unknown>
    121a: 03 00 09 04  	lb	zero, 64(s2)
    121e: 00 01        	<unknown>
    1220: 03 d1 7e 09  	lhu	sp, 151(t4)
    1224: 04 00        	<unknown>
    1226: 01 05        	<unknown>
    1228: 13 06 03 b0  	addi	a2, t1, -1280
    122c: 01 09        	<unknown>
    122e: 08 00        	<unknown>
    1230: 01 06        	<unknown>
    1232: 03 d0 7e 09  	lhu	zero, 151(t4)
    1236: 08 00        	<unknown>
    1238: 01 05        	<unknown>
    123a: 11 06        	<unknown>
    123c: 03 b3 01 09  	<unknown>
    1240: 08 00        	<unknown>
    1242: 01 05        	<unknown>
    1244: 19 06        	<unknown>
    1246: 03 00 09 0c  	lb	zero, 192(s2)
    124a: 00 01        	<unknown>
    124c: 05 05        	<unknown>
    124e: 03 00 09 04  	lb	zero, 64(s2)
    1252: 00 01        	<unknown>
    1254: 03 cd 7e 09  	lbu	s10, 151(t4)
    1258: 08 00        	<unknown>
    125a: 01 05        	<unknown>
    125c: 0e 06        	<unknown>
    125e: 03 b4 01 09  	<unknown>
    1262: 08 00        	<unknown>
    1264: 01 05        	<unknown>
    1266: 12 06        	<unknown>
    1268: 03 00 09 04  	lb	zero, 64(s2)
    126c: 00 01        	<unknown>
    126e: 05 11        	<unknown>
    1270: 06 03        	<unknown>
    1272: 7f 09 08 00  	<unknown>
    1276: 01 05        	<unknown>
    1278: 19 06        	<unknown>
    127a: 03 00 09 04  	lb	zero, 64(s2)
    127e: 00 01        	<unknown>
    1280: 05 05        	<unknown>
    1282: 03 00 09 0c  	lb	zero, 192(s2)
    1286: 00 01        	<unknown>
    1288: 05 24        	<unknown>
    128a: 06 03        	<unknown>
    128c: 03 09 04 00  	lb	s2, 0(s0)
    1290: 01 06        	<unknown>
    1292: 03 ca 7e 09  	lbu	s4, 151(t4)
    1296: 08 00        	<unknown>
    1298: 01 03        	<unknown>
    129a: b6 01        	<unknown>
    129c: 09 04        	<unknown>
    129e: 00 01        	<unknown>
    12a0: 05 2c        	<unknown>
    12a2: 03 00 09 04  	lb	zero, 64(s2)
    12a6: 00 01        	<unknown>
    12a8: 05 35        	<unknown>
    12aa: 03 00 09 10  	lb	zero, 256(s2)
    12ae: 00 01        	<unknown>
    12b0: 03 ca 7e 09  	lbu	s4, 151(t4)
    12b4: 08 00        	<unknown>
    12b6: 01 05        	<unknown>
    12b8: 12 06        	<unknown>
    12ba: 03 b8 01 09  	<unknown>
    12be: 08 00        	<unknown>
    12c0: 01 05        	<unknown>
    12c2: 0e 06        	<unknown>
    12c4: 03 00 09 0c  	lb	zero, 192(s2)
    12c8: 00 01        	<unknown>
    12ca: 05 2c        	<unknown>
    12cc: 06 03        	<unknown>
    12ce: 7e 09        	<unknown>
    12d0: 04 00        	<unknown>
    12d2: 01 05        	<unknown>
    12d4: 35 06        	<unknown>
    12d6: 03 00 09 04  	lb	zero, 64(s2)
    12da: 00 01        	<unknown>
    12dc: 03 ca 7e 09  	lbu	s4, 151(t4)
    12e0: 08 00        	<unknown>
    12e2: 01 05        	<unknown>
    12e4: 0d 06        	<unknown>
    12e6: 03 bd 01 09  	<unknown>
    12ea: 04 00        	<unknown>
    12ec: 01 05        	<unknown>
    12ee: 0f 03 c4 00  	<unknown>
    12f2: 09 08        	<unknown>
    12f4: 00 01        	<unknown>
    12f6: 05 24        	<unknown>
    12f8: 03 bd 7f 09  	<unknown>
    12fc: 08 00        	<unknown>
    12fe: 01 05        	<unknown>
    1300: 0f 03 01 09  	<unknown>
    1304: 08 00        	<unknown>
    1306: 01 05        	<unknown>
    1308: 18 06        	<unknown>
    130a: 03 00 09 10  	lb	zero, 256(s2)
    130e: 00 01        	<unknown>
    1310: 05 0a        	<unknown>
    1312: 06 03        	<unknown>
    1314: 01 09        	<unknown>
    1316: 08 00        	<unknown>
    1318: 01 05        	<unknown>
    131a: 0b 03 01 09  	p.lb	t1, 144(sp!)
    131e: 04 00        	<unknown>
    1320: 01 05        	<unknown>
    1322: 0f 06 03 00  	<unknown>
    1326: 09 0c        	<unknown>
    1328: 00 01        	<unknown>
    132a: 03 bf 7e 09  	<unknown>
    132e: 08 00        	<unknown>
    1330: 01 05        	<unknown>
    1332: 22 06        	<unknown>
    1334: 03 c5 01 09  	lbu	a0, 144(gp)
    1338: 10 00        	<unknown>
    133a: 01 05        	<unknown>
    133c: 35 06        	<unknown>
    133e: 03 00 09 0c  	lb	zero, 192(s2)
    1342: 00 01        	<unknown>
    1344: 05 28        	<unknown>
    1346: 06 03        	<unknown>
    1348: 03 09 0c 00  	lb	s2, 0(s8)
    134c: 01 05        	<unknown>
    134e: 3b 06 03 00  	<unknown>
    1352: 09 04        	<unknown>
    1354: 00 01        	<unknown>
    1356: 05 16        	<unknown>
    1358: 06 03        	<unknown>
    135a: 03 09 10 00  	lb	s2, 1(zero)
    135e: 01 05        	<unknown>
    1360: 1d 06        	<unknown>
    1362: 03 00 09 0c  	lb	zero, 192(s2)
    1366: 00 01        	<unknown>
    1368: 03 b5 7e 09  	<unknown>
    136c: 0c 00        	<unknown>
    136e: 01 05        	<unknown>
    1370: 09 06        	<unknown>
    1372: 03 ce 01 09  	lbu	t3, 144(gp)
    1376: 14 00        	<unknown>
    1378: 01 06        	<unknown>
    137a: 03 b2 7e 09  	<unknown>
    137e: 04 00        	<unknown>
    1380: 01 05        	<unknown>
    1382: 07 06 03 cf  	flb	fa2, -784(t1)
    1386: 01 09        	<unknown>
    1388: 04 00        	<unknown>
    138a: 01 05        	<unknown>
    138c: 0e 06        	<unknown>
    138e: 03 00 09 04  	lb	zero, 64(s2)
    1392: 00 01        	<unknown>
    1394: 03 b1 7e 09  	<unknown>
    1398: 04 00        	<unknown>
    139a: 01 05        	<unknown>
    139c: 12 03        	<unknown>
    139e: cf 01 09 04  	fnmadd.h	gp, s2, zero, zero, rne
    13a2: 00 01        	<unknown>
    13a4: 03 b1 7e 09  	<unknown>
    13a8: 04 00        	<unknown>
    13aa: 01 05        	<unknown>
    13ac: 07 06 03 d3  	flb	fa2, -720(t1)
    13b0: 01 09        	<unknown>
    13b2: 08 00        	<unknown>
    13b4: 01 06        	<unknown>
    13b6: 03 ad 7e 09  	lw	s10, 151(t4)
    13ba: 04 00        	<unknown>
    13bc: 01 05        	<unknown>
    13be: 09 06        	<unknown>
    13c0: 03 d4 01 09  	lhu	s0, 144(gp)
    13c4: 04 00        	<unknown>
    13c6: 01 05        	<unknown>
    13c8: 16 03        	<unknown>
    13ca: 02 09        	<unknown>
    13cc: 04 00        	<unknown>
    13ce: 01 05        	<unknown>
    13d0: 10 06        	<unknown>
    13d2: 03 00 09 08  	lb	zero, 128(s2)
    13d6: 00 01        	<unknown>
    13d8: 05 16        	<unknown>
    13da: 06 03        	<unknown>
    13dc: 02 09        	<unknown>
    13de: 04 00        	<unknown>
    13e0: 01 05        	<unknown>
    13e2: 10 06        	<unknown>
    13e4: 03 00 09 08  	lb	zero, 128(s2)
    13e8: 00 01        	<unknown>
    13ea: 03 a8 7e 09  	lw	a6, 151(t4)
    13ee: 04 00        	<unknown>
    13f0: 01 05        	<unknown>
    13f2: 1d 06        	<unknown>
    13f4: 03 de 01 09  	lhu	t3, 144(gp)
    13f8: 18 00        	<unknown>
    13fa: 01 05        	<unknown>
    13fc: 05 03        	<unknown>
    13fe: 01 09        	<unknown>
    1400: 18 00        	<unknown>
    1402: 01 05        	<unknown>
    1404: 1b 03 01 09  	<unknown>
    1408: 08 00        	<unknown>
    140a: 01 05        	<unknown>
    140c: 07 06 03 00  	flb	fa2, 0(t1)
    1410: 09 04        	<unknown>
    1412: 00 01        	<unknown>
    1414: 05 1c        	<unknown>
    1416: 06 03        	<unknown>
    1418: 7f 09 10 00  	<unknown>
    141c: 01 06        	<unknown>
    141e: 03 a1 7e 09  	lw	sp, 151(t4)
    1422: 04 00        	<unknown>
    1424: 01 05        	<unknown>
    1426: 05 03        	<unknown>
    1428: df 01 09 04  	<unknown>
    142c: 00 01        	<unknown>
    142e: 05 03        	<unknown>
    1430: 06 03        	<unknown>
    1432: 06 09        	<unknown>
    1434: 04 00        	<unknown>
    1436: 01 05        	<unknown>
    1438: 09 03        	<unknown>
    143a: 01 09        	<unknown>
    143c: 08 00        	<unknown>
    143e: 01 05        	<unknown>
    1440: 27 06 03 00  	fsb	ft0, 12(t1)
    1444: 09 08        	<unknown>
    1446: 00 01        	<unknown>
    1448: 05 05        	<unknown>
    144a: 03 00 09 04  	lb	zero, 64(s2)
    144e: 00 01        	<unknown>
    1450: 05 19        	<unknown>
    1452: 06 03        	<unknown>
    1454: 7f 09 10 00  	<unknown>
    1458: 01 06        	<unknown>
    145a: 03 9b 7e 09  	lh	s6, 151(t4)
    145e: 04 00        	<unknown>
    1460: 01 05        	<unknown>
    1462: 03 03 e5 01  	lb	t1, 30(a0)
    1466: 09 04        	<unknown>
    1468: 00 01        	<unknown>
    146a: 03 9b 7e 09  	lh	s6, 151(t4)
    146e: 08 00        	<unknown>
    1470: 01 05        	<unknown>
    1472: 0f 06 03 ae  	<unknown>
    1476: 01 09        	<unknown>
    1478: 04 00        	<unknown>
    147a: 01 05        	<unknown>
    147c: 07 03 3c 09  	flb	ft6, 147(s8)
    1480: 0c 00        	<unknown>
    1482: 01 05        	<unknown>
    1484: 05 03        	<unknown>
    1486: 01 09        	<unknown>
    1488: 08 00        	<unknown>
    148a: 01 05        	<unknown>
    148c: 1b 03 01 09  	<unknown>
    1490: 04 00        	<unknown>
    1492: 01 05        	<unknown>
    1494: 07 06 03 00  	flb	fa2, 0(t1)
    1498: 09 04        	<unknown>
    149a: 00 01        	<unknown>
    149c: 05 1c        	<unknown>
    149e: 06 03        	<unknown>
    14a0: 7f 09 14 00  	<unknown>
    14a4: 01 05        	<unknown>
    14a6: 05 06        	<unknown>
    14a8: 03 00 09 08  	lb	zero, 128(s2)
    14ac: 00 01        	<unknown>
    14ae: 03 95 7e 09  	lh	a0, 151(t4)
    14b2: 08 00        	<unknown>
    14b4: 01 05        	<unknown>
    14b6: 03 06 03 8b  	lb	a2, -1872(t1)
    14ba: 02 09        	<unknown>
    14bc: 04 00        	<unknown>
    14be: 01 09        	<unknown>
    14c0: 38 00        	<unknown>
    14c2: 00 01        	<unknown>
    14c4: 01 77        	<unknown>
    14c6: 00 00        	<unknown>
    14c8: 00 05        	<unknown>
    14ca: 00 04        	<unknown>
    14cc: 00 50        	<unknown>
    14ce: 00 00        	<unknown>
    14d0: 00 01        	<unknown>
    14d2: 01 01        	<unknown>
    14d4: fb 0e 0d 00  	<unknown>
    14d8: 01 01        	<unknown>
    14da: 01 01        	<unknown>
    14dc: 00 00        	<unknown>
    14de: 00 01        	<unknown>
    14e0: 00 00        	<unknown>
    14e2: 01 01        	<unknown>
    14e4: 01 1f        	<unknown>
    14e6: 02 00        	<unknown>
    14e8: 00 00        	<unknown>
    14ea: 00 b8        	<unknown>
    14ec: 00 00        	<unknown>
    14ee: 00 03        	<unknown>
    14f0: 01 1f        	<unknown>
    14f2: 02 0f        	<unknown>
    14f4: 05 1e        	<unknown>
    14f6: 02 94        	<unknown>
    14f8: 03 00 00 00  	lb	zero, 0(zero)
    14fc: e4 6e        	<unknown>
    14fe: 97 34 01 6c  	auipc	s1, 442387
    1502: b9 89        	<unknown>
    1504: 9c 2f        	<unknown>
    1506: 8b a8 0d a3  	p.lw	a7, -1488(s11!)
    150a: 18 f5        	<unknown>
    150c: ed 03        	<unknown>
    150e: 00 00        	<unknown>
    1510: 01 e4        	<unknown>
    1512: 6e 97        	<unknown>
    1514: 34 01        	<unknown>
    1516: 6c b9        	<unknown>
    1518: 89 9c        	<unknown>
    151a: 2f 8b a8 0d  	<unknown>
    151e: a3 18 f5 00  	sh	a5, 17(a0)
    1522: 05 02        	<unknown>
    1524: 34 12        	<unknown>
    1526: 00 80        	<unknown>
    1528: 1a 05        	<unknown>
    152a: 0d 0a        	<unknown>
    152c: 03 02 09 00  	lb	tp, 0(s2)
    1530: 00 01        	<unknown>
    1532: 05 01        	<unknown>
    1534: 03 01 09 08  	lb	sp, 128(s2)
    1538: 00 01        	<unknown>
    153a: 09 04        	<unknown>
    153c: 00 00        	<unknown>
    153e: 01 01        	<unknown>
    1540: 6b 04 00 00  	<unknown>
    1544: 05 00        	<unknown>
    1546: 04 00        	<unknown>
    1548: 93 00 00 00  	li	ra, 0
    154c: 01 01        	<unknown>
    154e: 01 fb        	<unknown>
    1550: 0e 0d        	<unknown>
    1552: 00 01        	<unknown>
    1554: 01 01        	<unknown>
    1556: 01 00        	<unknown>
    1558: 00 00        	<unknown>
    155a: 01 00        	<unknown>
    155c: 00 01        	<unknown>
    155e: 01 01        	<unknown>
    1560: 1f 03 00 00  	<unknown>
    1564: 00 00        	<unknown>
    1566: 68 00        	<unknown>
    1568: 00 00        	<unknown>
    156a: b8 00        	<unknown>
    156c: 00 00        	<unknown>
    156e: 03 01 1f 02  	lb	sp, 33(t5)
    1572: 0f 05 1e 05  	<unknown>
    1576: fe 03        	<unknown>
    1578: 00 00        	<unknown>
    157a: 00 9d        	<unknown>
    157c: 72 74        	<unknown>
    157e: e4 42        	<unknown>
    1580: cb 57 63 ce  	<unknown>
    1584: 4b 25 00 41  	fnmsub.s	a0, zero, a6, s0, rdn
    1588: ef 46 77 2b  	jal	a3, 0x7603e <__l1_alloc_base+0x5373e>
    158c: 01 00        	<unknown>
    158e: 00 01        	<unknown>
    1590: f7 02 4d 06  	<unknown>
    1594: 82 a9        	<unknown>
    1596: 18 b4        	<unknown>
    1598: 1f 94 e8 be  	<unknown>
    159c: 9c d9        	<unknown>
    159e: 04 61        	<unknown>
    15a0: 72 01        	<unknown>
    15a2: 00 00        	<unknown>
    15a4: 01 ab        	<unknown>
    15a6: 91 4e        	<unknown>
    15a8: 28 76        	<unknown>
    15aa: 01 b2        	<unknown>
    15ac: 38 5e        	<unknown>
    15ae: 57 88 0e 65  	<unknown>
    15b2: 99 aa        	<unknown>
    15b4: 6b 36 03 00  	<unknown>
    15b8: 00 01        	<unknown>
    15ba: 24 99        	<unknown>
    15bc: dd 23        	<unknown>
    15be: 61 b9        	<unknown>
    15c0: 15 72        	<unknown>
    15c2: 4b 07 32 82  	<unknown>
    15c6: be a3        	<unknown>
    15c8: a7 bc 57 04  	<unknown>
    15cc: 00 00        	<unknown>
    15ce: 02 9d        	<unknown>
    15d0: 72 74        	<unknown>
    15d2: e4 42        	<unknown>
    15d4: cb 57 63 ce  	<unknown>
    15d8: 4b 25 00 41  	fnmsub.s	a0, zero, a6, s0, rdn
    15dc: ef 46 77 04  	jal	a3, 0x75e22 <__l1_alloc_base+0x53522>
    15e0: 04 00        	<unknown>
    15e2: 05 02        	<unknown>
    15e4: 40 12        	<unknown>
    15e6: 00 80        	<unknown>
    15e8: 1a 05        	<unknown>
    15ea: 19 0a        	<unknown>
    15ec: 03 01 09 00  	lb	sp, 0(s2)
    15f0: 00 01        	<unknown>
    15f2: 05 2a        	<unknown>
    15f4: 06 03        	<unknown>
    15f6: 00 09        	<unknown>
    15f8: 04 00        	<unknown>
    15fa: 01 05        	<unknown>
    15fc: 31 03        	<unknown>
    15fe: 00 09        	<unknown>
    1600: 04 00        	<unknown>
    1602: 01 05        	<unknown>
    1604: 07 03 00 09  	flb	ft6, 144(zero)
    1608: 08 00        	<unknown>
    160a: 01 05        	<unknown>
    160c: 05 06        	<unknown>
    160e: 03 09 09 04  	lb	s2, 64(s2)
    1612: 00 01        	<unknown>
    1614: 06 03        	<unknown>
    1616: 6d 09        	<unknown>
    1618: 04 00        	<unknown>
    161a: 01 05        	<unknown>
    161c: 0e 06        	<unknown>
    161e: 03 14 09 04  	lh	s0, 64(s2)
    1622: 00 01        	<unknown>
    1624: 05 10        	<unknown>
    1626: 06 03        	<unknown>
    1628: 00 09        	<unknown>
    162a: 04 00        	<unknown>
    162c: 01 05        	<unknown>
    162e: 0e 06        	<unknown>
    1630: 03 7f 09 04  	<unknown>
    1634: 00 01        	<unknown>
    1636: 05 09        	<unknown>
    1638: 03 01 09 04  	lb	sp, 64(s2)
    163c: 00 01        	<unknown>
    163e: 05 0c        	<unknown>
    1640: 06 03        	<unknown>
    1642: 00 09        	<unknown>
    1644: 04 00        	<unknown>
    1646: 01 03        	<unknown>
    1648: 6c 09        	<unknown>
    164a: 08 00        	<unknown>
    164c: 01 05        	<unknown>
    164e: 05 06        	<unknown>
    1650: 03 0e 09 08  	lb	t3, 128(s2)
    1654: 00 01        	<unknown>
    1656: 06 03        	<unknown>
    1658: 72 09        	<unknown>
    165a: 04 00        	<unknown>
    165c: 01 05        	<unknown>
    165e: 0e 06        	<unknown>
    1660: 03 0f 09 04  	lb	t5, 64(s2)
    1664: 00 01        	<unknown>
    1666: 05 10        	<unknown>
    1668: 06 03        	<unknown>
    166a: 00 09        	<unknown>
    166c: 04 00        	<unknown>
    166e: 01 05        	<unknown>
    1670: 09 03        	<unknown>
    1672: 00 09        	<unknown>
    1674: 04 00        	<unknown>
    1676: 01 05        	<unknown>
    1678: 0c 03        	<unknown>
    167a: 00 09        	<unknown>
    167c: 04 00        	<unknown>
    167e: 01 05        	<unknown>
    1680: 05 06        	<unknown>
    1682: 03 7f 09 08  	<unknown>
    1686: 00 01        	<unknown>
    1688: 05 03        	<unknown>
    168a: 03 08 09 04  	lb	a6, 64(s2)
    168e: 00 01        	<unknown>
    1690: 05 00        	<unknown>
    1692: 03 03 09 04  	lb	t1, 64(s2)
    1696: 00 01        	<unknown>
    1698: 05 19        	<unknown>
    169a: 0a 03        	<unknown>
    169c: 01 09        	<unknown>
    169e: 00 00        	<unknown>
    16a0: 01 05        	<unknown>
    16a2: 20 06        	<unknown>
    16a4: 03 00 09 04  	lb	zero, 64(s2)
    16a8: 00 01        	<unknown>
    16aa: 05 07        	<unknown>
    16ac: 03 00 09 04  	lb	zero, 64(s2)
    16b0: 00 01        	<unknown>
    16b2: 03 66 09 04  	<unknown>
    16b6: 00 01        	<unknown>
    16b8: 05 05        	<unknown>
    16ba: 06 03        	<unknown>
    16bc: 25 09        	<unknown>
    16be: 04 00        	<unknown>
    16c0: 01 06        	<unknown>
    16c2: 03 5b 09 04  	lhu	s6, 64(s2)
    16c6: 00 01        	<unknown>
    16c8: 05 0c        	<unknown>
    16ca: 06 03        	<unknown>
    16cc: 26 09        	<unknown>
    16ce: 04 00        	<unknown>
    16d0: 01 05        	<unknown>
    16d2: 09 06        	<unknown>
    16d4: 03 00 09 04  	lb	zero, 64(s2)
    16d8: 00 01        	<unknown>
    16da: 05 0e        	<unknown>
    16dc: 06 03        	<unknown>
    16de: 7f 09 04 00  	<unknown>
    16e2: 01 06        	<unknown>
    16e4: 03 5b 09 0c  	lhu	s6, 192(s2)
    16e8: 00 01        	<unknown>
    16ea: 05 05        	<unknown>
    16ec: 06 03        	<unknown>
    16ee: 21 09        	<unknown>
    16f0: 04 00        	<unknown>
    16f2: 01 06        	<unknown>
    16f4: 03 5f 09 04  	lhu	t5, 64(s2)
    16f8: 00 01        	<unknown>
    16fa: 05 09        	<unknown>
    16fc: 06 03        	<unknown>
    16fe: 22 09        	<unknown>
    1700: 14 00        	<unknown>
    1702: 01 05        	<unknown>
    1704: 0c 06        	<unknown>
    1706: 03 00 09 04  	lb	zero, 64(s2)
    170a: 00 01        	<unknown>
    170c: 05 05        	<unknown>
    170e: 06 03        	<unknown>
    1710: 7f 09 08 00  	<unknown>
    1714: 01 05        	<unknown>
    1716: 03 03 07 09  	lb	t1, 144(a4)
    171a: 04 00        	<unknown>
    171c: 01 05        	<unknown>
    171e: 00 03        	<unknown>
    1720: 03 09 04 00  	lb	s2, 0(s0)
    1724: 01 05        	<unknown>
    1726: 0a 0a        	<unknown>
    1728: 03 02 09 04  	lb	tp, 64(s2)
    172c: 00 01        	<unknown>
    172e: 05 03        	<unknown>
    1730: 06 03        	<unknown>
    1732: 00 09        	<unknown>
    1734: 08 00        	<unknown>
    1736: 01 06        	<unknown>
    1738: 03 02 09 08  	lb	tp, 128(s2)
    173c: 00 01        	<unknown>
    173e: 05 00        	<unknown>
    1740: 03 03 09 08  	lb	t1, 128(s2)
    1744: 00 01        	<unknown>
    1746: 05 0a        	<unknown>
    1748: 0a 03        	<unknown>
    174a: 04 09        	<unknown>
    174c: 00 00        	<unknown>
    174e: 01 05        	<unknown>
    1750: 0d 06        	<unknown>
    1752: 03 00 09 04  	lb	zero, 64(s2)
    1756: 00 01        	<unknown>
    1758: 05 0a        	<unknown>
    175a: 06 03        	<unknown>
    175c: 01 09        	<unknown>
    175e: 04 00        	<unknown>
    1760: 01 05        	<unknown>
    1762: 0d 06        	<unknown>
    1764: 03 00 09 04  	lb	zero, 64(s2)
    1768: 00 01        	<unknown>
    176a: 05 0f        	<unknown>
    176c: 06 03        	<unknown>
    176e: 01 09        	<unknown>
    1770: 04 00        	<unknown>
    1772: 01 05        	<unknown>
    1774: 14 06        	<unknown>
    1776: 03 00 09 04  	lb	zero, 64(s2)
    177a: 00 01        	<unknown>
    177c: 05 03        	<unknown>
    177e: 03 00 09 0c  	lb	zero, 192(s2)
    1782: 00 01        	<unknown>
    1784: 05 0d        	<unknown>
    1786: 06 03        	<unknown>
    1788: 02 09        	<unknown>
    178a: 04 00        	<unknown>
    178c: 01 05        	<unknown>
    178e: 03 06 03 00  	lb	a2, 0(t1)
    1792: 09 04        	<unknown>
    1794: 00 01        	<unknown>
    1796: 05 00        	<unknown>
    1798: 06 03        	<unknown>
    179a: 03 09 04 00  	lb	s2, 0(s0)
    179e: 01 05        	<unknown>
    17a0: 17 0a 03 01  	auipc	s4, 4144
    17a4: 09 00        	<unknown>
    17a6: 00 01        	<unknown>
    17a8: 05 28        	<unknown>
    17aa: 06 03        	<unknown>
    17ac: 00 09        	<unknown>
    17ae: 04 00        	<unknown>
    17b0: 01 05        	<unknown>
    17b2: 07 03 00 09  	flb	ft6, 144(zero)
    17b6: 04 00        	<unknown>
    17b8: 01 05        	<unknown>
    17ba: 24 06        	<unknown>
    17bc: 03 03 09 04  	lb	t1, 64(s2)
    17c0: 00 01        	<unknown>
    17c2: 05 1f        	<unknown>
    17c4: 06 03        	<unknown>
    17c6: 00 09        	<unknown>
    17c8: 04 00        	<unknown>
    17ca: 01 05        	<unknown>
    17cc: 05 06        	<unknown>
    17ce: 03 01 09 04  	lb	sp, 64(s2)
    17d2: 00 01        	<unknown>
    17d4: 06 03        	<unknown>
    17d6: be 7f        	<unknown>
    17d8: 09 04        	<unknown>
    17da: 00 01        	<unknown>
    17dc: 05 0b        	<unknown>
    17de: 06 03        	<unknown>
    17e0: c3 00 09 04  	fmadd.h	ra, s2, zero, zero, rne
    17e4: 00 01        	<unknown>
    17e6: 05 12        	<unknown>
    17e8: 06 03        	<unknown>
    17ea: 00 09        	<unknown>
    17ec: 04 00        	<unknown>
    17ee: 01 05        	<unknown>
    17f0: 0b 03 00 09  	p.lb	t1, 144(zero!)
    17f4: 04 00        	<unknown>
    17f6: 01 05        	<unknown>
    17f8: 09 06        	<unknown>
    17fa: 03 02 09 04  	lb	tp, 64(s2)
    17fe: 00 01        	<unknown>
    1800: 03 01 09 04  	lb	sp, 64(s2)
    1804: 00 01        	<unknown>
    1806: 05 05        	<unknown>
    1808: 03 7c 09 04  	<unknown>
    180c: 00 01        	<unknown>
    180e: 06 03        	<unknown>
    1810: be 7f        	<unknown>
    1812: 09 08        	<unknown>
    1814: 00 01        	<unknown>
    1816: 05 24        	<unknown>
    1818: 06 03        	<unknown>
    181a: c8 00        	<unknown>
    181c: 09 04        	<unknown>
    181e: 00 01        	<unknown>
    1820: 05 07        	<unknown>
    1822: 06 03        	<unknown>
    1824: 00 09        	<unknown>
    1826: 04 00        	<unknown>
    1828: 01 03        	<unknown>
    182a: b8 7f        	<unknown>
    182c: 09 04        	<unknown>
    182e: 00 01        	<unknown>
    1830: 05 03        	<unknown>
    1832: 06 03        	<unknown>
    1834: cd 00        	<unknown>
    1836: 09 04        	<unknown>
    1838: 00 01        	<unknown>
    183a: 05 0b        	<unknown>
    183c: 06 03        	<unknown>
    183e: 00 09        	<unknown>
    1840: 04 00        	<unknown>
    1842: 01 05        	<unknown>
    1844: 18 06        	<unknown>
    1846: 03 01 09 04  	lb	sp, 64(s2)
    184a: 00 01        	<unknown>
    184c: 05 32        	<unknown>
    184e: 06 03        	<unknown>
    1850: 00 09        	<unknown>
    1852: 04 00        	<unknown>
    1854: 01 05        	<unknown>
    1856: 18 06        	<unknown>
    1858: 03 01 09 04  	lb	sp, 64(s2)
    185c: 00 01        	<unknown>
    185e: 05 32        	<unknown>
    1860: 06 03        	<unknown>
    1862: 00 09        	<unknown>
    1864: 04 00        	<unknown>
    1866: 01 03        	<unknown>
    1868: b1 7f        	<unknown>
    186a: 09 04        	<unknown>
    186c: 00 01        	<unknown>
    186e: 05 09        	<unknown>
    1870: 06 03        	<unknown>
    1872: d0 00        	<unknown>
    1874: 09 04        	<unknown>
    1876: 00 01        	<unknown>
    1878: 05 01        	<unknown>
    187a: 03 05 09 04  	lb	a0, 64(s2)
    187e: 00 01        	<unknown>
    1880: 06 03        	<unknown>
    1882: ab 7f 09 04  	<unknown>
    1886: 00 01        	<unknown>
    1888: 03 d5 00 09  	lhu	a0, 144(ra)
    188c: 04 00        	<unknown>
    188e: 01 05        	<unknown>
    1890: 00 06        	<unknown>
    1892: 03 02 09 04  	lb	tp, 64(s2)
    1896: 00 01        	<unknown>
    1898: 05 16        	<unknown>
    189a: 0a 03        	<unknown>
    189c: 02 09        	<unknown>
    189e: 04 00        	<unknown>
    18a0: 01 05        	<unknown>
    18a2: 12 06        	<unknown>
    18a4: 03 00 09 08  	lb	zero, 128(s2)
    18a8: 00 01        	<unknown>
    18aa: 05 03        	<unknown>
    18ac: 03 00 09 04  	lb	zero, 64(s2)
    18b0: 00 01        	<unknown>
    18b2: 05 10        	<unknown>
    18b4: 03 00 09 04  	lb	zero, 64(s2)
    18b8: 00 01        	<unknown>
    18ba: 05 03        	<unknown>
    18bc: 03 00 09 04  	lb	zero, 64(s2)
    18c0: 00 01        	<unknown>
    18c2: 06 03        	<unknown>
    18c4: 02 09        	<unknown>
    18c6: 04 00        	<unknown>
    18c8: 01 05        	<unknown>
    18ca: 00 03        	<unknown>
    18cc: 03 09 04 00  	lb	s2, 0(s0)
    18d0: 01 05        	<unknown>
    18d2: 03 0a 03 04  	lb	s4, 64(t1)
    18d6: 09 00        	<unknown>
    18d8: 00 01        	<unknown>
    18da: 05 0a        	<unknown>
    18dc: 06 03        	<unknown>
    18de: 00 09        	<unknown>
    18e0: 08 00        	<unknown>
    18e2: 01 05        	<unknown>
    18e4: 03 03 00 09  	lb	t1, 144(zero)
    18e8: 04 00        	<unknown>
    18ea: 01 05        	<unknown>
    18ec: 0a 03        	<unknown>
    18ee: 00 09        	<unknown>
    18f0: 08 00        	<unknown>
    18f2: 01 05        	<unknown>
    18f4: 03 03 00 09  	lb	t1, 144(zero)
    18f8: 04 00        	<unknown>
    18fa: 01 03        	<unknown>
    18fc: 9e 7f        	<unknown>
    18fe: 09 04        	<unknown>
    1900: 00 01        	<unknown>
    1902: 03 e2 00 09  	<unknown>
    1906: 04 00        	<unknown>
    1908: 01 03        	<unknown>
    190a: 9e 7f        	<unknown>
    190c: 09 04        	<unknown>
    190e: 00 01        	<unknown>
    1910: 03 e2 00 09  	<unknown>
    1914: 04 00        	<unknown>
    1916: 01 05        	<unknown>
    1918: 11 06        	<unknown>
    191a: 03 04 09 04  	lb	s0, 64(s2)
    191e: 00 01        	<unknown>
    1920: 05 0a        	<unknown>
    1922: 03 04 09 08  	lb	s0, 128(s2)
    1926: 00 01        	<unknown>
    1928: 06 03        	<unknown>
    192a: 96 7f        	<unknown>
    192c: 09 04        	<unknown>
    192e: 00 01        	<unknown>
    1930: 05 03        	<unknown>
    1932: 03 ea 00 09  	<unknown>
    1936: 04 00        	<unknown>
    1938: 01 03        	<unknown>
    193a: 96 7f        	<unknown>
    193c: 09 08        	<unknown>
    193e: 00 01        	<unknown>
    1940: 03 ea 00 09  	<unknown>
    1944: 04 00        	<unknown>
    1946: 01 03        	<unknown>
    1948: 96 7f        	<unknown>
    194a: 09 04        	<unknown>
    194c: 00 01        	<unknown>
    194e: 03 ea 00 09  	<unknown>
    1952: 04 00        	<unknown>
    1954: 01 03        	<unknown>
    1956: 96 7f        	<unknown>
    1958: 09 08        	<unknown>
    195a: 00 01        	<unknown>
    195c: 05 09        	<unknown>
    195e: 06 03        	<unknown>
    1960: eb 00 09 04  	<unknown>
    1964: 00 01        	<unknown>
    1966: 05 0c        	<unknown>
    1968: 03 01 09 04  	lb	sp, 64(s2)
    196c: 00 01        	<unknown>
    196e: 05 0a        	<unknown>
    1970: 03 7e 09 04  	<unknown>
    1974: 00 01        	<unknown>
    1976: 05 13        	<unknown>
    1978: 03 02 09 04  	lb	tp, 64(s2)
    197c: 00 01        	<unknown>
    197e: 05 09        	<unknown>
    1980: 06 03        	<unknown>
    1982: 00 09        	<unknown>
    1984: 04 00        	<unknown>
    1986: 01 05        	<unknown>
    1988: 03 06 03 7e  	lb	a2, 2016(t1)
    198c: 09 04        	<unknown>
    198e: 00 01        	<unknown>
    1990: 05 0a        	<unknown>
    1992: 03 05 09 08  	lb	a0, 128(s2)
    1996: 00 01        	<unknown>
    1998: 06 03        	<unknown>
    199a: 91 7f        	<unknown>
    199c: 09 04        	<unknown>
    199e: 00 01        	<unknown>
    19a0: 05 03        	<unknown>
    19a2: 03 ef 00 09  	<unknown>
    19a6: 04 00        	<unknown>
    19a8: 01 09        	<unknown>
    19aa: 04 00        	<unknown>
    19ac: 00 01        	<unknown>
    19ae: 01 6f        	<unknown>
    19b0: 01 00        	<unknown>
    19b2: 00 05        	<unknown>
    19b4: 00 04        	<unknown>
    19b6: 00 93        	<unknown>
    19b8: 00 00        	<unknown>
    19ba: 00 01        	<unknown>
    19bc: 01 01        	<unknown>
    19be: fb 0e 0d 00  	<unknown>
    19c2: 01 01        	<unknown>
    19c4: 01 01        	<unknown>
    19c6: 00 00        	<unknown>
    19c8: 00 01        	<unknown>
    19ca: 00 00        	<unknown>
    19cc: 01 01        	<unknown>
    19ce: 01 1f        	<unknown>
    19d0: 03 00 00 00  	lb	zero, 0(zero)
    19d4: 00 68        	<unknown>
    19d6: 00 00        	<unknown>
    19d8: 00 b8        	<unknown>
    19da: 00 00        	<unknown>
    19dc: 00 03        	<unknown>
    19de: 01 1f        	<unknown>
    19e0: 02 0f        	<unknown>
    19e2: 05 1e        	<unknown>
    19e4: 05 68        	<unknown>
    19e6: 04 00        	<unknown>
    19e8: 00 00        	<unknown>
    19ea: 44 3e        	<unknown>
    19ec: 1d d5        	<unknown>
    19ee: a0 12        	<unknown>
    19f0: d9 f8        	<unknown>
    19f2: b3 5a 61 7a  	<unknown>
    19f6: 38 43        	<unknown>
    19f8: bf d8 2b 01  	<unknown>
    19fc: 00 00        	<unknown>
    19fe: 01 f7        	<unknown>
    1a00: 02 4d        	<unknown>
    1a02: 06 82        	<unknown>
    1a04: a9 18        	<unknown>
    1a06: b4 1f        	<unknown>
    1a08: 94 e8        	<unknown>
    1a0a: be 9c        	<unknown>
    1a0c: d9 04        	<unknown>
    1a0e: 61 72        	<unknown>
    1a10: 01 00        	<unknown>
    1a12: 00 01        	<unknown>
    1a14: ab 91 4e 28  	p.sh	tp, 643(t4!)
    1a18: 76 01        	<unknown>
    1a1a: b2 38        	<unknown>
    1a1c: 5e 57        	<unknown>
    1a1e: 88 0e        	<unknown>
    1a20: 65 99        	<unknown>
    1a22: aa 6b        	<unknown>
    1a24: c1 04        	<unknown>
    1a26: 00 00        	<unknown>
    1a28: 02 44        	<unknown>
    1a2a: 3e 1d        	<unknown>
    1a2c: d5 a0        	<unknown>
    1a2e: 12 d9        	<unknown>
    1a30: f8 b3        	<unknown>
    1a32: 5a 61        	<unknown>
    1a34: 7a 38        	<unknown>
    1a36: 43 bf d8 ae  	fmadd.b	t5, a7, a3, s5, rup
    1a3a: 01 00        	<unknown>
    1a3c: 00 02        	<unknown>
    1a3e: 54 e2        	<unknown>
    1a40: 7b 38 e5 d5  	<unknown>
    1a44: de cf        	<unknown>
    1a46: dc bd        	<unknown>
    1a48: 4c 9d        	<unknown>
    1a4a: 62 b6        	<unknown>
    1a4c: 1f 65 04 03  	<unknown>
    1a50: 00 05        	<unknown>
    1a52: 02 5c        	<unknown>
    1a54: 14 00        	<unknown>
    1a56: 80 03        	<unknown>
    1a58: 12 01        	<unknown>
    1a5a: 05 07        	<unknown>
    1a5c: 0a 03        	<unknown>
    1a5e: 01 09        	<unknown>
    1a60: 00 00        	<unknown>
    1a62: 01 04        	<unknown>
    1a64: 04 05        	<unknown>
    1a66: 24 03        	<unknown>
    1a68: ea 00        	<unknown>
    1a6a: 09 04        	<unknown>
    1a6c: 00 01        	<unknown>
    1a6e: 04 03        	<unknown>
    1a70: 05 0d        	<unknown>
    1a72: 03 98 7f 09  	lh	a6, 151(t6)
    1a76: 08 00        	<unknown>
    1a78: 01 04        	<unknown>
    1a7a: 04 05        	<unknown>
    1a7c: 3c 03        	<unknown>
    1a7e: ec 00        	<unknown>
    1a80: 09 08        	<unknown>
    1a82: 00 01        	<unknown>
    1a84: 05 24        	<unknown>
    1a86: 03 7c 09 0c  	<unknown>
    1a8a: 00 01        	<unknown>
    1a8c: 04 03        	<unknown>
    1a8e: 05 1a        	<unknown>
    1a90: 03 a8 7f 09  	lw	a6, 151(t6)
    1a94: 04 00        	<unknown>
    1a96: 01 05        	<unknown>
    1a98: 07 06 03 00  	flb	fa2, 0(t1)
    1a9c: 09 14        	<unknown>
    1a9e: 00 01        	<unknown>
    1aa0: 05 05        	<unknown>
    1aa2: 06 03        	<unknown>
    1aa4: 01 09        	<unknown>
    1aa6: 04 00        	<unknown>
    1aa8: 01 03        	<unknown>
    1aaa: 01 09        	<unknown>
    1aac: 04 00        	<unknown>
    1aae: 01 04        	<unknown>
    1ab0: 04 05        	<unknown>
    1ab2: 3c 03        	<unknown>
    1ab4: da 00        	<unknown>
    1ab6: 09 04        	<unknown>
    1ab8: 00 01        	<unknown>
    1aba: 05 24        	<unknown>
    1abc: 03 7c 09 0c  	<unknown>
    1ac0: 00 01        	<unknown>
    1ac2: 04 03        	<unknown>
    1ac4: 05 01        	<unknown>
    1ac6: 03 a4 7f 09  	lw	s0, 151(t6)
    1aca: 04 00        	<unknown>
    1acc: 01 05        	<unknown>
    1ace: 00 03        	<unknown>
    1ad0: 02 09        	<unknown>
    1ad2: 04 00        	<unknown>
    1ad4: 01 05        	<unknown>
    1ad6: 12 0a        	<unknown>
    1ad8: 03 02 09 00  	lb	tp, 0(s2)
    1adc: 00 01        	<unknown>
    1ade: 05 1a        	<unknown>
    1ae0: 06 03        	<unknown>
    1ae2: 00 09        	<unknown>
    1ae4: 04 00        	<unknown>
    1ae6: 01 05        	<unknown>
    1ae8: 07 03 00 09  	flb	ft6, 144(zero)
    1aec: 10 00        	<unknown>
    1aee: 01 05        	<unknown>
    1af0: 05 06        	<unknown>
    1af2: 03 01 09 04  	lb	sp, 64(s2)
    1af6: 00 01        	<unknown>
    1af8: 03 01 09 04  	lb	sp, 64(s2)
    1afc: 00 01        	<unknown>
    1afe: 04 04        	<unknown>
    1b00: 05 3c        	<unknown>
    1b02: 03 da 00 09  	lhu	s4, 144(ra)
    1b06: 04 00        	<unknown>
    1b08: 01 05        	<unknown>
    1b0a: 24 03        	<unknown>
    1b0c: 7c 09        	<unknown>
    1b0e: 0c 00        	<unknown>
    1b10: 01 04        	<unknown>
    1b12: 03 05 01 03  	lb	a0, 48(sp)
    1b16: b0 7f        	<unknown>
    1b18: 09 04        	<unknown>
    1b1a: 00 01        	<unknown>
    1b1c: 09 04        	<unknown>
    1b1e: 00 00        	<unknown>
    1b20: 01 01        	<unknown>

Disassembly of section .debug_line_str:

00000000 <.debug_line_str>:
       0: 2f 75 73 72  	<unknown>
       4: 2f 73 63 72  	<unknown>
       8: 61 74        	<unknown>
       a: 63 68 32 2f  	bltu	tp, s3, 0x2fa <__l1_start+0x2fa>
       e: 6c 61        	<unknown>
      10: 72 61        	<unknown>
      12: 69 6e        	<unknown>
      14: 38 2f        	<unknown>
      16: 79 69        	<unknown>
      18: 63 7a 68 61  	bgeu	a6, s6, 0x62c <__l1_start+0x62c>
      1c: 6e 67        	<unknown>
      1e: 2f 74 65 72  	<unknown>
      22: 61 70        	<unknown>
      24: 6f 6f 6c 5f  	jal	t5, 0xc661a <__l1_alloc_base+0xa3d1a>
      28: 64 72        	<unknown>
      2a: 61 6d        	<unknown>
      2c: 5f 73 75 62  	<unknown>
      30: 6d 6f        	<unknown>
      32: 64 75        	<unknown>
      34: 6c 65        	<unknown>
      36: 5f 72 65 62  	<unknown>
      3a: 61 73        	<unknown>
      3c: 65 5f        	<unknown>
      3e: 30 35        	<unknown>
      40: 30 32        	<unknown>
      42: 5f 32 30 32  	<unknown>
      46: 34 2f        	<unknown>
      48: 6d 65        	<unknown>
      4a: 6d 70        	<unknown>
      4c: 6f 6f 6c 2f  	jal	t5, 0xc6342 <__l1_alloc_base+0xa3a42>
      50: 73 6f 66 74  	csrrsi	t5, 1862, 12
      54: 77 61 72 65  	<unknown>
      58: 2f 61 70 70  	<unknown>
      5c: 73 2f 62 61  	csrrs	t5, 1558, tp
      60: 72 65        	<unknown>
      62: 6d 65        	<unknown>
      64: 74 61        	<unknown>
      66: 6c 00        	<unknown>
      68: 2f 75 73 72  	<unknown>
      6c: 2f 73 63 72  	<unknown>
      70: 61 74        	<unknown>
      72: 63 68 32 2f  	bltu	tp, s3, 0x362 <__l1_start+0x362>
      76: 6c 61        	<unknown>
      78: 72 61        	<unknown>
      7a: 69 6e        	<unknown>
      7c: 38 2f        	<unknown>
      7e: 79 69        	<unknown>
      80: 63 7a 68 61  	bgeu	a6, s6, 0x694 <__l1_start+0x694>
      84: 6e 67        	<unknown>
      86: 2f 74 65 72  	<unknown>
      8a: 61 70        	<unknown>
      8c: 6f 6f 6c 5f  	jal	t5, 0xc6682 <__l1_alloc_base+0xa3d82>
      90: 64 72        	<unknown>
      92: 61 6d        	<unknown>
      94: 5f 73 75 62  	<unknown>
      98: 6d 6f        	<unknown>
      9a: 64 75        	<unknown>
      9c: 6c 65        	<unknown>
      9e: 5f 72 65 62  	<unknown>
      a2: 61 73        	<unknown>
      a4: 65 5f        	<unknown>
      a6: 30 35        	<unknown>
      a8: 30 32        	<unknown>
      aa: 5f 32 30 32  	<unknown>
      ae: 34 2f        	<unknown>
      b0: 6d 65        	<unknown>
      b2: 6d 70        	<unknown>
      b4: 6f 6f 6c 00  	jal	t5, 0xc60ba <__l1_alloc_base+0xa37ba>
      b8: 2f 75 73 72  	<unknown>
      bc: 2f 73 63 72  	<unknown>
      c0: 61 74        	<unknown>
      c2: 63 68 32 2f  	bltu	tp, s3, 0x3b2 <__l1_start+0x3b2>
      c6: 6c 61        	<unknown>
      c8: 72 61        	<unknown>
      ca: 69 6e        	<unknown>
      cc: 38 2f        	<unknown>
      ce: 79 69        	<unknown>
      d0: 63 7a 68 61  	bgeu	a6, s6, 0x6e4 <__l1_start+0x6e4>
      d4: 6e 67        	<unknown>
      d6: 2f 74 65 72  	<unknown>
      da: 61 70        	<unknown>
      dc: 6f 6f 6c 5f  	jal	t5, 0xc66d2 <__l1_alloc_base+0xa3dd2>
      e0: 64 72        	<unknown>
      e2: 61 6d        	<unknown>
      e4: 5f 73 75 62  	<unknown>
      e8: 6d 6f        	<unknown>
      ea: 64 75        	<unknown>
      ec: 6c 65        	<unknown>
      ee: 5f 72 65 62  	<unknown>
      f2: 61 73        	<unknown>
      f4: 65 5f        	<unknown>
      f6: 30 35        	<unknown>
      f8: 30 32        	<unknown>
      fa: 5f 32 30 32  	<unknown>
      fe: 34 2f        	<unknown>
     100: 6d 65        	<unknown>
     102: 6d 70        	<unknown>
     104: 6f 6f 6c 2f  	jal	t5, 0xc63fa <__l1_alloc_base+0xa3afa>
     108: 73 6f 66 74  	csrrsi	t5, 1862, 12
     10c: 77 61 72 65  	<unknown>
     110: 00 67        	<unknown>
     112: 76 73        	<unknown>
     114: 6f 63 5f 74  	jal	t1, 0xf7058 <__l1_alloc_base+0xd4758>
     118: 65 73        	<unknown>
     11a: 74 5f        	<unknown>
     11c: 62 61        	<unknown>
     11e: 72 72        	<unknown>
     120: 69 65        	<unknown>
     122: 72 2f        	<unknown>
     124: 6d 61        	<unknown>
     126: 69 6e        	<unknown>
     128: 2e 63        	<unknown>
     12a: 00 69        	<unknown>
     12c: 6e 73        	<unknown>
     12e: 74 61        	<unknown>
     130: 6c 6c        	<unknown>
     132: 2f 72 69 73  	<unknown>
     136: 63 76 2d 67  	bgeu	s10, s2, 0x7a2 <__l1_start+0x7a2>
     13a: 63 63 2f 72  	bltu	t5, sp, 0x860 <__l1_start+0x860>
     13e: 69 73        	<unknown>
     140: 63 76 33 32  	bgeu	t1, gp, 0x46c <__l1_start+0x46c>
     144: 2d 75        	<unknown>
     146: 6e 6b        	<unknown>
     148: 6e 6f        	<unknown>
     14a: 77 6e 2d 65  	<unknown>
     14e: 6c 66        	<unknown>
     150: 2f 69 6e 63  	<unknown>
     154: 6c 75        	<unknown>
     156: 64 65        	<unknown>
     158: 2f 6d 61 63  	<unknown>
     15c: 68 69        	<unknown>
     15e: 6e 65        	<unknown>
     160: 2f 5f 64 65  	<unknown>
     164: 66 61        	<unknown>
     166: 75 6c        	<unknown>
     168: 74 5f        	<unknown>
     16a: 74 79        	<unknown>
     16c: 70 65        	<unknown>
     16e: 73 2e 68 00  	csrrs	t3, 6, a6
     172: 69 6e        	<unknown>
     174: 73 74 61 6c  	csrrci	s0, 1734, 2
     178: 6c 2f        	<unknown>
     17a: 72 69        	<unknown>
     17c: 73 63 76 2d  	csrrsi	t1, 727, 12
     180: 67 63 63 2f  	<unknown>
     184: 72 69        	<unknown>
     186: 73 63 76 33  	csrrsi	t1, mhpmevent23, 12
     18a: 32 2d        	<unknown>
     18c: 75 6e        	<unknown>
     18e: 6b 6e 6f 77  	<unknown>
     192: 6e 2d        	<unknown>
     194: 65 6c        	<unknown>
     196: 66 2f        	<unknown>
     198: 69 6e        	<unknown>
     19a: 63 6c 75 64  	bltu	a0, t2, 0x7f2 <__l1_start+0x7f2>
     19e: 65 2f        	<unknown>
     1a0: 73 79 73 2f  	csrrci	s2, 759, 6
     1a4: 5f 73 74 64  	<unknown>
     1a8: 69 6e        	<unknown>
     1aa: 74 2e        	<unknown>
     1ac: 68 00        	<unknown>
     1ae: 72 75        	<unknown>
     1b0: 6e 74        	<unknown>
     1b2: 69 6d        	<unknown>
     1b4: 65 2f        	<unknown>
     1b6: 72 75        	<unknown>
     1b8: 6e 74        	<unknown>
     1ba: 69 6d        	<unknown>
     1bc: 65 2e        	<unknown>
     1be: 68 00        	<unknown>
     1c0: 72 75        	<unknown>
     1c2: 6e 74        	<unknown>
     1c4: 69 6d        	<unknown>
     1c6: 65 2f        	<unknown>
     1c8: 73 79 6e 63  	csrrci	s2, 1590, 28
     1cc: 68 72        	<unknown>
     1ce: 6f 6e 69 7a  	jal	t3, 0x96974 <__l1_alloc_base+0x74074>
     1d2: 61 74        	<unknown>
     1d4: 69 6f        	<unknown>
     1d6: 6e 2e        	<unknown>
     1d8: 68 00        	<unknown>
     1da: 2f 75 73 72  	<unknown>
     1de: 2f 73 63 72  	<unknown>
     1e2: 61 74        	<unknown>
     1e4: 63 68 32 2f  	bltu	tp, s3, 0x4d4 <__l1_start+0x4d4>
     1e8: 6c 61        	<unknown>
     1ea: 72 61        	<unknown>
     1ec: 69 6e        	<unknown>
     1ee: 38 2f        	<unknown>
     1f0: 79 69        	<unknown>
     1f2: 63 7a 68 61  	bgeu	a6, s6, 0x806 <__l1_start+0x806>
     1f6: 6e 67        	<unknown>
     1f8: 2f 74 65 72  	<unknown>
     1fc: 61 70        	<unknown>
     1fe: 6f 6f 6c 5f  	jal	t5, 0xc67f4 <__l1_alloc_base+0xa3ef4>
     202: 64 72        	<unknown>
     204: 61 6d        	<unknown>
     206: 5f 73 75 62  	<unknown>
     20a: 6d 6f        	<unknown>
     20c: 64 75        	<unknown>
     20e: 6c 65        	<unknown>
     210: 5f 72 65 62  	<unknown>
     214: 61 73        	<unknown>
     216: 65 5f        	<unknown>
     218: 30 35        	<unknown>
     21a: 30 32        	<unknown>
     21c: 5f 32 30 32  	<unknown>
     220: 34 2f        	<unknown>
     222: 6d 65        	<unknown>
     224: 6d 70        	<unknown>
     226: 6f 6f 6c 2f  	jal	t5, 0xc651c <__l1_alloc_base+0xa3c1c>
     22a: 73 6f 66 74  	csrrsi	t5, 1862, 12
     22e: 77 61 72 65  	<unknown>
     232: 2f 72 75 6e  	<unknown>
     236: 74 69        	<unknown>
     238: 6d 65        	<unknown>
     23a: 2f 61 6c 6c  	<unknown>
     23e: 6f 63 2e 63  	jal	t1, 0xe6870 <__l1_alloc_base+0xc3f70>
     242: 00 72        	<unknown>
     244: 75 6e        	<unknown>
     246: 74 69        	<unknown>
     248: 6d 65        	<unknown>
     24a: 2f 61 6c 6c  	<unknown>
     24e: 6f 63 2e 68  	jal	t1, 0xe68d0 <__l1_alloc_base+0xc3fd0>
     252: 00 72        	<unknown>
     254: 75 6e        	<unknown>
     256: 74 69        	<unknown>
     258: 6d 65        	<unknown>
     25a: 2f 70 72 69  	<unknown>
     25e: 6e 74        	<unknown>
     260: 66 2e        	<unknown>
     262: 68 00        	<unknown>
     264: 2f 75 73 72  	<unknown>
     268: 2f 73 63 72  	<unknown>
     26c: 61 74        	<unknown>
     26e: 63 68 32 2f  	bltu	tp, s3, 0x55e <__l1_start+0x55e>
     272: 6c 61        	<unknown>
     274: 72 61        	<unknown>
     276: 69 6e        	<unknown>
     278: 38 2f        	<unknown>
     27a: 79 69        	<unknown>
     27c: 63 7a 68 61  	bgeu	a6, s6, 0x890 <__l1_start+0x890>
     280: 6e 67        	<unknown>
     282: 2f 74 65 72  	<unknown>
     286: 61 70        	<unknown>
     288: 6f 6f 6c 5f  	jal	t5, 0xc687e <__l1_alloc_base+0xa3f7e>
     28c: 64 72        	<unknown>
     28e: 61 6d        	<unknown>
     290: 5f 73 75 62  	<unknown>
     294: 6d 6f        	<unknown>
     296: 64 75        	<unknown>
     298: 6c 65        	<unknown>
     29a: 5f 72 65 62  	<unknown>
     29e: 61 73        	<unknown>
     2a0: 65 5f        	<unknown>
     2a2: 30 35        	<unknown>
     2a4: 30 32        	<unknown>
     2a6: 5f 32 30 32  	<unknown>
     2aa: 34 2f        	<unknown>
     2ac: 6d 65        	<unknown>
     2ae: 6d 70        	<unknown>
     2b0: 6f 6f 6c 2f  	jal	t5, 0xc65a6 <__l1_alloc_base+0xa3ca6>
     2b4: 73 6f 66 74  	csrrsi	t5, 1862, 12
     2b8: 77 61 72 65  	<unknown>
     2bc: 2f 72 75 6e  	<unknown>
     2c0: 74 69        	<unknown>
     2c2: 6d 65        	<unknown>
     2c4: 2f 63 72 74  	<unknown>
     2c8: 30 2e        	<unknown>
     2ca: 53 00 2f 75  	<unknown>
     2ce: 73 72 2f 73  	csrrci	tp, mhpmevent18h, 30
     2d2: 63 72 61 74  	bgeu	sp, t1, 0xa16 <__l1_start+0xa16>
     2d6: 63 68 32 2f  	bltu	tp, s3, 0x5c6 <__l1_start+0x5c6>
     2da: 6c 61        	<unknown>
     2dc: 72 61        	<unknown>
     2de: 69 6e        	<unknown>
     2e0: 38 2f        	<unknown>
     2e2: 79 69        	<unknown>
     2e4: 63 7a 68 61  	bgeu	a6, s6, 0x8f8 <__l1_start+0x8f8>
     2e8: 6e 67        	<unknown>
     2ea: 2f 74 65 72  	<unknown>
     2ee: 61 70        	<unknown>
     2f0: 6f 6f 6c 5f  	jal	t5, 0xc68e6 <__l1_alloc_base+0xa3fe6>
     2f4: 64 72        	<unknown>
     2f6: 61 6d        	<unknown>
     2f8: 5f 73 75 62  	<unknown>
     2fc: 6d 6f        	<unknown>
     2fe: 64 75        	<unknown>
     300: 6c 65        	<unknown>
     302: 5f 72 65 62  	<unknown>
     306: 61 73        	<unknown>
     308: 65 5f        	<unknown>
     30a: 30 35        	<unknown>
     30c: 30 32        	<unknown>
     30e: 5f 32 30 32  	<unknown>
     312: 34 2f        	<unknown>
     314: 6d 65        	<unknown>
     316: 6d 70        	<unknown>
     318: 6f 6f 6c 2f  	jal	t5, 0xc660e <__l1_alloc_base+0xa3d0e>
     31c: 73 6f 66 74  	csrrsi	t5, 1862, 12
     320: 77 61 72 65  	<unknown>
     324: 2f 72 75 6e  	<unknown>
     328: 74 69        	<unknown>
     32a: 6d 65        	<unknown>
     32c: 2f 70 72 69  	<unknown>
     330: 6e 74        	<unknown>
     332: 66 2e        	<unknown>
     334: 63 00 69 6e  	beq	s2, t1, 0xa14 <__l1_start+0xa14>
     338: 73 74 61 6c  	csrrci	s0, 1734, 2
     33c: 6c 2f        	<unknown>
     33e: 6c 6c        	<unknown>
     340: 76 6d        	<unknown>
     342: 2f 6c 69 62  	<unknown>
     346: 2f 63 6c 61  	<unknown>
     34a: 6e 67        	<unknown>
     34c: 2f 31 34 2e  	<unknown>
     350: 30 2e        	<unknown>
     352: 36 2f        	<unknown>
     354: 69 6e        	<unknown>
     356: 63 6c 75 64  	bltu	a0, t2, 0x9ae <__l1_start+0x9ae>
     35a: 65 2f        	<unknown>
     35c: 73 74 64 64  	csrrci	s0, 1606, 8
     360: 65 66        	<unknown>
     362: 2e 68        	<unknown>
     364: 00 69        	<unknown>
     366: 6e 73        	<unknown>
     368: 74 61        	<unknown>
     36a: 6c 6c        	<unknown>
     36c: 2f 6c 6c 76  	<unknown>
     370: 6d 2f        	<unknown>
     372: 6c 69        	<unknown>
     374: 62 2f        	<unknown>
     376: 63 6c 61 6e  	bltu	sp, t1, 0xa6e <__l1_start+0xa6e>
     37a: 67 2f 31 34  	<unknown>
     37e: 2e 30        	<unknown>
     380: 2e 36        	<unknown>
     382: 2f 69 6e 63  	<unknown>
     386: 6c 75        	<unknown>
     388: 64 65        	<unknown>
     38a: 2f 73 74 64  	<unknown>
     38e: 61 72        	<unknown>
     390: 67 2e 68 00  	<unknown>
     394: 2f 75 73 72  	<unknown>
     398: 2f 73 63 72  	<unknown>
     39c: 61 74        	<unknown>
     39e: 63 68 32 2f  	bltu	tp, s3, 0x68e <__l1_start+0x68e>
     3a2: 6c 61        	<unknown>
     3a4: 72 61        	<unknown>
     3a6: 69 6e        	<unknown>
     3a8: 38 2f        	<unknown>
     3aa: 79 69        	<unknown>
     3ac: 63 7a 68 61  	bgeu	a6, s6, 0x9c0 <__l1_start+0x9c0>
     3b0: 6e 67        	<unknown>
     3b2: 2f 74 65 72  	<unknown>
     3b6: 61 70        	<unknown>
     3b8: 6f 6f 6c 5f  	jal	t5, 0xc69ae <__l1_alloc_base+0xa40ae>
     3bc: 64 72        	<unknown>
     3be: 61 6d        	<unknown>
     3c0: 5f 73 75 62  	<unknown>
     3c4: 6d 6f        	<unknown>
     3c6: 64 75        	<unknown>
     3c8: 6c 65        	<unknown>
     3ca: 5f 72 65 62  	<unknown>
     3ce: 61 73        	<unknown>
     3d0: 65 5f        	<unknown>
     3d2: 30 35        	<unknown>
     3d4: 30 32        	<unknown>
     3d6: 5f 32 30 32  	<unknown>
     3da: 34 2f        	<unknown>
     3dc: 6d 65        	<unknown>
     3de: 6d 70        	<unknown>
     3e0: 6f 6f 6c 2f  	jal	t5, 0xc66d6 <__l1_alloc_base+0xa3dd6>
     3e4: 73 6f 66 74  	csrrsi	t5, 1862, 12
     3e8: 77 61 72 65  	<unknown>
     3ec: 2f 72 75 6e  	<unknown>
     3f0: 74 69        	<unknown>
     3f2: 6d 65        	<unknown>
     3f4: 2f 73 65 72  	<unknown>
     3f8: 69 61        	<unknown>
     3fa: 6c 2e        	<unknown>
     3fc: 63 00 2f 75  	beq	t5, s2, 0xb3c <__l1_start+0xb3c>
     400: 73 72 2f 73  	csrrci	tp, mhpmevent18h, 30
     404: 63 72 61 74  	bgeu	sp, t1, 0xb48 <__l1_start+0xb48>
     408: 63 68 32 2f  	bltu	tp, s3, 0x6f8 <__l1_start+0x6f8>
     40c: 6c 61        	<unknown>
     40e: 72 61        	<unknown>
     410: 69 6e        	<unknown>
     412: 38 2f        	<unknown>
     414: 79 69        	<unknown>
     416: 63 7a 68 61  	bgeu	a6, s6, 0xa2a <__l1_start+0xa2a>
     41a: 6e 67        	<unknown>
     41c: 2f 74 65 72  	<unknown>
     420: 61 70        	<unknown>
     422: 6f 6f 6c 5f  	jal	t5, 0xc6a18 <__l1_alloc_base+0xa4118>
     426: 64 72        	<unknown>
     428: 61 6d        	<unknown>
     42a: 5f 73 75 62  	<unknown>
     42e: 6d 6f        	<unknown>
     430: 64 75        	<unknown>
     432: 6c 65        	<unknown>
     434: 5f 72 65 62  	<unknown>
     438: 61 73        	<unknown>
     43a: 65 5f        	<unknown>
     43c: 30 35        	<unknown>
     43e: 30 32        	<unknown>
     440: 5f 32 30 32  	<unknown>
     444: 34 2f        	<unknown>
     446: 6d 65        	<unknown>
     448: 6d 70        	<unknown>
     44a: 6f 6f 6c 2f  	jal	t5, 0xc6740 <__l1_alloc_base+0xa3e40>
     44e: 73 6f 66 74  	csrrsi	t5, 1862, 12
     452: 77 61 72 65  	<unknown>
     456: 2f 72 75 6e  	<unknown>
     45a: 74 69        	<unknown>
     45c: 6d 65        	<unknown>
     45e: 2f 73 74 72  	<unknown>
     462: 69 6e        	<unknown>
     464: 67 2e 63 00  	<unknown>
     468: 2f 75 73 72  	<unknown>
     46c: 2f 73 63 72  	<unknown>
     470: 61 74        	<unknown>
     472: 63 68 32 2f  	bltu	tp, s3, 0x762 <__l1_start+0x762>
     476: 6c 61        	<unknown>
     478: 72 61        	<unknown>
     47a: 69 6e        	<unknown>
     47c: 38 2f        	<unknown>
     47e: 79 69        	<unknown>
     480: 63 7a 68 61  	bgeu	a6, s6, 0xa94 <__l1_start+0xa94>
     484: 6e 67        	<unknown>
     486: 2f 74 65 72  	<unknown>
     48a: 61 70        	<unknown>
     48c: 6f 6f 6c 5f  	jal	t5, 0xc6a82 <__l1_alloc_base+0xa4182>
     490: 64 72        	<unknown>
     492: 61 6d        	<unknown>
     494: 5f 73 75 62  	<unknown>
     498: 6d 6f        	<unknown>
     49a: 64 75        	<unknown>
     49c: 6c 65        	<unknown>
     49e: 5f 72 65 62  	<unknown>
     4a2: 61 73        	<unknown>
     4a4: 65 5f        	<unknown>
     4a6: 30 35        	<unknown>
     4a8: 30 32        	<unknown>
     4aa: 5f 32 30 32  	<unknown>
     4ae: 34 2f        	<unknown>
     4b0: 6d 65        	<unknown>
     4b2: 6d 70        	<unknown>
     4b4: 6f 6f 6c 2f  	jal	t5, 0xc67aa <__l1_alloc_base+0xa3eaa>
     4b8: 73 6f 66 74  	csrrsi	t5, 1862, 12
     4bc: 77 61 72 65  	<unknown>
     4c0: 2f 72 75 6e  	<unknown>
     4c4: 74 69        	<unknown>
     4c6: 6d 65        	<unknown>
     4c8: 2f 73 79 6e  	<unknown>
     4cc: 63 68 72 6f  	bltu	tp, s7, 0xbbc <__l1_start+0xbbc>
     4d0: 6e 69        	<unknown>
     4d2: 7a 61        	<unknown>
     4d4: 74 69        	<unknown>
     4d6: 6f 6e 2e 63  	jal	t3, 0xe6b08 <__l1_alloc_base+0xc4208>
     4da: 00           	<unknown>

Disassembly of section .debug_rnglists:

00000000 <.debug_rnglists>:
       0: 75 00        	<unknown>
       2: 00 00        	<unknown>
       4: 05 00        	<unknown>
       6: 04 00        	<unknown>
       8: 06 00        	<unknown>
       a: 00 00        	<unknown>
       c: 18 00        	<unknown>
       e: 00 00        	<unknown>
      10: 22 00        	<unknown>
      12: 00 00        	<unknown>
      14: 32 00        	<unknown>
      16: 00 00        	<unknown>
      18: 3d 00        	<unknown>
      1a: 00 00        	<unknown>
      1c: 4d 00        	<unknown>
      1e: 00 00        	<unknown>
      20: 5d 00        	<unknown>
      22: 00 00        	<unknown>
      24: 04 60        	<unknown>
      26: 94 01        	<unknown>
      28: 04 b4        	<unknown>
      2a: 01 f8        	<unknown>
      2c: 01 00        	<unknown>
      2e: 04 9c        	<unknown>
      30: 02 c4        	<unknown>
      32: 02 04        	<unknown>
      34: d0 02        	<unknown>
      36: 9c 03        	<unknown>
      38: 04 a8        	<unknown>
      3a: 03 88 04 00  	lb	a6, 0(s1)
      3e: 04 d0        	<unknown>
      40: 02 88        	<unknown>
      42: 03 04 a8 03  	lb	s0, 58(a6)
      46: f4 03        	<unknown>
      48: 00 04        	<unknown>
      4a: b8 04        	<unknown>
      4c: f8 04        	<unknown>
      4e: 04 8c        	<unknown>
      50: 05 a8        	<unknown>
      52: 05 04        	<unknown>
      54: ac 05        	<unknown>
      56: b8 05        	<unknown>
      58: 00 04        	<unknown>
      5a: bc 05        	<unknown>
      5c: a0 06        	<unknown>
      5e: 04 a4        	<unknown>
      60: 06 d4        	<unknown>
      62: 06 04        	<unknown>
      64: d8 06        	<unknown>
      66: e4 06        	<unknown>
      68: 00 04        	<unknown>
      6a: e0 05        	<unknown>
      6c: a0 06        	<unknown>
      6e: 04 b4        	<unknown>
      70: 06 d4        	<unknown>
      72: 06 04        	<unknown>
      74: d8 06        	<unknown>
      76: e4 06        	<unknown>
      78: 00 99        	<unknown>
      7a: 00 00        	<unknown>
      7c: 00 05        	<unknown>
      7e: 00 04        	<unknown>
      80: 00 09        	<unknown>
      82: 00 00        	<unknown>
      84: 00 24        	<unknown>
      86: 00 00        	<unknown>
      88: 00 2f        	<unknown>
      8a: 00 00        	<unknown>
      8c: 00 44        	<unknown>
      8e: 00 00        	<unknown>
      90: 00 4f        	<unknown>
      92: 00 00        	<unknown>
      94: 00 5a        	<unknown>
      96: 00 00        	<unknown>
      98: 00 65        	<unknown>
      9a: 00 00        	<unknown>
      9c: 00 70        	<unknown>
      9e: 00 00        	<unknown>
      a0: 00 7b        	<unknown>
      a2: 00 00        	<unknown>
      a4: 00 86        	<unknown>
      a6: 00 00        	<unknown>
      a8: 00 04        	<unknown>
      aa: c0 04        	<unknown>
      ac: c8 04        	<unknown>
      ae: 04 d8        	<unknown>
      b0: 04 e0        	<unknown>
      b2: 04 00        	<unknown>
      b4: 04 a8        	<unknown>
      b6: 06 d4        	<unknown>
      b8: 06 04        	<unknown>
      ba: 98 07        	<unknown>
      bc: cc 08        	<unknown>
      be: 04 f0        	<unknown>
      c0: 0b b8 0c 04  	<unknown>
      c4: e4 0c        	<unknown>
      c6: 9c 0d        	<unknown>
      c8: 00 04        	<unknown>
      ca: cc 07        	<unknown>
      cc: ec 07        	<unknown>
      ce: 04 f0        	<unknown>
      d0: 0b 90 0c 00  	p.lh	zero, 0(s9!)
      d4: 04 84        	<unknown>
      d6: 08 9c        	<unknown>
      d8: 08 04        	<unknown>
      da: e4 0c        	<unknown>
      dc: f4 0c        	<unknown>
      de: 00 04        	<unknown>
      e0: cc 08        	<unknown>
      e2: 9c 09        	<unknown>
      e4: 04 94        	<unknown>
      e6: 0b e4 0b 00  	<unknown>
      ea: 04 d0        	<unknown>
      ec: 09 8c        	<unknown>
      ee: 0b 04 a4 0d  	p.lb	s0, 218(s0!)
      f2: bc 0e        	<unknown>
      f4: 00 04        	<unknown>
      f6: d8 09        	<unknown>
      f8: e4 09        	<unknown>
      fa: 04 f0        	<unknown>
      fc: 09 9c        	<unknown>
      fe: 0a 00        	<unknown>
     100: 04 98        	<unknown>
     102: 13 a8 13 04  	slti	a6, t2, 65
     106: c0 13        	<unknown>
     108: dc 13        	<unknown>
     10a: 00 04        	<unknown>
     10c: e4 13        	<unknown>
     10e: a8 15        	<unknown>
     110: 04 b0        	<unknown>
     112: 15 e4        	<unknown>
     114: 18 00        	<unknown>

Disassembly of section .debug_aranges:

00000000 <.debug_aranges>:
       0: 1c 00        	<unknown>
       2: 00 00        	<unknown>
       4: 02 00        	<unknown>
       6: 80 05        	<unknown>
       8: 00 00        	<unknown>
       a: 04 00        	<unknown>
       c: 00 00        	<unknown>
       e: 00 00        	<unknown>
      10: 00 00        	<unknown>
      12: 00 80        	<unknown>
      14: 08 01        	<unknown>
		...
      1e: 00 00        	<unknown>

Disassembly of section .symtab:

00000000 <.symtab>:
		...
      1c: 03 00 01 00  	lb	zero, 0(sp)
      20: 00 00        	<unknown>
      22: 00 00        	<unknown>
      24: 00 00        	<unknown>
      26: 02 00        	<unknown>
      28: 00 00        	<unknown>
      2a: 00 00        	<unknown>
      2c: 03 00 02 00  	lb	zero, 0(tp)
      30: 00 00        	<unknown>
      32: 00 00        	<unknown>
      34: 00 00        	<unknown>
      36: 00 80        	<unknown>
      38: 00 00        	<unknown>
      3a: 00 00        	<unknown>
      3c: 03 00 03 00  	lb	zero, 0(t1)
      40: 00 00        	<unknown>
      42: 00 00        	<unknown>
      44: 00 15        	<unknown>
      46: 00 80        	<unknown>
      48: 00 00        	<unknown>
      4a: 00 00        	<unknown>
      4c: 03 00 04 00  	lb	zero, 0(s0)
      50: 00 00        	<unknown>
      52: 00 00        	<unknown>
      54: 70 17        	<unknown>
      56: 00 80        	<unknown>
      58: 00 00        	<unknown>
      5a: 00 00        	<unknown>
      5c: 03 00 05 00  	lb	zero, 0(a0)
      60: 00 00        	<unknown>
      62: 00 00        	<unknown>
      64: 00 20        	<unknown>
      66: 00 80        	<unknown>
      68: 00 00        	<unknown>
      6a: 00 00        	<unknown>
      6c: 03 00 06 00  	lb	zero, 0(a2)
      70: 00 00        	<unknown>
      72: 00 00        	<unknown>
      74: 00 20        	<unknown>
      76: 00 80        	<unknown>
      78: 00 00        	<unknown>
      7a: 00 00        	<unknown>
      7c: 03 00 07 00  	lb	zero, 0(a4)
      80: 00 00        	<unknown>
      82: 00 00        	<unknown>
      84: 04 20        	<unknown>
      86: 00 80        	<unknown>
      88: 00 00        	<unknown>
      8a: 00 00        	<unknown>
      8c: 03 00 08 00  	lb	zero, 0(a6)
      90: 00 00        	<unknown>
      92: 00 00        	<unknown>
      94: 10 20        	<unknown>
      96: 00 80        	<unknown>
      98: 00 00        	<unknown>
      9a: 00 00        	<unknown>
      9c: 03 00 09 00  	lb	zero, 0(s2)
		...
      ac: 03 00 0a 00  	lb	zero, 0(s4)
		...
      bc: 03 00 0b 00  	lb	zero, 0(s6)
		...
      cc: 03 00 0c 00  	lb	zero, 0(s8)
		...
      dc: 03 00 0d 00  	lb	zero, 0(s10)
		...
      ec: 03 00 0e 00  	lb	zero, 0(t3)
		...
      fc: 03 00 0f 00  	lb	zero, 0(t5)
		...
     10c: 03 00 10 00  	lb	zero, 1(zero)
		...
     11c: 03 00 11 00  	lb	zero, 1(sp)
		...
     12c: 03 00 12 00  	lb	zero, 1(tp)
		...
     13c: 03 00 13 00  	lb	zero, 1(t1)
		...
     14c: 03 00 14 00  	lb	zero, 1(s0)
		...
     15c: 03 00 15 00  	lb	zero, 1(a0)
     160: 01 00        	<unknown>
		...
     16a: 00 00        	<unknown>
     16c: 04 00        	<unknown>
     16e: f1 ff        	<unknown>
     170: 00 00        	<unknown>
     172: 00 00        	<unknown>
     174: 00 00        	<unknown>
     176: 00 80        	<unknown>
     178: 00 00        	<unknown>
     17a: 00 00        	<unknown>
     17c: 00 00        	<unknown>
     17e: 03 00 00 00  	lb	zero, 0(zero)
     182: 00 00        	<unknown>
     184: 00 00        	<unknown>
     186: 00 80        	<unknown>
     188: 00 00        	<unknown>
     18a: 00 00        	<unknown>
     18c: 00 00        	<unknown>
     18e: 03 00 6b 00  	lb	zero, 6(s6)
     192: 00 00        	<unknown>
     194: 0c 00        	<unknown>
     196: 00 80        	<unknown>
     198: 00 00        	<unknown>
     19a: 00 00        	<unknown>
     19c: 00 00        	<unknown>
     19e: 03 00 00 00  	lb	zero, 0(zero)
     1a2: 00 00        	<unknown>
     1a4: 0c 00        	<unknown>
     1a6: 00 80        	<unknown>
     1a8: 00 00        	<unknown>
     1aa: 00 00        	<unknown>
     1ac: 00 00        	<unknown>
     1ae: 03 00 79 00  	lb	zero, 7(s2)
     1b2: 00 00        	<unknown>
     1b4: e4 00        	<unknown>
     1b6: 00 80        	<unknown>
     1b8: 00 00        	<unknown>
     1ba: 00 00        	<unknown>
     1bc: 00 00        	<unknown>
     1be: 03 00 00 00  	lb	zero, 0(zero)
     1c2: 00 00        	<unknown>
     1c4: e4 00        	<unknown>
     1c6: 00 80        	<unknown>
     1c8: 00 00        	<unknown>
     1ca: 00 00        	<unknown>
     1cc: 00 00        	<unknown>
     1ce: 03 00 00 00  	lb	zero, 0(zero)
     1d2: 00 00        	<unknown>
     1d4: e8 00        	<unknown>
     1d6: 00 80        	<unknown>
     1d8: 00 00        	<unknown>
     1da: 00 00        	<unknown>
     1dc: 00 00        	<unknown>
     1de: 03 00 00 00  	lb	zero, 0(zero)
     1e2: 00 00        	<unknown>
     1e4: 80 05        	<unknown>
		...
     1ee: 0d 00        	<unknown>
     1f0: 00 00        	<unknown>
     1f2: 00 00        	<unknown>
     1f4: d7 02 00 00  	pv.add.h	t0, zero, zero
     1f8: 00 00        	<unknown>
     1fa: 00 00        	<unknown>
     1fc: 00 00        	<unknown>
     1fe: 0c 00        	<unknown>
     200: 00 00        	<unknown>
     202: 00 00        	<unknown>
     204: 08 01        	<unknown>
     206: 00 80        	<unknown>
     208: 00 00        	<unknown>
     20a: 00 00        	<unknown>
     20c: 00 00        	<unknown>
     20e: 03 00 84 00  	lb	zero, 8(s0)
		...
     21a: 00 00        	<unknown>
     21c: 04 00        	<unknown>
     21e: f1 ff        	<unknown>
     220: 00 00        	<unknown>
     222: 00 00        	<unknown>
     224: 08 01        	<unknown>
     226: 00 80        	<unknown>
     228: 00 00        	<unknown>
     22a: 00 00        	<unknown>
     22c: 00 00        	<unknown>
     22e: 03 00 00 00  	lb	zero, 0(zero)
     232: 00 00        	<unknown>
     234: 08 01        	<unknown>
     236: 00 80        	<unknown>
     238: 00 00        	<unknown>
     23a: 00 00        	<unknown>
     23c: 00 00        	<unknown>
     23e: 03 00 00 00  	lb	zero, 0(zero)
     242: 00 00        	<unknown>
     244: 08 01        	<unknown>
     246: 00 80        	<unknown>
     248: 00 00        	<unknown>
     24a: 00 00        	<unknown>
     24c: 00 00        	<unknown>
     24e: 03 00 00 00  	lb	zero, 0(zero)
     252: 00 00        	<unknown>
     254: 0c 01        	<unknown>
     256: 00 80        	<unknown>
     258: 00 00        	<unknown>
     25a: 00 00        	<unknown>
     25c: 00 00        	<unknown>
     25e: 03 00 00 00  	lb	zero, 0(zero)
     262: 00 00        	<unknown>
     264: 0c 01        	<unknown>
     266: 00 80        	<unknown>
     268: 00 00        	<unknown>
     26a: 00 00        	<unknown>
     26c: 00 00        	<unknown>
     26e: 03 00 00 00  	lb	zero, 0(zero)
     272: 00 00        	<unknown>
     274: 0c 01        	<unknown>
     276: 00 80        	<unknown>
     278: 00 00        	<unknown>
     27a: 00 00        	<unknown>
     27c: 00 00        	<unknown>
     27e: 03 00 00 00  	lb	zero, 0(zero)
     282: 00 00        	<unknown>
     284: 18 01        	<unknown>
     286: 00 80        	<unknown>
     288: 00 00        	<unknown>
     28a: 00 00        	<unknown>
     28c: 00 00        	<unknown>
     28e: 03 00 00 00  	lb	zero, 0(zero)
     292: 00 00        	<unknown>
     294: 1c 01        	<unknown>
     296: 00 80        	<unknown>
     298: 00 00        	<unknown>
     29a: 00 00        	<unknown>
     29c: 00 00        	<unknown>
     29e: 03 00 00 00  	lb	zero, 0(zero)
     2a2: 00 00        	<unknown>
     2a4: 1c 01        	<unknown>
     2a6: 00 80        	<unknown>
     2a8: 00 00        	<unknown>
     2aa: 00 00        	<unknown>
     2ac: 00 00        	<unknown>
     2ae: 03 00 00 00  	lb	zero, 0(zero)
     2b2: 00 00        	<unknown>
     2b4: 28 01        	<unknown>
     2b6: 00 80        	<unknown>
     2b8: 00 00        	<unknown>
     2ba: 00 00        	<unknown>
     2bc: 00 00        	<unknown>
     2be: 03 00 00 00  	lb	zero, 0(zero)
     2c2: 00 00        	<unknown>
     2c4: 28 01        	<unknown>
     2c6: 00 80        	<unknown>
     2c8: 00 00        	<unknown>
     2ca: 00 00        	<unknown>
     2cc: 00 00        	<unknown>
     2ce: 03 00 00 00  	lb	zero, 0(zero)
     2d2: 00 00        	<unknown>
     2d4: 2c 01        	<unknown>
     2d6: 00 80        	<unknown>
     2d8: 00 00        	<unknown>
     2da: 00 00        	<unknown>
     2dc: 00 00        	<unknown>
     2de: 03 00 00 00  	lb	zero, 0(zero)
     2e2: 00 00        	<unknown>
     2e4: 30 01        	<unknown>
     2e6: 00 80        	<unknown>
     2e8: 00 00        	<unknown>
     2ea: 00 00        	<unknown>
     2ec: 00 00        	<unknown>
     2ee: 03 00 00 00  	lb	zero, 0(zero)
     2f2: 00 00        	<unknown>
     2f4: 3c 01        	<unknown>
     2f6: 00 80        	<unknown>
     2f8: 00 00        	<unknown>
     2fa: 00 00        	<unknown>
     2fc: 00 00        	<unknown>
     2fe: 03 00 00 00  	lb	zero, 0(zero)
     302: 00 00        	<unknown>
     304: 40 01        	<unknown>
     306: 00 80        	<unknown>
     308: 00 00        	<unknown>
     30a: 00 00        	<unknown>
     30c: 00 00        	<unknown>
     30e: 03 00 00 00  	lb	zero, 0(zero)
     312: 00 00        	<unknown>
     314: 4c 01        	<unknown>
     316: 00 80        	<unknown>
     318: 00 00        	<unknown>
     31a: 00 00        	<unknown>
     31c: 00 00        	<unknown>
     31e: 03 00 00 00  	lb	zero, 0(zero)
     322: 00 00        	<unknown>
     324: 4c 01        	<unknown>
     326: 00 80        	<unknown>
     328: 00 00        	<unknown>
     32a: 00 00        	<unknown>
     32c: 00 00        	<unknown>
     32e: 03 00 00 00  	lb	zero, 0(zero)
     332: 00 00        	<unknown>
     334: 54 01        	<unknown>
     336: 00 80        	<unknown>
     338: 00 00        	<unknown>
     33a: 00 00        	<unknown>
     33c: 00 00        	<unknown>
     33e: 03 00 00 00  	lb	zero, 0(zero)
     342: 00 00        	<unknown>
     344: 58 01        	<unknown>
     346: 00 80        	<unknown>
     348: 00 00        	<unknown>
     34a: 00 00        	<unknown>
     34c: 00 00        	<unknown>
     34e: 03 00 00 00  	lb	zero, 0(zero)
     352: 00 00        	<unknown>
     354: 64 01        	<unknown>
     356: 00 80        	<unknown>
     358: 00 00        	<unknown>
     35a: 00 00        	<unknown>
     35c: 00 00        	<unknown>
     35e: 03 00 00 00  	lb	zero, 0(zero)
     362: 00 00        	<unknown>
     364: 64 01        	<unknown>
     366: 00 80        	<unknown>
     368: 00 00        	<unknown>
     36a: 00 00        	<unknown>
     36c: 00 00        	<unknown>
     36e: 03 00 00 00  	lb	zero, 0(zero)
     372: 00 00        	<unknown>
     374: 7c 01        	<unknown>
     376: 00 80        	<unknown>
     378: 00 00        	<unknown>
     37a: 00 00        	<unknown>
     37c: 00 00        	<unknown>
     37e: 03 00 00 00  	lb	zero, 0(zero)
     382: 00 00        	<unknown>
     384: 7c 01        	<unknown>
     386: 00 80        	<unknown>
     388: 00 00        	<unknown>
     38a: 00 00        	<unknown>
     38c: 00 00        	<unknown>
     38e: 03 00 00 00  	lb	zero, 0(zero)
     392: 00 00        	<unknown>
     394: 0c 00        	<unknown>
		...
     39e: 0b 00 00 00  	p.lb	zero, 0(zero!)
     3a2: 00 00        	<unknown>
     3a4: 08 00        	<unknown>
		...
     3ae: 0e 00        	<unknown>
     3b0: 00 00        	<unknown>
     3b2: 00 00        	<unknown>
     3b4: 08 00        	<unknown>
		...
     3be: 10 00        	<unknown>
		...
     3cc: 00 00        	<unknown>
     3ce: 0f 00 00 00  	fence	unknown, unknown
     3d2: 00 00        	<unknown>
     3d4: 71 00        	<unknown>
		...
     3de: 0f 00 00 00  	fence	unknown, unknown
     3e2: 00 00        	<unknown>
     3e4: 8b 00 00 00  	p.lb	ra, 0(zero!)
     3e8: 00 00        	<unknown>
     3ea: 00 00        	<unknown>
     3ec: 00 00        	<unknown>
     3ee: 0f 00 00 00  	fence	unknown, unknown
     3f2: 00 00        	<unknown>
     3f4: f3 00 00 00  	<unknown>
     3f8: 00 00        	<unknown>
     3fa: 00 00        	<unknown>
     3fc: 00 00        	<unknown>
     3fe: 0f 00 00 00  	fence	unknown, unknown
     402: 00 00        	<unknown>
     404: fa 00        	<unknown>
		...
     40e: 0f 00 00 00  	fence	unknown, unknown
     412: 00 00        	<unknown>
     414: 07 01 00 00  	flb	ft2, 0(zero)
     418: 00 00        	<unknown>
     41a: 00 00        	<unknown>
     41c: 00 00        	<unknown>
     41e: 0f 00 00 00  	fence	unknown, unknown
     422: 00 00        	<unknown>
     424: 09 01        	<unknown>
		...
     42e: 0f 00 00 00  	fence	unknown, unknown
     432: 00 00        	<unknown>
     434: 12 01        	<unknown>
		...
     43e: 0f 00 00 00  	fence	unknown, unknown
     442: 00 00        	<unknown>
     444: 26 01        	<unknown>
		...
     44e: 0f 00 00 00  	fence	unknown, unknown
     452: 00 00        	<unknown>
     454: 3a 01        	<unknown>
		...
     45e: 0f 00 00 00  	fence	unknown, unknown
     462: 00 00        	<unknown>
     464: a4 02        	<unknown>
		...
     46e: 0f 00 00 00  	fence	unknown, unknown
     472: 00 00        	<unknown>
     474: 47 01 00 00  	fmsub.s	sp, zero, zero, zero, rne
     478: 00 00        	<unknown>
     47a: 00 00        	<unknown>
     47c: 00 00        	<unknown>
     47e: 0f 00 00 00  	fence	unknown, unknown
     482: 00 00        	<unknown>
     484: 5c 01        	<unknown>
		...
     48e: 0f 00 00 00  	fence	unknown, unknown
     492: 00 00        	<unknown>
     494: 6c 01        	<unknown>
		...
     49e: 0f 00 00 00  	fence	unknown, unknown
     4a2: 00 00        	<unknown>
     4a4: 03 01 00 00  	lb	sp, 0(zero)
     4a8: 00 00        	<unknown>
     4aa: 00 00        	<unknown>
     4ac: 00 00        	<unknown>
     4ae: 0f 00 00 00  	fence	unknown, unknown
     4b2: 00 00        	<unknown>
     4b4: 71 01        	<unknown>
		...
     4be: 0f 00 00 00  	fence	unknown, unknown
     4c2: 00 00        	<unknown>
     4c4: 32 01        	<unknown>
		...
     4ce: 0f 00 00 00  	fence	unknown, unknown
     4d2: 00 00        	<unknown>
     4d4: 7b 01 00 00  	<unknown>
     4d8: 00 00        	<unknown>
     4da: 00 00        	<unknown>
     4dc: 00 00        	<unknown>
     4de: 0f 00 00 00  	fence	unknown, unknown
     4e2: 00 00        	<unknown>
     4e4: 81 01        	<unknown>
		...
     4ee: 0f 00 00 00  	fence	unknown, unknown
     4f2: 00 00        	<unknown>
     4f4: 83 01 00 00  	lb	gp, 0(zero)
     4f8: 00 00        	<unknown>
     4fa: 00 00        	<unknown>
     4fc: 00 00        	<unknown>
     4fe: 0f 00 00 00  	fence	unknown, unknown
     502: 00 00        	<unknown>
     504: 0d 07        	<unknown>
		...
     50e: 0f 00 00 00  	fence	unknown, unknown
		...
     51e: 11 00        	<unknown>
     520: 8b 00 00 00  	p.lb	ra, 0(zero!)
		...
     52c: 04 00        	<unknown>
     52e: f1 ff        	<unknown>
     530: 00 00        	<unknown>
     532: 00 00        	<unknown>
     534: 7c 01        	<unknown>
     536: 00 80        	<unknown>
     538: 00 00        	<unknown>
     53a: 00 00        	<unknown>
     53c: 00 00        	<unknown>
     53e: 03 00 00 00  	lb	zero, 0(zero)
     542: 00 00        	<unknown>
     544: 7c 01        	<unknown>
     546: 00 80        	<unknown>
     548: 00 00        	<unknown>
     54a: 00 00        	<unknown>
     54c: 00 00        	<unknown>
     54e: 03 00 00 00  	lb	zero, 0(zero)
     552: 00 00        	<unknown>
     554: 7c 01        	<unknown>
     556: 00 80        	<unknown>
     558: 00 00        	<unknown>
     55a: 00 00        	<unknown>
     55c: 00 00        	<unknown>
     55e: 03 00 00 00  	lb	zero, 0(zero)
     562: 00 00        	<unknown>
     564: 7c 01        	<unknown>
     566: 00 80        	<unknown>
     568: 00 00        	<unknown>
     56a: 00 00        	<unknown>
     56c: 00 00        	<unknown>
     56e: 03 00 00 00  	lb	zero, 0(zero)
     572: 00 00        	<unknown>
     574: 84 01        	<unknown>
     576: 00 80        	<unknown>
     578: 00 00        	<unknown>
     57a: 00 00        	<unknown>
     57c: 00 00        	<unknown>
     57e: 03 00 00 00  	lb	zero, 0(zero)
     582: 00 00        	<unknown>
     584: 88 01        	<unknown>
     586: 00 80        	<unknown>
     588: 00 00        	<unknown>
     58a: 00 00        	<unknown>
     58c: 00 00        	<unknown>
     58e: 03 00 00 00  	lb	zero, 0(zero)
     592: 00 00        	<unknown>
     594: 8c 01        	<unknown>
     596: 00 80        	<unknown>
     598: 00 00        	<unknown>
     59a: 00 00        	<unknown>
     59c: 00 00        	<unknown>
     59e: 03 00 00 00  	lb	zero, 0(zero)
     5a2: 00 00        	<unknown>
     5a4: 90 01        	<unknown>
     5a6: 00 80        	<unknown>
     5a8: 00 00        	<unknown>
     5aa: 00 00        	<unknown>
     5ac: 00 00        	<unknown>
     5ae: 03 00 00 00  	lb	zero, 0(zero)
     5b2: 00 00        	<unknown>
     5b4: 94 01        	<unknown>
     5b6: 00 80        	<unknown>
     5b8: 00 00        	<unknown>
     5ba: 00 00        	<unknown>
     5bc: 00 00        	<unknown>
     5be: 03 00 00 00  	lb	zero, 0(zero)
     5c2: 00 00        	<unknown>
     5c4: 98 01        	<unknown>
     5c6: 00 80        	<unknown>
     5c8: 00 00        	<unknown>
     5ca: 00 00        	<unknown>
     5cc: 00 00        	<unknown>
     5ce: 03 00 00 00  	lb	zero, 0(zero)
     5d2: 00 00        	<unknown>
     5d4: 9c 01        	<unknown>
     5d6: 00 80        	<unknown>
     5d8: 00 00        	<unknown>
     5da: 00 00        	<unknown>
     5dc: 00 00        	<unknown>
     5de: 03 00 00 00  	lb	zero, 0(zero)
     5e2: 00 00        	<unknown>
     5e4: a0 01        	<unknown>
     5e6: 00 80        	<unknown>
     5e8: 00 00        	<unknown>
     5ea: 00 00        	<unknown>
     5ec: 00 00        	<unknown>
     5ee: 03 00 00 00  	lb	zero, 0(zero)
     5f2: 00 00        	<unknown>
     5f4: a4 01        	<unknown>
     5f6: 00 80        	<unknown>
     5f8: 00 00        	<unknown>
     5fa: 00 00        	<unknown>
     5fc: 00 00        	<unknown>
     5fe: 03 00 00 00  	lb	zero, 0(zero)
     602: 00 00        	<unknown>
     604: a4 01        	<unknown>
     606: 00 80        	<unknown>
     608: 00 00        	<unknown>
     60a: 00 00        	<unknown>
     60c: 00 00        	<unknown>
     60e: 03 00 00 00  	lb	zero, 0(zero)
     612: 00 00        	<unknown>
     614: a4 01        	<unknown>
     616: 00 80        	<unknown>
     618: 00 00        	<unknown>
     61a: 00 00        	<unknown>
     61c: 00 00        	<unknown>
     61e: 03 00 00 00  	lb	zero, 0(zero)
     622: 00 00        	<unknown>
     624: a4 01        	<unknown>
     626: 00 80        	<unknown>
     628: 00 00        	<unknown>
     62a: 00 00        	<unknown>
     62c: 00 00        	<unknown>
     62e: 03 00 00 00  	lb	zero, 0(zero)
     632: 00 00        	<unknown>
     634: a4 01        	<unknown>
     636: 00 80        	<unknown>
     638: 00 00        	<unknown>
     63a: 00 00        	<unknown>
     63c: 00 00        	<unknown>
     63e: 03 00 00 00  	lb	zero, 0(zero)
     642: 00 00        	<unknown>
     644: a8 01        	<unknown>
     646: 00 80        	<unknown>
     648: 00 00        	<unknown>
     64a: 00 00        	<unknown>
     64c: 00 00        	<unknown>
     64e: 03 00 00 00  	lb	zero, 0(zero)
     652: 00 00        	<unknown>
     654: a8 01        	<unknown>
     656: 00 80        	<unknown>
     658: 00 00        	<unknown>
     65a: 00 00        	<unknown>
     65c: 00 00        	<unknown>
     65e: 03 00 00 00  	lb	zero, 0(zero)
     662: 00 00        	<unknown>
     664: ac 01        	<unknown>
     666: 00 80        	<unknown>
     668: 00 00        	<unknown>
     66a: 00 00        	<unknown>
     66c: 00 00        	<unknown>
     66e: 03 00 00 00  	lb	zero, 0(zero)
     672: 00 00        	<unknown>
     674: ac 01        	<unknown>
     676: 00 80        	<unknown>
     678: 00 00        	<unknown>
     67a: 00 00        	<unknown>
     67c: 00 00        	<unknown>
     67e: 03 00 00 00  	lb	zero, 0(zero)
     682: 00 00        	<unknown>
     684: b4 01        	<unknown>
     686: 00 80        	<unknown>
     688: 00 00        	<unknown>
     68a: 00 00        	<unknown>
     68c: 00 00        	<unknown>
     68e: 03 00 00 00  	lb	zero, 0(zero)
     692: 00 00        	<unknown>
     694: b8 01        	<unknown>
     696: 00 80        	<unknown>
     698: 00 00        	<unknown>
     69a: 00 00        	<unknown>
     69c: 00 00        	<unknown>
     69e: 03 00 00 00  	lb	zero, 0(zero)
     6a2: 00 00        	<unknown>
     6a4: bc 01        	<unknown>
     6a6: 00 80        	<unknown>
     6a8: 00 00        	<unknown>
     6aa: 00 00        	<unknown>
     6ac: 00 00        	<unknown>
     6ae: 03 00 00 00  	lb	zero, 0(zero)
     6b2: 00 00        	<unknown>
     6b4: cc 01        	<unknown>
     6b6: 00 80        	<unknown>
     6b8: 00 00        	<unknown>
     6ba: 00 00        	<unknown>
     6bc: 00 00        	<unknown>
     6be: 03 00 00 00  	lb	zero, 0(zero)
     6c2: 00 00        	<unknown>
     6c4: cc 01        	<unknown>
     6c6: 00 80        	<unknown>
     6c8: 00 00        	<unknown>
     6ca: 00 00        	<unknown>
     6cc: 00 00        	<unknown>
     6ce: 03 00 00 00  	lb	zero, 0(zero)
     6d2: 00 00        	<unknown>
     6d4: d0 01        	<unknown>
     6d6: 00 80        	<unknown>
     6d8: 00 00        	<unknown>
     6da: 00 00        	<unknown>
     6dc: 00 00        	<unknown>
     6de: 03 00 00 00  	lb	zero, 0(zero)
     6e2: 00 00        	<unknown>
     6e4: dc 01        	<unknown>
     6e6: 00 80        	<unknown>
     6e8: 00 00        	<unknown>
     6ea: 00 00        	<unknown>
     6ec: 00 00        	<unknown>
     6ee: 03 00 00 00  	lb	zero, 0(zero)
     6f2: 00 00        	<unknown>
     6f4: e0 01        	<unknown>
     6f6: 00 80        	<unknown>
     6f8: 00 00        	<unknown>
     6fa: 00 00        	<unknown>
     6fc: 00 00        	<unknown>
     6fe: 03 00 00 00  	lb	zero, 0(zero)
     702: 00 00        	<unknown>
     704: e4 01        	<unknown>
     706: 00 80        	<unknown>
     708: 00 00        	<unknown>
     70a: 00 00        	<unknown>
     70c: 00 00        	<unknown>
     70e: 03 00 00 00  	lb	zero, 0(zero)
     712: 00 00        	<unknown>
     714: e8 01        	<unknown>
     716: 00 80        	<unknown>
     718: 00 00        	<unknown>
     71a: 00 00        	<unknown>
     71c: 00 00        	<unknown>
     71e: 03 00 00 00  	lb	zero, 0(zero)
     722: 00 00        	<unknown>
     724: ec 01        	<unknown>
     726: 00 80        	<unknown>
     728: 00 00        	<unknown>
     72a: 00 00        	<unknown>
     72c: 00 00        	<unknown>
     72e: 03 00 00 00  	lb	zero, 0(zero)
     732: 00 00        	<unknown>
     734: f4 01        	<unknown>
     736: 00 80        	<unknown>
     738: 00 00        	<unknown>
     73a: 00 00        	<unknown>
     73c: 00 00        	<unknown>
     73e: 03 00 00 00  	lb	zero, 0(zero)
     742: 00 00        	<unknown>
     744: f8 01        	<unknown>
     746: 00 80        	<unknown>
     748: 00 00        	<unknown>
     74a: 00 00        	<unknown>
     74c: 00 00        	<unknown>
     74e: 03 00 00 00  	lb	zero, 0(zero)
     752: 00 00        	<unknown>
     754: fc 01        	<unknown>
     756: 00 80        	<unknown>
     758: 00 00        	<unknown>
     75a: 00 00        	<unknown>
     75c: 00 00        	<unknown>
     75e: 03 00 00 00  	lb	zero, 0(zero)
     762: 00 00        	<unknown>
     764: 00 02        	<unknown>
     766: 00 80        	<unknown>
     768: 00 00        	<unknown>
     76a: 00 00        	<unknown>
     76c: 00 00        	<unknown>
     76e: 03 00 00 00  	lb	zero, 0(zero)
     772: 00 00        	<unknown>
     774: 04 02        	<unknown>
     776: 00 80        	<unknown>
     778: 00 00        	<unknown>
     77a: 00 00        	<unknown>
     77c: 00 00        	<unknown>
     77e: 03 00 00 00  	lb	zero, 0(zero)
     782: 00 00        	<unknown>
     784: 08 02        	<unknown>
     786: 00 80        	<unknown>
     788: 00 00        	<unknown>
     78a: 00 00        	<unknown>
     78c: 00 00        	<unknown>
     78e: 03 00 00 00  	lb	zero, 0(zero)
     792: 00 00        	<unknown>
     794: 10 02        	<unknown>
     796: 00 80        	<unknown>
     798: 00 00        	<unknown>
     79a: 00 00        	<unknown>
     79c: 00 00        	<unknown>
     79e: 03 00 00 00  	lb	zero, 0(zero)
     7a2: 00 00        	<unknown>
     7a4: 20 02        	<unknown>
     7a6: 00 80        	<unknown>
     7a8: 00 00        	<unknown>
     7aa: 00 00        	<unknown>
     7ac: 00 00        	<unknown>
     7ae: 03 00 00 00  	lb	zero, 0(zero)
     7b2: 00 00        	<unknown>
     7b4: 20 02        	<unknown>
     7b6: 00 80        	<unknown>
     7b8: 00 00        	<unknown>
     7ba: 00 00        	<unknown>
     7bc: 00 00        	<unknown>
     7be: 03 00 00 00  	lb	zero, 0(zero)
     7c2: 00 00        	<unknown>
     7c4: 24 02        	<unknown>
     7c6: 00 80        	<unknown>
     7c8: 00 00        	<unknown>
     7ca: 00 00        	<unknown>
     7cc: 00 00        	<unknown>
     7ce: 03 00 00 00  	lb	zero, 0(zero)
     7d2: 00 00        	<unknown>
     7d4: 30 02        	<unknown>
     7d6: 00 80        	<unknown>
     7d8: 00 00        	<unknown>
     7da: 00 00        	<unknown>
     7dc: 00 00        	<unknown>
     7de: 03 00 00 00  	lb	zero, 0(zero)
     7e2: 00 00        	<unknown>
     7e4: 34 02        	<unknown>
     7e6: 00 80        	<unknown>
     7e8: 00 00        	<unknown>
     7ea: 00 00        	<unknown>
     7ec: 00 00        	<unknown>
     7ee: 03 00 00 00  	lb	zero, 0(zero)
     7f2: 00 00        	<unknown>
     7f4: 38 02        	<unknown>
     7f6: 00 80        	<unknown>
     7f8: 00 00        	<unknown>
     7fa: 00 00        	<unknown>
     7fc: 00 00        	<unknown>
     7fe: 03 00 00 00  	lb	zero, 0(zero)
     802: 00 00        	<unknown>
     804: 40 02        	<unknown>
     806: 00 80        	<unknown>
     808: 00 00        	<unknown>
     80a: 00 00        	<unknown>
     80c: 00 00        	<unknown>
     80e: 03 00 00 00  	lb	zero, 0(zero)
     812: 00 00        	<unknown>
     814: 40 02        	<unknown>
     816: 00 80        	<unknown>
     818: 00 00        	<unknown>
     81a: 00 00        	<unknown>
     81c: 00 00        	<unknown>
     81e: 03 00 00 00  	lb	zero, 0(zero)
     822: 00 00        	<unknown>
     824: 44 02        	<unknown>
     826: 00 80        	<unknown>
     828: 00 00        	<unknown>
     82a: 00 00        	<unknown>
     82c: 00 00        	<unknown>
     82e: 03 00 00 00  	lb	zero, 0(zero)
     832: 00 00        	<unknown>
     834: 48 02        	<unknown>
     836: 00 80        	<unknown>
     838: 00 00        	<unknown>
     83a: 00 00        	<unknown>
     83c: 00 00        	<unknown>
     83e: 03 00 00 00  	lb	zero, 0(zero)
     842: 00 00        	<unknown>
     844: 4c 02        	<unknown>
     846: 00 80        	<unknown>
     848: 00 00        	<unknown>
     84a: 00 00        	<unknown>
     84c: 00 00        	<unknown>
     84e: 03 00 00 00  	lb	zero, 0(zero)
     852: 00 00        	<unknown>
     854: 50 02        	<unknown>
     856: 00 80        	<unknown>
     858: 00 00        	<unknown>
     85a: 00 00        	<unknown>
     85c: 00 00        	<unknown>
     85e: 03 00 00 00  	lb	zero, 0(zero)
     862: 00 00        	<unknown>
     864: 54 02        	<unknown>
     866: 00 80        	<unknown>
     868: 00 00        	<unknown>
     86a: 00 00        	<unknown>
     86c: 00 00        	<unknown>
     86e: 03 00 00 00  	lb	zero, 0(zero)
     872: 00 00        	<unknown>
     874: 5c 02        	<unknown>
     876: 00 80        	<unknown>
     878: 00 00        	<unknown>
     87a: 00 00        	<unknown>
     87c: 00 00        	<unknown>
     87e: 03 00 00 00  	lb	zero, 0(zero)
     882: 00 00        	<unknown>
     884: 60 02        	<unknown>
     886: 00 80        	<unknown>
     888: 00 00        	<unknown>
     88a: 00 00        	<unknown>
     88c: 00 00        	<unknown>
     88e: 03 00 00 00  	lb	zero, 0(zero)
     892: 00 00        	<unknown>
     894: 64 02        	<unknown>
     896: 00 80        	<unknown>
     898: 00 00        	<unknown>
     89a: 00 00        	<unknown>
     89c: 00 00        	<unknown>
     89e: 03 00 00 00  	lb	zero, 0(zero)
     8a2: 00 00        	<unknown>
     8a4: 68 02        	<unknown>
     8a6: 00 80        	<unknown>
     8a8: 00 00        	<unknown>
     8aa: 00 00        	<unknown>
     8ac: 00 00        	<unknown>
     8ae: 03 00 00 00  	lb	zero, 0(zero)
     8b2: 00 00        	<unknown>
     8b4: 6c 02        	<unknown>
     8b6: 00 80        	<unknown>
     8b8: 00 00        	<unknown>
     8ba: 00 00        	<unknown>
     8bc: 00 00        	<unknown>
     8be: 03 00 00 00  	lb	zero, 0(zero)
     8c2: 00 00        	<unknown>
     8c4: 70 02        	<unknown>
     8c6: 00 80        	<unknown>
     8c8: 00 00        	<unknown>
     8ca: 00 00        	<unknown>
     8cc: 00 00        	<unknown>
     8ce: 03 00 00 00  	lb	zero, 0(zero)
     8d2: 00 00        	<unknown>
     8d4: 74 02        	<unknown>
     8d6: 00 80        	<unknown>
     8d8: 00 00        	<unknown>
     8da: 00 00        	<unknown>
     8dc: 00 00        	<unknown>
     8de: 03 00 00 00  	lb	zero, 0(zero)
     8e2: 00 00        	<unknown>
     8e4: 74 02        	<unknown>
     8e6: 00 80        	<unknown>
     8e8: 00 00        	<unknown>
     8ea: 00 00        	<unknown>
     8ec: 00 00        	<unknown>
     8ee: 03 00 00 00  	lb	zero, 0(zero)
     8f2: 00 00        	<unknown>
     8f4: 78 02        	<unknown>
     8f6: 00 80        	<unknown>
     8f8: 00 00        	<unknown>
     8fa: 00 00        	<unknown>
     8fc: 00 00        	<unknown>
     8fe: 03 00 00 00  	lb	zero, 0(zero)
     902: 00 00        	<unknown>
     904: 7c 02        	<unknown>
     906: 00 80        	<unknown>
     908: 00 00        	<unknown>
     90a: 00 00        	<unknown>
     90c: 00 00        	<unknown>
     90e: 03 00 00 00  	lb	zero, 0(zero)
     912: 00 00        	<unknown>
     914: 80 02        	<unknown>
     916: 00 80        	<unknown>
     918: 00 00        	<unknown>
     91a: 00 00        	<unknown>
     91c: 00 00        	<unknown>
     91e: 03 00 00 00  	lb	zero, 0(zero)
     922: 00 00        	<unknown>
     924: 80 02        	<unknown>
     926: 00 80        	<unknown>
     928: 00 00        	<unknown>
     92a: 00 00        	<unknown>
     92c: 00 00        	<unknown>
     92e: 03 00 00 00  	lb	zero, 0(zero)
     932: 00 00        	<unknown>
     934: 84 02        	<unknown>
     936: 00 80        	<unknown>
     938: 00 00        	<unknown>
     93a: 00 00        	<unknown>
     93c: 00 00        	<unknown>
     93e: 03 00 00 00  	lb	zero, 0(zero)
     942: 00 00        	<unknown>
     944: 88 02        	<unknown>
     946: 00 80        	<unknown>
     948: 00 00        	<unknown>
     94a: 00 00        	<unknown>
     94c: 00 00        	<unknown>
     94e: 03 00 00 00  	lb	zero, 0(zero)
     952: 00 00        	<unknown>
     954: 94 02        	<unknown>
     956: 00 80        	<unknown>
     958: 00 00        	<unknown>
     95a: 00 00        	<unknown>
     95c: 00 00        	<unknown>
     95e: 03 00 00 00  	lb	zero, 0(zero)
     962: 00 00        	<unknown>
     964: 94 02        	<unknown>
     966: 00 80        	<unknown>
     968: 00 00        	<unknown>
     96a: 00 00        	<unknown>
     96c: 00 00        	<unknown>
     96e: 03 00 00 00  	lb	zero, 0(zero)
     972: 00 00        	<unknown>
     974: 94 02        	<unknown>
     976: 00 80        	<unknown>
     978: 00 00        	<unknown>
     97a: 00 00        	<unknown>
     97c: 00 00        	<unknown>
     97e: 03 00 00 00  	lb	zero, 0(zero)
     982: 00 00        	<unknown>
     984: 94 02        	<unknown>
     986: 00 80        	<unknown>
     988: 00 00        	<unknown>
     98a: 00 00        	<unknown>
     98c: 00 00        	<unknown>
     98e: 03 00 00 00  	lb	zero, 0(zero)
     992: 00 00        	<unknown>
     994: 94 02        	<unknown>
     996: 00 80        	<unknown>
     998: 00 00        	<unknown>
     99a: 00 00        	<unknown>
     99c: 00 00        	<unknown>
     99e: 03 00 00 00  	lb	zero, 0(zero)
     9a2: 00 00        	<unknown>
     9a4: 98 02        	<unknown>
     9a6: 00 80        	<unknown>
     9a8: 00 00        	<unknown>
     9aa: 00 00        	<unknown>
     9ac: 00 00        	<unknown>
     9ae: 03 00 00 00  	lb	zero, 0(zero)
     9b2: 00 00        	<unknown>
     9b4: 98 02        	<unknown>
     9b6: 00 80        	<unknown>
     9b8: 00 00        	<unknown>
     9ba: 00 00        	<unknown>
     9bc: 00 00        	<unknown>
     9be: 03 00 00 00  	lb	zero, 0(zero)
     9c2: 00 00        	<unknown>
     9c4: 9c 02        	<unknown>
     9c6: 00 80        	<unknown>
     9c8: 00 00        	<unknown>
     9ca: 00 00        	<unknown>
     9cc: 00 00        	<unknown>
     9ce: 03 00 00 00  	lb	zero, 0(zero)
     9d2: 00 00        	<unknown>
     9d4: 9c 02        	<unknown>
     9d6: 00 80        	<unknown>
     9d8: 00 00        	<unknown>
     9da: 00 00        	<unknown>
     9dc: 00 00        	<unknown>
     9de: 03 00 00 00  	lb	zero, 0(zero)
     9e2: 00 00        	<unknown>
     9e4: a4 02        	<unknown>
     9e6: 00 80        	<unknown>
     9e8: 00 00        	<unknown>
     9ea: 00 00        	<unknown>
     9ec: 00 00        	<unknown>
     9ee: 03 00 00 00  	lb	zero, 0(zero)
     9f2: 00 00        	<unknown>
     9f4: a8 02        	<unknown>
     9f6: 00 80        	<unknown>
     9f8: 00 00        	<unknown>
     9fa: 00 00        	<unknown>
     9fc: 00 00        	<unknown>
     9fe: 03 00 00 00  	lb	zero, 0(zero)
     a02: 00 00        	<unknown>
     a04: ac 02        	<unknown>
     a06: 00 80        	<unknown>
     a08: 00 00        	<unknown>
     a0a: 00 00        	<unknown>
     a0c: 00 00        	<unknown>
     a0e: 03 00 00 00  	lb	zero, 0(zero)
     a12: 00 00        	<unknown>
     a14: bc 02        	<unknown>
     a16: 00 80        	<unknown>
     a18: 00 00        	<unknown>
     a1a: 00 00        	<unknown>
     a1c: 00 00        	<unknown>
     a1e: 03 00 00 00  	lb	zero, 0(zero)
     a22: 00 00        	<unknown>
     a24: bc 02        	<unknown>
     a26: 00 80        	<unknown>
     a28: 00 00        	<unknown>
     a2a: 00 00        	<unknown>
     a2c: 00 00        	<unknown>
     a2e: 03 00 00 00  	lb	zero, 0(zero)
     a32: 00 00        	<unknown>
     a34: c0 02        	<unknown>
     a36: 00 80        	<unknown>
     a38: 00 00        	<unknown>
     a3a: 00 00        	<unknown>
     a3c: 00 00        	<unknown>
     a3e: 03 00 00 00  	lb	zero, 0(zero)
     a42: 00 00        	<unknown>
     a44: cc 02        	<unknown>
     a46: 00 80        	<unknown>
     a48: 00 00        	<unknown>
     a4a: 00 00        	<unknown>
     a4c: 00 00        	<unknown>
     a4e: 03 00 00 00  	lb	zero, 0(zero)
     a52: 00 00        	<unknown>
     a54: d4 02        	<unknown>
     a56: 00 80        	<unknown>
     a58: 00 00        	<unknown>
     a5a: 00 00        	<unknown>
     a5c: 00 00        	<unknown>
     a5e: 03 00 00 00  	lb	zero, 0(zero)
     a62: 00 00        	<unknown>
     a64: d8 02        	<unknown>
     a66: 00 80        	<unknown>
     a68: 00 00        	<unknown>
     a6a: 00 00        	<unknown>
     a6c: 00 00        	<unknown>
     a6e: 03 00 00 00  	lb	zero, 0(zero)
     a72: 00 00        	<unknown>
     a74: dc 02        	<unknown>
     a76: 00 80        	<unknown>
     a78: 00 00        	<unknown>
     a7a: 00 00        	<unknown>
     a7c: 00 00        	<unknown>
     a7e: 03 00 00 00  	lb	zero, 0(zero)
     a82: 00 00        	<unknown>
     a84: e0 02        	<unknown>
     a86: 00 80        	<unknown>
     a88: 00 00        	<unknown>
     a8a: 00 00        	<unknown>
     a8c: 00 00        	<unknown>
     a8e: 03 00 00 00  	lb	zero, 0(zero)
     a92: 00 00        	<unknown>
     a94: e8 02        	<unknown>
     a96: 00 80        	<unknown>
     a98: 00 00        	<unknown>
     a9a: 00 00        	<unknown>
     a9c: 00 00        	<unknown>
     a9e: 03 00 00 00  	lb	zero, 0(zero)
     aa2: 00 00        	<unknown>
     aa4: ec 02        	<unknown>
     aa6: 00 80        	<unknown>
     aa8: 00 00        	<unknown>
     aaa: 00 00        	<unknown>
     aac: 00 00        	<unknown>
     aae: 03 00 00 00  	lb	zero, 0(zero)
     ab2: 00 00        	<unknown>
     ab4: f0 02        	<unknown>
     ab6: 00 80        	<unknown>
     ab8: 00 00        	<unknown>
     aba: 00 00        	<unknown>
     abc: 00 00        	<unknown>
     abe: 03 00 00 00  	lb	zero, 0(zero)
     ac2: 00 00        	<unknown>
     ac4: f4 02        	<unknown>
     ac6: 00 80        	<unknown>
     ac8: 00 00        	<unknown>
     aca: 00 00        	<unknown>
     acc: 00 00        	<unknown>
     ace: 03 00 00 00  	lb	zero, 0(zero)
     ad2: 00 00        	<unknown>
     ad4: f8 02        	<unknown>
     ad6: 00 80        	<unknown>
     ad8: 00 00        	<unknown>
     ada: 00 00        	<unknown>
     adc: 00 00        	<unknown>
     ade: 03 00 00 00  	lb	zero, 0(zero)
     ae2: 00 00        	<unknown>
     ae4: fc 02        	<unknown>
     ae6: 00 80        	<unknown>
     ae8: 00 00        	<unknown>
     aea: 00 00        	<unknown>
     aec: 00 00        	<unknown>
     aee: 03 00 00 00  	lb	zero, 0(zero)
     af2: 00 00        	<unknown>
     af4: 04 03        	<unknown>
     af6: 00 80        	<unknown>
     af8: 00 00        	<unknown>
     afa: 00 00        	<unknown>
     afc: 00 00        	<unknown>
     afe: 03 00 00 00  	lb	zero, 0(zero)
     b02: 00 00        	<unknown>
     b04: 14 03        	<unknown>
     b06: 00 80        	<unknown>
     b08: 00 00        	<unknown>
     b0a: 00 00        	<unknown>
     b0c: 00 00        	<unknown>
     b0e: 03 00 00 00  	lb	zero, 0(zero)
     b12: 00 00        	<unknown>
     b14: 14 03        	<unknown>
     b16: 00 80        	<unknown>
     b18: 00 00        	<unknown>
     b1a: 00 00        	<unknown>
     b1c: 00 00        	<unknown>
     b1e: 03 00 00 00  	lb	zero, 0(zero)
     b22: 00 00        	<unknown>
     b24: 18 03        	<unknown>
     b26: 00 80        	<unknown>
     b28: 00 00        	<unknown>
     b2a: 00 00        	<unknown>
     b2c: 00 00        	<unknown>
     b2e: 03 00 00 00  	lb	zero, 0(zero)
     b32: 00 00        	<unknown>
     b34: 24 03        	<unknown>
     b36: 00 80        	<unknown>
     b38: 00 00        	<unknown>
     b3a: 00 00        	<unknown>
     b3c: 00 00        	<unknown>
     b3e: 03 00 00 00  	lb	zero, 0(zero)
     b42: 00 00        	<unknown>
     b44: 28 03        	<unknown>
     b46: 00 80        	<unknown>
     b48: 00 00        	<unknown>
     b4a: 00 00        	<unknown>
     b4c: 00 00        	<unknown>
     b4e: 03 00 00 00  	lb	zero, 0(zero)
     b52: 00 00        	<unknown>
     b54: 2c 03        	<unknown>
     b56: 00 80        	<unknown>
     b58: 00 00        	<unknown>
     b5a: 00 00        	<unknown>
     b5c: 00 00        	<unknown>
     b5e: 03 00 00 00  	lb	zero, 0(zero)
     b62: 00 00        	<unknown>
     b64: 38 03        	<unknown>
     b66: 00 80        	<unknown>
     b68: 00 00        	<unknown>
     b6a: 00 00        	<unknown>
     b6c: 00 00        	<unknown>
     b6e: 03 00 00 00  	lb	zero, 0(zero)
     b72: 00 00        	<unknown>
     b74: 38 03        	<unknown>
     b76: 00 80        	<unknown>
     b78: 00 00        	<unknown>
     b7a: 00 00        	<unknown>
     b7c: 00 00        	<unknown>
     b7e: 03 00 00 00  	lb	zero, 0(zero)
     b82: 00 00        	<unknown>
     b84: 3c 03        	<unknown>
     b86: 00 80        	<unknown>
     b88: 00 00        	<unknown>
     b8a: 00 00        	<unknown>
     b8c: 00 00        	<unknown>
     b8e: 03 00 00 00  	lb	zero, 0(zero)
     b92: 00 00        	<unknown>
     b94: 40 03        	<unknown>
     b96: 00 80        	<unknown>
     b98: 00 00        	<unknown>
     b9a: 00 00        	<unknown>
     b9c: 00 00        	<unknown>
     b9e: 03 00 00 00  	lb	zero, 0(zero)
     ba2: 00 00        	<unknown>
     ba4: 44 03        	<unknown>
     ba6: 00 80        	<unknown>
     ba8: 00 00        	<unknown>
     baa: 00 00        	<unknown>
     bac: 00 00        	<unknown>
     bae: 03 00 00 00  	lb	zero, 0(zero)
     bb2: 00 00        	<unknown>
     bb4: 48 03        	<unknown>
     bb6: 00 80        	<unknown>
     bb8: 00 00        	<unknown>
     bba: 00 00        	<unknown>
     bbc: 00 00        	<unknown>
     bbe: 03 00 00 00  	lb	zero, 0(zero)
     bc2: 00 00        	<unknown>
     bc4: 4c 03        	<unknown>
     bc6: 00 80        	<unknown>
     bc8: 00 00        	<unknown>
     bca: 00 00        	<unknown>
     bcc: 00 00        	<unknown>
     bce: 03 00 00 00  	lb	zero, 0(zero)
     bd2: 00 00        	<unknown>
     bd4: 50 03        	<unknown>
     bd6: 00 80        	<unknown>
     bd8: 00 00        	<unknown>
     bda: 00 00        	<unknown>
     bdc: 00 00        	<unknown>
     bde: 03 00 00 00  	lb	zero, 0(zero)
     be2: 00 00        	<unknown>
     be4: 58 03        	<unknown>
     be6: 00 80        	<unknown>
     be8: 00 00        	<unknown>
     bea: 00 00        	<unknown>
     bec: 00 00        	<unknown>
     bee: 03 00 00 00  	lb	zero, 0(zero)
     bf2: 00 00        	<unknown>
     bf4: 5c 03        	<unknown>
     bf6: 00 80        	<unknown>
     bf8: 00 00        	<unknown>
     bfa: 00 00        	<unknown>
     bfc: 00 00        	<unknown>
     bfe: 03 00 00 00  	lb	zero, 0(zero)
     c02: 00 00        	<unknown>
     c04: 60 03        	<unknown>
     c06: 00 80        	<unknown>
     c08: 00 00        	<unknown>
     c0a: 00 00        	<unknown>
     c0c: 00 00        	<unknown>
     c0e: 03 00 00 00  	lb	zero, 0(zero)
     c12: 00 00        	<unknown>
     c14: 64 03        	<unknown>
     c16: 00 80        	<unknown>
     c18: 00 00        	<unknown>
     c1a: 00 00        	<unknown>
     c1c: 00 00        	<unknown>
     c1e: 03 00 00 00  	lb	zero, 0(zero)
     c22: 00 00        	<unknown>
     c24: 68 03        	<unknown>
     c26: 00 80        	<unknown>
     c28: 00 00        	<unknown>
     c2a: 00 00        	<unknown>
     c2c: 00 00        	<unknown>
     c2e: 03 00 00 00  	lb	zero, 0(zero)
     c32: 00 00        	<unknown>
     c34: 6c 03        	<unknown>
     c36: 00 80        	<unknown>
     c38: 00 00        	<unknown>
     c3a: 00 00        	<unknown>
     c3c: 00 00        	<unknown>
     c3e: 03 00 00 00  	lb	zero, 0(zero)
     c42: 00 00        	<unknown>
     c44: 70 03        	<unknown>
     c46: 00 80        	<unknown>
     c48: 00 00        	<unknown>
     c4a: 00 00        	<unknown>
     c4c: 00 00        	<unknown>
     c4e: 03 00 00 00  	lb	zero, 0(zero)
     c52: 00 00        	<unknown>
     c54: 70 03        	<unknown>
     c56: 00 80        	<unknown>
     c58: 00 00        	<unknown>
     c5a: 00 00        	<unknown>
     c5c: 00 00        	<unknown>
     c5e: 03 00 00 00  	lb	zero, 0(zero)
     c62: 00 00        	<unknown>
     c64: 74 03        	<unknown>
     c66: 00 80        	<unknown>
     c68: 00 00        	<unknown>
     c6a: 00 00        	<unknown>
     c6c: 00 00        	<unknown>
     c6e: 03 00 00 00  	lb	zero, 0(zero)
     c72: 00 00        	<unknown>
     c74: 78 03        	<unknown>
     c76: 00 80        	<unknown>
     c78: 00 00        	<unknown>
     c7a: 00 00        	<unknown>
     c7c: 00 00        	<unknown>
     c7e: 03 00 00 00  	lb	zero, 0(zero)
     c82: 00 00        	<unknown>
     c84: 7c 03        	<unknown>
     c86: 00 80        	<unknown>
     c88: 00 00        	<unknown>
     c8a: 00 00        	<unknown>
     c8c: 00 00        	<unknown>
     c8e: 03 00 00 00  	lb	zero, 0(zero)
     c92: 00 00        	<unknown>
     c94: 7c 03        	<unknown>
     c96: 00 80        	<unknown>
     c98: 00 00        	<unknown>
     c9a: 00 00        	<unknown>
     c9c: 00 00        	<unknown>
     c9e: 03 00 00 00  	lb	zero, 0(zero)
     ca2: 00 00        	<unknown>
     ca4: 80 03        	<unknown>
     ca6: 00 80        	<unknown>
     ca8: 00 00        	<unknown>
     caa: 00 00        	<unknown>
     cac: 00 00        	<unknown>
     cae: 03 00 00 00  	lb	zero, 0(zero)
     cb2: 00 00        	<unknown>
     cb4: 84 03        	<unknown>
     cb6: 00 80        	<unknown>
     cb8: 00 00        	<unknown>
     cba: 00 00        	<unknown>
     cbc: 00 00        	<unknown>
     cbe: 03 00 00 00  	lb	zero, 0(zero)
     cc2: 00 00        	<unknown>
     cc4: 90 03        	<unknown>
     cc6: 00 80        	<unknown>
     cc8: 00 00        	<unknown>
     cca: 00 00        	<unknown>
     ccc: 00 00        	<unknown>
     cce: 03 00 00 00  	lb	zero, 0(zero)
     cd2: 00 00        	<unknown>
     cd4: 90 03        	<unknown>
     cd6: 00 80        	<unknown>
     cd8: 00 00        	<unknown>
     cda: 00 00        	<unknown>
     cdc: 00 00        	<unknown>
     cde: 03 00 00 00  	lb	zero, 0(zero)
     ce2: 00 00        	<unknown>
     ce4: 90 03        	<unknown>
     ce6: 00 80        	<unknown>
     ce8: 00 00        	<unknown>
     cea: 00 00        	<unknown>
     cec: 00 00        	<unknown>
     cee: 03 00 00 00  	lb	zero, 0(zero)
     cf2: 00 00        	<unknown>
     cf4: 90 03        	<unknown>
     cf6: 00 80        	<unknown>
     cf8: 00 00        	<unknown>
     cfa: 00 00        	<unknown>
     cfc: 00 00        	<unknown>
     cfe: 03 00 00 00  	lb	zero, 0(zero)
     d02: 00 00        	<unknown>
     d04: 90 03        	<unknown>
     d06: 00 80        	<unknown>
     d08: 00 00        	<unknown>
     d0a: 00 00        	<unknown>
     d0c: 00 00        	<unknown>
     d0e: 03 00 00 00  	lb	zero, 0(zero)
     d12: 00 00        	<unknown>
     d14: 94 03        	<unknown>
     d16: 00 80        	<unknown>
     d18: 00 00        	<unknown>
     d1a: 00 00        	<unknown>
     d1c: 00 00        	<unknown>
     d1e: 03 00 00 00  	lb	zero, 0(zero)
     d22: 00 00        	<unknown>
     d24: 98 03        	<unknown>
     d26: 00 80        	<unknown>
     d28: 00 00        	<unknown>
     d2a: 00 00        	<unknown>
     d2c: 00 00        	<unknown>
     d2e: 03 00 00 00  	lb	zero, 0(zero)
     d32: 00 00        	<unknown>
     d34: 9c 03        	<unknown>
     d36: 00 80        	<unknown>
     d38: 00 00        	<unknown>
     d3a: 00 00        	<unknown>
     d3c: 00 00        	<unknown>
     d3e: 03 00 00 00  	lb	zero, 0(zero)
     d42: 00 00        	<unknown>
     d44: 9c 03        	<unknown>
     d46: 00 80        	<unknown>
     d48: 00 00        	<unknown>
     d4a: 00 00        	<unknown>
     d4c: 00 00        	<unknown>
     d4e: 03 00 00 00  	lb	zero, 0(zero)
     d52: 00 00        	<unknown>
     d54: a0 03        	<unknown>
     d56: 00 80        	<unknown>
     d58: 00 00        	<unknown>
     d5a: 00 00        	<unknown>
     d5c: 00 00        	<unknown>
     d5e: 03 00 00 00  	lb	zero, 0(zero)
     d62: 00 00        	<unknown>
     d64: a0 03        	<unknown>
     d66: 00 80        	<unknown>
     d68: 00 00        	<unknown>
     d6a: 00 00        	<unknown>
     d6c: 00 00        	<unknown>
     d6e: 03 00 00 00  	lb	zero, 0(zero)
     d72: 00 00        	<unknown>
     d74: a4 03        	<unknown>
     d76: 00 80        	<unknown>
     d78: 00 00        	<unknown>
     d7a: 00 00        	<unknown>
     d7c: 00 00        	<unknown>
     d7e: 03 00 00 00  	lb	zero, 0(zero)
     d82: 00 00        	<unknown>
     d84: a8 03        	<unknown>
     d86: 00 80        	<unknown>
     d88: 00 00        	<unknown>
     d8a: 00 00        	<unknown>
     d8c: 00 00        	<unknown>
     d8e: 03 00 00 00  	lb	zero, 0(zero)
     d92: 00 00        	<unknown>
     d94: bc 03        	<unknown>
     d96: 00 80        	<unknown>
     d98: 00 00        	<unknown>
     d9a: 00 00        	<unknown>
     d9c: 00 00        	<unknown>
     d9e: 03 00 00 00  	lb	zero, 0(zero)
     da2: 00 00        	<unknown>
     da4: c0 03        	<unknown>
     da6: 00 80        	<unknown>
     da8: 00 00        	<unknown>
     daa: 00 00        	<unknown>
     dac: 00 00        	<unknown>
     dae: 03 00 00 00  	lb	zero, 0(zero)
     db2: 00 00        	<unknown>
     db4: c8 03        	<unknown>
     db6: 00 80        	<unknown>
     db8: 00 00        	<unknown>
     dba: 00 00        	<unknown>
     dbc: 00 00        	<unknown>
     dbe: 03 00 00 00  	lb	zero, 0(zero)
     dc2: 00 00        	<unknown>
     dc4: cc 03        	<unknown>
     dc6: 00 80        	<unknown>
     dc8: 00 00        	<unknown>
     dca: 00 00        	<unknown>
     dcc: 00 00        	<unknown>
     dce: 03 00 00 00  	lb	zero, 0(zero)
     dd2: 00 00        	<unknown>
     dd4: d0 03        	<unknown>
     dd6: 00 80        	<unknown>
     dd8: 00 00        	<unknown>
     dda: 00 00        	<unknown>
     ddc: 00 00        	<unknown>
     dde: 03 00 00 00  	lb	zero, 0(zero)
     de2: 00 00        	<unknown>
     de4: d4 03        	<unknown>
     de6: 00 80        	<unknown>
     de8: 00 00        	<unknown>
     dea: 00 00        	<unknown>
     dec: 00 00        	<unknown>
     dee: 03 00 00 00  	lb	zero, 0(zero)
     df2: 00 00        	<unknown>
     df4: d8 03        	<unknown>
     df6: 00 80        	<unknown>
     df8: 00 00        	<unknown>
     dfa: 00 00        	<unknown>
     dfc: 00 00        	<unknown>
     dfe: 03 00 00 00  	lb	zero, 0(zero)
     e02: 00 00        	<unknown>
     e04: dc 03        	<unknown>
     e06: 00 80        	<unknown>
     e08: 00 00        	<unknown>
     e0a: 00 00        	<unknown>
     e0c: 00 00        	<unknown>
     e0e: 03 00 00 00  	lb	zero, 0(zero)
     e12: 00 00        	<unknown>
     e14: e0 03        	<unknown>
     e16: 00 80        	<unknown>
     e18: 00 00        	<unknown>
     e1a: 00 00        	<unknown>
     e1c: 00 00        	<unknown>
     e1e: 03 00 00 00  	lb	zero, 0(zero)
     e22: 00 00        	<unknown>
     e24: e4 03        	<unknown>
     e26: 00 80        	<unknown>
     e28: 00 00        	<unknown>
     e2a: 00 00        	<unknown>
     e2c: 00 00        	<unknown>
     e2e: 03 00 00 00  	lb	zero, 0(zero)
     e32: 00 00        	<unknown>
     e34: e8 03        	<unknown>
     e36: 00 80        	<unknown>
     e38: 00 00        	<unknown>
     e3a: 00 00        	<unknown>
     e3c: 00 00        	<unknown>
     e3e: 03 00 00 00  	lb	zero, 0(zero)
     e42: 00 00        	<unknown>
     e44: ec 03        	<unknown>
     e46: 00 80        	<unknown>
     e48: 00 00        	<unknown>
     e4a: 00 00        	<unknown>
     e4c: 00 00        	<unknown>
     e4e: 03 00 00 00  	lb	zero, 0(zero)
     e52: 00 00        	<unknown>
     e54: f0 03        	<unknown>
     e56: 00 80        	<unknown>
     e58: 00 00        	<unknown>
     e5a: 00 00        	<unknown>
     e5c: 00 00        	<unknown>
     e5e: 03 00 00 00  	lb	zero, 0(zero)
     e62: 00 00        	<unknown>
     e64: f4 03        	<unknown>
     e66: 00 80        	<unknown>
     e68: 00 00        	<unknown>
     e6a: 00 00        	<unknown>
     e6c: 00 00        	<unknown>
     e6e: 03 00 00 00  	lb	zero, 0(zero)
     e72: 00 00        	<unknown>
     e74: f8 03        	<unknown>
     e76: 00 80        	<unknown>
     e78: 00 00        	<unknown>
     e7a: 00 00        	<unknown>
     e7c: 00 00        	<unknown>
     e7e: 03 00 00 00  	lb	zero, 0(zero)
     e82: 00 00        	<unknown>
     e84: 00 04        	<unknown>
     e86: 00 80        	<unknown>
     e88: 00 00        	<unknown>
     e8a: 00 00        	<unknown>
     e8c: 00 00        	<unknown>
     e8e: 03 00 00 00  	lb	zero, 0(zero)
     e92: 00 00        	<unknown>
     e94: 08 04        	<unknown>
     e96: 00 80        	<unknown>
     e98: 00 00        	<unknown>
     e9a: 00 00        	<unknown>
     e9c: 00 00        	<unknown>
     e9e: 03 00 00 00  	lb	zero, 0(zero)
     ea2: 00 00        	<unknown>
     ea4: 0c 04        	<unknown>
     ea6: 00 80        	<unknown>
     ea8: 00 00        	<unknown>
     eaa: 00 00        	<unknown>
     eac: 00 00        	<unknown>
     eae: 03 00 00 00  	lb	zero, 0(zero)
     eb2: 00 00        	<unknown>
     eb4: 10 04        	<unknown>
     eb6: 00 80        	<unknown>
     eb8: 00 00        	<unknown>
     eba: 00 00        	<unknown>
     ebc: 00 00        	<unknown>
     ebe: 03 00 00 00  	lb	zero, 0(zero)
     ec2: 00 00        	<unknown>
     ec4: 14 04        	<unknown>
     ec6: 00 80        	<unknown>
     ec8: 00 00        	<unknown>
     eca: 00 00        	<unknown>
     ecc: 00 00        	<unknown>
     ece: 03 00 00 00  	lb	zero, 0(zero)
     ed2: 00 00        	<unknown>
     ed4: 18 04        	<unknown>
     ed6: 00 80        	<unknown>
     ed8: 00 00        	<unknown>
     eda: 00 00        	<unknown>
     edc: 00 00        	<unknown>
     ede: 03 00 00 00  	lb	zero, 0(zero)
     ee2: 00 00        	<unknown>
     ee4: 1c 04        	<unknown>
     ee6: 00 80        	<unknown>
     ee8: 00 00        	<unknown>
     eea: 00 00        	<unknown>
     eec: 00 00        	<unknown>
     eee: 03 00 00 00  	lb	zero, 0(zero)
     ef2: 00 00        	<unknown>
     ef4: 20 04        	<unknown>
     ef6: 00 80        	<unknown>
     ef8: 00 00        	<unknown>
     efa: 00 00        	<unknown>
     efc: 00 00        	<unknown>
     efe: 03 00 00 00  	lb	zero, 0(zero)
     f02: 00 00        	<unknown>
     f04: 24 04        	<unknown>
     f06: 00 80        	<unknown>
     f08: 00 00        	<unknown>
     f0a: 00 00        	<unknown>
     f0c: 00 00        	<unknown>
     f0e: 03 00 00 00  	lb	zero, 0(zero)
     f12: 00 00        	<unknown>
     f14: 28 04        	<unknown>
     f16: 00 80        	<unknown>
     f18: 00 00        	<unknown>
     f1a: 00 00        	<unknown>
     f1c: 00 00        	<unknown>
     f1e: 03 00 00 00  	lb	zero, 0(zero)
     f22: 00 00        	<unknown>
     f24: 30 04        	<unknown>
     f26: 00 80        	<unknown>
     f28: 00 00        	<unknown>
     f2a: 00 00        	<unknown>
     f2c: 00 00        	<unknown>
     f2e: 03 00 00 00  	lb	zero, 0(zero)
     f32: 00 00        	<unknown>
     f34: 34 04        	<unknown>
     f36: 00 80        	<unknown>
     f38: 00 00        	<unknown>
     f3a: 00 00        	<unknown>
     f3c: 00 00        	<unknown>
     f3e: 03 00 00 00  	lb	zero, 0(zero)
     f42: 00 00        	<unknown>
     f44: 38 04        	<unknown>
     f46: 00 80        	<unknown>
     f48: 00 00        	<unknown>
     f4a: 00 00        	<unknown>
     f4c: 00 00        	<unknown>
     f4e: 03 00 00 00  	lb	zero, 0(zero)
     f52: 00 00        	<unknown>
     f54: 38 04        	<unknown>
     f56: 00 80        	<unknown>
     f58: 00 00        	<unknown>
     f5a: 00 00        	<unknown>
     f5c: 00 00        	<unknown>
     f5e: 03 00 00 00  	lb	zero, 0(zero)
     f62: 00 00        	<unknown>
     f64: 38 04        	<unknown>
     f66: 00 80        	<unknown>
     f68: 00 00        	<unknown>
     f6a: 00 00        	<unknown>
     f6c: 00 00        	<unknown>
     f6e: 03 00 00 00  	lb	zero, 0(zero)
     f72: 00 00        	<unknown>
     f74: 38 04        	<unknown>
     f76: 00 80        	<unknown>
     f78: 00 00        	<unknown>
     f7a: 00 00        	<unknown>
     f7c: 00 00        	<unknown>
     f7e: 03 00 00 00  	lb	zero, 0(zero)
     f82: 00 00        	<unknown>
     f84: 38 04        	<unknown>
     f86: 00 80        	<unknown>
     f88: 00 00        	<unknown>
     f8a: 00 00        	<unknown>
     f8c: 00 00        	<unknown>
     f8e: 03 00 00 00  	lb	zero, 0(zero)
     f92: 00 00        	<unknown>
     f94: 38 04        	<unknown>
     f96: 00 80        	<unknown>
     f98: 00 00        	<unknown>
     f9a: 00 00        	<unknown>
     f9c: 00 00        	<unknown>
     f9e: 03 00 00 00  	lb	zero, 0(zero)
     fa2: 00 00        	<unknown>
     fa4: 3c 04        	<unknown>
     fa6: 00 80        	<unknown>
     fa8: 00 00        	<unknown>
     faa: 00 00        	<unknown>
     fac: 00 00        	<unknown>
     fae: 03 00 00 00  	lb	zero, 0(zero)
     fb2: 00 00        	<unknown>
     fb4: 40 04        	<unknown>
     fb6: 00 80        	<unknown>
     fb8: 00 00        	<unknown>
     fba: 00 00        	<unknown>
     fbc: 00 00        	<unknown>
     fbe: 03 00 00 00  	lb	zero, 0(zero)
     fc2: 00 00        	<unknown>
     fc4: 40 04        	<unknown>
     fc6: 00 80        	<unknown>
     fc8: 00 00        	<unknown>
     fca: 00 00        	<unknown>
     fcc: 00 00        	<unknown>
     fce: 03 00 00 00  	lb	zero, 0(zero)
     fd2: 00 00        	<unknown>
     fd4: 44 04        	<unknown>
     fd6: 00 80        	<unknown>
     fd8: 00 00        	<unknown>
     fda: 00 00        	<unknown>
     fdc: 00 00        	<unknown>
     fde: 03 00 00 00  	lb	zero, 0(zero)
     fe2: 00 00        	<unknown>
     fe4: 44 04        	<unknown>
     fe6: 00 80        	<unknown>
     fe8: 00 00        	<unknown>
     fea: 00 00        	<unknown>
     fec: 00 00        	<unknown>
     fee: 03 00 00 00  	lb	zero, 0(zero)
     ff2: 00 00        	<unknown>
     ff4: 48 04        	<unknown>
     ff6: 00 80        	<unknown>
     ff8: 00 00        	<unknown>
     ffa: 00 00        	<unknown>
     ffc: 00 00        	<unknown>
     ffe: 03 00 00 00  	lb	zero, 0(zero)
    1002: 00 00        	<unknown>
    1004: 4c 04        	<unknown>
    1006: 00 80        	<unknown>
    1008: 00 00        	<unknown>
    100a: 00 00        	<unknown>
    100c: 00 00        	<unknown>
    100e: 03 00 00 00  	lb	zero, 0(zero)
    1012: 00 00        	<unknown>
    1014: 64 04        	<unknown>
    1016: 00 80        	<unknown>
    1018: 00 00        	<unknown>
    101a: 00 00        	<unknown>
    101c: 00 00        	<unknown>
    101e: 03 00 00 00  	lb	zero, 0(zero)
    1022: 00 00        	<unknown>
    1024: 68 04        	<unknown>
    1026: 00 80        	<unknown>
    1028: 00 00        	<unknown>
    102a: 00 00        	<unknown>
    102c: 00 00        	<unknown>
    102e: 03 00 00 00  	lb	zero, 0(zero)
    1032: 00 00        	<unknown>
    1034: 70 04        	<unknown>
    1036: 00 80        	<unknown>
    1038: 00 00        	<unknown>
    103a: 00 00        	<unknown>
    103c: 00 00        	<unknown>
    103e: 03 00 00 00  	lb	zero, 0(zero)
    1042: 00 00        	<unknown>
    1044: 74 04        	<unknown>
    1046: 00 80        	<unknown>
    1048: 00 00        	<unknown>
    104a: 00 00        	<unknown>
    104c: 00 00        	<unknown>
    104e: 03 00 00 00  	lb	zero, 0(zero)
    1052: 00 00        	<unknown>
    1054: 78 04        	<unknown>
    1056: 00 80        	<unknown>
    1058: 00 00        	<unknown>
    105a: 00 00        	<unknown>
    105c: 00 00        	<unknown>
    105e: 03 00 00 00  	lb	zero, 0(zero)
    1062: 00 00        	<unknown>
    1064: 7c 04        	<unknown>
    1066: 00 80        	<unknown>
    1068: 00 00        	<unknown>
    106a: 00 00        	<unknown>
    106c: 00 00        	<unknown>
    106e: 03 00 00 00  	lb	zero, 0(zero)
    1072: 00 00        	<unknown>
    1074: 80 04        	<unknown>
    1076: 00 80        	<unknown>
    1078: 00 00        	<unknown>
    107a: 00 00        	<unknown>
    107c: 00 00        	<unknown>
    107e: 03 00 00 00  	lb	zero, 0(zero)
    1082: 00 00        	<unknown>
    1084: 84 04        	<unknown>
    1086: 00 80        	<unknown>
    1088: 00 00        	<unknown>
    108a: 00 00        	<unknown>
    108c: 00 00        	<unknown>
    108e: 03 00 00 00  	lb	zero, 0(zero)
    1092: 00 00        	<unknown>
    1094: 88 04        	<unknown>
    1096: 00 80        	<unknown>
    1098: 00 00        	<unknown>
    109a: 00 00        	<unknown>
    109c: 00 00        	<unknown>
    109e: 03 00 00 00  	lb	zero, 0(zero)
    10a2: 00 00        	<unknown>
    10a4: 8c 04        	<unknown>
    10a6: 00 80        	<unknown>
    10a8: 00 00        	<unknown>
    10aa: 00 00        	<unknown>
    10ac: 00 00        	<unknown>
    10ae: 03 00 00 00  	lb	zero, 0(zero)
    10b2: 00 00        	<unknown>
    10b4: 90 04        	<unknown>
    10b6: 00 80        	<unknown>
    10b8: 00 00        	<unknown>
    10ba: 00 00        	<unknown>
    10bc: 00 00        	<unknown>
    10be: 03 00 00 00  	lb	zero, 0(zero)
    10c2: 00 00        	<unknown>
    10c4: 94 04        	<unknown>
    10c6: 00 80        	<unknown>
    10c8: 00 00        	<unknown>
    10ca: 00 00        	<unknown>
    10cc: 00 00        	<unknown>
    10ce: 03 00 00 00  	lb	zero, 0(zero)
    10d2: 00 00        	<unknown>
    10d4: 98 04        	<unknown>
    10d6: 00 80        	<unknown>
    10d8: 00 00        	<unknown>
    10da: 00 00        	<unknown>
    10dc: 00 00        	<unknown>
    10de: 03 00 00 00  	lb	zero, 0(zero)
    10e2: 00 00        	<unknown>
    10e4: 9c 04        	<unknown>
    10e6: 00 80        	<unknown>
    10e8: 00 00        	<unknown>
    10ea: 00 00        	<unknown>
    10ec: 00 00        	<unknown>
    10ee: 03 00 00 00  	lb	zero, 0(zero)
    10f2: 00 00        	<unknown>
    10f4: a0 04        	<unknown>
    10f6: 00 80        	<unknown>
    10f8: 00 00        	<unknown>
    10fa: 00 00        	<unknown>
    10fc: 00 00        	<unknown>
    10fe: 03 00 00 00  	lb	zero, 0(zero)
    1102: 00 00        	<unknown>
    1104: a8 04        	<unknown>
    1106: 00 80        	<unknown>
    1108: 00 00        	<unknown>
    110a: 00 00        	<unknown>
    110c: 00 00        	<unknown>
    110e: 03 00 00 00  	lb	zero, 0(zero)
    1112: 00 00        	<unknown>
    1114: b0 04        	<unknown>
    1116: 00 80        	<unknown>
    1118: 00 00        	<unknown>
    111a: 00 00        	<unknown>
    111c: 00 00        	<unknown>
    111e: 03 00 00 00  	lb	zero, 0(zero)
    1122: 00 00        	<unknown>
    1124: b4 04        	<unknown>
    1126: 00 80        	<unknown>
    1128: 00 00        	<unknown>
    112a: 00 00        	<unknown>
    112c: 00 00        	<unknown>
    112e: 03 00 00 00  	lb	zero, 0(zero)
    1132: 00 00        	<unknown>
    1134: b8 04        	<unknown>
    1136: 00 80        	<unknown>
    1138: 00 00        	<unknown>
    113a: 00 00        	<unknown>
    113c: 00 00        	<unknown>
    113e: 03 00 00 00  	lb	zero, 0(zero)
    1142: 00 00        	<unknown>
    1144: bc 04        	<unknown>
    1146: 00 80        	<unknown>
    1148: 00 00        	<unknown>
    114a: 00 00        	<unknown>
    114c: 00 00        	<unknown>
    114e: 03 00 00 00  	lb	zero, 0(zero)
    1152: 00 00        	<unknown>
    1154: c0 04        	<unknown>
    1156: 00 80        	<unknown>
    1158: 00 00        	<unknown>
    115a: 00 00        	<unknown>
    115c: 00 00        	<unknown>
    115e: 03 00 00 00  	lb	zero, 0(zero)
    1162: 00 00        	<unknown>
    1164: c4 04        	<unknown>
    1166: 00 80        	<unknown>
    1168: 00 00        	<unknown>
    116a: 00 00        	<unknown>
    116c: 00 00        	<unknown>
    116e: 03 00 00 00  	lb	zero, 0(zero)
    1172: 00 00        	<unknown>
    1174: c8 04        	<unknown>
    1176: 00 80        	<unknown>
    1178: 00 00        	<unknown>
    117a: 00 00        	<unknown>
    117c: 00 00        	<unknown>
    117e: 03 00 00 00  	lb	zero, 0(zero)
    1182: 00 00        	<unknown>
    1184: d0 04        	<unknown>
    1186: 00 80        	<unknown>
    1188: 00 00        	<unknown>
    118a: 00 00        	<unknown>
    118c: 00 00        	<unknown>
    118e: 03 00 00 00  	lb	zero, 0(zero)
    1192: 00 00        	<unknown>
    1194: d4 04        	<unknown>
    1196: 00 80        	<unknown>
    1198: 00 00        	<unknown>
    119a: 00 00        	<unknown>
    119c: 00 00        	<unknown>
    119e: 03 00 00 00  	lb	zero, 0(zero)
    11a2: 00 00        	<unknown>
    11a4: dc 04        	<unknown>
    11a6: 00 80        	<unknown>
    11a8: 00 00        	<unknown>
    11aa: 00 00        	<unknown>
    11ac: 00 00        	<unknown>
    11ae: 03 00 00 00  	lb	zero, 0(zero)
    11b2: 00 00        	<unknown>
    11b4: e0 04        	<unknown>
    11b6: 00 80        	<unknown>
    11b8: 00 00        	<unknown>
    11ba: 00 00        	<unknown>
    11bc: 00 00        	<unknown>
    11be: 03 00 00 00  	lb	zero, 0(zero)
    11c2: 00 00        	<unknown>
    11c4: e4 04        	<unknown>
    11c6: 00 80        	<unknown>
    11c8: 00 00        	<unknown>
    11ca: 00 00        	<unknown>
    11cc: 00 00        	<unknown>
    11ce: 03 00 00 00  	lb	zero, 0(zero)
    11d2: 00 00        	<unknown>
    11d4: e4 04        	<unknown>
    11d6: 00 80        	<unknown>
    11d8: 00 00        	<unknown>
    11da: 00 00        	<unknown>
    11dc: 00 00        	<unknown>
    11de: 03 00 00 00  	lb	zero, 0(zero)
    11e2: 00 00        	<unknown>
    11e4: e4 04        	<unknown>
    11e6: 00 80        	<unknown>
    11e8: 00 00        	<unknown>
    11ea: 00 00        	<unknown>
    11ec: 00 00        	<unknown>
    11ee: 03 00 00 00  	lb	zero, 0(zero)
    11f2: 00 00        	<unknown>
    11f4: e4 04        	<unknown>
    11f6: 00 80        	<unknown>
    11f8: 00 00        	<unknown>
    11fa: 00 00        	<unknown>
    11fc: 00 00        	<unknown>
    11fe: 03 00 00 00  	lb	zero, 0(zero)
    1202: 00 00        	<unknown>
    1204: e4 04        	<unknown>
    1206: 00 80        	<unknown>
    1208: 00 00        	<unknown>
    120a: 00 00        	<unknown>
    120c: 00 00        	<unknown>
    120e: 03 00 00 00  	lb	zero, 0(zero)
    1212: 00 00        	<unknown>
    1214: e8 04        	<unknown>
    1216: 00 80        	<unknown>
    1218: 00 00        	<unknown>
    121a: 00 00        	<unknown>
    121c: 00 00        	<unknown>
    121e: 03 00 00 00  	lb	zero, 0(zero)
    1222: 00 00        	<unknown>
    1224: e8 04        	<unknown>
    1226: 00 80        	<unknown>
    1228: 00 00        	<unknown>
    122a: 00 00        	<unknown>
    122c: 00 00        	<unknown>
    122e: 03 00 00 00  	lb	zero, 0(zero)
    1232: 00 00        	<unknown>
    1234: f8 04        	<unknown>
    1236: 00 80        	<unknown>
    1238: 00 00        	<unknown>
    123a: 00 00        	<unknown>
    123c: 00 00        	<unknown>
    123e: 03 00 00 00  	lb	zero, 0(zero)
    1242: 00 00        	<unknown>
    1244: fc 04        	<unknown>
    1246: 00 80        	<unknown>
    1248: 00 00        	<unknown>
    124a: 00 00        	<unknown>
    124c: 00 00        	<unknown>
    124e: 03 00 00 00  	lb	zero, 0(zero)
    1252: 00 00        	<unknown>
    1254: 0c 05        	<unknown>
    1256: 00 80        	<unknown>
    1258: 00 00        	<unknown>
    125a: 00 00        	<unknown>
    125c: 00 00        	<unknown>
    125e: 03 00 00 00  	lb	zero, 0(zero)
    1262: 00 00        	<unknown>
    1264: 0c 05        	<unknown>
    1266: 00 80        	<unknown>
    1268: 00 00        	<unknown>
    126a: 00 00        	<unknown>
    126c: 00 00        	<unknown>
    126e: 03 00 00 00  	lb	zero, 0(zero)
    1272: 00 00        	<unknown>
    1274: 14 05        	<unknown>
    1276: 00 80        	<unknown>
    1278: 00 00        	<unknown>
    127a: 00 00        	<unknown>
    127c: 00 00        	<unknown>
    127e: 03 00 00 00  	lb	zero, 0(zero)
    1282: 00 00        	<unknown>
    1284: 18 05        	<unknown>
    1286: 00 80        	<unknown>
    1288: 00 00        	<unknown>
    128a: 00 00        	<unknown>
    128c: 00 00        	<unknown>
    128e: 03 00 00 00  	lb	zero, 0(zero)
    1292: 00 00        	<unknown>
    1294: 1c 05        	<unknown>
    1296: 00 80        	<unknown>
    1298: 00 00        	<unknown>
    129a: 00 00        	<unknown>
    129c: 00 00        	<unknown>
    129e: 03 00 00 00  	lb	zero, 0(zero)
    12a2: 00 00        	<unknown>
    12a4: 20 05        	<unknown>
    12a6: 00 80        	<unknown>
    12a8: 00 00        	<unknown>
    12aa: 00 00        	<unknown>
    12ac: 00 00        	<unknown>
    12ae: 03 00 00 00  	lb	zero, 0(zero)
    12b2: 00 00        	<unknown>
    12b4: 30 05        	<unknown>
    12b6: 00 80        	<unknown>
    12b8: 00 00        	<unknown>
    12ba: 00 00        	<unknown>
    12bc: 00 00        	<unknown>
    12be: 03 00 00 00  	lb	zero, 0(zero)
    12c2: 00 00        	<unknown>
    12c4: 30 05        	<unknown>
    12c6: 00 80        	<unknown>
    12c8: 00 00        	<unknown>
    12ca: 00 00        	<unknown>
    12cc: 00 00        	<unknown>
    12ce: 03 00 00 00  	lb	zero, 0(zero)
    12d2: 00 00        	<unknown>
    12d4: 34 05        	<unknown>
    12d6: 00 80        	<unknown>
    12d8: 00 00        	<unknown>
    12da: 00 00        	<unknown>
    12dc: 00 00        	<unknown>
    12de: 03 00 00 00  	lb	zero, 0(zero)
    12e2: 00 00        	<unknown>
    12e4: 38 05        	<unknown>
    12e6: 00 80        	<unknown>
    12e8: 00 00        	<unknown>
    12ea: 00 00        	<unknown>
    12ec: 00 00        	<unknown>
    12ee: 03 00 00 00  	lb	zero, 0(zero)
    12f2: 00 00        	<unknown>
    12f4: 54 05        	<unknown>
    12f6: 00 80        	<unknown>
    12f8: 00 00        	<unknown>
    12fa: 00 00        	<unknown>
    12fc: 00 00        	<unknown>
    12fe: 03 00 00 00  	lb	zero, 0(zero)
    1302: 00 00        	<unknown>
    1304: 5c 05        	<unknown>
    1306: 00 80        	<unknown>
    1308: 00 00        	<unknown>
    130a: 00 00        	<unknown>
    130c: 00 00        	<unknown>
    130e: 03 00 00 00  	lb	zero, 0(zero)
    1312: 00 00        	<unknown>
    1314: 74 05        	<unknown>
    1316: 00 80        	<unknown>
    1318: 00 00        	<unknown>
    131a: 00 00        	<unknown>
    131c: 00 00        	<unknown>
    131e: 03 00 00 00  	lb	zero, 0(zero)
    1322: 00 00        	<unknown>
    1324: 74 05        	<unknown>
    1326: 00 80        	<unknown>
    1328: 00 00        	<unknown>
    132a: 00 00        	<unknown>
    132c: 00 00        	<unknown>
    132e: 03 00 00 00  	lb	zero, 0(zero)
    1332: 00 00        	<unknown>
    1334: 74 05        	<unknown>
    1336: 00 80        	<unknown>
    1338: 00 00        	<unknown>
    133a: 00 00        	<unknown>
    133c: 00 00        	<unknown>
    133e: 03 00 00 00  	lb	zero, 0(zero)
    1342: 00 00        	<unknown>
    1344: 74 05        	<unknown>
    1346: 00 80        	<unknown>
    1348: 00 00        	<unknown>
    134a: 00 00        	<unknown>
    134c: 00 00        	<unknown>
    134e: 03 00 00 00  	lb	zero, 0(zero)
    1352: 00 00        	<unknown>
    1354: 74 05        	<unknown>
    1356: 00 80        	<unknown>
    1358: 00 00        	<unknown>
    135a: 00 00        	<unknown>
    135c: 00 00        	<unknown>
    135e: 03 00 00 00  	lb	zero, 0(zero)
    1362: 00 00        	<unknown>
    1364: 74 05        	<unknown>
    1366: 00 80        	<unknown>
    1368: 00 00        	<unknown>
    136a: 00 00        	<unknown>
    136c: 00 00        	<unknown>
    136e: 03 00 00 00  	lb	zero, 0(zero)
    1372: 00 00        	<unknown>
    1374: 80 05        	<unknown>
    1376: 00 80        	<unknown>
    1378: 00 00        	<unknown>
    137a: 00 00        	<unknown>
    137c: 00 00        	<unknown>
    137e: 03 00 00 00  	lb	zero, 0(zero)
    1382: 00 00        	<unknown>
    1384: 80 05        	<unknown>
    1386: 00 80        	<unknown>
    1388: 00 00        	<unknown>
    138a: 00 00        	<unknown>
    138c: 00 00        	<unknown>
    138e: 03 00 00 00  	lb	zero, 0(zero)
    1392: 00 00        	<unknown>
    1394: 80 05        	<unknown>
    1396: 00 80        	<unknown>
    1398: 00 00        	<unknown>
    139a: 00 00        	<unknown>
    139c: 00 00        	<unknown>
    139e: 03 00 00 00  	lb	zero, 0(zero)
    13a2: 00 00        	<unknown>
    13a4: 80 05        	<unknown>
    13a6: 00 80        	<unknown>
    13a8: 00 00        	<unknown>
    13aa: 00 00        	<unknown>
    13ac: 00 00        	<unknown>
    13ae: 03 00 00 00  	lb	zero, 0(zero)
    13b2: 00 00        	<unknown>
    13b4: 80 05        	<unknown>
    13b6: 00 80        	<unknown>
    13b8: 00 00        	<unknown>
    13ba: 00 00        	<unknown>
    13bc: 00 00        	<unknown>
    13be: 03 00 00 00  	lb	zero, 0(zero)
    13c2: 00 00        	<unknown>
    13c4: 80 05        	<unknown>
    13c6: 00 80        	<unknown>
    13c8: 00 00        	<unknown>
    13ca: 00 00        	<unknown>
    13cc: 00 00        	<unknown>
    13ce: 03 00 00 00  	lb	zero, 0(zero)
    13d2: 00 00        	<unknown>
    13d4: 90 05        	<unknown>
    13d6: 00 80        	<unknown>
    13d8: 00 00        	<unknown>
    13da: 00 00        	<unknown>
    13dc: 00 00        	<unknown>
    13de: 03 00 00 00  	lb	zero, 0(zero)
    13e2: 00 00        	<unknown>
    13e4: 94 05        	<unknown>
    13e6: 00 80        	<unknown>
    13e8: 00 00        	<unknown>
    13ea: 00 00        	<unknown>
    13ec: 00 00        	<unknown>
    13ee: 03 00 00 00  	lb	zero, 0(zero)
    13f2: 00 00        	<unknown>
    13f4: 94 05        	<unknown>
    13f6: 00 80        	<unknown>
    13f8: 00 00        	<unknown>
    13fa: 00 00        	<unknown>
    13fc: 00 00        	<unknown>
    13fe: 03 00 00 00  	lb	zero, 0(zero)
    1402: 00 00        	<unknown>
    1404: 3f 00 00 00  	<unknown>
    1408: 00 00        	<unknown>
    140a: 00 00        	<unknown>
    140c: 00 00        	<unknown>
    140e: 0b 00 00 00  	p.lb	zero, 0(zero!)
    1412: 00 00        	<unknown>
    1414: 64 00        	<unknown>
		...
    141e: 0e 00        	<unknown>
    1420: 00 00        	<unknown>
    1422: 00 00        	<unknown>
    1424: 28 00        	<unknown>
		...
    142e: 10 00        	<unknown>
    1430: 00 00        	<unknown>
    1432: 00 00        	<unknown>
    1434: 0c 00        	<unknown>
		...
    143e: 14 00        	<unknown>
		...
    144c: 00 00        	<unknown>
    144e: 0f 00 00 00  	fence	unknown, unknown
    1452: 00 00        	<unknown>
    1454: 8b 01 00 00  	p.lb	gp, 0(zero!)
    1458: 00 00        	<unknown>
    145a: 00 00        	<unknown>
    145c: 00 00        	<unknown>
    145e: 0f 00 00 00  	fence	unknown, unknown
    1462: 00 00        	<unknown>
    1464: 8b 00 00 00  	p.lb	ra, 0(zero!)
    1468: 00 00        	<unknown>
    146a: 00 00        	<unknown>
    146c: 00 00        	<unknown>
    146e: 0f 00 00 00  	fence	unknown, unknown
    1472: 00 00        	<unknown>
    1474: 1e 03        	<unknown>
		...
    147e: 0f 00 00 00  	fence	unknown, unknown
    1482: 00 00        	<unknown>
    1484: f4 01        	<unknown>
		...
    148e: 0f 00 00 00  	fence	unknown, unknown
    1492: 00 00        	<unknown>
    1494: 6e 02        	<unknown>
		...
    149e: 0f 00 00 00  	fence	unknown, unknown
    14a2: 00 00        	<unknown>
    14a4: fa 00        	<unknown>
		...
    14ae: 0f 00 00 00  	fence	unknown, unknown
    14b2: 00 00        	<unknown>
    14b4: 07 01 00 00  	flb	ft2, 0(zero)
    14b8: 00 00        	<unknown>
    14ba: 00 00        	<unknown>
    14bc: 00 00        	<unknown>
    14be: 0f 00 00 00  	fence	unknown, unknown
    14c2: 00 00        	<unknown>
    14c4: 09 01        	<unknown>
		...
    14ce: 0f 00 00 00  	fence	unknown, unknown
    14d2: 00 00        	<unknown>
    14d4: 00 02        	<unknown>
		...
    14de: 0f 00 00 00  	fence	unknown, unknown
    14e2: 00 00        	<unknown>
    14e4: 05 02        	<unknown>
		...
    14ee: 0f 00 00 00  	fence	unknown, unknown
    14f2: 00 00        	<unknown>
    14f4: 13 02 00 00  	li	tp, 0
    14f8: 00 00        	<unknown>
    14fa: 00 00        	<unknown>
    14fc: 00 00        	<unknown>
    14fe: 0f 00 00 00  	fence	unknown, unknown
    1502: 00 00        	<unknown>
    1504: 21 02        	<unknown>
		...
    150e: 0f 00 00 00  	fence	unknown, unknown
    1512: 00 00        	<unknown>
    1514: 2b 03 00 00  	p.sb	zero, 6(zero!)
    1518: 00 00        	<unknown>
    151a: 00 00        	<unknown>
    151c: 00 00        	<unknown>
    151e: 0f 00 00 00  	fence	unknown, unknown
    1522: 00 00        	<unknown>
    1524: 12 01        	<unknown>
		...
    152e: 0f 00 00 00  	fence	unknown, unknown
    1532: 00 00        	<unknown>
    1534: a1 02        	<unknown>
		...
    153e: 0f 00 00 00  	fence	unknown, unknown
    1542: 00 00        	<unknown>
    1544: 29 02        	<unknown>
		...
    154e: 0f 00 00 00  	fence	unknown, unknown
    1552: 00 00        	<unknown>
    1554: fd 02        	<unknown>
		...
    155e: 0f 00 00 00  	fence	unknown, unknown
    1562: 00 00        	<unknown>
    1564: 39 02        	<unknown>
		...
    156e: 0f 00 00 00  	fence	unknown, unknown
    1572: 00 00        	<unknown>
    1574: 3e 02        	<unknown>
		...
    157e: 0f 00 00 00  	fence	unknown, unknown
    1582: 00 00        	<unknown>
    1584: 43 02 00 00  	fmadd.s	tp, zero, zero, zero, rne
    1588: 00 00        	<unknown>
    158a: 00 00        	<unknown>
    158c: 00 00        	<unknown>
    158e: 0f 00 00 00  	fence	unknown, unknown
    1592: 00 00        	<unknown>
    1594: 4d 02        	<unknown>
		...
    159e: 0f 00 00 00  	fence	unknown, unknown
    15a2: 00 00        	<unknown>
    15a4: 8d 02        	<unknown>
		...
    15ae: 0f 00 00 00  	fence	unknown, unknown
    15b2: 00 00        	<unknown>
    15b4: c2 04        	<unknown>
		...
    15be: 0f 00 00 00  	fence	unknown, unknown
    15c2: 00 00        	<unknown>
    15c4: 03 01 00 00  	lb	sp, 0(zero)
    15c8: 00 00        	<unknown>
    15ca: 00 00        	<unknown>
    15cc: 00 00        	<unknown>
    15ce: 0f 00 00 00  	fence	unknown, unknown
    15d2: 00 00        	<unknown>
    15d4: 5b 02 00 00  	<unknown>
    15d8: 00 00        	<unknown>
    15da: 00 00        	<unknown>
    15dc: 00 00        	<unknown>
    15de: 0f 00 00 00  	fence	unknown, unknown
    15e2: 00 00        	<unknown>
    15e4: 69 02        	<unknown>
		...
    15ee: 0f 00 00 00  	fence	unknown, unknown
    15f2: 00 00        	<unknown>
    15f4: 73 02 00 00  	<unknown>
    15f8: 00 00        	<unknown>
    15fa: 00 00        	<unknown>
    15fc: 00 00        	<unknown>
    15fe: 0f 00 00 00  	fence	unknown, unknown
    1602: 00 00        	<unknown>
    1604: 7e 02        	<unknown>
		...
    160e: 0f 00 00 00  	fence	unknown, unknown
    1612: 00 00        	<unknown>
    1614: 88 02        	<unknown>
		...
    161e: 0f 00 00 00  	fence	unknown, unknown
    1622: 00 00        	<unknown>
    1624: 91 02        	<unknown>
		...
    162e: 0f 00 00 00  	fence	unknown, unknown
    1632: 00 00        	<unknown>
    1634: 98 02        	<unknown>
		...
    163e: 0f 00 00 00  	fence	unknown, unknown
    1642: 00 00        	<unknown>
    1644: a6 02        	<unknown>
		...
    164e: 0f 00 00 00  	fence	unknown, unknown
    1652: 00 00        	<unknown>
    1654: a8 02        	<unknown>
		...
    165e: 0f 00 00 00  	fence	unknown, unknown
    1662: 00 00        	<unknown>
    1664: b0 02        	<unknown>
		...
    166e: 0f 00 00 00  	fence	unknown, unknown
    1672: 00 00        	<unknown>
    1674: bc 02        	<unknown>
		...
    167e: 0f 00 00 00  	fence	unknown, unknown
    1682: 00 00        	<unknown>
    1684: c8 02        	<unknown>
		...
    168e: 0f 00 00 00  	fence	unknown, unknown
    1692: 00 00        	<unknown>
    1694: d8 02        	<unknown>
		...
    169e: 0f 00 00 00  	fence	unknown, unknown
    16a2: 00 00        	<unknown>
    16a4: ea 02        	<unknown>
		...
    16ae: 0f 00 00 00  	fence	unknown, unknown
    16b2: 00 00        	<unknown>
    16b4: f5 02        	<unknown>
		...
    16be: 0f 00 00 00  	fence	unknown, unknown
    16c2: 00 00        	<unknown>
    16c4: 03 03 00 00  	lb	t1, 0(zero)
    16c8: 00 00        	<unknown>
    16ca: 00 00        	<unknown>
    16cc: 00 00        	<unknown>
    16ce: 0f 00 00 00  	fence	unknown, unknown
    16d2: 00 00        	<unknown>
    16d4: 0f 03 00 00  	<unknown>
    16d8: 00 00        	<unknown>
    16da: 00 00        	<unknown>
    16dc: 00 00        	<unknown>
    16de: 0f 00 00 00  	fence	unknown, unknown
    16e2: 00 00        	<unknown>
    16e4: 1a 03        	<unknown>
		...
    16ee: 0f 00 00 00  	fence	unknown, unknown
    16f2: 00 00        	<unknown>
    16f4: 27 03 00 00  	fsb	ft0, 6(zero)
    16f8: 00 00        	<unknown>
    16fa: 00 00        	<unknown>
    16fc: 00 00        	<unknown>
    16fe: 0f 00 00 00  	fence	unknown, unknown
    1702: 00 00        	<unknown>
    1704: 3e 03        	<unknown>
		...
    170e: 0f 00 00 00  	fence	unknown, unknown
    1712: 00 00        	<unknown>
    1714: 36 03        	<unknown>
		...
    171e: 0f 00 00 00  	fence	unknown, unknown
    1722: 00 00        	<unknown>
    1724: 43 03 00 00  	fmadd.s	t1, zero, zero, zero, rne
    1728: 00 00        	<unknown>
    172a: 00 00        	<unknown>
    172c: 00 00        	<unknown>
    172e: 0f 00 00 00  	fence	unknown, unknown
    1732: 00 00        	<unknown>
    1734: 30 00        	<unknown>
		...
    173e: 11 00        	<unknown>
    1740: 93 00 00 00  	li	ra, 0
		...
    174c: 04 00        	<unknown>
    174e: f1 ff        	<unknown>
    1750: 00 00        	<unknown>
    1752: 00 00        	<unknown>
    1754: 94 05        	<unknown>
    1756: 00 80        	<unknown>
    1758: 00 00        	<unknown>
    175a: 00 00        	<unknown>
    175c: 00 00        	<unknown>
    175e: 03 00 00 00  	lb	zero, 0(zero)
    1762: 00 00        	<unknown>
    1764: 94 05        	<unknown>
    1766: 00 80        	<unknown>
    1768: 00 00        	<unknown>
    176a: 00 00        	<unknown>
    176c: 00 00        	<unknown>
    176e: 03 00 00 00  	lb	zero, 0(zero)
    1772: 00 00        	<unknown>
    1774: 94 05        	<unknown>
    1776: 00 80        	<unknown>
    1778: 00 00        	<unknown>
    177a: 00 00        	<unknown>
    177c: 00 00        	<unknown>
    177e: 03 00 00 00  	lb	zero, 0(zero)
    1782: 00 00        	<unknown>
    1784: 98 05        	<unknown>
    1786: 00 80        	<unknown>
    1788: 00 00        	<unknown>
    178a: 00 00        	<unknown>
    178c: 00 00        	<unknown>
    178e: 03 00 00 00  	lb	zero, 0(zero)
    1792: 00 00        	<unknown>
    1794: 9c 05        	<unknown>
    1796: 00 80        	<unknown>
    1798: 00 00        	<unknown>
    179a: 00 00        	<unknown>
    179c: 00 00        	<unknown>
    179e: 03 00 00 00  	lb	zero, 0(zero)
    17a2: 00 00        	<unknown>
    17a4: c0 05        	<unknown>
    17a6: 00 80        	<unknown>
    17a8: 00 00        	<unknown>
    17aa: 00 00        	<unknown>
    17ac: 00 00        	<unknown>
    17ae: 03 00 9c 00  	lb	zero, 9(s8)
    17b2: 00 00        	<unknown>
    17b4: 4c 0d        	<unknown>
    17b6: 00 80        	<unknown>
    17b8: 10 00        	<unknown>
    17ba: 00 00        	<unknown>
    17bc: 02 00        	<unknown>
    17be: 03 00 00 00  	lb	zero, 0(zero)
    17c2: 00 00        	<unknown>
    17c4: c4 05        	<unknown>
    17c6: 00 80        	<unknown>
    17c8: 00 00        	<unknown>
    17ca: 00 00        	<unknown>
    17cc: 00 00        	<unknown>
    17ce: 03 00 a6 00  	lb	zero, 10(a2)
    17d2: 00 00        	<unknown>
    17d4: f0 05        	<unknown>
    17d6: 00 80        	<unknown>
    17d8: 5c 07        	<unknown>
    17da: 00 00        	<unknown>
    17dc: 02 00        	<unknown>
    17de: 03 00 00 00  	lb	zero, 0(zero)
    17e2: 00 00        	<unknown>
    17e4: e4 05        	<unknown>
    17e6: 00 80        	<unknown>
    17e8: 00 00        	<unknown>
    17ea: 00 00        	<unknown>
    17ec: 00 00        	<unknown>
    17ee: 03 00 00 00  	lb	zero, 0(zero)
    17f2: 00 00        	<unknown>
    17f4: e4 05        	<unknown>
    17f6: 00 80        	<unknown>
    17f8: 00 00        	<unknown>
    17fa: 00 00        	<unknown>
    17fc: 00 00        	<unknown>
    17fe: 03 00 00 00  	lb	zero, 0(zero)
    1802: 00 00        	<unknown>
    1804: f0 05        	<unknown>
    1806: 00 80        	<unknown>
    1808: 00 00        	<unknown>
    180a: 00 00        	<unknown>
    180c: 00 00        	<unknown>
    180e: 03 00 00 00  	lb	zero, 0(zero)
    1812: 00 00        	<unknown>
    1814: f0 05        	<unknown>
    1816: 00 80        	<unknown>
    1818: 00 00        	<unknown>
    181a: 00 00        	<unknown>
    181c: 00 00        	<unknown>
    181e: 03 00 00 00  	lb	zero, 0(zero)
    1822: 00 00        	<unknown>
    1824: f0 05        	<unknown>
    1826: 00 80        	<unknown>
    1828: 00 00        	<unknown>
    182a: 00 00        	<unknown>
    182c: 00 00        	<unknown>
    182e: 03 00 00 00  	lb	zero, 0(zero)
    1832: 00 00        	<unknown>
    1834: f0 05        	<unknown>
    1836: 00 80        	<unknown>
    1838: 00 00        	<unknown>
    183a: 00 00        	<unknown>
    183c: 00 00        	<unknown>
    183e: 03 00 00 00  	lb	zero, 0(zero)
    1842: 00 00        	<unknown>
    1844: f0 05        	<unknown>
    1846: 00 80        	<unknown>
    1848: 00 00        	<unknown>
    184a: 00 00        	<unknown>
    184c: 00 00        	<unknown>
    184e: 03 00 00 00  	lb	zero, 0(zero)
    1852: 00 00        	<unknown>
    1854: f4 05        	<unknown>
    1856: 00 80        	<unknown>
    1858: 00 00        	<unknown>
    185a: 00 00        	<unknown>
    185c: 00 00        	<unknown>
    185e: 03 00 00 00  	lb	zero, 0(zero)
    1862: 00 00        	<unknown>
    1864: 28 06        	<unknown>
    1866: 00 80        	<unknown>
    1868: 00 00        	<unknown>
    186a: 00 00        	<unknown>
    186c: 00 00        	<unknown>
    186e: 03 00 00 00  	lb	zero, 0(zero)
    1872: 00 00        	<unknown>
    1874: 38 06        	<unknown>
    1876: 00 80        	<unknown>
    1878: 00 00        	<unknown>
    187a: 00 00        	<unknown>
    187c: 00 00        	<unknown>
    187e: 03 00 00 00  	lb	zero, 0(zero)
    1882: 00 00        	<unknown>
    1884: 3c 06        	<unknown>
    1886: 00 80        	<unknown>
    1888: 00 00        	<unknown>
    188a: 00 00        	<unknown>
    188c: 00 00        	<unknown>
    188e: 03 00 b1 00  	lb	zero, 11(sp)
    1892: 00 00        	<unknown>
    1894: a8 0e        	<unknown>
    1896: 00 80        	<unknown>
    1898: 04 00        	<unknown>
    189a: 00 00        	<unknown>
    189c: 02 00        	<unknown>
    189e: 03 00 00 00  	lb	zero, 0(zero)
    18a2: 00 00        	<unknown>
    18a4: 74 06        	<unknown>
    18a6: 00 80        	<unknown>
    18a8: 00 00        	<unknown>
    18aa: 00 00        	<unknown>
    18ac: 00 00        	<unknown>
    18ae: 03 00 00 00  	lb	zero, 0(zero)
    18b2: 00 00        	<unknown>
    18b4: 78 06        	<unknown>
    18b6: 00 80        	<unknown>
    18b8: 00 00        	<unknown>
    18ba: 00 00        	<unknown>
    18bc: 00 00        	<unknown>
    18be: 03 00 00 00  	lb	zero, 0(zero)
    18c2: 00 00        	<unknown>
    18c4: 7c 06        	<unknown>
    18c6: 00 80        	<unknown>
    18c8: 00 00        	<unknown>
    18ca: 00 00        	<unknown>
    18cc: 00 00        	<unknown>
    18ce: 03 00 00 00  	lb	zero, 0(zero)
    18d2: 00 00        	<unknown>
    18d4: 84 06        	<unknown>
    18d6: 00 80        	<unknown>
    18d8: 00 00        	<unknown>
    18da: 00 00        	<unknown>
    18dc: 00 00        	<unknown>
    18de: 03 00 00 00  	lb	zero, 0(zero)
    18e2: 00 00        	<unknown>
    18e4: 88 06        	<unknown>
    18e6: 00 80        	<unknown>
    18e8: 00 00        	<unknown>
    18ea: 00 00        	<unknown>
    18ec: 00 00        	<unknown>
    18ee: 03 00 00 00  	lb	zero, 0(zero)
    18f2: 00 00        	<unknown>
    18f4: 98 06        	<unknown>
    18f6: 00 80        	<unknown>
    18f8: 00 00        	<unknown>
    18fa: 00 00        	<unknown>
    18fc: 00 00        	<unknown>
    18fe: 03 00 00 00  	lb	zero, 0(zero)
    1902: 00 00        	<unknown>
    1904: 98 06        	<unknown>
    1906: 00 80        	<unknown>
    1908: 00 00        	<unknown>
    190a: 00 00        	<unknown>
    190c: 00 00        	<unknown>
    190e: 03 00 00 00  	lb	zero, 0(zero)
    1912: 00 00        	<unknown>
    1914: 9c 06        	<unknown>
    1916: 00 80        	<unknown>
    1918: 00 00        	<unknown>
    191a: 00 00        	<unknown>
    191c: 00 00        	<unknown>
    191e: 03 00 00 00  	lb	zero, 0(zero)
    1922: 00 00        	<unknown>
    1924: a4 06        	<unknown>
    1926: 00 80        	<unknown>
    1928: 00 00        	<unknown>
    192a: 00 00        	<unknown>
    192c: 00 00        	<unknown>
    192e: 03 00 00 00  	lb	zero, 0(zero)
    1932: 00 00        	<unknown>
    1934: a8 06        	<unknown>
    1936: 00 80        	<unknown>
    1938: 00 00        	<unknown>
    193a: 00 00        	<unknown>
    193c: 00 00        	<unknown>
    193e: 03 00 00 00  	lb	zero, 0(zero)
    1942: 00 00        	<unknown>
    1944: b0 06        	<unknown>
    1946: 00 80        	<unknown>
    1948: 00 00        	<unknown>
    194a: 00 00        	<unknown>
    194c: 00 00        	<unknown>
    194e: 03 00 00 00  	lb	zero, 0(zero)
    1952: 00 00        	<unknown>
    1954: c0 06        	<unknown>
    1956: 00 80        	<unknown>
    1958: 00 00        	<unknown>
    195a: 00 00        	<unknown>
    195c: 00 00        	<unknown>
    195e: 03 00 00 00  	lb	zero, 0(zero)
    1962: 00 00        	<unknown>
    1964: c4 06        	<unknown>
    1966: 00 80        	<unknown>
    1968: 00 00        	<unknown>
    196a: 00 00        	<unknown>
    196c: 00 00        	<unknown>
    196e: 03 00 00 00  	lb	zero, 0(zero)
    1972: 00 00        	<unknown>
    1974: c8 06        	<unknown>
    1976: 00 80        	<unknown>
    1978: 00 00        	<unknown>
    197a: 00 00        	<unknown>
    197c: 00 00        	<unknown>
    197e: 03 00 00 00  	lb	zero, 0(zero)
    1982: 00 00        	<unknown>
    1984: d0 06        	<unknown>
    1986: 00 80        	<unknown>
    1988: 00 00        	<unknown>
    198a: 00 00        	<unknown>
    198c: 00 00        	<unknown>
    198e: 03 00 00 00  	lb	zero, 0(zero)
    1992: 00 00        	<unknown>
    1994: fc 06        	<unknown>
    1996: 00 80        	<unknown>
    1998: 00 00        	<unknown>
    199a: 00 00        	<unknown>
    199c: 00 00        	<unknown>
    199e: 03 00 00 00  	lb	zero, 0(zero)
    19a2: 00 00        	<unknown>
    19a4: fc 06        	<unknown>
    19a6: 00 80        	<unknown>
    19a8: 00 00        	<unknown>
    19aa: 00 00        	<unknown>
    19ac: 00 00        	<unknown>
    19ae: 03 00 00 00  	lb	zero, 0(zero)
    19b2: 00 00        	<unknown>
    19b4: 04 07        	<unknown>
    19b6: 00 80        	<unknown>
    19b8: 00 00        	<unknown>
    19ba: 00 00        	<unknown>
    19bc: 00 00        	<unknown>
    19be: 03 00 00 00  	lb	zero, 0(zero)
    19c2: 00 00        	<unknown>
    19c4: 04 07        	<unknown>
    19c6: 00 80        	<unknown>
    19c8: 00 00        	<unknown>
    19ca: 00 00        	<unknown>
    19cc: 00 00        	<unknown>
    19ce: 03 00 00 00  	lb	zero, 0(zero)
    19d2: 00 00        	<unknown>
    19d4: 0c 07        	<unknown>
    19d6: 00 80        	<unknown>
    19d8: 00 00        	<unknown>
    19da: 00 00        	<unknown>
    19dc: 00 00        	<unknown>
    19de: 03 00 00 00  	lb	zero, 0(zero)
    19e2: 00 00        	<unknown>
    19e4: 10 07        	<unknown>
    19e6: 00 80        	<unknown>
    19e8: 00 00        	<unknown>
    19ea: 00 00        	<unknown>
    19ec: 00 00        	<unknown>
    19ee: 03 00 00 00  	lb	zero, 0(zero)
    19f2: 00 00        	<unknown>
    19f4: 10 07        	<unknown>
    19f6: 00 80        	<unknown>
    19f8: 00 00        	<unknown>
    19fa: 00 00        	<unknown>
    19fc: 00 00        	<unknown>
    19fe: 03 00 00 00  	lb	zero, 0(zero)
    1a02: 00 00        	<unknown>
    1a04: 14 07        	<unknown>
    1a06: 00 80        	<unknown>
    1a08: 00 00        	<unknown>
    1a0a: 00 00        	<unknown>
    1a0c: 00 00        	<unknown>
    1a0e: 03 00 00 00  	lb	zero, 0(zero)
    1a12: 00 00        	<unknown>
    1a14: 18 07        	<unknown>
    1a16: 00 80        	<unknown>
    1a18: 00 00        	<unknown>
    1a1a: 00 00        	<unknown>
    1a1c: 00 00        	<unknown>
    1a1e: 03 00 00 00  	lb	zero, 0(zero)
    1a22: 00 00        	<unknown>
    1a24: 1c 07        	<unknown>
    1a26: 00 80        	<unknown>
    1a28: 00 00        	<unknown>
    1a2a: 00 00        	<unknown>
    1a2c: 00 00        	<unknown>
    1a2e: 03 00 00 00  	lb	zero, 0(zero)
    1a32: 00 00        	<unknown>
    1a34: 20 07        	<unknown>
    1a36: 00 80        	<unknown>
    1a38: 00 00        	<unknown>
    1a3a: 00 00        	<unknown>
    1a3c: 00 00        	<unknown>
    1a3e: 03 00 00 00  	lb	zero, 0(zero)
    1a42: 00 00        	<unknown>
    1a44: 24 07        	<unknown>
    1a46: 00 80        	<unknown>
    1a48: 00 00        	<unknown>
    1a4a: 00 00        	<unknown>
    1a4c: 00 00        	<unknown>
    1a4e: 03 00 00 00  	lb	zero, 0(zero)
    1a52: 00 00        	<unknown>
    1a54: 28 07        	<unknown>
    1a56: 00 80        	<unknown>
    1a58: 00 00        	<unknown>
    1a5a: 00 00        	<unknown>
    1a5c: 00 00        	<unknown>
    1a5e: 03 00 00 00  	lb	zero, 0(zero)
    1a62: 00 00        	<unknown>
    1a64: 28 07        	<unknown>
    1a66: 00 80        	<unknown>
    1a68: 00 00        	<unknown>
    1a6a: 00 00        	<unknown>
    1a6c: 00 00        	<unknown>
    1a6e: 03 00 00 00  	lb	zero, 0(zero)
    1a72: 00 00        	<unknown>
    1a74: 30 07        	<unknown>
    1a76: 00 80        	<unknown>
    1a78: 00 00        	<unknown>
    1a7a: 00 00        	<unknown>
    1a7c: 00 00        	<unknown>
    1a7e: 03 00 00 00  	lb	zero, 0(zero)
    1a82: 00 00        	<unknown>
    1a84: 30 07        	<unknown>
    1a86: 00 80        	<unknown>
    1a88: 00 00        	<unknown>
    1a8a: 00 00        	<unknown>
    1a8c: 00 00        	<unknown>
    1a8e: 03 00 00 00  	lb	zero, 0(zero)
    1a92: 00 00        	<unknown>
    1a94: 34 07        	<unknown>
    1a96: 00 80        	<unknown>
    1a98: 00 00        	<unknown>
    1a9a: 00 00        	<unknown>
    1a9c: 00 00        	<unknown>
    1a9e: 03 00 00 00  	lb	zero, 0(zero)
    1aa2: 00 00        	<unknown>
    1aa4: 34 07        	<unknown>
    1aa6: 00 80        	<unknown>
    1aa8: 00 00        	<unknown>
    1aaa: 00 00        	<unknown>
    1aac: 00 00        	<unknown>
    1aae: 03 00 00 00  	lb	zero, 0(zero)
    1ab2: 00 00        	<unknown>
    1ab4: 38 07        	<unknown>
    1ab6: 00 80        	<unknown>
    1ab8: 00 00        	<unknown>
    1aba: 00 00        	<unknown>
    1abc: 00 00        	<unknown>
    1abe: 03 00 00 00  	lb	zero, 0(zero)
    1ac2: 00 00        	<unknown>
    1ac4: 40 07        	<unknown>
    1ac6: 00 80        	<unknown>
    1ac8: 00 00        	<unknown>
    1aca: 00 00        	<unknown>
    1acc: 00 00        	<unknown>
    1ace: 03 00 00 00  	lb	zero, 0(zero)
    1ad2: 00 00        	<unknown>
    1ad4: 44 07        	<unknown>
    1ad6: 00 80        	<unknown>
    1ad8: 00 00        	<unknown>
    1ada: 00 00        	<unknown>
    1adc: 00 00        	<unknown>
    1ade: 03 00 00 00  	lb	zero, 0(zero)
    1ae2: 00 00        	<unknown>
    1ae4: 48 07        	<unknown>
    1ae6: 00 80        	<unknown>
    1ae8: 00 00        	<unknown>
    1aea: 00 00        	<unknown>
    1aec: 00 00        	<unknown>
    1aee: 03 00 00 00  	lb	zero, 0(zero)
    1af2: 00 00        	<unknown>
    1af4: 4c 07        	<unknown>
    1af6: 00 80        	<unknown>
    1af8: 00 00        	<unknown>
    1afa: 00 00        	<unknown>
    1afc: 00 00        	<unknown>
    1afe: 03 00 00 00  	lb	zero, 0(zero)
    1b02: 00 00        	<unknown>
    1b04: 4c 07        	<unknown>
    1b06: 00 80        	<unknown>
    1b08: 00 00        	<unknown>
    1b0a: 00 00        	<unknown>
    1b0c: 00 00        	<unknown>
    1b0e: 03 00 00 00  	lb	zero, 0(zero)
    1b12: 00 00        	<unknown>
    1b14: 58 07        	<unknown>
    1b16: 00 80        	<unknown>
    1b18: 00 00        	<unknown>
    1b1a: 00 00        	<unknown>
    1b1c: 00 00        	<unknown>
    1b1e: 03 00 00 00  	lb	zero, 0(zero)
    1b22: 00 00        	<unknown>
    1b24: 58 07        	<unknown>
    1b26: 00 80        	<unknown>
    1b28: 00 00        	<unknown>
    1b2a: 00 00        	<unknown>
    1b2c: 00 00        	<unknown>
    1b2e: 03 00 00 00  	lb	zero, 0(zero)
    1b32: 00 00        	<unknown>
    1b34: 5c 07        	<unknown>
    1b36: 00 80        	<unknown>
    1b38: 00 00        	<unknown>
    1b3a: 00 00        	<unknown>
    1b3c: 00 00        	<unknown>
    1b3e: 03 00 00 00  	lb	zero, 0(zero)
    1b42: 00 00        	<unknown>
    1b44: 60 07        	<unknown>
    1b46: 00 80        	<unknown>
    1b48: 00 00        	<unknown>
    1b4a: 00 00        	<unknown>
    1b4c: 00 00        	<unknown>
    1b4e: 03 00 00 00  	lb	zero, 0(zero)
    1b52: 00 00        	<unknown>
    1b54: 60 07        	<unknown>
    1b56: 00 80        	<unknown>
    1b58: 00 00        	<unknown>
    1b5a: 00 00        	<unknown>
    1b5c: 00 00        	<unknown>
    1b5e: 03 00 00 00  	lb	zero, 0(zero)
    1b62: 00 00        	<unknown>
    1b64: 64 07        	<unknown>
    1b66: 00 80        	<unknown>
    1b68: 00 00        	<unknown>
    1b6a: 00 00        	<unknown>
    1b6c: 00 00        	<unknown>
    1b6e: 03 00 00 00  	lb	zero, 0(zero)
    1b72: 00 00        	<unknown>
    1b74: 68 07        	<unknown>
    1b76: 00 80        	<unknown>
    1b78: 00 00        	<unknown>
    1b7a: 00 00        	<unknown>
    1b7c: 00 00        	<unknown>
    1b7e: 03 00 00 00  	lb	zero, 0(zero)
    1b82: 00 00        	<unknown>
    1b84: 6c 07        	<unknown>
    1b86: 00 80        	<unknown>
    1b88: 00 00        	<unknown>
    1b8a: 00 00        	<unknown>
    1b8c: 00 00        	<unknown>
    1b8e: 03 00 00 00  	lb	zero, 0(zero)
    1b92: 00 00        	<unknown>
    1b94: 70 07        	<unknown>
    1b96: 00 80        	<unknown>
    1b98: 00 00        	<unknown>
    1b9a: 00 00        	<unknown>
    1b9c: 00 00        	<unknown>
    1b9e: 03 00 00 00  	lb	zero, 0(zero)
    1ba2: 00 00        	<unknown>
    1ba4: 74 07        	<unknown>
    1ba6: 00 80        	<unknown>
    1ba8: 00 00        	<unknown>
    1baa: 00 00        	<unknown>
    1bac: 00 00        	<unknown>
    1bae: 03 00 00 00  	lb	zero, 0(zero)
    1bb2: 00 00        	<unknown>
    1bb4: 78 07        	<unknown>
    1bb6: 00 80        	<unknown>
    1bb8: 00 00        	<unknown>
    1bba: 00 00        	<unknown>
    1bbc: 00 00        	<unknown>
    1bbe: 03 00 00 00  	lb	zero, 0(zero)
    1bc2: 00 00        	<unknown>
    1bc4: 78 07        	<unknown>
    1bc6: 00 80        	<unknown>
    1bc8: 00 00        	<unknown>
    1bca: 00 00        	<unknown>
    1bcc: 00 00        	<unknown>
    1bce: 03 00 00 00  	lb	zero, 0(zero)
    1bd2: 00 00        	<unknown>
    1bd4: 80 07        	<unknown>
    1bd6: 00 80        	<unknown>
    1bd8: 00 00        	<unknown>
    1bda: 00 00        	<unknown>
    1bdc: 00 00        	<unknown>
    1bde: 03 00 00 00  	lb	zero, 0(zero)
    1be2: 00 00        	<unknown>
    1be4: 80 07        	<unknown>
    1be6: 00 80        	<unknown>
    1be8: 00 00        	<unknown>
    1bea: 00 00        	<unknown>
    1bec: 00 00        	<unknown>
    1bee: 03 00 00 00  	lb	zero, 0(zero)
    1bf2: 00 00        	<unknown>
    1bf4: 88 07        	<unknown>
    1bf6: 00 80        	<unknown>
    1bf8: 00 00        	<unknown>
    1bfa: 00 00        	<unknown>
    1bfc: 00 00        	<unknown>
    1bfe: 03 00 00 00  	lb	zero, 0(zero)
    1c02: 00 00        	<unknown>
    1c04: 88 07        	<unknown>
    1c06: 00 80        	<unknown>
    1c08: 00 00        	<unknown>
    1c0a: 00 00        	<unknown>
    1c0c: 00 00        	<unknown>
    1c0e: 03 00 00 00  	lb	zero, 0(zero)
    1c12: 00 00        	<unknown>
    1c14: 90 07        	<unknown>
    1c16: 00 80        	<unknown>
    1c18: 00 00        	<unknown>
    1c1a: 00 00        	<unknown>
    1c1c: 00 00        	<unknown>
    1c1e: 03 00 00 00  	lb	zero, 0(zero)
    1c22: 00 00        	<unknown>
    1c24: 90 07        	<unknown>
    1c26: 00 80        	<unknown>
    1c28: 00 00        	<unknown>
    1c2a: 00 00        	<unknown>
    1c2c: 00 00        	<unknown>
    1c2e: 03 00 00 00  	lb	zero, 0(zero)
    1c32: 00 00        	<unknown>
    1c34: 98 07        	<unknown>
    1c36: 00 80        	<unknown>
    1c38: 00 00        	<unknown>
    1c3a: 00 00        	<unknown>
    1c3c: 00 00        	<unknown>
    1c3e: 03 00 00 00  	lb	zero, 0(zero)
    1c42: 00 00        	<unknown>
    1c44: 9c 07        	<unknown>
    1c46: 00 80        	<unknown>
    1c48: 00 00        	<unknown>
    1c4a: 00 00        	<unknown>
    1c4c: 00 00        	<unknown>
    1c4e: 03 00 00 00  	lb	zero, 0(zero)
    1c52: 00 00        	<unknown>
    1c54: 9c 07        	<unknown>
    1c56: 00 80        	<unknown>
    1c58: 00 00        	<unknown>
    1c5a: 00 00        	<unknown>
    1c5c: 00 00        	<unknown>
    1c5e: 03 00 00 00  	lb	zero, 0(zero)
    1c62: 00 00        	<unknown>
    1c64: b8 07        	<unknown>
    1c66: 00 80        	<unknown>
    1c68: 00 00        	<unknown>
    1c6a: 00 00        	<unknown>
    1c6c: 00 00        	<unknown>
    1c6e: 03 00 00 00  	lb	zero, 0(zero)
    1c72: 00 00        	<unknown>
    1c74: bc 07        	<unknown>
    1c76: 00 80        	<unknown>
    1c78: 00 00        	<unknown>
    1c7a: 00 00        	<unknown>
    1c7c: 00 00        	<unknown>
    1c7e: 03 00 00 00  	lb	zero, 0(zero)
    1c82: 00 00        	<unknown>
    1c84: c8 07        	<unknown>
    1c86: 00 80        	<unknown>
    1c88: 00 00        	<unknown>
    1c8a: 00 00        	<unknown>
    1c8c: 00 00        	<unknown>
    1c8e: 03 00 00 00  	lb	zero, 0(zero)
    1c92: 00 00        	<unknown>
    1c94: d0 07        	<unknown>
    1c96: 00 80        	<unknown>
    1c98: 00 00        	<unknown>
    1c9a: 00 00        	<unknown>
    1c9c: 00 00        	<unknown>
    1c9e: 03 00 00 00  	lb	zero, 0(zero)
    1ca2: 00 00        	<unknown>
    1ca4: d4 07        	<unknown>
    1ca6: 00 80        	<unknown>
    1ca8: 00 00        	<unknown>
    1caa: 00 00        	<unknown>
    1cac: 00 00        	<unknown>
    1cae: 03 00 00 00  	lb	zero, 0(zero)
    1cb2: 00 00        	<unknown>
    1cb4: d8 07        	<unknown>
    1cb6: 00 80        	<unknown>
    1cb8: 00 00        	<unknown>
    1cba: 00 00        	<unknown>
    1cbc: 00 00        	<unknown>
    1cbe: 03 00 00 00  	lb	zero, 0(zero)
    1cc2: 00 00        	<unknown>
    1cc4: dc 07        	<unknown>
    1cc6: 00 80        	<unknown>
    1cc8: 00 00        	<unknown>
    1cca: 00 00        	<unknown>
    1ccc: 00 00        	<unknown>
    1cce: 03 00 00 00  	lb	zero, 0(zero)
    1cd2: 00 00        	<unknown>
    1cd4: e8 07        	<unknown>
    1cd6: 00 80        	<unknown>
    1cd8: 00 00        	<unknown>
    1cda: 00 00        	<unknown>
    1cdc: 00 00        	<unknown>
    1cde: 03 00 00 00  	lb	zero, 0(zero)
    1ce2: 00 00        	<unknown>
    1ce4: ec 07        	<unknown>
    1ce6: 00 80        	<unknown>
    1ce8: 00 00        	<unknown>
    1cea: 00 00        	<unknown>
    1cec: 00 00        	<unknown>
    1cee: 03 00 00 00  	lb	zero, 0(zero)
    1cf2: 00 00        	<unknown>
    1cf4: f0 07        	<unknown>
    1cf6: 00 80        	<unknown>
    1cf8: 00 00        	<unknown>
    1cfa: 00 00        	<unknown>
    1cfc: 00 00        	<unknown>
    1cfe: 03 00 00 00  	lb	zero, 0(zero)
    1d02: 00 00        	<unknown>
    1d04: fc 07        	<unknown>
    1d06: 00 80        	<unknown>
    1d08: 00 00        	<unknown>
    1d0a: 00 00        	<unknown>
    1d0c: 00 00        	<unknown>
    1d0e: 03 00 00 00  	lb	zero, 0(zero)
    1d12: 00 00        	<unknown>
    1d14: 04 08        	<unknown>
    1d16: 00 80        	<unknown>
    1d18: 00 00        	<unknown>
    1d1a: 00 00        	<unknown>
    1d1c: 00 00        	<unknown>
    1d1e: 03 00 00 00  	lb	zero, 0(zero)
    1d22: 00 00        	<unknown>
    1d24: 18 08        	<unknown>
    1d26: 00 80        	<unknown>
    1d28: 00 00        	<unknown>
    1d2a: 00 00        	<unknown>
    1d2c: 00 00        	<unknown>
    1d2e: 03 00 00 00  	lb	zero, 0(zero)
    1d32: 00 00        	<unknown>
    1d34: 34 08        	<unknown>
    1d36: 00 80        	<unknown>
    1d38: 00 00        	<unknown>
    1d3a: 00 00        	<unknown>
    1d3c: 00 00        	<unknown>
    1d3e: 03 00 00 00  	lb	zero, 0(zero)
    1d42: 00 00        	<unknown>
    1d44: 38 08        	<unknown>
    1d46: 00 80        	<unknown>
    1d48: 00 00        	<unknown>
    1d4a: 00 00        	<unknown>
    1d4c: 00 00        	<unknown>
    1d4e: 03 00 00 00  	lb	zero, 0(zero)
    1d52: 00 00        	<unknown>
    1d54: 50 08        	<unknown>
    1d56: 00 80        	<unknown>
    1d58: 00 00        	<unknown>
    1d5a: 00 00        	<unknown>
    1d5c: 00 00        	<unknown>
    1d5e: 03 00 00 00  	lb	zero, 0(zero)
    1d62: 00 00        	<unknown>
    1d64: 54 08        	<unknown>
    1d66: 00 80        	<unknown>
    1d68: 00 00        	<unknown>
    1d6a: 00 00        	<unknown>
    1d6c: 00 00        	<unknown>
    1d6e: 03 00 00 00  	lb	zero, 0(zero)
    1d72: 00 00        	<unknown>
    1d74: 5c 08        	<unknown>
    1d76: 00 80        	<unknown>
    1d78: 00 00        	<unknown>
    1d7a: 00 00        	<unknown>
    1d7c: 00 00        	<unknown>
    1d7e: 03 00 00 00  	lb	zero, 0(zero)
    1d82: 00 00        	<unknown>
    1d84: 68 08        	<unknown>
    1d86: 00 80        	<unknown>
    1d88: 00 00        	<unknown>
    1d8a: 00 00        	<unknown>
    1d8c: 00 00        	<unknown>
    1d8e: 03 00 00 00  	lb	zero, 0(zero)
    1d92: 00 00        	<unknown>
    1d94: 6c 08        	<unknown>
    1d96: 00 80        	<unknown>
    1d98: 00 00        	<unknown>
    1d9a: 00 00        	<unknown>
    1d9c: 00 00        	<unknown>
    1d9e: 03 00 00 00  	lb	zero, 0(zero)
    1da2: 00 00        	<unknown>
    1da4: 74 08        	<unknown>
    1da6: 00 80        	<unknown>
    1da8: 00 00        	<unknown>
    1daa: 00 00        	<unknown>
    1dac: 00 00        	<unknown>
    1dae: 03 00 00 00  	lb	zero, 0(zero)
    1db2: 00 00        	<unknown>
    1db4: 90 08        	<unknown>
    1db6: 00 80        	<unknown>
    1db8: 00 00        	<unknown>
    1dba: 00 00        	<unknown>
    1dbc: 00 00        	<unknown>
    1dbe: 03 00 00 00  	lb	zero, 0(zero)
    1dc2: 00 00        	<unknown>
    1dc4: 94 08        	<unknown>
    1dc6: 00 80        	<unknown>
    1dc8: 00 00        	<unknown>
    1dca: 00 00        	<unknown>
    1dcc: 00 00        	<unknown>
    1dce: 03 00 00 00  	lb	zero, 0(zero)
    1dd2: 00 00        	<unknown>
    1dd4: a0 08        	<unknown>
    1dd6: 00 80        	<unknown>
    1dd8: 00 00        	<unknown>
    1dda: 00 00        	<unknown>
    1ddc: 00 00        	<unknown>
    1dde: 03 00 00 00  	lb	zero, 0(zero)
    1de2: 00 00        	<unknown>
    1de4: bc 08        	<unknown>
    1de6: 00 80        	<unknown>
    1de8: 00 00        	<unknown>
    1dea: 00 00        	<unknown>
    1dec: 00 00        	<unknown>
    1dee: 03 00 00 00  	lb	zero, 0(zero)
    1df2: 00 00        	<unknown>
    1df4: c0 08        	<unknown>
    1df6: 00 80        	<unknown>
    1df8: 00 00        	<unknown>
    1dfa: 00 00        	<unknown>
    1dfc: 00 00        	<unknown>
    1dfe: 03 00 00 00  	lb	zero, 0(zero)
    1e02: 00 00        	<unknown>
    1e04: c4 08        	<unknown>
    1e06: 00 80        	<unknown>
    1e08: 00 00        	<unknown>
    1e0a: 00 00        	<unknown>
    1e0c: 00 00        	<unknown>
    1e0e: 03 00 00 00  	lb	zero, 0(zero)
    1e12: 00 00        	<unknown>
    1e14: cc 08        	<unknown>
    1e16: 00 80        	<unknown>
    1e18: 00 00        	<unknown>
    1e1a: 00 00        	<unknown>
    1e1c: 00 00        	<unknown>
    1e1e: 03 00 00 00  	lb	zero, 0(zero)
    1e22: 00 00        	<unknown>
    1e24: d0 08        	<unknown>
    1e26: 00 80        	<unknown>
    1e28: 00 00        	<unknown>
    1e2a: 00 00        	<unknown>
    1e2c: 00 00        	<unknown>
    1e2e: 03 00 00 00  	lb	zero, 0(zero)
    1e32: 00 00        	<unknown>
    1e34: d8 08        	<unknown>
    1e36: 00 80        	<unknown>
    1e38: 00 00        	<unknown>
    1e3a: 00 00        	<unknown>
    1e3c: 00 00        	<unknown>
    1e3e: 03 00 00 00  	lb	zero, 0(zero)
    1e42: 00 00        	<unknown>
    1e44: dc 08        	<unknown>
    1e46: 00 80        	<unknown>
    1e48: 00 00        	<unknown>
    1e4a: 00 00        	<unknown>
    1e4c: 00 00        	<unknown>
    1e4e: 03 00 00 00  	lb	zero, 0(zero)
    1e52: 00 00        	<unknown>
    1e54: e8 08        	<unknown>
    1e56: 00 80        	<unknown>
    1e58: 00 00        	<unknown>
    1e5a: 00 00        	<unknown>
    1e5c: 00 00        	<unknown>
    1e5e: 03 00 00 00  	lb	zero, 0(zero)
    1e62: 00 00        	<unknown>
    1e64: 00 09        	<unknown>
    1e66: 00 80        	<unknown>
    1e68: 00 00        	<unknown>
    1e6a: 00 00        	<unknown>
    1e6c: 00 00        	<unknown>
    1e6e: 03 00 00 00  	lb	zero, 0(zero)
    1e72: 00 00        	<unknown>
    1e74: 04 09        	<unknown>
    1e76: 00 80        	<unknown>
    1e78: 00 00        	<unknown>
    1e7a: 00 00        	<unknown>
    1e7c: 00 00        	<unknown>
    1e7e: 03 00 00 00  	lb	zero, 0(zero)
    1e82: 00 00        	<unknown>
    1e84: 0c 09        	<unknown>
    1e86: 00 80        	<unknown>
    1e88: 00 00        	<unknown>
    1e8a: 00 00        	<unknown>
    1e8c: 00 00        	<unknown>
    1e8e: 03 00 00 00  	lb	zero, 0(zero)
    1e92: 00 00        	<unknown>
    1e94: 10 09        	<unknown>
    1e96: 00 80        	<unknown>
    1e98: 00 00        	<unknown>
    1e9a: 00 00        	<unknown>
    1e9c: 00 00        	<unknown>
    1e9e: 03 00 00 00  	lb	zero, 0(zero)
    1ea2: 00 00        	<unknown>
    1ea4: 20 09        	<unknown>
    1ea6: 00 80        	<unknown>
    1ea8: 00 00        	<unknown>
    1eaa: 00 00        	<unknown>
    1eac: 00 00        	<unknown>
    1eae: 03 00 00 00  	lb	zero, 0(zero)
    1eb2: 00 00        	<unknown>
    1eb4: 2c 09        	<unknown>
    1eb6: 00 80        	<unknown>
    1eb8: 00 00        	<unknown>
    1eba: 00 00        	<unknown>
    1ebc: 00 00        	<unknown>
    1ebe: 03 00 00 00  	lb	zero, 0(zero)
    1ec2: 00 00        	<unknown>
    1ec4: 30 09        	<unknown>
    1ec6: 00 80        	<unknown>
    1ec8: 00 00        	<unknown>
    1eca: 00 00        	<unknown>
    1ecc: 00 00        	<unknown>
    1ece: 03 00 00 00  	lb	zero, 0(zero)
    1ed2: 00 00        	<unknown>
    1ed4: 34 09        	<unknown>
    1ed6: 00 80        	<unknown>
    1ed8: 00 00        	<unknown>
    1eda: 00 00        	<unknown>
    1edc: 00 00        	<unknown>
    1ede: 03 00 00 00  	lb	zero, 0(zero)
    1ee2: 00 00        	<unknown>
    1ee4: 38 09        	<unknown>
    1ee6: 00 80        	<unknown>
    1ee8: 00 00        	<unknown>
    1eea: 00 00        	<unknown>
    1eec: 00 00        	<unknown>
    1eee: 03 00 00 00  	lb	zero, 0(zero)
    1ef2: 00 00        	<unknown>
    1ef4: 3c 09        	<unknown>
    1ef6: 00 80        	<unknown>
    1ef8: 00 00        	<unknown>
    1efa: 00 00        	<unknown>
    1efc: 00 00        	<unknown>
    1efe: 03 00 00 00  	lb	zero, 0(zero)
    1f02: 00 00        	<unknown>
    1f04: 40 09        	<unknown>
    1f06: 00 80        	<unknown>
    1f08: 00 00        	<unknown>
    1f0a: 00 00        	<unknown>
    1f0c: 00 00        	<unknown>
    1f0e: 03 00 00 00  	lb	zero, 0(zero)
    1f12: 00 00        	<unknown>
    1f14: 50 09        	<unknown>
    1f16: 00 80        	<unknown>
    1f18: 00 00        	<unknown>
    1f1a: 00 00        	<unknown>
    1f1c: 00 00        	<unknown>
    1f1e: 03 00 00 00  	lb	zero, 0(zero)
    1f22: 00 00        	<unknown>
    1f24: 54 09        	<unknown>
    1f26: 00 80        	<unknown>
    1f28: 00 00        	<unknown>
    1f2a: 00 00        	<unknown>
    1f2c: 00 00        	<unknown>
    1f2e: 03 00 00 00  	lb	zero, 0(zero)
    1f32: 00 00        	<unknown>
    1f34: 58 09        	<unknown>
    1f36: 00 80        	<unknown>
    1f38: 00 00        	<unknown>
    1f3a: 00 00        	<unknown>
    1f3c: 00 00        	<unknown>
    1f3e: 03 00 00 00  	lb	zero, 0(zero)
    1f42: 00 00        	<unknown>
    1f44: 5c 09        	<unknown>
    1f46: 00 80        	<unknown>
    1f48: 00 00        	<unknown>
    1f4a: 00 00        	<unknown>
    1f4c: 00 00        	<unknown>
    1f4e: 03 00 00 00  	lb	zero, 0(zero)
    1f52: 00 00        	<unknown>
    1f54: 60 09        	<unknown>
    1f56: 00 80        	<unknown>
    1f58: 00 00        	<unknown>
    1f5a: 00 00        	<unknown>
    1f5c: 00 00        	<unknown>
    1f5e: 03 00 00 00  	lb	zero, 0(zero)
    1f62: 00 00        	<unknown>
    1f64: 64 09        	<unknown>
    1f66: 00 80        	<unknown>
    1f68: 00 00        	<unknown>
    1f6a: 00 00        	<unknown>
    1f6c: 00 00        	<unknown>
    1f6e: 03 00 00 00  	lb	zero, 0(zero)
    1f72: 00 00        	<unknown>
    1f74: 68 09        	<unknown>
    1f76: 00 80        	<unknown>
    1f78: 00 00        	<unknown>
    1f7a: 00 00        	<unknown>
    1f7c: 00 00        	<unknown>
    1f7e: 03 00 00 00  	lb	zero, 0(zero)
    1f82: 00 00        	<unknown>
    1f84: 6c 09        	<unknown>
    1f86: 00 80        	<unknown>
    1f88: 00 00        	<unknown>
    1f8a: 00 00        	<unknown>
    1f8c: 00 00        	<unknown>
    1f8e: 03 00 00 00  	lb	zero, 0(zero)
    1f92: 00 00        	<unknown>
    1f94: 74 09        	<unknown>
    1f96: 00 80        	<unknown>
    1f98: 00 00        	<unknown>
    1f9a: 00 00        	<unknown>
    1f9c: 00 00        	<unknown>
    1f9e: 03 00 00 00  	lb	zero, 0(zero)
    1fa2: 00 00        	<unknown>
    1fa4: 78 09        	<unknown>
    1fa6: 00 80        	<unknown>
    1fa8: 00 00        	<unknown>
    1faa: 00 00        	<unknown>
    1fac: 00 00        	<unknown>
    1fae: 03 00 00 00  	lb	zero, 0(zero)
    1fb2: 00 00        	<unknown>
    1fb4: 80 09        	<unknown>
    1fb6: 00 80        	<unknown>
    1fb8: 00 00        	<unknown>
    1fba: 00 00        	<unknown>
    1fbc: 00 00        	<unknown>
    1fbe: 03 00 00 00  	lb	zero, 0(zero)
    1fc2: 00 00        	<unknown>
    1fc4: 88 09        	<unknown>
    1fc6: 00 80        	<unknown>
    1fc8: 00 00        	<unknown>
    1fca: 00 00        	<unknown>
    1fcc: 00 00        	<unknown>
    1fce: 03 00 00 00  	lb	zero, 0(zero)
    1fd2: 00 00        	<unknown>
    1fd4: 8c 09        	<unknown>
    1fd6: 00 80        	<unknown>
    1fd8: 00 00        	<unknown>
    1fda: 00 00        	<unknown>
    1fdc: 00 00        	<unknown>
    1fde: 03 00 00 00  	lb	zero, 0(zero)
    1fe2: 00 00        	<unknown>
    1fe4: 90 09        	<unknown>
    1fe6: 00 80        	<unknown>
    1fe8: 00 00        	<unknown>
    1fea: 00 00        	<unknown>
    1fec: 00 00        	<unknown>
    1fee: 03 00 00 00  	lb	zero, 0(zero)
    1ff2: 00 00        	<unknown>
    1ff4: 94 09        	<unknown>
    1ff6: 00 80        	<unknown>
    1ff8: 00 00        	<unknown>
    1ffa: 00 00        	<unknown>
    1ffc: 00 00        	<unknown>
    1ffe: 03 00 00 00  	lb	zero, 0(zero)
    2002: 00 00        	<unknown>
    2004: 98 09        	<unknown>
    2006: 00 80        	<unknown>
    2008: 00 00        	<unknown>
    200a: 00 00        	<unknown>
    200c: 00 00        	<unknown>
    200e: 03 00 00 00  	lb	zero, 0(zero)
    2012: 00 00        	<unknown>
    2014: 9c 09        	<unknown>
    2016: 00 80        	<unknown>
    2018: 00 00        	<unknown>
    201a: 00 00        	<unknown>
    201c: 00 00        	<unknown>
    201e: 03 00 00 00  	lb	zero, 0(zero)
    2022: 00 00        	<unknown>
    2024: a0 09        	<unknown>
    2026: 00 80        	<unknown>
    2028: 00 00        	<unknown>
    202a: 00 00        	<unknown>
    202c: 00 00        	<unknown>
    202e: 03 00 00 00  	lb	zero, 0(zero)
    2032: 00 00        	<unknown>
    2034: a4 09        	<unknown>
    2036: 00 80        	<unknown>
    2038: 00 00        	<unknown>
    203a: 00 00        	<unknown>
    203c: 00 00        	<unknown>
    203e: 03 00 00 00  	lb	zero, 0(zero)
    2042: 00 00        	<unknown>
    2044: ac 09        	<unknown>
    2046: 00 80        	<unknown>
    2048: 00 00        	<unknown>
    204a: 00 00        	<unknown>
    204c: 00 00        	<unknown>
    204e: 03 00 00 00  	lb	zero, 0(zero)
    2052: 00 00        	<unknown>
    2054: b0 09        	<unknown>
    2056: 00 80        	<unknown>
    2058: 00 00        	<unknown>
    205a: 00 00        	<unknown>
    205c: 00 00        	<unknown>
    205e: 03 00 00 00  	lb	zero, 0(zero)
    2062: 00 00        	<unknown>
    2064: c4 09        	<unknown>
    2066: 00 80        	<unknown>
    2068: 00 00        	<unknown>
    206a: 00 00        	<unknown>
    206c: 00 00        	<unknown>
    206e: 03 00 00 00  	lb	zero, 0(zero)
    2072: 00 00        	<unknown>
    2074: c4 09        	<unknown>
    2076: 00 80        	<unknown>
    2078: 00 00        	<unknown>
    207a: 00 00        	<unknown>
    207c: 00 00        	<unknown>
    207e: 03 00 00 00  	lb	zero, 0(zero)
    2082: 00 00        	<unknown>
    2084: cc 09        	<unknown>
    2086: 00 80        	<unknown>
    2088: 00 00        	<unknown>
    208a: 00 00        	<unknown>
    208c: 00 00        	<unknown>
    208e: 03 00 00 00  	lb	zero, 0(zero)
    2092: 00 00        	<unknown>
    2094: d8 09        	<unknown>
    2096: 00 80        	<unknown>
    2098: 00 00        	<unknown>
    209a: 00 00        	<unknown>
    209c: 00 00        	<unknown>
    209e: 03 00 00 00  	lb	zero, 0(zero)
    20a2: 00 00        	<unknown>
    20a4: e0 09        	<unknown>
    20a6: 00 80        	<unknown>
    20a8: 00 00        	<unknown>
    20aa: 00 00        	<unknown>
    20ac: 00 00        	<unknown>
    20ae: 03 00 00 00  	lb	zero, 0(zero)
    20b2: 00 00        	<unknown>
    20b4: e0 09        	<unknown>
    20b6: 00 80        	<unknown>
    20b8: 00 00        	<unknown>
    20ba: 00 00        	<unknown>
    20bc: 00 00        	<unknown>
    20be: 03 00 00 00  	lb	zero, 0(zero)
    20c2: 00 00        	<unknown>
    20c4: e8 09        	<unknown>
    20c6: 00 80        	<unknown>
    20c8: 00 00        	<unknown>
    20ca: 00 00        	<unknown>
    20cc: 00 00        	<unknown>
    20ce: 03 00 00 00  	lb	zero, 0(zero)
    20d2: 00 00        	<unknown>
    20d4: ec 09        	<unknown>
    20d6: 00 80        	<unknown>
    20d8: 00 00        	<unknown>
    20da: 00 00        	<unknown>
    20dc: 00 00        	<unknown>
    20de: 03 00 00 00  	lb	zero, 0(zero)
    20e2: 00 00        	<unknown>
    20e4: f0 09        	<unknown>
    20e6: 00 80        	<unknown>
    20e8: 00 00        	<unknown>
    20ea: 00 00        	<unknown>
    20ec: 00 00        	<unknown>
    20ee: 03 00 00 00  	lb	zero, 0(zero)
    20f2: 00 00        	<unknown>
    20f4: f4 09        	<unknown>
    20f6: 00 80        	<unknown>
    20f8: 00 00        	<unknown>
    20fa: 00 00        	<unknown>
    20fc: 00 00        	<unknown>
    20fe: 03 00 00 00  	lb	zero, 0(zero)
    2102: 00 00        	<unknown>
    2104: fc 09        	<unknown>
    2106: 00 80        	<unknown>
    2108: 00 00        	<unknown>
    210a: 00 00        	<unknown>
    210c: 00 00        	<unknown>
    210e: 03 00 00 00  	lb	zero, 0(zero)
    2112: 00 00        	<unknown>
    2114: 04 0a        	<unknown>
    2116: 00 80        	<unknown>
    2118: 00 00        	<unknown>
    211a: 00 00        	<unknown>
    211c: 00 00        	<unknown>
    211e: 03 00 00 00  	lb	zero, 0(zero)
    2122: 00 00        	<unknown>
    2124: 08 0a        	<unknown>
    2126: 00 80        	<unknown>
    2128: 00 00        	<unknown>
    212a: 00 00        	<unknown>
    212c: 00 00        	<unknown>
    212e: 03 00 00 00  	lb	zero, 0(zero)
    2132: 00 00        	<unknown>
    2134: 18 0a        	<unknown>
    2136: 00 80        	<unknown>
    2138: 00 00        	<unknown>
    213a: 00 00        	<unknown>
    213c: 00 00        	<unknown>
    213e: 03 00 00 00  	lb	zero, 0(zero)
    2142: 00 00        	<unknown>
    2144: 18 0a        	<unknown>
    2146: 00 80        	<unknown>
    2148: 00 00        	<unknown>
    214a: 00 00        	<unknown>
    214c: 00 00        	<unknown>
    214e: 03 00 00 00  	lb	zero, 0(zero)
    2152: 00 00        	<unknown>
    2154: 1c 0a        	<unknown>
    2156: 00 80        	<unknown>
    2158: 00 00        	<unknown>
    215a: 00 00        	<unknown>
    215c: 00 00        	<unknown>
    215e: 03 00 00 00  	lb	zero, 0(zero)
    2162: 00 00        	<unknown>
    2164: 20 0a        	<unknown>
    2166: 00 80        	<unknown>
    2168: 00 00        	<unknown>
    216a: 00 00        	<unknown>
    216c: 00 00        	<unknown>
    216e: 03 00 00 00  	lb	zero, 0(zero)
    2172: 00 00        	<unknown>
    2174: 30 0a        	<unknown>
    2176: 00 80        	<unknown>
    2178: 00 00        	<unknown>
    217a: 00 00        	<unknown>
    217c: 00 00        	<unknown>
    217e: 03 00 00 00  	lb	zero, 0(zero)
    2182: 00 00        	<unknown>
    2184: 34 0a        	<unknown>
    2186: 00 80        	<unknown>
    2188: 00 00        	<unknown>
    218a: 00 00        	<unknown>
    218c: 00 00        	<unknown>
    218e: 03 00 00 00  	lb	zero, 0(zero)
    2192: 00 00        	<unknown>
    2194: 38 0a        	<unknown>
    2196: 00 80        	<unknown>
    2198: 00 00        	<unknown>
    219a: 00 00        	<unknown>
    219c: 00 00        	<unknown>
    219e: 03 00 00 00  	lb	zero, 0(zero)
    21a2: 00 00        	<unknown>
    21a4: 40 0a        	<unknown>
    21a6: 00 80        	<unknown>
    21a8: 00 00        	<unknown>
    21aa: 00 00        	<unknown>
    21ac: 00 00        	<unknown>
    21ae: 03 00 00 00  	lb	zero, 0(zero)
    21b2: 00 00        	<unknown>
    21b4: 64 0a        	<unknown>
    21b6: 00 80        	<unknown>
    21b8: 00 00        	<unknown>
    21ba: 00 00        	<unknown>
    21bc: 00 00        	<unknown>
    21be: 03 00 00 00  	lb	zero, 0(zero)
    21c2: 00 00        	<unknown>
    21c4: 6c 0a        	<unknown>
    21c6: 00 80        	<unknown>
    21c8: 00 00        	<unknown>
    21ca: 00 00        	<unknown>
    21cc: 00 00        	<unknown>
    21ce: 03 00 00 00  	lb	zero, 0(zero)
    21d2: 00 00        	<unknown>
    21d4: 70 0a        	<unknown>
    21d6: 00 80        	<unknown>
    21d8: 00 00        	<unknown>
    21da: 00 00        	<unknown>
    21dc: 00 00        	<unknown>
    21de: 03 00 00 00  	lb	zero, 0(zero)
    21e2: 00 00        	<unknown>
    21e4: 74 0a        	<unknown>
    21e6: 00 80        	<unknown>
    21e8: 00 00        	<unknown>
    21ea: 00 00        	<unknown>
    21ec: 00 00        	<unknown>
    21ee: 03 00 00 00  	lb	zero, 0(zero)
    21f2: 00 00        	<unknown>
    21f4: 78 0a        	<unknown>
    21f6: 00 80        	<unknown>
    21f8: 00 00        	<unknown>
    21fa: 00 00        	<unknown>
    21fc: 00 00        	<unknown>
    21fe: 03 00 00 00  	lb	zero, 0(zero)
    2202: 00 00        	<unknown>
    2204: 7c 0a        	<unknown>
    2206: 00 80        	<unknown>
    2208: 00 00        	<unknown>
    220a: 00 00        	<unknown>
    220c: 00 00        	<unknown>
    220e: 03 00 00 00  	lb	zero, 0(zero)
    2212: 00 00        	<unknown>
    2214: 80 0a        	<unknown>
    2216: 00 80        	<unknown>
    2218: 00 00        	<unknown>
    221a: 00 00        	<unknown>
    221c: 00 00        	<unknown>
    221e: 03 00 00 00  	lb	zero, 0(zero)
    2222: 00 00        	<unknown>
    2224: 84 0a        	<unknown>
    2226: 00 80        	<unknown>
    2228: 00 00        	<unknown>
    222a: 00 00        	<unknown>
    222c: 00 00        	<unknown>
    222e: 03 00 00 00  	lb	zero, 0(zero)
    2232: 00 00        	<unknown>
    2234: 88 0a        	<unknown>
    2236: 00 80        	<unknown>
    2238: 00 00        	<unknown>
    223a: 00 00        	<unknown>
    223c: 00 00        	<unknown>
    223e: 03 00 00 00  	lb	zero, 0(zero)
    2242: 00 00        	<unknown>
    2244: 8c 0a        	<unknown>
    2246: 00 80        	<unknown>
    2248: 00 00        	<unknown>
    224a: 00 00        	<unknown>
    224c: 00 00        	<unknown>
    224e: 03 00 00 00  	lb	zero, 0(zero)
    2252: 00 00        	<unknown>
    2254: 90 0a        	<unknown>
    2256: 00 80        	<unknown>
    2258: 00 00        	<unknown>
    225a: 00 00        	<unknown>
    225c: 00 00        	<unknown>
    225e: 03 00 00 00  	lb	zero, 0(zero)
    2262: 00 00        	<unknown>
    2264: 94 0a        	<unknown>
    2266: 00 80        	<unknown>
    2268: 00 00        	<unknown>
    226a: 00 00        	<unknown>
    226c: 00 00        	<unknown>
    226e: 03 00 00 00  	lb	zero, 0(zero)
    2272: 00 00        	<unknown>
    2274: 9c 0a        	<unknown>
    2276: 00 80        	<unknown>
    2278: 00 00        	<unknown>
    227a: 00 00        	<unknown>
    227c: 00 00        	<unknown>
    227e: 03 00 00 00  	lb	zero, 0(zero)
    2282: 00 00        	<unknown>
    2284: a0 0a        	<unknown>
    2286: 00 80        	<unknown>
    2288: 00 00        	<unknown>
    228a: 00 00        	<unknown>
    228c: 00 00        	<unknown>
    228e: 03 00 00 00  	lb	zero, 0(zero)
    2292: 00 00        	<unknown>
    2294: a4 0a        	<unknown>
    2296: 00 80        	<unknown>
    2298: 00 00        	<unknown>
    229a: 00 00        	<unknown>
    229c: 00 00        	<unknown>
    229e: 03 00 00 00  	lb	zero, 0(zero)
    22a2: 00 00        	<unknown>
    22a4: ac 0a        	<unknown>
    22a6: 00 80        	<unknown>
    22a8: 00 00        	<unknown>
    22aa: 00 00        	<unknown>
    22ac: 00 00        	<unknown>
    22ae: 03 00 00 00  	lb	zero, 0(zero)
    22b2: 00 00        	<unknown>
    22b4: b0 0a        	<unknown>
    22b6: 00 80        	<unknown>
    22b8: 00 00        	<unknown>
    22ba: 00 00        	<unknown>
    22bc: 00 00        	<unknown>
    22be: 03 00 00 00  	lb	zero, 0(zero)
    22c2: 00 00        	<unknown>
    22c4: bc 0a        	<unknown>
    22c6: 00 80        	<unknown>
    22c8: 00 00        	<unknown>
    22ca: 00 00        	<unknown>
    22cc: 00 00        	<unknown>
    22ce: 03 00 00 00  	lb	zero, 0(zero)
    22d2: 00 00        	<unknown>
    22d4: c8 0a        	<unknown>
    22d6: 00 80        	<unknown>
    22d8: 00 00        	<unknown>
    22da: 00 00        	<unknown>
    22dc: 00 00        	<unknown>
    22de: 03 00 00 00  	lb	zero, 0(zero)
    22e2: 00 00        	<unknown>
    22e4: cc 0a        	<unknown>
    22e6: 00 80        	<unknown>
    22e8: 00 00        	<unknown>
    22ea: 00 00        	<unknown>
    22ec: 00 00        	<unknown>
    22ee: 03 00 00 00  	lb	zero, 0(zero)
    22f2: 00 00        	<unknown>
    22f4: d4 0a        	<unknown>
    22f6: 00 80        	<unknown>
    22f8: 00 00        	<unknown>
    22fa: 00 00        	<unknown>
    22fc: 00 00        	<unknown>
    22fe: 03 00 00 00  	lb	zero, 0(zero)
    2302: 00 00        	<unknown>
    2304: d8 0a        	<unknown>
    2306: 00 80        	<unknown>
    2308: 00 00        	<unknown>
    230a: 00 00        	<unknown>
    230c: 00 00        	<unknown>
    230e: 03 00 00 00  	lb	zero, 0(zero)
    2312: 00 00        	<unknown>
    2314: dc 0a        	<unknown>
    2316: 00 80        	<unknown>
    2318: 00 00        	<unknown>
    231a: 00 00        	<unknown>
    231c: 00 00        	<unknown>
    231e: 03 00 00 00  	lb	zero, 0(zero)
    2322: 00 00        	<unknown>
    2324: e4 0a        	<unknown>
    2326: 00 80        	<unknown>
    2328: 00 00        	<unknown>
    232a: 00 00        	<unknown>
    232c: 00 00        	<unknown>
    232e: 03 00 00 00  	lb	zero, 0(zero)
    2332: 00 00        	<unknown>
    2334: f0 0a        	<unknown>
    2336: 00 80        	<unknown>
    2338: 00 00        	<unknown>
    233a: 00 00        	<unknown>
    233c: 00 00        	<unknown>
    233e: 03 00 00 00  	lb	zero, 0(zero)
    2342: 00 00        	<unknown>
    2344: f4 0a        	<unknown>
    2346: 00 80        	<unknown>
    2348: 00 00        	<unknown>
    234a: 00 00        	<unknown>
    234c: 00 00        	<unknown>
    234e: 03 00 00 00  	lb	zero, 0(zero)
    2352: 00 00        	<unknown>
    2354: 04 0b        	<unknown>
    2356: 00 80        	<unknown>
    2358: 00 00        	<unknown>
    235a: 00 00        	<unknown>
    235c: 00 00        	<unknown>
    235e: 03 00 00 00  	lb	zero, 0(zero)
    2362: 00 00        	<unknown>
    2364: 04 0b        	<unknown>
    2366: 00 80        	<unknown>
    2368: 00 00        	<unknown>
    236a: 00 00        	<unknown>
    236c: 00 00        	<unknown>
    236e: 03 00 00 00  	lb	zero, 0(zero)
    2372: 00 00        	<unknown>
    2374: 08 0b        	<unknown>
    2376: 00 80        	<unknown>
    2378: 00 00        	<unknown>
    237a: 00 00        	<unknown>
    237c: 00 00        	<unknown>
    237e: 03 00 00 00  	lb	zero, 0(zero)
    2382: 00 00        	<unknown>
    2384: 0c 0b        	<unknown>
    2386: 00 80        	<unknown>
    2388: 00 00        	<unknown>
    238a: 00 00        	<unknown>
    238c: 00 00        	<unknown>
    238e: 03 00 00 00  	lb	zero, 0(zero)
    2392: 00 00        	<unknown>
    2394: 10 0b        	<unknown>
    2396: 00 80        	<unknown>
    2398: 00 00        	<unknown>
    239a: 00 00        	<unknown>
    239c: 00 00        	<unknown>
    239e: 03 00 00 00  	lb	zero, 0(zero)
    23a2: 00 00        	<unknown>
    23a4: 18 0b        	<unknown>
    23a6: 00 80        	<unknown>
    23a8: 00 00        	<unknown>
    23aa: 00 00        	<unknown>
    23ac: 00 00        	<unknown>
    23ae: 03 00 00 00  	lb	zero, 0(zero)
    23b2: 00 00        	<unknown>
    23b4: 20 0b        	<unknown>
    23b6: 00 80        	<unknown>
    23b8: 00 00        	<unknown>
    23ba: 00 00        	<unknown>
    23bc: 00 00        	<unknown>
    23be: 03 00 00 00  	lb	zero, 0(zero)
    23c2: 00 00        	<unknown>
    23c4: 24 0b        	<unknown>
    23c6: 00 80        	<unknown>
    23c8: 00 00        	<unknown>
    23ca: 00 00        	<unknown>
    23cc: 00 00        	<unknown>
    23ce: 03 00 00 00  	lb	zero, 0(zero)
    23d2: 00 00        	<unknown>
    23d4: 28 0b        	<unknown>
    23d6: 00 80        	<unknown>
    23d8: 00 00        	<unknown>
    23da: 00 00        	<unknown>
    23dc: 00 00        	<unknown>
    23de: 03 00 00 00  	lb	zero, 0(zero)
    23e2: 00 00        	<unknown>
    23e4: 2c 0b        	<unknown>
    23e6: 00 80        	<unknown>
    23e8: 00 00        	<unknown>
    23ea: 00 00        	<unknown>
    23ec: 00 00        	<unknown>
    23ee: 03 00 00 00  	lb	zero, 0(zero)
    23f2: 00 00        	<unknown>
    23f4: 34 0b        	<unknown>
    23f6: 00 80        	<unknown>
    23f8: 00 00        	<unknown>
    23fa: 00 00        	<unknown>
    23fc: 00 00        	<unknown>
    23fe: 03 00 00 00  	lb	zero, 0(zero)
    2402: 00 00        	<unknown>
    2404: 38 0b        	<unknown>
    2406: 00 80        	<unknown>
    2408: 00 00        	<unknown>
    240a: 00 00        	<unknown>
    240c: 00 00        	<unknown>
    240e: 03 00 00 00  	lb	zero, 0(zero)
    2412: 00 00        	<unknown>
    2414: 44 0b        	<unknown>
    2416: 00 80        	<unknown>
    2418: 00 00        	<unknown>
    241a: 00 00        	<unknown>
    241c: 00 00        	<unknown>
    241e: 03 00 00 00  	lb	zero, 0(zero)
    2422: 00 00        	<unknown>
    2424: 44 0b        	<unknown>
    2426: 00 80        	<unknown>
    2428: 00 00        	<unknown>
    242a: 00 00        	<unknown>
    242c: 00 00        	<unknown>
    242e: 03 00 00 00  	lb	zero, 0(zero)
    2432: 00 00        	<unknown>
    2434: 48 0b        	<unknown>
    2436: 00 80        	<unknown>
    2438: 00 00        	<unknown>
    243a: 00 00        	<unknown>
    243c: 00 00        	<unknown>
    243e: 03 00 00 00  	lb	zero, 0(zero)
    2442: 00 00        	<unknown>
    2444: 50 0b        	<unknown>
    2446: 00 80        	<unknown>
    2448: 00 00        	<unknown>
    244a: 00 00        	<unknown>
    244c: 00 00        	<unknown>
    244e: 03 00 00 00  	lb	zero, 0(zero)
    2452: 00 00        	<unknown>
    2454: 54 0b        	<unknown>
    2456: 00 80        	<unknown>
    2458: 00 00        	<unknown>
    245a: 00 00        	<unknown>
    245c: 00 00        	<unknown>
    245e: 03 00 00 00  	lb	zero, 0(zero)
    2462: 00 00        	<unknown>
    2464: 5c 0b        	<unknown>
    2466: 00 80        	<unknown>
    2468: 00 00        	<unknown>
    246a: 00 00        	<unknown>
    246c: 00 00        	<unknown>
    246e: 03 00 00 00  	lb	zero, 0(zero)
    2472: 00 00        	<unknown>
    2474: 60 0b        	<unknown>
    2476: 00 80        	<unknown>
    2478: 00 00        	<unknown>
    247a: 00 00        	<unknown>
    247c: 00 00        	<unknown>
    247e: 03 00 00 00  	lb	zero, 0(zero)
    2482: 00 00        	<unknown>
    2484: 70 0b        	<unknown>
    2486: 00 80        	<unknown>
    2488: 00 00        	<unknown>
    248a: 00 00        	<unknown>
    248c: 00 00        	<unknown>
    248e: 03 00 00 00  	lb	zero, 0(zero)
    2492: 00 00        	<unknown>
    2494: 70 0b        	<unknown>
    2496: 00 80        	<unknown>
    2498: 00 00        	<unknown>
    249a: 00 00        	<unknown>
    249c: 00 00        	<unknown>
    249e: 03 00 00 00  	lb	zero, 0(zero)
    24a2: 00 00        	<unknown>
    24a4: 74 0b        	<unknown>
    24a6: 00 80        	<unknown>
    24a8: 00 00        	<unknown>
    24aa: 00 00        	<unknown>
    24ac: 00 00        	<unknown>
    24ae: 03 00 00 00  	lb	zero, 0(zero)
    24b2: 00 00        	<unknown>
    24b4: 78 0b        	<unknown>
    24b6: 00 80        	<unknown>
    24b8: 00 00        	<unknown>
    24ba: 00 00        	<unknown>
    24bc: 00 00        	<unknown>
    24be: 03 00 00 00  	lb	zero, 0(zero)
    24c2: 00 00        	<unknown>
    24c4: 84 0b        	<unknown>
    24c6: 00 80        	<unknown>
    24c8: 00 00        	<unknown>
    24ca: 00 00        	<unknown>
    24cc: 00 00        	<unknown>
    24ce: 03 00 00 00  	lb	zero, 0(zero)
    24d2: 00 00        	<unknown>
    24d4: 88 0b        	<unknown>
    24d6: 00 80        	<unknown>
    24d8: 00 00        	<unknown>
    24da: 00 00        	<unknown>
    24dc: 00 00        	<unknown>
    24de: 03 00 00 00  	lb	zero, 0(zero)
    24e2: 00 00        	<unknown>
    24e4: 90 0b        	<unknown>
    24e6: 00 80        	<unknown>
    24e8: 00 00        	<unknown>
    24ea: 00 00        	<unknown>
    24ec: 00 00        	<unknown>
    24ee: 03 00 00 00  	lb	zero, 0(zero)
    24f2: 00 00        	<unknown>
    24f4: 9c 0b        	<unknown>
    24f6: 00 80        	<unknown>
    24f8: 00 00        	<unknown>
    24fa: 00 00        	<unknown>
    24fc: 00 00        	<unknown>
    24fe: 03 00 00 00  	lb	zero, 0(zero)
    2502: 00 00        	<unknown>
    2504: a4 0b        	<unknown>
    2506: 00 80        	<unknown>
    2508: 00 00        	<unknown>
    250a: 00 00        	<unknown>
    250c: 00 00        	<unknown>
    250e: 03 00 00 00  	lb	zero, 0(zero)
    2512: 00 00        	<unknown>
    2514: a8 0b        	<unknown>
    2516: 00 80        	<unknown>
    2518: 00 00        	<unknown>
    251a: 00 00        	<unknown>
    251c: 00 00        	<unknown>
    251e: 03 00 00 00  	lb	zero, 0(zero)
    2522: 00 00        	<unknown>
    2524: b0 0b        	<unknown>
    2526: 00 80        	<unknown>
    2528: 00 00        	<unknown>
    252a: 00 00        	<unknown>
    252c: 00 00        	<unknown>
    252e: 03 00 00 00  	lb	zero, 0(zero)
    2532: 00 00        	<unknown>
    2534: b4 0b        	<unknown>
    2536: 00 80        	<unknown>
    2538: 00 00        	<unknown>
    253a: 00 00        	<unknown>
    253c: 00 00        	<unknown>
    253e: 03 00 bb 00  	lb	zero, 11(s6)
    2542: 00 00        	<unknown>
    2544: ac 0e        	<unknown>
    2546: 00 80        	<unknown>
    2548: 88 03        	<unknown>
    254a: 00 00        	<unknown>
    254c: 02 00        	<unknown>
    254e: 03 00 00 00  	lb	zero, 0(zero)
    2552: 00 00        	<unknown>
    2554: d4 0b        	<unknown>
    2556: 00 80        	<unknown>
    2558: 00 00        	<unknown>
    255a: 00 00        	<unknown>
    255c: 00 00        	<unknown>
    255e: 03 00 00 00  	lb	zero, 0(zero)
    2562: 00 00        	<unknown>
    2564: f8 0b        	<unknown>
    2566: 00 80        	<unknown>
    2568: 00 00        	<unknown>
    256a: 00 00        	<unknown>
    256c: 00 00        	<unknown>
    256e: 03 00 00 00  	lb	zero, 0(zero)
    2572: 00 00        	<unknown>
    2574: fc 0b        	<unknown>
    2576: 00 80        	<unknown>
    2578: 00 00        	<unknown>
    257a: 00 00        	<unknown>
    257c: 00 00        	<unknown>
    257e: 03 00 00 00  	lb	zero, 0(zero)
    2582: 00 00        	<unknown>
    2584: 04 0c        	<unknown>
    2586: 00 80        	<unknown>
    2588: 00 00        	<unknown>
    258a: 00 00        	<unknown>
    258c: 00 00        	<unknown>
    258e: 03 00 00 00  	lb	zero, 0(zero)
    2592: 00 00        	<unknown>
    2594: 08 0c        	<unknown>
    2596: 00 80        	<unknown>
    2598: 00 00        	<unknown>
    259a: 00 00        	<unknown>
    259c: 00 00        	<unknown>
    259e: 03 00 00 00  	lb	zero, 0(zero)
    25a2: 00 00        	<unknown>
    25a4: 28 0c        	<unknown>
    25a6: 00 80        	<unknown>
    25a8: 00 00        	<unknown>
    25aa: 00 00        	<unknown>
    25ac: 00 00        	<unknown>
    25ae: 03 00 00 00  	lb	zero, 0(zero)
    25b2: 00 00        	<unknown>
    25b4: 38 0c        	<unknown>
    25b6: 00 80        	<unknown>
    25b8: 00 00        	<unknown>
    25ba: 00 00        	<unknown>
    25bc: 00 00        	<unknown>
    25be: 03 00 00 00  	lb	zero, 0(zero)
    25c2: 00 00        	<unknown>
    25c4: 3c 0c        	<unknown>
    25c6: 00 80        	<unknown>
    25c8: 00 00        	<unknown>
    25ca: 00 00        	<unknown>
    25cc: 00 00        	<unknown>
    25ce: 03 00 00 00  	lb	zero, 0(zero)
    25d2: 00 00        	<unknown>
    25d4: 44 0c        	<unknown>
    25d6: 00 80        	<unknown>
    25d8: 00 00        	<unknown>
    25da: 00 00        	<unknown>
    25dc: 00 00        	<unknown>
    25de: 03 00 00 00  	lb	zero, 0(zero)
    25e2: 00 00        	<unknown>
    25e4: 48 0c        	<unknown>
    25e6: 00 80        	<unknown>
    25e8: 00 00        	<unknown>
    25ea: 00 00        	<unknown>
    25ec: 00 00        	<unknown>
    25ee: 03 00 00 00  	lb	zero, 0(zero)
    25f2: 00 00        	<unknown>
    25f4: 4c 0c        	<unknown>
    25f6: 00 80        	<unknown>
    25f8: 00 00        	<unknown>
    25fa: 00 00        	<unknown>
    25fc: 00 00        	<unknown>
    25fe: 03 00 00 00  	lb	zero, 0(zero)
    2602: 00 00        	<unknown>
    2604: 60 0c        	<unknown>
    2606: 00 80        	<unknown>
    2608: 00 00        	<unknown>
    260a: 00 00        	<unknown>
    260c: 00 00        	<unknown>
    260e: 03 00 00 00  	lb	zero, 0(zero)
    2612: 00 00        	<unknown>
    2614: 60 0c        	<unknown>
    2616: 00 80        	<unknown>
    2618: 00 00        	<unknown>
    261a: 00 00        	<unknown>
    261c: 00 00        	<unknown>
    261e: 03 00 00 00  	lb	zero, 0(zero)
    2622: 00 00        	<unknown>
    2624: 64 0c        	<unknown>
    2626: 00 80        	<unknown>
    2628: 00 00        	<unknown>
    262a: 00 00        	<unknown>
    262c: 00 00        	<unknown>
    262e: 03 00 00 00  	lb	zero, 0(zero)
    2632: 00 00        	<unknown>
    2634: 68 0c        	<unknown>
    2636: 00 80        	<unknown>
    2638: 00 00        	<unknown>
    263a: 00 00        	<unknown>
    263c: 00 00        	<unknown>
    263e: 03 00 00 00  	lb	zero, 0(zero)
    2642: 00 00        	<unknown>
    2644: 6c 0c        	<unknown>
    2646: 00 80        	<unknown>
    2648: 00 00        	<unknown>
    264a: 00 00        	<unknown>
    264c: 00 00        	<unknown>
    264e: 03 00 00 00  	lb	zero, 0(zero)
    2652: 00 00        	<unknown>
    2654: 70 0c        	<unknown>
    2656: 00 80        	<unknown>
    2658: 00 00        	<unknown>
    265a: 00 00        	<unknown>
    265c: 00 00        	<unknown>
    265e: 03 00 00 00  	lb	zero, 0(zero)
    2662: 00 00        	<unknown>
    2664: 78 0c        	<unknown>
    2666: 00 80        	<unknown>
    2668: 00 00        	<unknown>
    266a: 00 00        	<unknown>
    266c: 00 00        	<unknown>
    266e: 03 00 00 00  	lb	zero, 0(zero)
    2672: 00 00        	<unknown>
    2674: 7c 0c        	<unknown>
    2676: 00 80        	<unknown>
    2678: 00 00        	<unknown>
    267a: 00 00        	<unknown>
    267c: 00 00        	<unknown>
    267e: 03 00 00 00  	lb	zero, 0(zero)
    2682: 00 00        	<unknown>
    2684: 88 0c        	<unknown>
    2686: 00 80        	<unknown>
    2688: 00 00        	<unknown>
    268a: 00 00        	<unknown>
    268c: 00 00        	<unknown>
    268e: 03 00 00 00  	lb	zero, 0(zero)
    2692: 00 00        	<unknown>
    2694: 9c 0c        	<unknown>
    2696: 00 80        	<unknown>
    2698: 00 00        	<unknown>
    269a: 00 00        	<unknown>
    269c: 00 00        	<unknown>
    269e: 03 00 00 00  	lb	zero, 0(zero)
    26a2: 00 00        	<unknown>
    26a4: a4 0c        	<unknown>
    26a6: 00 80        	<unknown>
    26a8: 00 00        	<unknown>
    26aa: 00 00        	<unknown>
    26ac: 00 00        	<unknown>
    26ae: 03 00 00 00  	lb	zero, 0(zero)
    26b2: 00 00        	<unknown>
    26b4: b0 0c        	<unknown>
    26b6: 00 80        	<unknown>
    26b8: 00 00        	<unknown>
    26ba: 00 00        	<unknown>
    26bc: 00 00        	<unknown>
    26be: 03 00 00 00  	lb	zero, 0(zero)
    26c2: 00 00        	<unknown>
    26c4: b4 0c        	<unknown>
    26c6: 00 80        	<unknown>
    26c8: 00 00        	<unknown>
    26ca: 00 00        	<unknown>
    26cc: 00 00        	<unknown>
    26ce: 03 00 00 00  	lb	zero, 0(zero)
    26d2: 00 00        	<unknown>
    26d4: b8 0c        	<unknown>
    26d6: 00 80        	<unknown>
    26d8: 00 00        	<unknown>
    26da: 00 00        	<unknown>
    26dc: 00 00        	<unknown>
    26de: 03 00 00 00  	lb	zero, 0(zero)
    26e2: 00 00        	<unknown>
    26e4: c8 0c        	<unknown>
    26e6: 00 80        	<unknown>
    26e8: 00 00        	<unknown>
    26ea: 00 00        	<unknown>
    26ec: 00 00        	<unknown>
    26ee: 03 00 00 00  	lb	zero, 0(zero)
    26f2: 00 00        	<unknown>
    26f4: c8 0c        	<unknown>
    26f6: 00 80        	<unknown>
    26f8: 00 00        	<unknown>
    26fa: 00 00        	<unknown>
    26fc: 00 00        	<unknown>
    26fe: 03 00 00 00  	lb	zero, 0(zero)
    2702: 00 00        	<unknown>
    2704: cc 0c        	<unknown>
    2706: 00 80        	<unknown>
    2708: 00 00        	<unknown>
    270a: 00 00        	<unknown>
    270c: 00 00        	<unknown>
    270e: 03 00 00 00  	lb	zero, 0(zero)
    2712: 00 00        	<unknown>
    2714: d0 0c        	<unknown>
    2716: 00 80        	<unknown>
    2718: 00 00        	<unknown>
    271a: 00 00        	<unknown>
    271c: 00 00        	<unknown>
    271e: 03 00 00 00  	lb	zero, 0(zero)
    2722: 00 00        	<unknown>
    2724: fc 0c        	<unknown>
    2726: 00 80        	<unknown>
    2728: 00 00        	<unknown>
    272a: 00 00        	<unknown>
    272c: 00 00        	<unknown>
    272e: 03 00 00 00  	lb	zero, 0(zero)
    2732: 00 00        	<unknown>
    2734: 0c 0d        	<unknown>
    2736: 00 80        	<unknown>
    2738: 00 00        	<unknown>
    273a: 00 00        	<unknown>
    273c: 00 00        	<unknown>
    273e: 03 00 00 00  	lb	zero, 0(zero)
    2742: 00 00        	<unknown>
    2744: 0c 0d        	<unknown>
    2746: 00 80        	<unknown>
    2748: 00 00        	<unknown>
    274a: 00 00        	<unknown>
    274c: 00 00        	<unknown>
    274e: 03 00 00 00  	lb	zero, 0(zero)
    2752: 00 00        	<unknown>
    2754: 4c 0d        	<unknown>
    2756: 00 80        	<unknown>
    2758: 00 00        	<unknown>
    275a: 00 00        	<unknown>
    275c: 00 00        	<unknown>
    275e: 03 00 00 00  	lb	zero, 0(zero)
    2762: 00 00        	<unknown>
    2764: 4c 0d        	<unknown>
    2766: 00 80        	<unknown>
    2768: 00 00        	<unknown>
    276a: 00 00        	<unknown>
    276c: 00 00        	<unknown>
    276e: 03 00 00 00  	lb	zero, 0(zero)
    2772: 00 00        	<unknown>
    2774: 4c 0d        	<unknown>
    2776: 00 80        	<unknown>
    2778: 00 00        	<unknown>
    277a: 00 00        	<unknown>
    277c: 00 00        	<unknown>
    277e: 03 00 00 00  	lb	zero, 0(zero)
    2782: 00 00        	<unknown>
    2784: 4c 0d        	<unknown>
    2786: 00 80        	<unknown>
    2788: 00 00        	<unknown>
    278a: 00 00        	<unknown>
    278c: 00 00        	<unknown>
    278e: 03 00 00 00  	lb	zero, 0(zero)
    2792: 00 00        	<unknown>
    2794: 4c 0d        	<unknown>
    2796: 00 80        	<unknown>
    2798: 00 00        	<unknown>
    279a: 00 00        	<unknown>
    279c: 00 00        	<unknown>
    279e: 03 00 00 00  	lb	zero, 0(zero)
    27a2: 00 00        	<unknown>
    27a4: 4c 0d        	<unknown>
    27a6: 00 80        	<unknown>
    27a8: 00 00        	<unknown>
    27aa: 00 00        	<unknown>
    27ac: 00 00        	<unknown>
    27ae: 03 00 00 00  	lb	zero, 0(zero)
    27b2: 00 00        	<unknown>
    27b4: 50 0d        	<unknown>
    27b6: 00 80        	<unknown>
    27b8: 00 00        	<unknown>
    27ba: 00 00        	<unknown>
    27bc: 00 00        	<unknown>
    27be: 03 00 00 00  	lb	zero, 0(zero)
    27c2: 00 00        	<unknown>
    27c4: 58 0d        	<unknown>
    27c6: 00 80        	<unknown>
    27c8: 00 00        	<unknown>
    27ca: 00 00        	<unknown>
    27cc: 00 00        	<unknown>
    27ce: 03 00 00 00  	lb	zero, 0(zero)
    27d2: 00 00        	<unknown>
    27d4: 5c 0d        	<unknown>
    27d6: 00 80        	<unknown>
    27d8: 00 00        	<unknown>
    27da: 00 00        	<unknown>
    27dc: 00 00        	<unknown>
    27de: 03 00 00 00  	lb	zero, 0(zero)
    27e2: 00 00        	<unknown>
    27e4: 5c 0d        	<unknown>
    27e6: 00 80        	<unknown>
    27e8: 00 00        	<unknown>
    27ea: 00 00        	<unknown>
    27ec: 00 00        	<unknown>
    27ee: 03 00 00 00  	lb	zero, 0(zero)
    27f2: 00 00        	<unknown>
    27f4: 5c 0d        	<unknown>
    27f6: 00 80        	<unknown>
    27f8: 00 00        	<unknown>
    27fa: 00 00        	<unknown>
    27fc: 00 00        	<unknown>
    27fe: 03 00 00 00  	lb	zero, 0(zero)
    2802: 00 00        	<unknown>
    2804: 5c 0d        	<unknown>
    2806: 00 80        	<unknown>
    2808: 00 00        	<unknown>
    280a: 00 00        	<unknown>
    280c: 00 00        	<unknown>
    280e: 03 00 00 00  	lb	zero, 0(zero)
    2812: 00 00        	<unknown>
    2814: 5c 0d        	<unknown>
    2816: 00 80        	<unknown>
    2818: 00 00        	<unknown>
    281a: 00 00        	<unknown>
    281c: 00 00        	<unknown>
    281e: 03 00 00 00  	lb	zero, 0(zero)
    2822: 00 00        	<unknown>
    2824: 60 0d        	<unknown>
    2826: 00 80        	<unknown>
    2828: 00 00        	<unknown>
    282a: 00 00        	<unknown>
    282c: 00 00        	<unknown>
    282e: 03 00 00 00  	lb	zero, 0(zero)
    2832: 00 00        	<unknown>
    2834: 64 0d        	<unknown>
    2836: 00 80        	<unknown>
    2838: 00 00        	<unknown>
    283a: 00 00        	<unknown>
    283c: 00 00        	<unknown>
    283e: 03 00 00 00  	lb	zero, 0(zero)
    2842: 00 00        	<unknown>
    2844: 88 0d        	<unknown>
    2846: 00 80        	<unknown>
    2848: 00 00        	<unknown>
    284a: 00 00        	<unknown>
    284c: 00 00        	<unknown>
    284e: 03 00 c6 00  	lb	zero, 12(a2)
    2852: 00 00        	<unknown>
    2854: b4 0d        	<unknown>
    2856: 00 80        	<unknown>
    2858: 10 00        	<unknown>
    285a: 00 00        	<unknown>
    285c: 02 00        	<unknown>
    285e: 03 00 00 00  	lb	zero, 0(zero)
    2862: 00 00        	<unknown>
    2864: 8c 0d        	<unknown>
    2866: 00 80        	<unknown>
    2868: 00 00        	<unknown>
    286a: 00 00        	<unknown>
    286c: 00 00        	<unknown>
    286e: 03 00 00 00  	lb	zero, 0(zero)
    2872: 00 00        	<unknown>
    2874: a8 0d        	<unknown>
    2876: 00 80        	<unknown>
    2878: 00 00        	<unknown>
    287a: 00 00        	<unknown>
    287c: 00 00        	<unknown>
    287e: 03 00 00 00  	lb	zero, 0(zero)
    2882: 00 00        	<unknown>
    2884: a8 0d        	<unknown>
    2886: 00 80        	<unknown>
    2888: 00 00        	<unknown>
    288a: 00 00        	<unknown>
    288c: 00 00        	<unknown>
    288e: 03 00 00 00  	lb	zero, 0(zero)
    2892: 00 00        	<unknown>
    2894: b4 0d        	<unknown>
    2896: 00 80        	<unknown>
    2898: 00 00        	<unknown>
    289a: 00 00        	<unknown>
    289c: 00 00        	<unknown>
    289e: 03 00 00 00  	lb	zero, 0(zero)
    28a2: 00 00        	<unknown>
    28a4: b4 0d        	<unknown>
    28a6: 00 80        	<unknown>
    28a8: 00 00        	<unknown>
    28aa: 00 00        	<unknown>
    28ac: 00 00        	<unknown>
    28ae: 03 00 00 00  	lb	zero, 0(zero)
    28b2: 00 00        	<unknown>
    28b4: b4 0d        	<unknown>
    28b6: 00 80        	<unknown>
    28b8: 00 00        	<unknown>
    28ba: 00 00        	<unknown>
    28bc: 00 00        	<unknown>
    28be: 03 00 00 00  	lb	zero, 0(zero)
    28c2: 00 00        	<unknown>
    28c4: b4 0d        	<unknown>
    28c6: 00 80        	<unknown>
    28c8: 00 00        	<unknown>
    28ca: 00 00        	<unknown>
    28cc: 00 00        	<unknown>
    28ce: 03 00 00 00  	lb	zero, 0(zero)
    28d2: 00 00        	<unknown>
    28d4: b4 0d        	<unknown>
    28d6: 00 80        	<unknown>
    28d8: 00 00        	<unknown>
    28da: 00 00        	<unknown>
    28dc: 00 00        	<unknown>
    28de: 03 00 00 00  	lb	zero, 0(zero)
    28e2: 00 00        	<unknown>
    28e4: b4 0d        	<unknown>
    28e6: 00 80        	<unknown>
    28e8: 00 00        	<unknown>
    28ea: 00 00        	<unknown>
    28ec: 00 00        	<unknown>
    28ee: 03 00 00 00  	lb	zero, 0(zero)
    28f2: 00 00        	<unknown>
    28f4: b8 0d        	<unknown>
    28f6: 00 80        	<unknown>
    28f8: 00 00        	<unknown>
    28fa: 00 00        	<unknown>
    28fc: 00 00        	<unknown>
    28fe: 03 00 00 00  	lb	zero, 0(zero)
    2902: 00 00        	<unknown>
    2904: bc 0d        	<unknown>
    2906: 00 80        	<unknown>
    2908: 00 00        	<unknown>
    290a: 00 00        	<unknown>
    290c: 00 00        	<unknown>
    290e: 03 00 00 00  	lb	zero, 0(zero)
    2912: 00 00        	<unknown>
    2914: c0 0d        	<unknown>
    2916: 00 80        	<unknown>
    2918: 00 00        	<unknown>
    291a: 00 00        	<unknown>
    291c: 00 00        	<unknown>
    291e: 03 00 00 00  	lb	zero, 0(zero)
    2922: 00 00        	<unknown>
    2924: c4 0d        	<unknown>
    2926: 00 80        	<unknown>
    2928: 00 00        	<unknown>
    292a: 00 00        	<unknown>
    292c: 00 00        	<unknown>
    292e: 03 00 00 00  	lb	zero, 0(zero)
    2932: 00 00        	<unknown>
    2934: c4 0d        	<unknown>
    2936: 00 80        	<unknown>
    2938: 00 00        	<unknown>
    293a: 00 00        	<unknown>
    293c: 00 00        	<unknown>
    293e: 03 00 00 00  	lb	zero, 0(zero)
    2942: 00 00        	<unknown>
    2944: c4 0d        	<unknown>
    2946: 00 80        	<unknown>
    2948: 00 00        	<unknown>
    294a: 00 00        	<unknown>
    294c: 00 00        	<unknown>
    294e: 03 00 00 00  	lb	zero, 0(zero)
    2952: 00 00        	<unknown>
    2954: c4 0d        	<unknown>
    2956: 00 80        	<unknown>
    2958: 00 00        	<unknown>
    295a: 00 00        	<unknown>
    295c: 00 00        	<unknown>
    295e: 03 00 00 00  	lb	zero, 0(zero)
    2962: 00 00        	<unknown>
    2964: c4 0d        	<unknown>
    2966: 00 80        	<unknown>
    2968: 00 00        	<unknown>
    296a: 00 00        	<unknown>
    296c: 00 00        	<unknown>
    296e: 03 00 00 00  	lb	zero, 0(zero)
    2972: 00 00        	<unknown>
    2974: c8 0d        	<unknown>
    2976: 00 80        	<unknown>
    2978: 00 00        	<unknown>
    297a: 00 00        	<unknown>
    297c: 00 00        	<unknown>
    297e: 03 00 00 00  	lb	zero, 0(zero)
    2982: 00 00        	<unknown>
    2984: cc 0d        	<unknown>
    2986: 00 80        	<unknown>
    2988: 00 00        	<unknown>
    298a: 00 00        	<unknown>
    298c: 00 00        	<unknown>
    298e: 03 00 00 00  	lb	zero, 0(zero)
    2992: 00 00        	<unknown>
    2994: f0 0d        	<unknown>
    2996: 00 80        	<unknown>
    2998: 00 00        	<unknown>
    299a: 00 00        	<unknown>
    299c: 00 00        	<unknown>
    299e: 03 00 00 00  	lb	zero, 0(zero)
    29a2: 00 00        	<unknown>
    29a4: f4 0d        	<unknown>
    29a6: 00 80        	<unknown>
    29a8: 00 00        	<unknown>
    29aa: 00 00        	<unknown>
    29ac: 00 00        	<unknown>
    29ae: 03 00 00 00  	lb	zero, 0(zero)
    29b2: 00 00        	<unknown>
    29b4: 0c 0e        	<unknown>
    29b6: 00 80        	<unknown>
    29b8: 00 00        	<unknown>
    29ba: 00 00        	<unknown>
    29bc: 00 00        	<unknown>
    29be: 03 00 00 00  	lb	zero, 0(zero)
    29c2: 00 00        	<unknown>
    29c4: 0c 0e        	<unknown>
    29c6: 00 80        	<unknown>
    29c8: 00 00        	<unknown>
    29ca: 00 00        	<unknown>
    29cc: 00 00        	<unknown>
    29ce: 03 00 00 00  	lb	zero, 0(zero)
    29d2: 00 00        	<unknown>
    29d4: 18 0e        	<unknown>
    29d6: 00 80        	<unknown>
    29d8: 00 00        	<unknown>
    29da: 00 00        	<unknown>
    29dc: 00 00        	<unknown>
    29de: 03 00 00 00  	lb	zero, 0(zero)
    29e2: 00 00        	<unknown>
    29e4: 18 0e        	<unknown>
    29e6: 00 80        	<unknown>
    29e8: 00 00        	<unknown>
    29ea: 00 00        	<unknown>
    29ec: 00 00        	<unknown>
    29ee: 03 00 00 00  	lb	zero, 0(zero)
    29f2: 00 00        	<unknown>
    29f4: 18 0e        	<unknown>
    29f6: 00 80        	<unknown>
    29f8: 00 00        	<unknown>
    29fa: 00 00        	<unknown>
    29fc: 00 00        	<unknown>
    29fe: 03 00 00 00  	lb	zero, 0(zero)
    2a02: 00 00        	<unknown>
    2a04: 18 0e        	<unknown>
    2a06: 00 80        	<unknown>
    2a08: 00 00        	<unknown>
    2a0a: 00 00        	<unknown>
    2a0c: 00 00        	<unknown>
    2a0e: 03 00 00 00  	lb	zero, 0(zero)
    2a12: 00 00        	<unknown>
    2a14: 18 0e        	<unknown>
    2a16: 00 80        	<unknown>
    2a18: 00 00        	<unknown>
    2a1a: 00 00        	<unknown>
    2a1c: 00 00        	<unknown>
    2a1e: 03 00 00 00  	lb	zero, 0(zero)
    2a22: 00 00        	<unknown>
    2a24: 28 0e        	<unknown>
    2a26: 00 80        	<unknown>
    2a28: 00 00        	<unknown>
    2a2a: 00 00        	<unknown>
    2a2c: 00 00        	<unknown>
    2a2e: 03 00 00 00  	lb	zero, 0(zero)
    2a32: 00 00        	<unknown>
    2a34: 30 0e        	<unknown>
    2a36: 00 80        	<unknown>
    2a38: 00 00        	<unknown>
    2a3a: 00 00        	<unknown>
    2a3c: 00 00        	<unknown>
    2a3e: 03 00 00 00  	lb	zero, 0(zero)
    2a42: 00 00        	<unknown>
    2a44: 38 0e        	<unknown>
    2a46: 00 80        	<unknown>
    2a48: 00 00        	<unknown>
    2a4a: 00 00        	<unknown>
    2a4c: 00 00        	<unknown>
    2a4e: 03 00 00 00  	lb	zero, 0(zero)
    2a52: 00 00        	<unknown>
    2a54: 38 0e        	<unknown>
    2a56: 00 80        	<unknown>
    2a58: 00 00        	<unknown>
    2a5a: 00 00        	<unknown>
    2a5c: 00 00        	<unknown>
    2a5e: 03 00 00 00  	lb	zero, 0(zero)
    2a62: 00 00        	<unknown>
    2a64: 38 0e        	<unknown>
    2a66: 00 80        	<unknown>
    2a68: 00 00        	<unknown>
    2a6a: 00 00        	<unknown>
    2a6c: 00 00        	<unknown>
    2a6e: 03 00 00 00  	lb	zero, 0(zero)
    2a72: 00 00        	<unknown>
    2a74: 38 0e        	<unknown>
    2a76: 00 80        	<unknown>
    2a78: 00 00        	<unknown>
    2a7a: 00 00        	<unknown>
    2a7c: 00 00        	<unknown>
    2a7e: 03 00 00 00  	lb	zero, 0(zero)
    2a82: 00 00        	<unknown>
    2a84: 38 0e        	<unknown>
    2a86: 00 80        	<unknown>
    2a88: 00 00        	<unknown>
    2a8a: 00 00        	<unknown>
    2a8c: 00 00        	<unknown>
    2a8e: 03 00 00 00  	lb	zero, 0(zero)
    2a92: 00 00        	<unknown>
    2a94: 3c 0e        	<unknown>
    2a96: 00 80        	<unknown>
    2a98: 00 00        	<unknown>
    2a9a: 00 00        	<unknown>
    2a9c: 00 00        	<unknown>
    2a9e: 03 00 00 00  	lb	zero, 0(zero)
    2aa2: 00 00        	<unknown>
    2aa4: 40 0e        	<unknown>
    2aa6: 00 80        	<unknown>
    2aa8: 00 00        	<unknown>
    2aaa: 00 00        	<unknown>
    2aac: 00 00        	<unknown>
    2aae: 03 00 00 00  	lb	zero, 0(zero)
    2ab2: 00 00        	<unknown>
    2ab4: 5c 0e        	<unknown>
    2ab6: 00 80        	<unknown>
    2ab8: 00 00        	<unknown>
    2aba: 00 00        	<unknown>
    2abc: 00 00        	<unknown>
    2abe: 03 00 00 00  	lb	zero, 0(zero)
    2ac2: 00 00        	<unknown>
    2ac4: 60 0e        	<unknown>
    2ac6: 00 80        	<unknown>
    2ac8: 00 00        	<unknown>
    2aca: 00 00        	<unknown>
    2acc: 00 00        	<unknown>
    2ace: 03 00 d2 00  	lb	zero, 13(tp)
    2ad2: 00 00        	<unknown>
    2ad4: 94 0e        	<unknown>
    2ad6: 00 80        	<unknown>
    2ad8: 14 00        	<unknown>
    2ada: 00 00        	<unknown>
    2adc: 02 00        	<unknown>
    2ade: 03 00 00 00  	lb	zero, 0(zero)
    2ae2: 00 00        	<unknown>
    2ae4: 68 0e        	<unknown>
    2ae6: 00 80        	<unknown>
    2ae8: 00 00        	<unknown>
    2aea: 00 00        	<unknown>
    2aec: 00 00        	<unknown>
    2aee: 03 00 00 00  	lb	zero, 0(zero)
    2af2: 00 00        	<unknown>
    2af4: 88 0e        	<unknown>
    2af6: 00 80        	<unknown>
    2af8: 00 00        	<unknown>
    2afa: 00 00        	<unknown>
    2afc: 00 00        	<unknown>
    2afe: 03 00 00 00  	lb	zero, 0(zero)
    2b02: 00 00        	<unknown>
    2b04: 88 0e        	<unknown>
    2b06: 00 80        	<unknown>
    2b08: 00 00        	<unknown>
    2b0a: 00 00        	<unknown>
    2b0c: 00 00        	<unknown>
    2b0e: 03 00 00 00  	lb	zero, 0(zero)
    2b12: 00 00        	<unknown>
    2b14: 94 0e        	<unknown>
    2b16: 00 80        	<unknown>
    2b18: 00 00        	<unknown>
    2b1a: 00 00        	<unknown>
    2b1c: 00 00        	<unknown>
    2b1e: 03 00 00 00  	lb	zero, 0(zero)
    2b22: 00 00        	<unknown>
    2b24: 94 0e        	<unknown>
    2b26: 00 80        	<unknown>
    2b28: 00 00        	<unknown>
    2b2a: 00 00        	<unknown>
    2b2c: 00 00        	<unknown>
    2b2e: 03 00 00 00  	lb	zero, 0(zero)
    2b32: 00 00        	<unknown>
    2b34: 94 0e        	<unknown>
    2b36: 00 80        	<unknown>
    2b38: 00 00        	<unknown>
    2b3a: 00 00        	<unknown>
    2b3c: 00 00        	<unknown>
    2b3e: 03 00 00 00  	lb	zero, 0(zero)
    2b42: 00 00        	<unknown>
    2b44: 94 0e        	<unknown>
    2b46: 00 80        	<unknown>
    2b48: 00 00        	<unknown>
    2b4a: 00 00        	<unknown>
    2b4c: 00 00        	<unknown>
    2b4e: 03 00 00 00  	lb	zero, 0(zero)
    2b52: 00 00        	<unknown>
    2b54: 94 0e        	<unknown>
    2b56: 00 80        	<unknown>
    2b58: 00 00        	<unknown>
    2b5a: 00 00        	<unknown>
    2b5c: 00 00        	<unknown>
    2b5e: 03 00 00 00  	lb	zero, 0(zero)
    2b62: 00 00        	<unknown>
    2b64: 94 0e        	<unknown>
    2b66: 00 80        	<unknown>
    2b68: 00 00        	<unknown>
    2b6a: 00 00        	<unknown>
    2b6c: 00 00        	<unknown>
    2b6e: 03 00 00 00  	lb	zero, 0(zero)
    2b72: 00 00        	<unknown>
    2b74: 98 0e        	<unknown>
    2b76: 00 80        	<unknown>
    2b78: 00 00        	<unknown>
    2b7a: 00 00        	<unknown>
    2b7c: 00 00        	<unknown>
    2b7e: 03 00 00 00  	lb	zero, 0(zero)
    2b82: 00 00        	<unknown>
    2b84: 9c 0e        	<unknown>
    2b86: 00 80        	<unknown>
    2b88: 00 00        	<unknown>
    2b8a: 00 00        	<unknown>
    2b8c: 00 00        	<unknown>
    2b8e: 03 00 00 00  	lb	zero, 0(zero)
    2b92: 00 00        	<unknown>
    2b94: a0 0e        	<unknown>
    2b96: 00 80        	<unknown>
    2b98: 00 00        	<unknown>
    2b9a: 00 00        	<unknown>
    2b9c: 00 00        	<unknown>
    2b9e: 03 00 00 00  	lb	zero, 0(zero)
    2ba2: 00 00        	<unknown>
    2ba4: a0 0e        	<unknown>
    2ba6: 00 80        	<unknown>
    2ba8: 00 00        	<unknown>
    2baa: 00 00        	<unknown>
    2bac: 00 00        	<unknown>
    2bae: 03 00 00 00  	lb	zero, 0(zero)
    2bb2: 00 00        	<unknown>
    2bb4: a4 0e        	<unknown>
    2bb6: 00 80        	<unknown>
    2bb8: 00 00        	<unknown>
    2bba: 00 00        	<unknown>
    2bbc: 00 00        	<unknown>
    2bbe: 03 00 00 00  	lb	zero, 0(zero)
    2bc2: 00 00        	<unknown>
    2bc4: a8 0e        	<unknown>
    2bc6: 00 80        	<unknown>
    2bc8: 00 00        	<unknown>
    2bca: 00 00        	<unknown>
    2bcc: 00 00        	<unknown>
    2bce: 03 00 00 00  	lb	zero, 0(zero)
    2bd2: 00 00        	<unknown>
    2bd4: a8 0e        	<unknown>
    2bd6: 00 80        	<unknown>
    2bd8: 00 00        	<unknown>
    2bda: 00 00        	<unknown>
    2bdc: 00 00        	<unknown>
    2bde: 03 00 00 00  	lb	zero, 0(zero)
    2be2: 00 00        	<unknown>
    2be4: a8 0e        	<unknown>
    2be6: 00 80        	<unknown>
    2be8: 00 00        	<unknown>
    2bea: 00 00        	<unknown>
    2bec: 00 00        	<unknown>
    2bee: 03 00 00 00  	lb	zero, 0(zero)
    2bf2: 00 00        	<unknown>
    2bf4: a8 0e        	<unknown>
    2bf6: 00 80        	<unknown>
    2bf8: 00 00        	<unknown>
    2bfa: 00 00        	<unknown>
    2bfc: 00 00        	<unknown>
    2bfe: 03 00 00 00  	lb	zero, 0(zero)
    2c02: 00 00        	<unknown>
    2c04: a8 0e        	<unknown>
    2c06: 00 80        	<unknown>
    2c08: 00 00        	<unknown>
    2c0a: 00 00        	<unknown>
    2c0c: 00 00        	<unknown>
    2c0e: 03 00 00 00  	lb	zero, 0(zero)
    2c12: 00 00        	<unknown>
    2c14: a8 0e        	<unknown>
    2c16: 00 80        	<unknown>
    2c18: 00 00        	<unknown>
    2c1a: 00 00        	<unknown>
    2c1c: 00 00        	<unknown>
    2c1e: 03 00 00 00  	lb	zero, 0(zero)
    2c22: 00 00        	<unknown>
    2c24: ac 0e        	<unknown>
    2c26: 00 80        	<unknown>
    2c28: 00 00        	<unknown>
    2c2a: 00 00        	<unknown>
    2c2c: 00 00        	<unknown>
    2c2e: 03 00 00 00  	lb	zero, 0(zero)
    2c32: 00 00        	<unknown>
    2c34: ac 0e        	<unknown>
    2c36: 00 80        	<unknown>
    2c38: 00 00        	<unknown>
    2c3a: 00 00        	<unknown>
    2c3c: 00 00        	<unknown>
    2c3e: 03 00 00 00  	lb	zero, 0(zero)
    2c42: 00 00        	<unknown>
    2c44: ac 0e        	<unknown>
    2c46: 00 80        	<unknown>
    2c48: 00 00        	<unknown>
    2c4a: 00 00        	<unknown>
    2c4c: 00 00        	<unknown>
    2c4e: 03 00 00 00  	lb	zero, 0(zero)
    2c52: 00 00        	<unknown>
    2c54: ac 0e        	<unknown>
    2c56: 00 80        	<unknown>
    2c58: 00 00        	<unknown>
    2c5a: 00 00        	<unknown>
    2c5c: 00 00        	<unknown>
    2c5e: 03 00 00 00  	lb	zero, 0(zero)
    2c62: 00 00        	<unknown>
    2c64: ac 0e        	<unknown>
    2c66: 00 80        	<unknown>
    2c68: 00 00        	<unknown>
    2c6a: 00 00        	<unknown>
    2c6c: 00 00        	<unknown>
    2c6e: 03 00 00 00  	lb	zero, 0(zero)
    2c72: 00 00        	<unknown>
    2c74: b0 0e        	<unknown>
    2c76: 00 80        	<unknown>
    2c78: 00 00        	<unknown>
    2c7a: 00 00        	<unknown>
    2c7c: 00 00        	<unknown>
    2c7e: 03 00 00 00  	lb	zero, 0(zero)
    2c82: 00 00        	<unknown>
    2c84: dc 0e        	<unknown>
    2c86: 00 80        	<unknown>
    2c88: 00 00        	<unknown>
    2c8a: 00 00        	<unknown>
    2c8c: 00 00        	<unknown>
    2c8e: 03 00 00 00  	lb	zero, 0(zero)
    2c92: 00 00        	<unknown>
    2c94: f0 0e        	<unknown>
    2c96: 00 80        	<unknown>
    2c98: 00 00        	<unknown>
    2c9a: 00 00        	<unknown>
    2c9c: 00 00        	<unknown>
    2c9e: 03 00 00 00  	lb	zero, 0(zero)
    2ca2: 00 00        	<unknown>
    2ca4: f4 0e        	<unknown>
    2ca6: 00 80        	<unknown>
    2ca8: 00 00        	<unknown>
    2caa: 00 00        	<unknown>
    2cac: 00 00        	<unknown>
    2cae: 03 00 00 00  	lb	zero, 0(zero)
    2cb2: 00 00        	<unknown>
    2cb4: f8 0e        	<unknown>
    2cb6: 00 80        	<unknown>
    2cb8: 00 00        	<unknown>
    2cba: 00 00        	<unknown>
    2cbc: 00 00        	<unknown>
    2cbe: 03 00 00 00  	lb	zero, 0(zero)
    2cc2: 00 00        	<unknown>
    2cc4: 00 0f        	<unknown>
    2cc6: 00 80        	<unknown>
    2cc8: 00 00        	<unknown>
    2cca: 00 00        	<unknown>
    2ccc: 00 00        	<unknown>
    2cce: 03 00 00 00  	lb	zero, 0(zero)
    2cd2: 00 00        	<unknown>
    2cd4: 08 0f        	<unknown>
    2cd6: 00 80        	<unknown>
    2cd8: 00 00        	<unknown>
    2cda: 00 00        	<unknown>
    2cdc: 00 00        	<unknown>
    2cde: 03 00 00 00  	lb	zero, 0(zero)
    2ce2: 00 00        	<unknown>
    2ce4: 10 0f        	<unknown>
    2ce6: 00 80        	<unknown>
    2ce8: 00 00        	<unknown>
    2cea: 00 00        	<unknown>
    2cec: 00 00        	<unknown>
    2cee: 03 00 00 00  	lb	zero, 0(zero)
    2cf2: 00 00        	<unknown>
    2cf4: 2c 0f        	<unknown>
    2cf6: 00 80        	<unknown>
    2cf8: 00 00        	<unknown>
    2cfa: 00 00        	<unknown>
    2cfc: 00 00        	<unknown>
    2cfe: 03 00 00 00  	lb	zero, 0(zero)
    2d02: 00 00        	<unknown>
    2d04: 30 0f        	<unknown>
    2d06: 00 80        	<unknown>
    2d08: 00 00        	<unknown>
    2d0a: 00 00        	<unknown>
    2d0c: 00 00        	<unknown>
    2d0e: 03 00 00 00  	lb	zero, 0(zero)
    2d12: 00 00        	<unknown>
    2d14: 34 0f        	<unknown>
    2d16: 00 80        	<unknown>
    2d18: 00 00        	<unknown>
    2d1a: 00 00        	<unknown>
    2d1c: 00 00        	<unknown>
    2d1e: 03 00 00 00  	lb	zero, 0(zero)
    2d22: 00 00        	<unknown>
    2d24: 3c 0f        	<unknown>
    2d26: 00 80        	<unknown>
    2d28: 00 00        	<unknown>
    2d2a: 00 00        	<unknown>
    2d2c: 00 00        	<unknown>
    2d2e: 03 00 00 00  	lb	zero, 0(zero)
    2d32: 00 00        	<unknown>
    2d34: 44 0f        	<unknown>
    2d36: 00 80        	<unknown>
    2d38: 00 00        	<unknown>
    2d3a: 00 00        	<unknown>
    2d3c: 00 00        	<unknown>
    2d3e: 03 00 00 00  	lb	zero, 0(zero)
    2d42: 00 00        	<unknown>
    2d44: 54 0f        	<unknown>
    2d46: 00 80        	<unknown>
    2d48: 00 00        	<unknown>
    2d4a: 00 00        	<unknown>
    2d4c: 00 00        	<unknown>
    2d4e: 03 00 00 00  	lb	zero, 0(zero)
    2d52: 00 00        	<unknown>
    2d54: 58 0f        	<unknown>
    2d56: 00 80        	<unknown>
    2d58: 00 00        	<unknown>
    2d5a: 00 00        	<unknown>
    2d5c: 00 00        	<unknown>
    2d5e: 03 00 00 00  	lb	zero, 0(zero)
    2d62: 00 00        	<unknown>
    2d64: 60 0f        	<unknown>
    2d66: 00 80        	<unknown>
    2d68: 00 00        	<unknown>
    2d6a: 00 00        	<unknown>
    2d6c: 00 00        	<unknown>
    2d6e: 03 00 00 00  	lb	zero, 0(zero)
    2d72: 00 00        	<unknown>
    2d74: 68 0f        	<unknown>
    2d76: 00 80        	<unknown>
    2d78: 00 00        	<unknown>
    2d7a: 00 00        	<unknown>
    2d7c: 00 00        	<unknown>
    2d7e: 03 00 00 00  	lb	zero, 0(zero)
    2d82: 00 00        	<unknown>
    2d84: 70 0f        	<unknown>
    2d86: 00 80        	<unknown>
    2d88: 00 00        	<unknown>
    2d8a: 00 00        	<unknown>
    2d8c: 00 00        	<unknown>
    2d8e: 03 00 00 00  	lb	zero, 0(zero)
    2d92: 00 00        	<unknown>
    2d94: 78 0f        	<unknown>
    2d96: 00 80        	<unknown>
    2d98: 00 00        	<unknown>
    2d9a: 00 00        	<unknown>
    2d9c: 00 00        	<unknown>
    2d9e: 03 00 00 00  	lb	zero, 0(zero)
    2da2: 00 00        	<unknown>
    2da4: 7c 0f        	<unknown>
    2da6: 00 80        	<unknown>
    2da8: 00 00        	<unknown>
    2daa: 00 00        	<unknown>
    2dac: 00 00        	<unknown>
    2dae: 03 00 00 00  	lb	zero, 0(zero)
    2db2: 00 00        	<unknown>
    2db4: 80 0f        	<unknown>
    2db6: 00 80        	<unknown>
    2db8: 00 00        	<unknown>
    2dba: 00 00        	<unknown>
    2dbc: 00 00        	<unknown>
    2dbe: 03 00 00 00  	lb	zero, 0(zero)
    2dc2: 00 00        	<unknown>
    2dc4: 84 0f        	<unknown>
    2dc6: 00 80        	<unknown>
    2dc8: 00 00        	<unknown>
    2dca: 00 00        	<unknown>
    2dcc: 00 00        	<unknown>
    2dce: 03 00 00 00  	lb	zero, 0(zero)
    2dd2: 00 00        	<unknown>
    2dd4: 88 0f        	<unknown>
    2dd6: 00 80        	<unknown>
    2dd8: 00 00        	<unknown>
    2dda: 00 00        	<unknown>
    2ddc: 00 00        	<unknown>
    2dde: 03 00 00 00  	lb	zero, 0(zero)
    2de2: 00 00        	<unknown>
    2de4: 8c 0f        	<unknown>
    2de6: 00 80        	<unknown>
    2de8: 00 00        	<unknown>
    2dea: 00 00        	<unknown>
    2dec: 00 00        	<unknown>
    2dee: 03 00 00 00  	lb	zero, 0(zero)
    2df2: 00 00        	<unknown>
    2df4: 94 0f        	<unknown>
    2df6: 00 80        	<unknown>
    2df8: 00 00        	<unknown>
    2dfa: 00 00        	<unknown>
    2dfc: 00 00        	<unknown>
    2dfe: 03 00 00 00  	lb	zero, 0(zero)
    2e02: 00 00        	<unknown>
    2e04: 9c 0f        	<unknown>
    2e06: 00 80        	<unknown>
    2e08: 00 00        	<unknown>
    2e0a: 00 00        	<unknown>
    2e0c: 00 00        	<unknown>
    2e0e: 03 00 00 00  	lb	zero, 0(zero)
    2e12: 00 00        	<unknown>
    2e14: a4 0f        	<unknown>
    2e16: 00 80        	<unknown>
    2e18: 00 00        	<unknown>
    2e1a: 00 00        	<unknown>
    2e1c: 00 00        	<unknown>
    2e1e: 03 00 00 00  	lb	zero, 0(zero)
    2e22: 00 00        	<unknown>
    2e24: b0 0f        	<unknown>
    2e26: 00 80        	<unknown>
    2e28: 00 00        	<unknown>
    2e2a: 00 00        	<unknown>
    2e2c: 00 00        	<unknown>
    2e2e: 03 00 00 00  	lb	zero, 0(zero)
    2e32: 00 00        	<unknown>
    2e34: b4 0f        	<unknown>
    2e36: 00 80        	<unknown>
    2e38: 00 00        	<unknown>
    2e3a: 00 00        	<unknown>
    2e3c: 00 00        	<unknown>
    2e3e: 03 00 00 00  	lb	zero, 0(zero)
    2e42: 00 00        	<unknown>
    2e44: bc 0f        	<unknown>
    2e46: 00 80        	<unknown>
    2e48: 00 00        	<unknown>
    2e4a: 00 00        	<unknown>
    2e4c: 00 00        	<unknown>
    2e4e: 03 00 00 00  	lb	zero, 0(zero)
    2e52: 00 00        	<unknown>
    2e54: c4 0f        	<unknown>
    2e56: 00 80        	<unknown>
    2e58: 00 00        	<unknown>
    2e5a: 00 00        	<unknown>
    2e5c: 00 00        	<unknown>
    2e5e: 03 00 00 00  	lb	zero, 0(zero)
    2e62: 00 00        	<unknown>
    2e64: c8 0f        	<unknown>
    2e66: 00 80        	<unknown>
    2e68: 00 00        	<unknown>
    2e6a: 00 00        	<unknown>
    2e6c: 00 00        	<unknown>
    2e6e: 03 00 00 00  	lb	zero, 0(zero)
    2e72: 00 00        	<unknown>
    2e74: d0 0f        	<unknown>
    2e76: 00 80        	<unknown>
    2e78: 00 00        	<unknown>
    2e7a: 00 00        	<unknown>
    2e7c: 00 00        	<unknown>
    2e7e: 03 00 00 00  	lb	zero, 0(zero)
    2e82: 00 00        	<unknown>
    2e84: d4 0f        	<unknown>
    2e86: 00 80        	<unknown>
    2e88: 00 00        	<unknown>
    2e8a: 00 00        	<unknown>
    2e8c: 00 00        	<unknown>
    2e8e: 03 00 00 00  	lb	zero, 0(zero)
    2e92: 00 00        	<unknown>
    2e94: e0 0f        	<unknown>
    2e96: 00 80        	<unknown>
    2e98: 00 00        	<unknown>
    2e9a: 00 00        	<unknown>
    2e9c: 00 00        	<unknown>
    2e9e: 03 00 00 00  	lb	zero, 0(zero)
    2ea2: 00 00        	<unknown>
    2ea4: e4 0f        	<unknown>
    2ea6: 00 80        	<unknown>
    2ea8: 00 00        	<unknown>
    2eaa: 00 00        	<unknown>
    2eac: 00 00        	<unknown>
    2eae: 03 00 00 00  	lb	zero, 0(zero)
    2eb2: 00 00        	<unknown>
    2eb4: ec 0f        	<unknown>
    2eb6: 00 80        	<unknown>
    2eb8: 00 00        	<unknown>
    2eba: 00 00        	<unknown>
    2ebc: 00 00        	<unknown>
    2ebe: 03 00 00 00  	lb	zero, 0(zero)
    2ec2: 00 00        	<unknown>
    2ec4: f0 0f        	<unknown>
    2ec6: 00 80        	<unknown>
    2ec8: 00 00        	<unknown>
    2eca: 00 00        	<unknown>
    2ecc: 00 00        	<unknown>
    2ece: 03 00 00 00  	lb	zero, 0(zero)
    2ed2: 00 00        	<unknown>
    2ed4: f4 0f        	<unknown>
    2ed6: 00 80        	<unknown>
    2ed8: 00 00        	<unknown>
    2eda: 00 00        	<unknown>
    2edc: 00 00        	<unknown>
    2ede: 03 00 00 00  	lb	zero, 0(zero)
    2ee2: 00 00        	<unknown>
    2ee4: 04 10        	<unknown>
    2ee6: 00 80        	<unknown>
    2ee8: 00 00        	<unknown>
    2eea: 00 00        	<unknown>
    2eec: 00 00        	<unknown>
    2eee: 03 00 00 00  	lb	zero, 0(zero)
    2ef2: 00 00        	<unknown>
    2ef4: 0c 10        	<unknown>
    2ef6: 00 80        	<unknown>
    2ef8: 00 00        	<unknown>
    2efa: 00 00        	<unknown>
    2efc: 00 00        	<unknown>
    2efe: 03 00 00 00  	lb	zero, 0(zero)
    2f02: 00 00        	<unknown>
    2f04: 14 10        	<unknown>
    2f06: 00 80        	<unknown>
    2f08: 00 00        	<unknown>
    2f0a: 00 00        	<unknown>
    2f0c: 00 00        	<unknown>
    2f0e: 03 00 00 00  	lb	zero, 0(zero)
    2f12: 00 00        	<unknown>
    2f14: 20 10        	<unknown>
    2f16: 00 80        	<unknown>
    2f18: 00 00        	<unknown>
    2f1a: 00 00        	<unknown>
    2f1c: 00 00        	<unknown>
    2f1e: 03 00 00 00  	lb	zero, 0(zero)
    2f22: 00 00        	<unknown>
    2f24: 24 10        	<unknown>
    2f26: 00 80        	<unknown>
    2f28: 00 00        	<unknown>
    2f2a: 00 00        	<unknown>
    2f2c: 00 00        	<unknown>
    2f2e: 03 00 00 00  	lb	zero, 0(zero)
    2f32: 00 00        	<unknown>
    2f34: 28 10        	<unknown>
    2f36: 00 80        	<unknown>
    2f38: 00 00        	<unknown>
    2f3a: 00 00        	<unknown>
    2f3c: 00 00        	<unknown>
    2f3e: 03 00 00 00  	lb	zero, 0(zero)
    2f42: 00 00        	<unknown>
    2f44: 30 10        	<unknown>
    2f46: 00 80        	<unknown>
    2f48: 00 00        	<unknown>
    2f4a: 00 00        	<unknown>
    2f4c: 00 00        	<unknown>
    2f4e: 03 00 00 00  	lb	zero, 0(zero)
    2f52: 00 00        	<unknown>
    2f54: 34 10        	<unknown>
    2f56: 00 80        	<unknown>
    2f58: 00 00        	<unknown>
    2f5a: 00 00        	<unknown>
    2f5c: 00 00        	<unknown>
    2f5e: 03 00 00 00  	lb	zero, 0(zero)
    2f62: 00 00        	<unknown>
    2f64: 3c 10        	<unknown>
    2f66: 00 80        	<unknown>
    2f68: 00 00        	<unknown>
    2f6a: 00 00        	<unknown>
    2f6c: 00 00        	<unknown>
    2f6e: 03 00 00 00  	lb	zero, 0(zero)
    2f72: 00 00        	<unknown>
    2f74: 44 10        	<unknown>
    2f76: 00 80        	<unknown>
    2f78: 00 00        	<unknown>
    2f7a: 00 00        	<unknown>
    2f7c: 00 00        	<unknown>
    2f7e: 03 00 00 00  	lb	zero, 0(zero)
    2f82: 00 00        	<unknown>
    2f84: 4c 10        	<unknown>
    2f86: 00 80        	<unknown>
    2f88: 00 00        	<unknown>
    2f8a: 00 00        	<unknown>
    2f8c: 00 00        	<unknown>
    2f8e: 03 00 00 00  	lb	zero, 0(zero)
    2f92: 00 00        	<unknown>
    2f94: 5c 10        	<unknown>
    2f96: 00 80        	<unknown>
    2f98: 00 00        	<unknown>
    2f9a: 00 00        	<unknown>
    2f9c: 00 00        	<unknown>
    2f9e: 03 00 00 00  	lb	zero, 0(zero)
    2fa2: 00 00        	<unknown>
    2fa4: 64 10        	<unknown>
    2fa6: 00 80        	<unknown>
    2fa8: 00 00        	<unknown>
    2faa: 00 00        	<unknown>
    2fac: 00 00        	<unknown>
    2fae: 03 00 00 00  	lb	zero, 0(zero)
    2fb2: 00 00        	<unknown>
    2fb4: 68 10        	<unknown>
    2fb6: 00 80        	<unknown>
    2fb8: 00 00        	<unknown>
    2fba: 00 00        	<unknown>
    2fbc: 00 00        	<unknown>
    2fbe: 03 00 00 00  	lb	zero, 0(zero)
    2fc2: 00 00        	<unknown>
    2fc4: 74 10        	<unknown>
    2fc6: 00 80        	<unknown>
    2fc8: 00 00        	<unknown>
    2fca: 00 00        	<unknown>
    2fcc: 00 00        	<unknown>
    2fce: 03 00 00 00  	lb	zero, 0(zero)
    2fd2: 00 00        	<unknown>
    2fd4: 7c 10        	<unknown>
    2fd6: 00 80        	<unknown>
    2fd8: 00 00        	<unknown>
    2fda: 00 00        	<unknown>
    2fdc: 00 00        	<unknown>
    2fde: 03 00 00 00  	lb	zero, 0(zero)
    2fe2: 00 00        	<unknown>
    2fe4: 8c 10        	<unknown>
    2fe6: 00 80        	<unknown>
    2fe8: 00 00        	<unknown>
    2fea: 00 00        	<unknown>
    2fec: 00 00        	<unknown>
    2fee: 03 00 00 00  	lb	zero, 0(zero)
    2ff2: 00 00        	<unknown>
    2ff4: 98 10        	<unknown>
    2ff6: 00 80        	<unknown>
    2ff8: 00 00        	<unknown>
    2ffa: 00 00        	<unknown>
    2ffc: 00 00        	<unknown>
    2ffe: 03 00 00 00  	lb	zero, 0(zero)
    3002: 00 00        	<unknown>
    3004: a4 10        	<unknown>
    3006: 00 80        	<unknown>
    3008: 00 00        	<unknown>
    300a: 00 00        	<unknown>
    300c: 00 00        	<unknown>
    300e: 03 00 00 00  	lb	zero, 0(zero)
    3012: 00 00        	<unknown>
    3014: a8 10        	<unknown>
    3016: 00 80        	<unknown>
    3018: 00 00        	<unknown>
    301a: 00 00        	<unknown>
    301c: 00 00        	<unknown>
    301e: 03 00 00 00  	lb	zero, 0(zero)
    3022: 00 00        	<unknown>
    3024: b8 10        	<unknown>
    3026: 00 80        	<unknown>
    3028: 00 00        	<unknown>
    302a: 00 00        	<unknown>
    302c: 00 00        	<unknown>
    302e: 03 00 00 00  	lb	zero, 0(zero)
    3032: 00 00        	<unknown>
    3034: c4 10        	<unknown>
    3036: 00 80        	<unknown>
    3038: 00 00        	<unknown>
    303a: 00 00        	<unknown>
    303c: 00 00        	<unknown>
    303e: 03 00 00 00  	lb	zero, 0(zero)
    3042: 00 00        	<unknown>
    3044: d0 10        	<unknown>
    3046: 00 80        	<unknown>
    3048: 00 00        	<unknown>
    304a: 00 00        	<unknown>
    304c: 00 00        	<unknown>
    304e: 03 00 00 00  	lb	zero, 0(zero)
    3052: 00 00        	<unknown>
    3054: e4 10        	<unknown>
    3056: 00 80        	<unknown>
    3058: 00 00        	<unknown>
    305a: 00 00        	<unknown>
    305c: 00 00        	<unknown>
    305e: 03 00 00 00  	lb	zero, 0(zero)
    3062: 00 00        	<unknown>
    3064: e8 10        	<unknown>
    3066: 00 80        	<unknown>
    3068: 00 00        	<unknown>
    306a: 00 00        	<unknown>
    306c: 00 00        	<unknown>
    306e: 03 00 00 00  	lb	zero, 0(zero)
    3072: 00 00        	<unknown>
    3074: ec 10        	<unknown>
    3076: 00 80        	<unknown>
    3078: 00 00        	<unknown>
    307a: 00 00        	<unknown>
    307c: 00 00        	<unknown>
    307e: 03 00 00 00  	lb	zero, 0(zero)
    3082: 00 00        	<unknown>
    3084: f0 10        	<unknown>
    3086: 00 80        	<unknown>
    3088: 00 00        	<unknown>
    308a: 00 00        	<unknown>
    308c: 00 00        	<unknown>
    308e: 03 00 00 00  	lb	zero, 0(zero)
    3092: 00 00        	<unknown>
    3094: f4 10        	<unknown>
    3096: 00 80        	<unknown>
    3098: 00 00        	<unknown>
    309a: 00 00        	<unknown>
    309c: 00 00        	<unknown>
    309e: 03 00 00 00  	lb	zero, 0(zero)
    30a2: 00 00        	<unknown>
    30a4: f8 10        	<unknown>
    30a6: 00 80        	<unknown>
    30a8: 00 00        	<unknown>
    30aa: 00 00        	<unknown>
    30ac: 00 00        	<unknown>
    30ae: 03 00 00 00  	lb	zero, 0(zero)
    30b2: 00 00        	<unknown>
    30b4: fc 10        	<unknown>
    30b6: 00 80        	<unknown>
    30b8: 00 00        	<unknown>
    30ba: 00 00        	<unknown>
    30bc: 00 00        	<unknown>
    30be: 03 00 00 00  	lb	zero, 0(zero)
    30c2: 00 00        	<unknown>
    30c4: 04 11        	<unknown>
    30c6: 00 80        	<unknown>
    30c8: 00 00        	<unknown>
    30ca: 00 00        	<unknown>
    30cc: 00 00        	<unknown>
    30ce: 03 00 00 00  	lb	zero, 0(zero)
    30d2: 00 00        	<unknown>
    30d4: 08 11        	<unknown>
    30d6: 00 80        	<unknown>
    30d8: 00 00        	<unknown>
    30da: 00 00        	<unknown>
    30dc: 00 00        	<unknown>
    30de: 03 00 00 00  	lb	zero, 0(zero)
    30e2: 00 00        	<unknown>
    30e4: 0c 11        	<unknown>
    30e6: 00 80        	<unknown>
    30e8: 00 00        	<unknown>
    30ea: 00 00        	<unknown>
    30ec: 00 00        	<unknown>
    30ee: 03 00 00 00  	lb	zero, 0(zero)
    30f2: 00 00        	<unknown>
    30f4: 10 11        	<unknown>
    30f6: 00 80        	<unknown>
    30f8: 00 00        	<unknown>
    30fa: 00 00        	<unknown>
    30fc: 00 00        	<unknown>
    30fe: 03 00 00 00  	lb	zero, 0(zero)
    3102: 00 00        	<unknown>
    3104: 18 11        	<unknown>
    3106: 00 80        	<unknown>
    3108: 00 00        	<unknown>
    310a: 00 00        	<unknown>
    310c: 00 00        	<unknown>
    310e: 03 00 00 00  	lb	zero, 0(zero)
    3112: 00 00        	<unknown>
    3114: 1c 11        	<unknown>
    3116: 00 80        	<unknown>
    3118: 00 00        	<unknown>
    311a: 00 00        	<unknown>
    311c: 00 00        	<unknown>
    311e: 03 00 00 00  	lb	zero, 0(zero)
    3122: 00 00        	<unknown>
    3124: 24 11        	<unknown>
    3126: 00 80        	<unknown>
    3128: 00 00        	<unknown>
    312a: 00 00        	<unknown>
    312c: 00 00        	<unknown>
    312e: 03 00 00 00  	lb	zero, 0(zero)
    3132: 00 00        	<unknown>
    3134: 28 11        	<unknown>
    3136: 00 80        	<unknown>
    3138: 00 00        	<unknown>
    313a: 00 00        	<unknown>
    313c: 00 00        	<unknown>
    313e: 03 00 00 00  	lb	zero, 0(zero)
    3142: 00 00        	<unknown>
    3144: 40 11        	<unknown>
    3146: 00 80        	<unknown>
    3148: 00 00        	<unknown>
    314a: 00 00        	<unknown>
    314c: 00 00        	<unknown>
    314e: 03 00 00 00  	lb	zero, 0(zero)
    3152: 00 00        	<unknown>
    3154: 58 11        	<unknown>
    3156: 00 80        	<unknown>
    3158: 00 00        	<unknown>
    315a: 00 00        	<unknown>
    315c: 00 00        	<unknown>
    315e: 03 00 00 00  	lb	zero, 0(zero)
    3162: 00 00        	<unknown>
    3164: 58 11        	<unknown>
    3166: 00 80        	<unknown>
    3168: 00 00        	<unknown>
    316a: 00 00        	<unknown>
    316c: 00 00        	<unknown>
    316e: 03 00 00 00  	lb	zero, 0(zero)
    3172: 00 00        	<unknown>
    3174: 60 11        	<unknown>
    3176: 00 80        	<unknown>
    3178: 00 00        	<unknown>
    317a: 00 00        	<unknown>
    317c: 00 00        	<unknown>
    317e: 03 00 00 00  	lb	zero, 0(zero)
    3182: 00 00        	<unknown>
    3184: 64 11        	<unknown>
    3186: 00 80        	<unknown>
    3188: 00 00        	<unknown>
    318a: 00 00        	<unknown>
    318c: 00 00        	<unknown>
    318e: 03 00 00 00  	lb	zero, 0(zero)
    3192: 00 00        	<unknown>
    3194: 74 11        	<unknown>
    3196: 00 80        	<unknown>
    3198: 00 00        	<unknown>
    319a: 00 00        	<unknown>
    319c: 00 00        	<unknown>
    319e: 03 00 00 00  	lb	zero, 0(zero)
    31a2: 00 00        	<unknown>
    31a4: 74 11        	<unknown>
    31a6: 00 80        	<unknown>
    31a8: 00 00        	<unknown>
    31aa: 00 00        	<unknown>
    31ac: 00 00        	<unknown>
    31ae: 03 00 00 00  	lb	zero, 0(zero)
    31b2: 00 00        	<unknown>
    31b4: 78 11        	<unknown>
    31b6: 00 80        	<unknown>
    31b8: 00 00        	<unknown>
    31ba: 00 00        	<unknown>
    31bc: 00 00        	<unknown>
    31be: 03 00 00 00  	lb	zero, 0(zero)
    31c2: 00 00        	<unknown>
    31c4: 7c 11        	<unknown>
    31c6: 00 80        	<unknown>
    31c8: 00 00        	<unknown>
    31ca: 00 00        	<unknown>
    31cc: 00 00        	<unknown>
    31ce: 03 00 00 00  	lb	zero, 0(zero)
    31d2: 00 00        	<unknown>
    31d4: 80 11        	<unknown>
    31d6: 00 80        	<unknown>
    31d8: 00 00        	<unknown>
    31da: 00 00        	<unknown>
    31dc: 00 00        	<unknown>
    31de: 03 00 00 00  	lb	zero, 0(zero)
    31e2: 00 00        	<unknown>
    31e4: 80 11        	<unknown>
    31e6: 00 80        	<unknown>
    31e8: 00 00        	<unknown>
    31ea: 00 00        	<unknown>
    31ec: 00 00        	<unknown>
    31ee: 03 00 00 00  	lb	zero, 0(zero)
    31f2: 00 00        	<unknown>
    31f4: 88 11        	<unknown>
    31f6: 00 80        	<unknown>
    31f8: 00 00        	<unknown>
    31fa: 00 00        	<unknown>
    31fc: 00 00        	<unknown>
    31fe: 03 00 00 00  	lb	zero, 0(zero)
    3202: 00 00        	<unknown>
    3204: 90 11        	<unknown>
    3206: 00 80        	<unknown>
    3208: 00 00        	<unknown>
    320a: 00 00        	<unknown>
    320c: 00 00        	<unknown>
    320e: 03 00 00 00  	lb	zero, 0(zero)
    3212: 00 00        	<unknown>
    3214: 94 11        	<unknown>
    3216: 00 80        	<unknown>
    3218: 00 00        	<unknown>
    321a: 00 00        	<unknown>
    321c: 00 00        	<unknown>
    321e: 03 00 00 00  	lb	zero, 0(zero)
    3222: 00 00        	<unknown>
    3224: a4 11        	<unknown>
    3226: 00 80        	<unknown>
    3228: 00 00        	<unknown>
    322a: 00 00        	<unknown>
    322c: 00 00        	<unknown>
    322e: 03 00 00 00  	lb	zero, 0(zero)
    3232: 00 00        	<unknown>
    3234: a4 11        	<unknown>
    3236: 00 80        	<unknown>
    3238: 00 00        	<unknown>
    323a: 00 00        	<unknown>
    323c: 00 00        	<unknown>
    323e: 03 00 00 00  	lb	zero, 0(zero)
    3242: 00 00        	<unknown>
    3244: a8 11        	<unknown>
    3246: 00 80        	<unknown>
    3248: 00 00        	<unknown>
    324a: 00 00        	<unknown>
    324c: 00 00        	<unknown>
    324e: 03 00 00 00  	lb	zero, 0(zero)
    3252: 00 00        	<unknown>
    3254: ac 11        	<unknown>
    3256: 00 80        	<unknown>
    3258: 00 00        	<unknown>
    325a: 00 00        	<unknown>
    325c: 00 00        	<unknown>
    325e: 03 00 00 00  	lb	zero, 0(zero)
    3262: 00 00        	<unknown>
    3264: b4 11        	<unknown>
    3266: 00 80        	<unknown>
    3268: 00 00        	<unknown>
    326a: 00 00        	<unknown>
    326c: 00 00        	<unknown>
    326e: 03 00 00 00  	lb	zero, 0(zero)
    3272: 00 00        	<unknown>
    3274: b4 11        	<unknown>
    3276: 00 80        	<unknown>
    3278: 00 00        	<unknown>
    327a: 00 00        	<unknown>
    327c: 00 00        	<unknown>
    327e: 03 00 00 00  	lb	zero, 0(zero)
    3282: 00 00        	<unknown>
    3284: b8 11        	<unknown>
    3286: 00 80        	<unknown>
    3288: 00 00        	<unknown>
    328a: 00 00        	<unknown>
    328c: 00 00        	<unknown>
    328e: 03 00 00 00  	lb	zero, 0(zero)
    3292: 00 00        	<unknown>
    3294: c4 11        	<unknown>
    3296: 00 80        	<unknown>
    3298: 00 00        	<unknown>
    329a: 00 00        	<unknown>
    329c: 00 00        	<unknown>
    329e: 03 00 00 00  	lb	zero, 0(zero)
    32a2: 00 00        	<unknown>
    32a4: cc 11        	<unknown>
    32a6: 00 80        	<unknown>
    32a8: 00 00        	<unknown>
    32aa: 00 00        	<unknown>
    32ac: 00 00        	<unknown>
    32ae: 03 00 00 00  	lb	zero, 0(zero)
    32b2: 00 00        	<unknown>
    32b4: d0 11        	<unknown>
    32b6: 00 80        	<unknown>
    32b8: 00 00        	<unknown>
    32ba: 00 00        	<unknown>
    32bc: 00 00        	<unknown>
    32be: 03 00 00 00  	lb	zero, 0(zero)
    32c2: 00 00        	<unknown>
    32c4: d4 11        	<unknown>
    32c6: 00 80        	<unknown>
    32c8: 00 00        	<unknown>
    32ca: 00 00        	<unknown>
    32cc: 00 00        	<unknown>
    32ce: 03 00 00 00  	lb	zero, 0(zero)
    32d2: 00 00        	<unknown>
    32d4: e8 11        	<unknown>
    32d6: 00 80        	<unknown>
    32d8: 00 00        	<unknown>
    32da: 00 00        	<unknown>
    32dc: 00 00        	<unknown>
    32de: 03 00 00 00  	lb	zero, 0(zero)
    32e2: 00 00        	<unknown>
    32e4: e8 11        	<unknown>
    32e6: 00 80        	<unknown>
    32e8: 00 00        	<unknown>
    32ea: 00 00        	<unknown>
    32ec: 00 00        	<unknown>
    32ee: 03 00 00 00  	lb	zero, 0(zero)
    32f2: 00 00        	<unknown>
    32f4: f0 11        	<unknown>
    32f6: 00 80        	<unknown>
    32f8: 00 00        	<unknown>
    32fa: 00 00        	<unknown>
    32fc: 00 00        	<unknown>
    32fe: 03 00 00 00  	lb	zero, 0(zero)
    3302: 00 00        	<unknown>
    3304: f8 11        	<unknown>
    3306: 00 80        	<unknown>
    3308: 00 00        	<unknown>
    330a: 00 00        	<unknown>
    330c: 00 00        	<unknown>
    330e: 03 00 00 00  	lb	zero, 0(zero)
    3312: 00 00        	<unknown>
    3314: fc 11        	<unknown>
    3316: 00 80        	<unknown>
    3318: 00 00        	<unknown>
    331a: 00 00        	<unknown>
    331c: 00 00        	<unknown>
    331e: 03 00 00 00  	lb	zero, 0(zero)
    3322: 00 00        	<unknown>
    3324: 34 12        	<unknown>
    3326: 00 80        	<unknown>
    3328: 00 00        	<unknown>
    332a: 00 00        	<unknown>
    332c: 00 00        	<unknown>
    332e: 03 00 00 00  	lb	zero, 0(zero)
    3332: 00 00        	<unknown>
    3334: 34 12        	<unknown>
    3336: 00 80        	<unknown>
    3338: 00 00        	<unknown>
    333a: 00 00        	<unknown>
    333c: 00 00        	<unknown>
    333e: 03 00 00 00  	lb	zero, 0(zero)
    3342: 00 00        	<unknown>
    3344: e3 03 00 00  	beqz	zero, 0x3b4a <__l1_start+0x3b4a>
    3348: 00 00        	<unknown>
    334a: 00 00        	<unknown>
    334c: 00 00        	<unknown>
    334e: 0b 00 00 00  	p.lb	zero, 0(zero!)
    3352: 00 00        	<unknown>
    3354: 28 01        	<unknown>
		...
    335e: 0e 00        	<unknown>
    3360: 00 00        	<unknown>
    3362: 00 00        	<unknown>
    3364: 94 00        	<unknown>
		...
    336e: 10 00        	<unknown>
    3370: 00 00        	<unknown>
    3372: 00 00        	<unknown>
    3374: 85 00        	<unknown>
		...
    337e: 14 00        	<unknown>
		...
    338c: 00 00        	<unknown>
    338e: 0f 00 00 00  	fence	unknown, unknown
    3392: 00 00        	<unknown>
    3394: 4b 03 00 00  	fnmsub.s	t1, zero, zero, zero, rne
    3398: 00 00        	<unknown>
    339a: 00 00        	<unknown>
    339c: 00 00        	<unknown>
    339e: 0f 00 00 00  	fence	unknown, unknown
    33a2: 00 00        	<unknown>
    33a4: 8b 00 00 00  	p.lb	ra, 0(zero!)
    33a8: 00 00        	<unknown>
    33aa: 00 00        	<unknown>
    33ac: 00 00        	<unknown>
    33ae: 0f 00 00 00  	fence	unknown, unknown
    33b2: 00 00        	<unknown>
    33b4: fa 00        	<unknown>
		...
    33be: 0f 00 00 00  	fence	unknown, unknown
    33c2: 00 00        	<unknown>
    33c4: e3 02 00 00  	beqz	zero, 0x3bc8 <__l1_start+0x3bc8>
    33c8: 00 00        	<unknown>
    33ca: 00 00        	<unknown>
    33cc: 00 00        	<unknown>
    33ce: 0f 00 00 00  	fence	unknown, unknown
    33d2: 00 00        	<unknown>
    33d4: a1 02        	<unknown>
		...
    33de: 0f 00 00 00  	fence	unknown, unknown
    33e2: 00 00        	<unknown>
    33e4: b5 03        	<unknown>
		...
    33ee: 0f 00 00 00  	fence	unknown, unknown
    33f2: 00 00        	<unknown>
    33f4: b7 03 00 00  	lui	t2, 0
    33f8: 00 00        	<unknown>
    33fa: 00 00        	<unknown>
    33fc: 00 00        	<unknown>
    33fe: 0f 00 00 00  	fence	unknown, unknown
    3402: 00 00        	<unknown>
    3404: 03 01 00 00  	lb	sp, 0(zero)
    3408: 00 00        	<unknown>
    340a: 00 00        	<unknown>
    340c: 00 00        	<unknown>
    340e: 0f 00 00 00  	fence	unknown, unknown
    3412: 00 00        	<unknown>
    3414: c1 03        	<unknown>
		...
    341e: 0f 00 00 00  	fence	unknown, unknown
    3422: 00 00        	<unknown>
    3424: d8 03        	<unknown>
		...
    342e: 0f 00 00 00  	fence	unknown, unknown
    3432: 00 00        	<unknown>
    3434: 98 02        	<unknown>
		...
    343e: 0f 00 00 00  	fence	unknown, unknown
    3442: 00 00        	<unknown>
    3444: cf 03 00 00  	fnmadd.s	t2, zero, zero, zero, rne
    3448: 00 00        	<unknown>
    344a: 00 00        	<unknown>
    344c: 00 00        	<unknown>
    344e: 0f 00 00 00  	fence	unknown, unknown
    3452: 00 00        	<unknown>
    3454: d9 04        	<unknown>
		...
    345e: 0f 00 00 00  	fence	unknown, unknown
    3462: 00 00        	<unknown>
    3464: de 03        	<unknown>
		...
    346e: 0f 00 00 00  	fence	unknown, unknown
    3472: 00 00        	<unknown>
    3474: e2 03        	<unknown>
		...
    347e: 0f 00 00 00  	fence	unknown, unknown
    3482: 00 00        	<unknown>
    3484: f4 03        	<unknown>
		...
    348e: 0f 00 00 00  	fence	unknown, unknown
    3492: 00 00        	<unknown>
    3494: fe 03        	<unknown>
		...
    349e: 0f 00 00 00  	fence	unknown, unknown
    34a2: 00 00        	<unknown>
    34a4: 04 04        	<unknown>
		...
    34ae: 0f 00 00 00  	fence	unknown, unknown
    34b2: 00 00        	<unknown>
    34b4: 07 04 00 00  	flb	fs0, 0(zero)
    34b8: 00 00        	<unknown>
    34ba: 00 00        	<unknown>
    34bc: 00 00        	<unknown>
    34be: 0f 00 00 00  	fence	unknown, unknown
    34c2: 00 00        	<unknown>
    34c4: 0d 04        	<unknown>
		...
    34ce: 0f 00 00 00  	fence	unknown, unknown
    34d2: 00 00        	<unknown>
    34d4: 0d 07        	<unknown>
		...
    34de: 0f 00 00 00  	fence	unknown, unknown
    34e2: 00 00        	<unknown>
    34e4: 11 04        	<unknown>
		...
    34ee: 0f 00 00 00  	fence	unknown, unknown
    34f2: 00 00        	<unknown>
    34f4: 1c 04        	<unknown>
		...
    34fe: 0f 00 00 00  	fence	unknown, unknown
    3502: 00 00        	<unknown>
    3504: 11 02        	<unknown>
		...
    350e: 0f 00 00 00  	fence	unknown, unknown
    3512: 00 00        	<unknown>
    3514: 24 04        	<unknown>
		...
    351e: 0f 00 00 00  	fence	unknown, unknown
    3522: 00 00        	<unknown>
    3524: 31 04        	<unknown>
		...
    352e: 0f 00 00 00  	fence	unknown, unknown
    3532: 00 00        	<unknown>
    3534: 35 04        	<unknown>
		...
    353e: 0f 00 00 00  	fence	unknown, unknown
    3542: 00 00        	<unknown>
    3544: b8 04        	<unknown>
		...
    354e: 0f 00 00 00  	fence	unknown, unknown
    3552: 00 00        	<unknown>
    3554: 6d 04        	<unknown>
		...
    355e: 0f 00 00 00  	fence	unknown, unknown
    3562: 00 00        	<unknown>
    3564: 42 04        	<unknown>
		...
    356e: 0f 00 00 00  	fence	unknown, unknown
    3572: 00 00        	<unknown>
    3574: 49 04        	<unknown>
		...
    357e: 0f 00 00 00  	fence	unknown, unknown
    3582: 00 00        	<unknown>
    3584: 28 06        	<unknown>
		...
    358e: 0f 00 00 00  	fence	unknown, unknown
    3592: 00 00        	<unknown>
    3594: 4d 04        	<unknown>
		...
    359e: 0f 00 00 00  	fence	unknown, unknown
    35a2: 00 00        	<unknown>
    35a4: 3e 03        	<unknown>
		...
    35ae: 0f 00 00 00  	fence	unknown, unknown
    35b2: 00 00        	<unknown>
    35b4: 56 04        	<unknown>
		...
    35be: 0f 00 00 00  	fence	unknown, unknown
    35c2: 00 00        	<unknown>
    35c4: 5b 04 00 00  	<unknown>
    35c8: 00 00        	<unknown>
    35ca: 00 00        	<unknown>
    35cc: 00 00        	<unknown>
    35ce: 0f 00 00 00  	fence	unknown, unknown
    35d2: 00 00        	<unknown>
    35d4: 61 04        	<unknown>
		...
    35de: 0f 00 00 00  	fence	unknown, unknown
    35e2: 00 00        	<unknown>
    35e4: 67 04 00 00  	jalr	s0, zero
    35e8: 00 00        	<unknown>
    35ea: 00 00        	<unknown>
    35ec: 00 00        	<unknown>
    35ee: 0f 00 00 00  	fence	unknown, unknown
    35f2: 00 00        	<unknown>
    35f4: 71 04        	<unknown>
		...
    35fe: 0f 00 00 00  	fence	unknown, unknown
    3602: 00 00        	<unknown>
    3604: 83 04 00 00  	lb	s1, 0(zero)
    3608: 00 00        	<unknown>
    360a: 00 00        	<unknown>
    360c: 00 00        	<unknown>
    360e: 0f 00 00 00  	fence	unknown, unknown
    3612: 00 00        	<unknown>
    3614: c2 04        	<unknown>
		...
    361e: 0f 00 00 00  	fence	unknown, unknown
    3622: 00 00        	<unknown>
    3624: 95 04        	<unknown>
		...
    362e: 0f 00 00 00  	fence	unknown, unknown
    3632: 00 00        	<unknown>
    3634: a0 04        	<unknown>
		...
    363e: 0f 00 00 00  	fence	unknown, unknown
    3642: 00 00        	<unknown>
    3644: aa 04        	<unknown>
		...
    364e: 0f 00 00 00  	fence	unknown, unknown
    3652: 00 00        	<unknown>
    3654: b3 04 00 00  	add	s1, zero, zero
    3658: 00 00        	<unknown>
    365a: 00 00        	<unknown>
    365c: 00 00        	<unknown>
    365e: 0f 00 00 00  	fence	unknown, unknown
    3662: 00 00        	<unknown>
    3664: c0 04        	<unknown>
		...
    366e: 0f 00 00 00  	fence	unknown, unknown
    3672: 00 00        	<unknown>
    3674: bf 04 00 00  	<unknown>
    3678: 00 00        	<unknown>
    367a: 00 00        	<unknown>
    367c: 00 00        	<unknown>
    367e: 0f 00 00 00  	fence	unknown, unknown
    3682: 00 00        	<unknown>
    3684: ca 04        	<unknown>
		...
    368e: 0f 00 00 00  	fence	unknown, unknown
    3692: 00 00        	<unknown>
    3694: d4 04        	<unknown>
		...
    369e: 0f 00 00 00  	fence	unknown, unknown
    36a2: 00 00        	<unknown>
    36a4: dd 04        	<unknown>
		...
    36ae: 0f 00 00 00  	fence	unknown, unknown
    36b2: 00 00        	<unknown>
    36b4: e7 04 00 00  	jalr	s1, zero
    36b8: 00 00        	<unknown>
    36ba: 00 00        	<unknown>
    36bc: 00 00        	<unknown>
    36be: 0f 00 00 00  	fence	unknown, unknown
    36c2: 00 00        	<unknown>
    36c4: 12 01        	<unknown>
		...
    36ce: 0f 00 00 00  	fence	unknown, unknown
    36d2: 00 00        	<unknown>
    36d4: 2a 04        	<unknown>
		...
    36de: 0f 00 00 00  	fence	unknown, unknown
    36e2: 00 00        	<unknown>
    36e4: f2 04        	<unknown>
		...
    36ee: 0f 00 00 00  	fence	unknown, unknown
    36f2: 00 00        	<unknown>
    36f4: f5 04        	<unknown>
		...
    36fe: 0f 00 00 00  	fence	unknown, unknown
    3702: 00 00        	<unknown>
    3704: ff 04 00 00  	<unknown>
    3708: 00 00        	<unknown>
    370a: 00 00        	<unknown>
    370c: 00 00        	<unknown>
    370e: 0f 00 00 00  	fence	unknown, unknown
    3712: 00 00        	<unknown>
    3714: 07 05 00 00  	flb	fa0, 0(zero)
    3718: 00 00        	<unknown>
    371a: 00 00        	<unknown>
    371c: 00 00        	<unknown>
    371e: 0f 00 00 00  	fence	unknown, unknown
    3722: 00 00        	<unknown>
    3724: 2a 06        	<unknown>
		...
    372e: 0f 00 00 00  	fence	unknown, unknown
    3732: 00 00        	<unknown>
    3734: 0b 05 00 00  	p.lb	a0, 0(zero!)
    3738: 00 00        	<unknown>
    373a: 00 00        	<unknown>
    373c: 00 00        	<unknown>
    373e: 0f 00 00 00  	fence	unknown, unknown
    3742: 00 00        	<unknown>
    3744: 15 05        	<unknown>
		...
    374e: 0f 00 00 00  	fence	unknown, unknown
    3752: 00 00        	<unknown>
    3754: 17 05 00 00  	auipc	a0, 0
    3758: 00 00        	<unknown>
    375a: 00 00        	<unknown>
    375c: 00 00        	<unknown>
    375e: 0f 00 00 00  	fence	unknown, unknown
    3762: 00 00        	<unknown>
    3764: ca 03        	<unknown>
		...
    376e: 0f 00 00 00  	fence	unknown, unknown
    3772: 00 00        	<unknown>
    3774: f1 00        	<unknown>
		...
    377e: 0f 00 00 00  	fence	unknown, unknown
    3782: 00 00        	<unknown>
    3784: 38 05        	<unknown>
		...
    378e: 0f 00 00 00  	fence	unknown, unknown
    3792: 00 00        	<unknown>
    3794: 1d 05        	<unknown>
		...
    379e: 0f 00 00 00  	fence	unknown, unknown
    37a2: 00 00        	<unknown>
    37a4: 27 05 00 00  	fsb	ft0, 10(zero)
    37a8: 00 00        	<unknown>
    37aa: 00 00        	<unknown>
    37ac: 00 00        	<unknown>
    37ae: 0f 00 00 00  	fence	unknown, unknown
    37b2: 00 00        	<unknown>
    37b4: 2d 05        	<unknown>
		...
    37be: 0f 00 00 00  	fence	unknown, unknown
    37c2: 00 00        	<unknown>
    37c4: f8 03        	<unknown>
		...
    37ce: 0f 00 00 00  	fence	unknown, unknown
    37d2: 00 00        	<unknown>
    37d4: e0 00        	<unknown>
		...
    37de: 11 00        	<unknown>
    37e0: db 00 00 00  	<unknown>
		...
    37ec: 04 00        	<unknown>
    37ee: f1 ff        	<unknown>
    37f0: 00 00        	<unknown>
    37f2: 00 00        	<unknown>
    37f4: 34 12        	<unknown>
    37f6: 00 80        	<unknown>
    37f8: 00 00        	<unknown>
    37fa: 00 00        	<unknown>
    37fc: 00 00        	<unknown>
    37fe: 03 00 00 00  	lb	zero, 0(zero)
    3802: 00 00        	<unknown>
    3804: 34 12        	<unknown>
    3806: 00 80        	<unknown>
    3808: 00 00        	<unknown>
    380a: 00 00        	<unknown>
    380c: 00 00        	<unknown>
    380e: 03 00 00 00  	lb	zero, 0(zero)
    3812: 00 00        	<unknown>
    3814: 34 12        	<unknown>
    3816: 00 80        	<unknown>
    3818: 00 00        	<unknown>
    381a: 00 00        	<unknown>
    381c: 00 00        	<unknown>
    381e: 03 00 00 00  	lb	zero, 0(zero)
    3822: 00 00        	<unknown>
    3824: 34 12        	<unknown>
    3826: 00 80        	<unknown>
    3828: 00 00        	<unknown>
    382a: 00 00        	<unknown>
    382c: 00 00        	<unknown>
    382e: 03 00 00 00  	lb	zero, 0(zero)
    3832: 00 00        	<unknown>
    3834: 3c 12        	<unknown>
    3836: 00 80        	<unknown>
    3838: 00 00        	<unknown>
    383a: 00 00        	<unknown>
    383c: 00 00        	<unknown>
    383e: 03 00 00 00  	lb	zero, 0(zero)
    3842: 00 00        	<unknown>
    3844: 40 12        	<unknown>
    3846: 00 80        	<unknown>
    3848: 00 00        	<unknown>
    384a: 00 00        	<unknown>
    384c: 00 00        	<unknown>
    384e: 03 00 00 00  	lb	zero, 0(zero)
    3852: 00 00        	<unknown>
    3854: 40 12        	<unknown>
    3856: 00 80        	<unknown>
    3858: 00 00        	<unknown>
    385a: 00 00        	<unknown>
    385c: 00 00        	<unknown>
    385e: 03 00 00 00  	lb	zero, 0(zero)
    3862: 00 00        	<unknown>
    3864: 44 02        	<unknown>
		...
    386e: 0e 00        	<unknown>
    3870: 00 00        	<unknown>
    3872: 00 00        	<unknown>
    3874: 40 01        	<unknown>
		...
    387e: 10 00        	<unknown>
		...
    388c: 00 00        	<unknown>
    388e: 0f 00 00 00  	fence	unknown, unknown
    3892: 00 00        	<unknown>
    3894: 3a 05        	<unknown>
		...
    389e: 0f 00 00 00  	fence	unknown, unknown
    38a2: 00 00        	<unknown>
    38a4: 8b 00 00 00  	p.lb	ra, 0(zero!)
    38a8: 00 00        	<unknown>
    38aa: 00 00        	<unknown>
    38ac: 00 00        	<unknown>
    38ae: 0f 00 00 00  	fence	unknown, unknown
    38b2: 00 00        	<unknown>
    38b4: a4 05        	<unknown>
		...
    38be: 0f 00 00 00  	fence	unknown, unknown
    38c2: 00 00        	<unknown>
    38c4: 1d 05        	<unknown>
		...
    38ce: 0f 00 00 00  	fence	unknown, unknown
    38d2: 00 00        	<unknown>
    38d4: a1 02        	<unknown>
		...
    38de: 0f 00 00 00  	fence	unknown, unknown
    38e2: 00 00        	<unknown>
    38e4: 00 02        	<unknown>
		...
    38ee: 11 00        	<unknown>
    38f0: e4 00        	<unknown>
		...
    38fa: 00 00        	<unknown>
    38fc: 04 00        	<unknown>
    38fe: f1 ff        	<unknown>
    3900: 00 00        	<unknown>
    3902: 00 00        	<unknown>
    3904: 40 12        	<unknown>
    3906: 00 80        	<unknown>
    3908: 00 00        	<unknown>
    390a: 00 00        	<unknown>
    390c: 00 00        	<unknown>
    390e: 03 00 00 00  	lb	zero, 0(zero)
    3912: 00 00        	<unknown>
    3914: 40 12        	<unknown>
    3916: 00 80        	<unknown>
    3918: 00 00        	<unknown>
    391a: 00 00        	<unknown>
    391c: 00 00        	<unknown>
    391e: 03 00 00 00  	lb	zero, 0(zero)
    3922: 00 00        	<unknown>
    3924: 40 12        	<unknown>
    3926: 00 80        	<unknown>
    3928: 00 00        	<unknown>
    392a: 00 00        	<unknown>
    392c: 00 00        	<unknown>
    392e: 03 00 00 00  	lb	zero, 0(zero)
    3932: 00 00        	<unknown>
    3934: 40 12        	<unknown>
    3936: 00 80        	<unknown>
    3938: 00 00        	<unknown>
    393a: 00 00        	<unknown>
    393c: 00 00        	<unknown>
    393e: 03 00 00 00  	lb	zero, 0(zero)
    3942: 00 00        	<unknown>
    3944: 44 12        	<unknown>
    3946: 00 80        	<unknown>
    3948: 00 00        	<unknown>
    394a: 00 00        	<unknown>
    394c: 00 00        	<unknown>
    394e: 03 00 00 00  	lb	zero, 0(zero)
    3952: 00 00        	<unknown>
    3954: 48 12        	<unknown>
    3956: 00 80        	<unknown>
    3958: 00 00        	<unknown>
    395a: 00 00        	<unknown>
    395c: 00 00        	<unknown>
    395e: 03 00 00 00  	lb	zero, 0(zero)
    3962: 00 00        	<unknown>
    3964: 50 12        	<unknown>
    3966: 00 80        	<unknown>
    3968: 00 00        	<unknown>
    396a: 00 00        	<unknown>
    396c: 00 00        	<unknown>
    396e: 03 00 00 00  	lb	zero, 0(zero)
    3972: 00 00        	<unknown>
    3974: 54 12        	<unknown>
    3976: 00 80        	<unknown>
    3978: 00 00        	<unknown>
    397a: 00 00        	<unknown>
    397c: 00 00        	<unknown>
    397e: 03 00 00 00  	lb	zero, 0(zero)
    3982: 00 00        	<unknown>
    3984: 54 12        	<unknown>
    3986: 00 80        	<unknown>
    3988: 00 00        	<unknown>
    398a: 00 00        	<unknown>
    398c: 00 00        	<unknown>
    398e: 03 00 00 00  	lb	zero, 0(zero)
    3992: 00 00        	<unknown>
    3994: 58 12        	<unknown>
    3996: 00 80        	<unknown>
    3998: 00 00        	<unknown>
    399a: 00 00        	<unknown>
    399c: 00 00        	<unknown>
    399e: 03 00 00 00  	lb	zero, 0(zero)
    39a2: 00 00        	<unknown>
    39a4: 5c 12        	<unknown>
    39a6: 00 80        	<unknown>
    39a8: 00 00        	<unknown>
    39aa: 00 00        	<unknown>
    39ac: 00 00        	<unknown>
    39ae: 03 00 00 00  	lb	zero, 0(zero)
    39b2: 00 00        	<unknown>
    39b4: 60 12        	<unknown>
    39b6: 00 80        	<unknown>
    39b8: 00 00        	<unknown>
    39ba: 00 00        	<unknown>
    39bc: 00 00        	<unknown>
    39be: 03 00 00 00  	lb	zero, 0(zero)
    39c2: 00 00        	<unknown>
    39c4: 64 12        	<unknown>
    39c6: 00 80        	<unknown>
    39c8: 00 00        	<unknown>
    39ca: 00 00        	<unknown>
    39cc: 00 00        	<unknown>
    39ce: 03 00 00 00  	lb	zero, 0(zero)
    39d2: 00 00        	<unknown>
    39d4: 68 12        	<unknown>
    39d6: 00 80        	<unknown>
    39d8: 00 00        	<unknown>
    39da: 00 00        	<unknown>
    39dc: 00 00        	<unknown>
    39de: 03 00 00 00  	lb	zero, 0(zero)
    39e2: 00 00        	<unknown>
    39e4: 6c 12        	<unknown>
    39e6: 00 80        	<unknown>
    39e8: 00 00        	<unknown>
    39ea: 00 00        	<unknown>
    39ec: 00 00        	<unknown>
    39ee: 03 00 00 00  	lb	zero, 0(zero)
    39f2: 00 00        	<unknown>
    39f4: 74 12        	<unknown>
    39f6: 00 80        	<unknown>
    39f8: 00 00        	<unknown>
    39fa: 00 00        	<unknown>
    39fc: 00 00        	<unknown>
    39fe: 03 00 00 00  	lb	zero, 0(zero)
    3a02: 00 00        	<unknown>
    3a04: 7c 12        	<unknown>
    3a06: 00 80        	<unknown>
    3a08: 00 00        	<unknown>
    3a0a: 00 00        	<unknown>
    3a0c: 00 00        	<unknown>
    3a0e: 03 00 00 00  	lb	zero, 0(zero)
    3a12: 00 00        	<unknown>
    3a14: 7c 12        	<unknown>
    3a16: 00 80        	<unknown>
    3a18: 00 00        	<unknown>
    3a1a: 00 00        	<unknown>
    3a1c: 00 00        	<unknown>
    3a1e: 03 00 00 00  	lb	zero, 0(zero)
    3a22: 00 00        	<unknown>
    3a24: 80 12        	<unknown>
    3a26: 00 80        	<unknown>
    3a28: 00 00        	<unknown>
    3a2a: 00 00        	<unknown>
    3a2c: 00 00        	<unknown>
    3a2e: 03 00 00 00  	lb	zero, 0(zero)
    3a32: 00 00        	<unknown>
    3a34: 84 12        	<unknown>
    3a36: 00 80        	<unknown>
    3a38: 00 00        	<unknown>
    3a3a: 00 00        	<unknown>
    3a3c: 00 00        	<unknown>
    3a3e: 03 00 00 00  	lb	zero, 0(zero)
    3a42: 00 00        	<unknown>
    3a44: 88 12        	<unknown>
    3a46: 00 80        	<unknown>
    3a48: 00 00        	<unknown>
    3a4a: 00 00        	<unknown>
    3a4c: 00 00        	<unknown>
    3a4e: 03 00 00 00  	lb	zero, 0(zero)
    3a52: 00 00        	<unknown>
    3a54: 8c 12        	<unknown>
    3a56: 00 80        	<unknown>
    3a58: 00 00        	<unknown>
    3a5a: 00 00        	<unknown>
    3a5c: 00 00        	<unknown>
    3a5e: 03 00 00 00  	lb	zero, 0(zero)
    3a62: 00 00        	<unknown>
    3a64: 90 12        	<unknown>
    3a66: 00 80        	<unknown>
    3a68: 00 00        	<unknown>
    3a6a: 00 00        	<unknown>
    3a6c: 00 00        	<unknown>
    3a6e: 03 00 00 00  	lb	zero, 0(zero)
    3a72: 00 00        	<unknown>
    3a74: 98 12        	<unknown>
    3a76: 00 80        	<unknown>
    3a78: 00 00        	<unknown>
    3a7a: 00 00        	<unknown>
    3a7c: 00 00        	<unknown>
    3a7e: 03 00 00 00  	lb	zero, 0(zero)
    3a82: 00 00        	<unknown>
    3a84: 9c 12        	<unknown>
    3a86: 00 80        	<unknown>
    3a88: 00 00        	<unknown>
    3a8a: 00 00        	<unknown>
    3a8c: 00 00        	<unknown>
    3a8e: 03 00 00 00  	lb	zero, 0(zero)
    3a92: 00 00        	<unknown>
    3a94: 9c 12        	<unknown>
    3a96: 00 80        	<unknown>
    3a98: 00 00        	<unknown>
    3a9a: 00 00        	<unknown>
    3a9c: 00 00        	<unknown>
    3a9e: 03 00 00 00  	lb	zero, 0(zero)
    3aa2: 00 00        	<unknown>
    3aa4: a0 12        	<unknown>
    3aa6: 00 80        	<unknown>
    3aa8: 00 00        	<unknown>
    3aaa: 00 00        	<unknown>
    3aac: 00 00        	<unknown>
    3aae: 03 00 00 00  	lb	zero, 0(zero)
    3ab2: 00 00        	<unknown>
    3ab4: a0 12        	<unknown>
    3ab6: 00 80        	<unknown>
    3ab8: 00 00        	<unknown>
    3aba: 00 00        	<unknown>
    3abc: 00 00        	<unknown>
    3abe: 03 00 00 00  	lb	zero, 0(zero)
    3ac2: 00 00        	<unknown>
    3ac4: a0 12        	<unknown>
    3ac6: 00 80        	<unknown>
    3ac8: 00 00        	<unknown>
    3aca: 00 00        	<unknown>
    3acc: 00 00        	<unknown>
    3ace: 03 00 00 00  	lb	zero, 0(zero)
    3ad2: 00 00        	<unknown>
    3ad4: a0 12        	<unknown>
    3ad6: 00 80        	<unknown>
    3ad8: 00 00        	<unknown>
    3ada: 00 00        	<unknown>
    3adc: 00 00        	<unknown>
    3ade: 03 00 00 00  	lb	zero, 0(zero)
    3ae2: 00 00        	<unknown>
    3ae4: a0 12        	<unknown>
    3ae6: 00 80        	<unknown>
    3ae8: 00 00        	<unknown>
    3aea: 00 00        	<unknown>
    3aec: 00 00        	<unknown>
    3aee: 03 00 00 00  	lb	zero, 0(zero)
    3af2: 00 00        	<unknown>
    3af4: a0 12        	<unknown>
    3af6: 00 80        	<unknown>
    3af8: 00 00        	<unknown>
    3afa: 00 00        	<unknown>
    3afc: 00 00        	<unknown>
    3afe: 03 00 00 00  	lb	zero, 0(zero)
    3b02: 00 00        	<unknown>
    3b04: a4 12        	<unknown>
    3b06: 00 80        	<unknown>
    3b08: 00 00        	<unknown>
    3b0a: 00 00        	<unknown>
    3b0c: 00 00        	<unknown>
    3b0e: 03 00 00 00  	lb	zero, 0(zero)
    3b12: 00 00        	<unknown>
    3b14: a8 12        	<unknown>
    3b16: 00 80        	<unknown>
    3b18: 00 00        	<unknown>
    3b1a: 00 00        	<unknown>
    3b1c: 00 00        	<unknown>
    3b1e: 03 00 00 00  	lb	zero, 0(zero)
    3b22: 00 00        	<unknown>
    3b24: ac 12        	<unknown>
    3b26: 00 80        	<unknown>
    3b28: 00 00        	<unknown>
    3b2a: 00 00        	<unknown>
    3b2c: 00 00        	<unknown>
    3b2e: 03 00 00 00  	lb	zero, 0(zero)
    3b32: 00 00        	<unknown>
    3b34: b0 12        	<unknown>
    3b36: 00 80        	<unknown>
    3b38: 00 00        	<unknown>
    3b3a: 00 00        	<unknown>
    3b3c: 00 00        	<unknown>
    3b3e: 03 00 00 00  	lb	zero, 0(zero)
    3b42: 00 00        	<unknown>
    3b44: b0 12        	<unknown>
    3b46: 00 80        	<unknown>
    3b48: 00 00        	<unknown>
    3b4a: 00 00        	<unknown>
    3b4c: 00 00        	<unknown>
    3b4e: 03 00 00 00  	lb	zero, 0(zero)
    3b52: 00 00        	<unknown>
    3b54: b4 12        	<unknown>
    3b56: 00 80        	<unknown>
    3b58: 00 00        	<unknown>
    3b5a: 00 00        	<unknown>
    3b5c: 00 00        	<unknown>
    3b5e: 03 00 00 00  	lb	zero, 0(zero)
    3b62: 00 00        	<unknown>
    3b64: b8 12        	<unknown>
    3b66: 00 80        	<unknown>
    3b68: 00 00        	<unknown>
    3b6a: 00 00        	<unknown>
    3b6c: 00 00        	<unknown>
    3b6e: 03 00 00 00  	lb	zero, 0(zero)
    3b72: 00 00        	<unknown>
    3b74: bc 12        	<unknown>
    3b76: 00 80        	<unknown>
    3b78: 00 00        	<unknown>
    3b7a: 00 00        	<unknown>
    3b7c: 00 00        	<unknown>
    3b7e: 03 00 00 00  	lb	zero, 0(zero)
    3b82: 00 00        	<unknown>
    3b84: c0 12        	<unknown>
    3b86: 00 80        	<unknown>
    3b88: 00 00        	<unknown>
    3b8a: 00 00        	<unknown>
    3b8c: 00 00        	<unknown>
    3b8e: 03 00 00 00  	lb	zero, 0(zero)
    3b92: 00 00        	<unknown>
    3b94: cc 12        	<unknown>
    3b96: 00 80        	<unknown>
    3b98: 00 00        	<unknown>
    3b9a: 00 00        	<unknown>
    3b9c: 00 00        	<unknown>
    3b9e: 03 00 00 00  	lb	zero, 0(zero)
    3ba2: 00 00        	<unknown>
    3ba4: cc 12        	<unknown>
    3ba6: 00 80        	<unknown>
    3ba8: 00 00        	<unknown>
    3baa: 00 00        	<unknown>
    3bac: 00 00        	<unknown>
    3bae: 03 00 00 00  	lb	zero, 0(zero)
    3bb2: 00 00        	<unknown>
    3bb4: d0 12        	<unknown>
    3bb6: 00 80        	<unknown>
    3bb8: 00 00        	<unknown>
    3bba: 00 00        	<unknown>
    3bbc: 00 00        	<unknown>
    3bbe: 03 00 00 00  	lb	zero, 0(zero)
    3bc2: 00 00        	<unknown>
    3bc4: d0 12        	<unknown>
    3bc6: 00 80        	<unknown>
    3bc8: 00 00        	<unknown>
    3bca: 00 00        	<unknown>
    3bcc: 00 00        	<unknown>
    3bce: 03 00 00 00  	lb	zero, 0(zero)
    3bd2: 00 00        	<unknown>
    3bd4: d4 12        	<unknown>
    3bd6: 00 80        	<unknown>
    3bd8: 00 00        	<unknown>
    3bda: 00 00        	<unknown>
    3bdc: 00 00        	<unknown>
    3bde: 03 00 00 00  	lb	zero, 0(zero)
    3be2: 00 00        	<unknown>
    3be4: e8 12        	<unknown>
    3be6: 00 80        	<unknown>
    3be8: 00 00        	<unknown>
    3bea: 00 00        	<unknown>
    3bec: 00 00        	<unknown>
    3bee: 03 00 00 00  	lb	zero, 0(zero)
    3bf2: 00 00        	<unknown>
    3bf4: ec 12        	<unknown>
    3bf6: 00 80        	<unknown>
    3bf8: 00 00        	<unknown>
    3bfa: 00 00        	<unknown>
    3bfc: 00 00        	<unknown>
    3bfe: 03 00 00 00  	lb	zero, 0(zero)
    3c02: 00 00        	<unknown>
    3c04: f4 12        	<unknown>
    3c06: 00 80        	<unknown>
    3c08: 00 00        	<unknown>
    3c0a: 00 00        	<unknown>
    3c0c: 00 00        	<unknown>
    3c0e: 03 00 00 00  	lb	zero, 0(zero)
    3c12: 00 00        	<unknown>
    3c14: f8 12        	<unknown>
    3c16: 00 80        	<unknown>
    3c18: 00 00        	<unknown>
    3c1a: 00 00        	<unknown>
    3c1c: 00 00        	<unknown>
    3c1e: 03 00 00 00  	lb	zero, 0(zero)
    3c22: 00 00        	<unknown>
    3c24: f8 12        	<unknown>
    3c26: 00 80        	<unknown>
    3c28: 00 00        	<unknown>
    3c2a: 00 00        	<unknown>
    3c2c: 00 00        	<unknown>
    3c2e: 03 00 00 00  	lb	zero, 0(zero)
    3c32: 00 00        	<unknown>
    3c34: fc 12        	<unknown>
    3c36: 00 80        	<unknown>
    3c38: 00 00        	<unknown>
    3c3a: 00 00        	<unknown>
    3c3c: 00 00        	<unknown>
    3c3e: 03 00 00 00  	lb	zero, 0(zero)
    3c42: 00 00        	<unknown>
    3c44: fc 12        	<unknown>
    3c46: 00 80        	<unknown>
    3c48: 00 00        	<unknown>
    3c4a: 00 00        	<unknown>
    3c4c: 00 00        	<unknown>
    3c4e: 03 00 00 00  	lb	zero, 0(zero)
    3c52: 00 00        	<unknown>
    3c54: fc 12        	<unknown>
    3c56: 00 80        	<unknown>
    3c58: 00 00        	<unknown>
    3c5a: 00 00        	<unknown>
    3c5c: 00 00        	<unknown>
    3c5e: 03 00 00 00  	lb	zero, 0(zero)
    3c62: 00 00        	<unknown>
    3c64: fc 12        	<unknown>
    3c66: 00 80        	<unknown>
    3c68: 00 00        	<unknown>
    3c6a: 00 00        	<unknown>
    3c6c: 00 00        	<unknown>
    3c6e: 03 00 00 00  	lb	zero, 0(zero)
    3c72: 00 00        	<unknown>
    3c74: fc 12        	<unknown>
    3c76: 00 80        	<unknown>
    3c78: 00 00        	<unknown>
    3c7a: 00 00        	<unknown>
    3c7c: 00 00        	<unknown>
    3c7e: 03 00 00 00  	lb	zero, 0(zero)
    3c82: 00 00        	<unknown>
    3c84: 00 13        	<unknown>
    3c86: 00 80        	<unknown>
    3c88: 00 00        	<unknown>
    3c8a: 00 00        	<unknown>
    3c8c: 00 00        	<unknown>
    3c8e: 03 00 00 00  	lb	zero, 0(zero)
    3c92: 00 00        	<unknown>
    3c94: 08 13        	<unknown>
    3c96: 00 80        	<unknown>
    3c98: 00 00        	<unknown>
    3c9a: 00 00        	<unknown>
    3c9c: 00 00        	<unknown>
    3c9e: 03 00 00 00  	lb	zero, 0(zero)
    3ca2: 00 00        	<unknown>
    3ca4: 10 13        	<unknown>
    3ca6: 00 80        	<unknown>
    3ca8: 00 00        	<unknown>
    3caa: 00 00        	<unknown>
    3cac: 00 00        	<unknown>
    3cae: 03 00 00 00  	lb	zero, 0(zero)
    3cb2: 00 00        	<unknown>
    3cb4: 18 13        	<unknown>
    3cb6: 00 80        	<unknown>
    3cb8: 00 00        	<unknown>
    3cba: 00 00        	<unknown>
    3cbc: 00 00        	<unknown>
    3cbe: 03 00 00 00  	lb	zero, 0(zero)
    3cc2: 00 00        	<unknown>
    3cc4: 18 13        	<unknown>
    3cc6: 00 80        	<unknown>
    3cc8: 00 00        	<unknown>
    3cca: 00 00        	<unknown>
    3ccc: 00 00        	<unknown>
    3cce: 03 00 00 00  	lb	zero, 0(zero)
    3cd2: 00 00        	<unknown>
    3cd4: 18 13        	<unknown>
    3cd6: 00 80        	<unknown>
    3cd8: 00 00        	<unknown>
    3cda: 00 00        	<unknown>
    3cdc: 00 00        	<unknown>
    3cde: 03 00 00 00  	lb	zero, 0(zero)
    3ce2: 00 00        	<unknown>
    3ce4: 18 13        	<unknown>
    3ce6: 00 80        	<unknown>
    3ce8: 00 00        	<unknown>
    3cea: 00 00        	<unknown>
    3cec: 00 00        	<unknown>
    3cee: 03 00 00 00  	lb	zero, 0(zero)
    3cf2: 00 00        	<unknown>
    3cf4: 18 13        	<unknown>
    3cf6: 00 80        	<unknown>
    3cf8: 00 00        	<unknown>
    3cfa: 00 00        	<unknown>
    3cfc: 00 00        	<unknown>
    3cfe: 03 00 00 00  	lb	zero, 0(zero)
    3d02: 00 00        	<unknown>
    3d04: 18 13        	<unknown>
    3d06: 00 80        	<unknown>
    3d08: 00 00        	<unknown>
    3d0a: 00 00        	<unknown>
    3d0c: 00 00        	<unknown>
    3d0e: 03 00 00 00  	lb	zero, 0(zero)
    3d12: 00 00        	<unknown>
    3d14: 1c 13        	<unknown>
    3d16: 00 80        	<unknown>
    3d18: 00 00        	<unknown>
    3d1a: 00 00        	<unknown>
    3d1c: 00 00        	<unknown>
    3d1e: 03 00 00 00  	lb	zero, 0(zero)
    3d22: 00 00        	<unknown>
    3d24: 20 13        	<unknown>
    3d26: 00 80        	<unknown>
    3d28: 00 00        	<unknown>
    3d2a: 00 00        	<unknown>
    3d2c: 00 00        	<unknown>
    3d2e: 03 00 00 00  	lb	zero, 0(zero)
    3d32: 00 00        	<unknown>
    3d34: 24 13        	<unknown>
    3d36: 00 80        	<unknown>
    3d38: 00 00        	<unknown>
    3d3a: 00 00        	<unknown>
    3d3c: 00 00        	<unknown>
    3d3e: 03 00 00 00  	lb	zero, 0(zero)
    3d42: 00 00        	<unknown>
    3d44: 28 13        	<unknown>
    3d46: 00 80        	<unknown>
    3d48: 00 00        	<unknown>
    3d4a: 00 00        	<unknown>
    3d4c: 00 00        	<unknown>
    3d4e: 03 00 00 00  	lb	zero, 0(zero)
    3d52: 00 00        	<unknown>
    3d54: 2c 13        	<unknown>
    3d56: 00 80        	<unknown>
    3d58: 00 00        	<unknown>
    3d5a: 00 00        	<unknown>
    3d5c: 00 00        	<unknown>
    3d5e: 03 00 00 00  	lb	zero, 0(zero)
    3d62: 00 00        	<unknown>
    3d64: 38 13        	<unknown>
    3d66: 00 80        	<unknown>
    3d68: 00 00        	<unknown>
    3d6a: 00 00        	<unknown>
    3d6c: 00 00        	<unknown>
    3d6e: 03 00 00 00  	lb	zero, 0(zero)
    3d72: 00 00        	<unknown>
    3d74: 3c 13        	<unknown>
    3d76: 00 80        	<unknown>
    3d78: 00 00        	<unknown>
    3d7a: 00 00        	<unknown>
    3d7c: 00 00        	<unknown>
    3d7e: 03 00 00 00  	lb	zero, 0(zero)
    3d82: 00 00        	<unknown>
    3d84: 40 13        	<unknown>
    3d86: 00 80        	<unknown>
    3d88: 00 00        	<unknown>
    3d8a: 00 00        	<unknown>
    3d8c: 00 00        	<unknown>
    3d8e: 03 00 00 00  	lb	zero, 0(zero)
    3d92: 00 00        	<unknown>
    3d94: 44 13        	<unknown>
    3d96: 00 80        	<unknown>
    3d98: 00 00        	<unknown>
    3d9a: 00 00        	<unknown>
    3d9c: 00 00        	<unknown>
    3d9e: 03 00 00 00  	lb	zero, 0(zero)
    3da2: 00 00        	<unknown>
    3da4: 44 13        	<unknown>
    3da6: 00 80        	<unknown>
    3da8: 00 00        	<unknown>
    3daa: 00 00        	<unknown>
    3dac: 00 00        	<unknown>
    3dae: 03 00 00 00  	lb	zero, 0(zero)
    3db2: 00 00        	<unknown>
    3db4: 44 13        	<unknown>
    3db6: 00 80        	<unknown>
    3db8: 00 00        	<unknown>
    3dba: 00 00        	<unknown>
    3dbc: 00 00        	<unknown>
    3dbe: 03 00 00 00  	lb	zero, 0(zero)
    3dc2: 00 00        	<unknown>
    3dc4: 44 13        	<unknown>
    3dc6: 00 80        	<unknown>
    3dc8: 00 00        	<unknown>
    3dca: 00 00        	<unknown>
    3dcc: 00 00        	<unknown>
    3dce: 03 00 00 00  	lb	zero, 0(zero)
    3dd2: 00 00        	<unknown>
    3dd4: 44 13        	<unknown>
    3dd6: 00 80        	<unknown>
    3dd8: 00 00        	<unknown>
    3dda: 00 00        	<unknown>
    3ddc: 00 00        	<unknown>
    3dde: 03 00 00 00  	lb	zero, 0(zero)
    3de2: 00 00        	<unknown>
    3de4: 44 13        	<unknown>
    3de6: 00 80        	<unknown>
    3de8: 00 00        	<unknown>
    3dea: 00 00        	<unknown>
    3dec: 00 00        	<unknown>
    3dee: 03 00 00 00  	lb	zero, 0(zero)
    3df2: 00 00        	<unknown>
    3df4: 48 13        	<unknown>
    3df6: 00 80        	<unknown>
    3df8: 00 00        	<unknown>
    3dfa: 00 00        	<unknown>
    3dfc: 00 00        	<unknown>
    3dfe: 03 00 00 00  	lb	zero, 0(zero)
    3e02: 00 00        	<unknown>
    3e04: 4c 13        	<unknown>
    3e06: 00 80        	<unknown>
    3e08: 00 00        	<unknown>
    3e0a: 00 00        	<unknown>
    3e0c: 00 00        	<unknown>
    3e0e: 03 00 00 00  	lb	zero, 0(zero)
    3e12: 00 00        	<unknown>
    3e14: 50 13        	<unknown>
    3e16: 00 80        	<unknown>
    3e18: 00 00        	<unknown>
    3e1a: 00 00        	<unknown>
    3e1c: 00 00        	<unknown>
    3e1e: 03 00 00 00  	lb	zero, 0(zero)
    3e22: 00 00        	<unknown>
    3e24: 50 13        	<unknown>
    3e26: 00 80        	<unknown>
    3e28: 00 00        	<unknown>
    3e2a: 00 00        	<unknown>
    3e2c: 00 00        	<unknown>
    3e2e: 03 00 00 00  	lb	zero, 0(zero)
    3e32: 00 00        	<unknown>
    3e34: 54 13        	<unknown>
    3e36: 00 80        	<unknown>
    3e38: 00 00        	<unknown>
    3e3a: 00 00        	<unknown>
    3e3c: 00 00        	<unknown>
    3e3e: 03 00 00 00  	lb	zero, 0(zero)
    3e42: 00 00        	<unknown>
    3e44: 58 13        	<unknown>
    3e46: 00 80        	<unknown>
    3e48: 00 00        	<unknown>
    3e4a: 00 00        	<unknown>
    3e4c: 00 00        	<unknown>
    3e4e: 03 00 00 00  	lb	zero, 0(zero)
    3e52: 00 00        	<unknown>
    3e54: 5c 13        	<unknown>
    3e56: 00 80        	<unknown>
    3e58: 00 00        	<unknown>
    3e5a: 00 00        	<unknown>
    3e5c: 00 00        	<unknown>
    3e5e: 03 00 00 00  	lb	zero, 0(zero)
    3e62: 00 00        	<unknown>
    3e64: 60 13        	<unknown>
    3e66: 00 80        	<unknown>
    3e68: 00 00        	<unknown>
    3e6a: 00 00        	<unknown>
    3e6c: 00 00        	<unknown>
    3e6e: 03 00 00 00  	lb	zero, 0(zero)
    3e72: 00 00        	<unknown>
    3e74: 64 13        	<unknown>
    3e76: 00 80        	<unknown>
    3e78: 00 00        	<unknown>
    3e7a: 00 00        	<unknown>
    3e7c: 00 00        	<unknown>
    3e7e: 03 00 00 00  	lb	zero, 0(zero)
    3e82: 00 00        	<unknown>
    3e84: 68 13        	<unknown>
    3e86: 00 80        	<unknown>
    3e88: 00 00        	<unknown>
    3e8a: 00 00        	<unknown>
    3e8c: 00 00        	<unknown>
    3e8e: 03 00 00 00  	lb	zero, 0(zero)
    3e92: 00 00        	<unknown>
    3e94: 6c 13        	<unknown>
    3e96: 00 80        	<unknown>
    3e98: 00 00        	<unknown>
    3e9a: 00 00        	<unknown>
    3e9c: 00 00        	<unknown>
    3e9e: 03 00 00 00  	lb	zero, 0(zero)
    3ea2: 00 00        	<unknown>
    3ea4: 70 13        	<unknown>
    3ea6: 00 80        	<unknown>
    3ea8: 00 00        	<unknown>
    3eaa: 00 00        	<unknown>
    3eac: 00 00        	<unknown>
    3eae: 03 00 00 00  	lb	zero, 0(zero)
    3eb2: 00 00        	<unknown>
    3eb4: 74 13        	<unknown>
    3eb6: 00 80        	<unknown>
    3eb8: 00 00        	<unknown>
    3eba: 00 00        	<unknown>
    3ebc: 00 00        	<unknown>
    3ebe: 03 00 00 00  	lb	zero, 0(zero)
    3ec2: 00 00        	<unknown>
    3ec4: 7c 13        	<unknown>
    3ec6: 00 80        	<unknown>
    3ec8: 00 00        	<unknown>
    3eca: 00 00        	<unknown>
    3ecc: 00 00        	<unknown>
    3ece: 03 00 00 00  	lb	zero, 0(zero)
    3ed2: 00 00        	<unknown>
    3ed4: 80 13        	<unknown>
    3ed6: 00 80        	<unknown>
    3ed8: 00 00        	<unknown>
    3eda: 00 00        	<unknown>
    3edc: 00 00        	<unknown>
    3ede: 03 00 00 00  	lb	zero, 0(zero)
    3ee2: 00 00        	<unknown>
    3ee4: 84 13        	<unknown>
    3ee6: 00 80        	<unknown>
    3ee8: 00 00        	<unknown>
    3eea: 00 00        	<unknown>
    3eec: 00 00        	<unknown>
    3eee: 03 00 00 00  	lb	zero, 0(zero)
    3ef2: 00 00        	<unknown>
    3ef4: 88 13        	<unknown>
    3ef6: 00 80        	<unknown>
    3ef8: 00 00        	<unknown>
    3efa: 00 00        	<unknown>
    3efc: 00 00        	<unknown>
    3efe: 03 00 00 00  	lb	zero, 0(zero)
    3f02: 00 00        	<unknown>
    3f04: 8c 13        	<unknown>
    3f06: 00 80        	<unknown>
    3f08: 00 00        	<unknown>
    3f0a: 00 00        	<unknown>
    3f0c: 00 00        	<unknown>
    3f0e: 03 00 00 00  	lb	zero, 0(zero)
    3f12: 00 00        	<unknown>
    3f14: 8c 13        	<unknown>
    3f16: 00 80        	<unknown>
    3f18: 00 00        	<unknown>
    3f1a: 00 00        	<unknown>
    3f1c: 00 00        	<unknown>
    3f1e: 03 00 00 00  	lb	zero, 0(zero)
    3f22: 00 00        	<unknown>
    3f24: 90 13        	<unknown>
    3f26: 00 80        	<unknown>
    3f28: 00 00        	<unknown>
    3f2a: 00 00        	<unknown>
    3f2c: 00 00        	<unknown>
    3f2e: 03 00 00 00  	lb	zero, 0(zero)
    3f32: 00 00        	<unknown>
    3f34: 94 13        	<unknown>
    3f36: 00 80        	<unknown>
    3f38: 00 00        	<unknown>
    3f3a: 00 00        	<unknown>
    3f3c: 00 00        	<unknown>
    3f3e: 03 00 00 00  	lb	zero, 0(zero)
    3f42: 00 00        	<unknown>
    3f44: 94 13        	<unknown>
    3f46: 00 80        	<unknown>
    3f48: 00 00        	<unknown>
    3f4a: 00 00        	<unknown>
    3f4c: 00 00        	<unknown>
    3f4e: 03 00 00 00  	lb	zero, 0(zero)
    3f52: 00 00        	<unknown>
    3f54: 98 13        	<unknown>
    3f56: 00 80        	<unknown>
    3f58: 00 00        	<unknown>
    3f5a: 00 00        	<unknown>
    3f5c: 00 00        	<unknown>
    3f5e: 03 00 00 00  	lb	zero, 0(zero)
    3f62: 00 00        	<unknown>
    3f64: 9c 13        	<unknown>
    3f66: 00 80        	<unknown>
    3f68: 00 00        	<unknown>
    3f6a: 00 00        	<unknown>
    3f6c: 00 00        	<unknown>
    3f6e: 03 00 00 00  	lb	zero, 0(zero)
    3f72: 00 00        	<unknown>
    3f74: a0 13        	<unknown>
    3f76: 00 80        	<unknown>
    3f78: 00 00        	<unknown>
    3f7a: 00 00        	<unknown>
    3f7c: 00 00        	<unknown>
    3f7e: 03 00 00 00  	lb	zero, 0(zero)
    3f82: 00 00        	<unknown>
    3f84: a4 13        	<unknown>
    3f86: 00 80        	<unknown>
    3f88: 00 00        	<unknown>
    3f8a: 00 00        	<unknown>
    3f8c: 00 00        	<unknown>
    3f8e: 03 00 00 00  	lb	zero, 0(zero)
    3f92: 00 00        	<unknown>
    3f94: a8 13        	<unknown>
    3f96: 00 80        	<unknown>
    3f98: 00 00        	<unknown>
    3f9a: 00 00        	<unknown>
    3f9c: 00 00        	<unknown>
    3f9e: 03 00 00 00  	lb	zero, 0(zero)
    3fa2: 00 00        	<unknown>
    3fa4: ac 13        	<unknown>
    3fa6: 00 80        	<unknown>
    3fa8: 00 00        	<unknown>
    3faa: 00 00        	<unknown>
    3fac: 00 00        	<unknown>
    3fae: 03 00 00 00  	lb	zero, 0(zero)
    3fb2: 00 00        	<unknown>
    3fb4: ac 13        	<unknown>
    3fb6: 00 80        	<unknown>
    3fb8: 00 00        	<unknown>
    3fba: 00 00        	<unknown>
    3fbc: 00 00        	<unknown>
    3fbe: 03 00 00 00  	lb	zero, 0(zero)
    3fc2: 00 00        	<unknown>
    3fc4: b0 13        	<unknown>
    3fc6: 00 80        	<unknown>
    3fc8: 00 00        	<unknown>
    3fca: 00 00        	<unknown>
    3fcc: 00 00        	<unknown>
    3fce: 03 00 00 00  	lb	zero, 0(zero)
    3fd2: 00 00        	<unknown>
    3fd4: b4 13        	<unknown>
    3fd6: 00 80        	<unknown>
    3fd8: 00 00        	<unknown>
    3fda: 00 00        	<unknown>
    3fdc: 00 00        	<unknown>
    3fde: 03 00 00 00  	lb	zero, 0(zero)
    3fe2: 00 00        	<unknown>
    3fe4: b8 13        	<unknown>
    3fe6: 00 80        	<unknown>
    3fe8: 00 00        	<unknown>
    3fea: 00 00        	<unknown>
    3fec: 00 00        	<unknown>
    3fee: 03 00 00 00  	lb	zero, 0(zero)
    3ff2: 00 00        	<unknown>
    3ff4: b8 13        	<unknown>
    3ff6: 00 80        	<unknown>
    3ff8: 00 00        	<unknown>
    3ffa: 00 00        	<unknown>
    3ffc: 00 00        	<unknown>
    3ffe: 03 00 00 00  	lb	zero, 0(zero)
    4002: 00 00        	<unknown>
    4004: b8 13        	<unknown>
    4006: 00 80        	<unknown>
    4008: 00 00        	<unknown>
    400a: 00 00        	<unknown>
    400c: 00 00        	<unknown>
    400e: 03 00 00 00  	lb	zero, 0(zero)
    4012: 00 00        	<unknown>
    4014: b8 13        	<unknown>
    4016: 00 80        	<unknown>
    4018: 00 00        	<unknown>
    401a: 00 00        	<unknown>
    401c: 00 00        	<unknown>
    401e: 03 00 00 00  	lb	zero, 0(zero)
    4022: 00 00        	<unknown>
    4024: b8 13        	<unknown>
    4026: 00 80        	<unknown>
    4028: 00 00        	<unknown>
    402a: 00 00        	<unknown>
    402c: 00 00        	<unknown>
    402e: 03 00 00 00  	lb	zero, 0(zero)
    4032: 00 00        	<unknown>
    4034: bc 13        	<unknown>
    4036: 00 80        	<unknown>
    4038: 00 00        	<unknown>
    403a: 00 00        	<unknown>
    403c: 00 00        	<unknown>
    403e: 03 00 00 00  	lb	zero, 0(zero)
    4042: 00 00        	<unknown>
    4044: c4 13        	<unknown>
    4046: 00 80        	<unknown>
    4048: 00 00        	<unknown>
    404a: 00 00        	<unknown>
    404c: 00 00        	<unknown>
    404e: 03 00 00 00  	lb	zero, 0(zero)
    4052: 00 00        	<unknown>
    4054: c8 13        	<unknown>
    4056: 00 80        	<unknown>
    4058: 00 00        	<unknown>
    405a: 00 00        	<unknown>
    405c: 00 00        	<unknown>
    405e: 03 00 00 00  	lb	zero, 0(zero)
    4062: 00 00        	<unknown>
    4064: cc 13        	<unknown>
    4066: 00 80        	<unknown>
    4068: 00 00        	<unknown>
    406a: 00 00        	<unknown>
    406c: 00 00        	<unknown>
    406e: 03 00 00 00  	lb	zero, 0(zero)
    4072: 00 00        	<unknown>
    4074: d0 13        	<unknown>
    4076: 00 80        	<unknown>
    4078: 00 00        	<unknown>
    407a: 00 00        	<unknown>
    407c: 00 00        	<unknown>
    407e: 03 00 00 00  	lb	zero, 0(zero)
    4082: 00 00        	<unknown>
    4084: d4 13        	<unknown>
    4086: 00 80        	<unknown>
    4088: 00 00        	<unknown>
    408a: 00 00        	<unknown>
    408c: 00 00        	<unknown>
    408e: 03 00 00 00  	lb	zero, 0(zero)
    4092: 00 00        	<unknown>
    4094: d8 13        	<unknown>
    4096: 00 80        	<unknown>
    4098: 00 00        	<unknown>
    409a: 00 00        	<unknown>
    409c: 00 00        	<unknown>
    409e: 03 00 00 00  	lb	zero, 0(zero)
    40a2: 00 00        	<unknown>
    40a4: d8 13        	<unknown>
    40a6: 00 80        	<unknown>
    40a8: 00 00        	<unknown>
    40aa: 00 00        	<unknown>
    40ac: 00 00        	<unknown>
    40ae: 03 00 00 00  	lb	zero, 0(zero)
    40b2: 00 00        	<unknown>
    40b4: d8 13        	<unknown>
    40b6: 00 80        	<unknown>
    40b8: 00 00        	<unknown>
    40ba: 00 00        	<unknown>
    40bc: 00 00        	<unknown>
    40be: 03 00 00 00  	lb	zero, 0(zero)
    40c2: 00 00        	<unknown>
    40c4: d8 13        	<unknown>
    40c6: 00 80        	<unknown>
    40c8: 00 00        	<unknown>
    40ca: 00 00        	<unknown>
    40cc: 00 00        	<unknown>
    40ce: 03 00 00 00  	lb	zero, 0(zero)
    40d2: 00 00        	<unknown>
    40d4: d8 13        	<unknown>
    40d6: 00 80        	<unknown>
    40d8: 00 00        	<unknown>
    40da: 00 00        	<unknown>
    40dc: 00 00        	<unknown>
    40de: 03 00 00 00  	lb	zero, 0(zero)
    40e2: 00 00        	<unknown>
    40e4: d8 13        	<unknown>
    40e6: 00 80        	<unknown>
    40e8: 00 00        	<unknown>
    40ea: 00 00        	<unknown>
    40ec: 00 00        	<unknown>
    40ee: 03 00 00 00  	lb	zero, 0(zero)
    40f2: 00 00        	<unknown>
    40f4: e0 13        	<unknown>
    40f6: 00 80        	<unknown>
    40f8: 00 00        	<unknown>
    40fa: 00 00        	<unknown>
    40fc: 00 00        	<unknown>
    40fe: 03 00 00 00  	lb	zero, 0(zero)
    4102: 00 00        	<unknown>
    4104: e4 13        	<unknown>
    4106: 00 80        	<unknown>
    4108: 00 00        	<unknown>
    410a: 00 00        	<unknown>
    410c: 00 00        	<unknown>
    410e: 03 00 00 00  	lb	zero, 0(zero)
    4112: 00 00        	<unknown>
    4114: ec 13        	<unknown>
    4116: 00 80        	<unknown>
    4118: 00 00        	<unknown>
    411a: 00 00        	<unknown>
    411c: 00 00        	<unknown>
    411e: 03 00 00 00  	lb	zero, 0(zero)
    4122: 00 00        	<unknown>
    4124: f0 13        	<unknown>
    4126: 00 80        	<unknown>
    4128: 00 00        	<unknown>
    412a: 00 00        	<unknown>
    412c: 00 00        	<unknown>
    412e: 03 00 00 00  	lb	zero, 0(zero)
    4132: 00 00        	<unknown>
    4134: f4 13        	<unknown>
    4136: 00 80        	<unknown>
    4138: 00 00        	<unknown>
    413a: 00 00        	<unknown>
    413c: 00 00        	<unknown>
    413e: 03 00 00 00  	lb	zero, 0(zero)
    4142: 00 00        	<unknown>
    4144: f8 13        	<unknown>
    4146: 00 80        	<unknown>
    4148: 00 00        	<unknown>
    414a: 00 00        	<unknown>
    414c: 00 00        	<unknown>
    414e: 03 00 00 00  	lb	zero, 0(zero)
    4152: 00 00        	<unknown>
    4154: fc 13        	<unknown>
    4156: 00 80        	<unknown>
    4158: 00 00        	<unknown>
    415a: 00 00        	<unknown>
    415c: 00 00        	<unknown>
    415e: 03 00 00 00  	lb	zero, 0(zero)
    4162: 00 00        	<unknown>
    4164: 00 14        	<unknown>
    4166: 00 80        	<unknown>
    4168: 00 00        	<unknown>
    416a: 00 00        	<unknown>
    416c: 00 00        	<unknown>
    416e: 03 00 00 00  	lb	zero, 0(zero)
    4172: 00 00        	<unknown>
    4174: 04 14        	<unknown>
    4176: 00 80        	<unknown>
    4178: 00 00        	<unknown>
    417a: 00 00        	<unknown>
    417c: 00 00        	<unknown>
    417e: 03 00 00 00  	lb	zero, 0(zero)
    4182: 00 00        	<unknown>
    4184: 0c 14        	<unknown>
    4186: 00 80        	<unknown>
    4188: 00 00        	<unknown>
    418a: 00 00        	<unknown>
    418c: 00 00        	<unknown>
    418e: 03 00 00 00  	lb	zero, 0(zero)
    4192: 00 00        	<unknown>
    4194: 10 14        	<unknown>
    4196: 00 80        	<unknown>
    4198: 00 00        	<unknown>
    419a: 00 00        	<unknown>
    419c: 00 00        	<unknown>
    419e: 03 00 00 00  	lb	zero, 0(zero)
    41a2: 00 00        	<unknown>
    41a4: 14 14        	<unknown>
    41a6: 00 80        	<unknown>
    41a8: 00 00        	<unknown>
    41aa: 00 00        	<unknown>
    41ac: 00 00        	<unknown>
    41ae: 03 00 00 00  	lb	zero, 0(zero)
    41b2: 00 00        	<unknown>
    41b4: 1c 14        	<unknown>
    41b6: 00 80        	<unknown>
    41b8: 00 00        	<unknown>
    41ba: 00 00        	<unknown>
    41bc: 00 00        	<unknown>
    41be: 03 00 00 00  	lb	zero, 0(zero)
    41c2: 00 00        	<unknown>
    41c4: 20 14        	<unknown>
    41c6: 00 80        	<unknown>
    41c8: 00 00        	<unknown>
    41ca: 00 00        	<unknown>
    41cc: 00 00        	<unknown>
    41ce: 03 00 00 00  	lb	zero, 0(zero)
    41d2: 00 00        	<unknown>
    41d4: 24 14        	<unknown>
    41d6: 00 80        	<unknown>
    41d8: 00 00        	<unknown>
    41da: 00 00        	<unknown>
    41dc: 00 00        	<unknown>
    41de: 03 00 00 00  	lb	zero, 0(zero)
    41e2: 00 00        	<unknown>
    41e4: 28 14        	<unknown>
    41e6: 00 80        	<unknown>
    41e8: 00 00        	<unknown>
    41ea: 00 00        	<unknown>
    41ec: 00 00        	<unknown>
    41ee: 03 00 00 00  	lb	zero, 0(zero)
    41f2: 00 00        	<unknown>
    41f4: 30 14        	<unknown>
    41f6: 00 80        	<unknown>
    41f8: 00 00        	<unknown>
    41fa: 00 00        	<unknown>
    41fc: 00 00        	<unknown>
    41fe: 03 00 00 00  	lb	zero, 0(zero)
    4202: 00 00        	<unknown>
    4204: 34 14        	<unknown>
    4206: 00 80        	<unknown>
    4208: 00 00        	<unknown>
    420a: 00 00        	<unknown>
    420c: 00 00        	<unknown>
    420e: 03 00 00 00  	lb	zero, 0(zero)
    4212: 00 00        	<unknown>
    4214: 38 14        	<unknown>
    4216: 00 80        	<unknown>
    4218: 00 00        	<unknown>
    421a: 00 00        	<unknown>
    421c: 00 00        	<unknown>
    421e: 03 00 00 00  	lb	zero, 0(zero)
    4222: 00 00        	<unknown>
    4224: 3c 14        	<unknown>
    4226: 00 80        	<unknown>
    4228: 00 00        	<unknown>
    422a: 00 00        	<unknown>
    422c: 00 00        	<unknown>
    422e: 03 00 00 00  	lb	zero, 0(zero)
    4232: 00 00        	<unknown>
    4234: 40 14        	<unknown>
    4236: 00 80        	<unknown>
    4238: 00 00        	<unknown>
    423a: 00 00        	<unknown>
    423c: 00 00        	<unknown>
    423e: 03 00 00 00  	lb	zero, 0(zero)
    4242: 00 00        	<unknown>
    4244: 44 14        	<unknown>
    4246: 00 80        	<unknown>
    4248: 00 00        	<unknown>
    424a: 00 00        	<unknown>
    424c: 00 00        	<unknown>
    424e: 03 00 00 00  	lb	zero, 0(zero)
    4252: 00 00        	<unknown>
    4254: 48 14        	<unknown>
    4256: 00 80        	<unknown>
    4258: 00 00        	<unknown>
    425a: 00 00        	<unknown>
    425c: 00 00        	<unknown>
    425e: 03 00 00 00  	lb	zero, 0(zero)
    4262: 00 00        	<unknown>
    4264: 50 14        	<unknown>
    4266: 00 80        	<unknown>
    4268: 00 00        	<unknown>
    426a: 00 00        	<unknown>
    426c: 00 00        	<unknown>
    426e: 03 00 00 00  	lb	zero, 0(zero)
    4272: 00 00        	<unknown>
    4274: 54 14        	<unknown>
    4276: 00 80        	<unknown>
    4278: 00 00        	<unknown>
    427a: 00 00        	<unknown>
    427c: 00 00        	<unknown>
    427e: 03 00 00 00  	lb	zero, 0(zero)
    4282: 00 00        	<unknown>
    4284: 58 14        	<unknown>
    4286: 00 80        	<unknown>
    4288: 00 00        	<unknown>
    428a: 00 00        	<unknown>
    428c: 00 00        	<unknown>
    428e: 03 00 00 00  	lb	zero, 0(zero)
    4292: 00 00        	<unknown>
    4294: 5c 14        	<unknown>
    4296: 00 80        	<unknown>
    4298: 00 00        	<unknown>
    429a: 00 00        	<unknown>
    429c: 00 00        	<unknown>
    429e: 03 00 00 00  	lb	zero, 0(zero)
    42a2: 00 00        	<unknown>
    42a4: 5c 14        	<unknown>
    42a6: 00 80        	<unknown>
    42a8: 00 00        	<unknown>
    42aa: 00 00        	<unknown>
    42ac: 00 00        	<unknown>
    42ae: 03 00 00 00  	lb	zero, 0(zero)
    42b2: 00 00        	<unknown>
    42b4: 61 0c        	<unknown>
		...
    42be: 0b 00 00 00  	p.lb	zero, 0(zero!)
    42c2: 00 00        	<unknown>
    42c4: 64 02        	<unknown>
		...
    42ce: 0e 00        	<unknown>
    42d0: 00 00        	<unknown>
    42d2: 00 00        	<unknown>
    42d4: 4c 01        	<unknown>
		...
    42de: 10 00        	<unknown>
		...
    42ec: 00 00        	<unknown>
    42ee: 0f 00 00 00  	fence	unknown, unknown
    42f2: 00 00        	<unknown>
    42f4: ad 05        	<unknown>
		...
    42fe: 0f 00 00 00  	fence	unknown, unknown
    4302: 00 00        	<unknown>
    4304: 8b 00 00 00  	p.lb	ra, 0(zero!)
    4308: 00 00        	<unknown>
    430a: 00 00        	<unknown>
    430c: 00 00        	<unknown>
    430e: 0f 00 00 00  	fence	unknown, unknown
    4312: 00 00        	<unknown>
    4314: fa 00        	<unknown>
		...
    431e: 0f 00 00 00  	fence	unknown, unknown
    4322: 00 00        	<unknown>
    4324: b5 03        	<unknown>
		...
    432e: 0f 00 00 00  	fence	unknown, unknown
    4332: 00 00        	<unknown>
    4334: b7 03 00 00  	lui	t2, 0
    4338: 00 00        	<unknown>
    433a: 00 00        	<unknown>
    433c: 00 00        	<unknown>
    433e: 0f 00 00 00  	fence	unknown, unknown
    4342: 00 00        	<unknown>
    4344: a1 02        	<unknown>
		...
    434e: 0f 00 00 00  	fence	unknown, unknown
    4352: 00 00        	<unknown>
    4354: e3 02 00 00  	beqz	zero, 0x4b58 <__l1_start+0x4b58>
    4358: 00 00        	<unknown>
    435a: 00 00        	<unknown>
    435c: 00 00        	<unknown>
    435e: 0f 00 00 00  	fence	unknown, unknown
    4362: 00 00        	<unknown>
    4364: 98 02        	<unknown>
		...
    436e: 0f 00 00 00  	fence	unknown, unknown
    4372: 00 00        	<unknown>
    4374: 17 06 00 00  	auipc	a2, 0
    4378: 00 00        	<unknown>
    437a: 00 00        	<unknown>
    437c: 00 00        	<unknown>
    437e: 0f 00 00 00  	fence	unknown, unknown
    4382: 00 00        	<unknown>
    4384: 1e 06        	<unknown>
		...
    438e: 0f 00 00 00  	fence	unknown, unknown
    4392: 00 00        	<unknown>
    4394: 25 06        	<unknown>
		...
    439e: 0f 00 00 00  	fence	unknown, unknown
    43a2: 00 00        	<unknown>
    43a4: 2c 06        	<unknown>
		...
    43ae: 0f 00 00 00  	fence	unknown, unknown
    43b2: 00 00        	<unknown>
    43b4: 03 01 00 00  	lb	sp, 0(zero)
    43b8: 00 00        	<unknown>
    43ba: 00 00        	<unknown>
    43bc: 00 00        	<unknown>
    43be: 0f 00 00 00  	fence	unknown, unknown
    43c2: 00 00        	<unknown>
    43c4: 33 06 00 00  	add	a2, zero, zero
    43c8: 00 00        	<unknown>
    43ca: 00 00        	<unknown>
    43cc: 00 00        	<unknown>
    43ce: 0f 00 00 00  	fence	unknown, unknown
    43d2: 00 00        	<unknown>
    43d4: 3a 06        	<unknown>
		...
    43de: 0f 00 00 00  	fence	unknown, unknown
    43e2: 00 00        	<unknown>
    43e4: 41 06        	<unknown>
		...
    43ee: 0f 00 00 00  	fence	unknown, unknown
    43f2: 00 00        	<unknown>
    43f4: ca 03        	<unknown>
		...
    43fe: 0f 00 00 00  	fence	unknown, unknown
    4402: 00 00        	<unknown>
    4404: 46 06        	<unknown>
		...
    440e: 0f 00 00 00  	fence	unknown, unknown
    4412: 00 00        	<unknown>
    4414: 4b 06 00 00  	fnmsub.s	a2, zero, zero, zero, rne
    4418: 00 00        	<unknown>
    441a: 00 00        	<unknown>
    441c: 00 00        	<unknown>
    441e: 0f 00 00 00  	fence	unknown, unknown
    4422: 00 00        	<unknown>
    4424: 28 06        	<unknown>
		...
    442e: 0f 00 00 00  	fence	unknown, unknown
    4432: 00 00        	<unknown>
    4434: 49 03        	<unknown>
		...
    443e: 0f 00 00 00  	fence	unknown, unknown
    4442: 00 00        	<unknown>
    4444: 11 02        	<unknown>
		...
    444e: 0f 00 00 00  	fence	unknown, unknown
    4452: 00 00        	<unknown>
    4454: 4f 06 00 00  	fnmadd.s	a2, zero, zero, zero, rne
    4458: 00 00        	<unknown>
    445a: 00 00        	<unknown>
    445c: 00 00        	<unknown>
    445e: 0f 00 00 00  	fence	unknown, unknown
    4462: 00 00        	<unknown>
    4464: 54 06        	<unknown>
		...
    446e: 0f 00 00 00  	fence	unknown, unknown
    4472: 00 00        	<unknown>
    4474: 38 05        	<unknown>
		...
    447e: 0f 00 00 00  	fence	unknown, unknown
    4482: 00 00        	<unknown>
    4484: 59 06        	<unknown>
		...
    448e: 0f 00 00 00  	fence	unknown, unknown
    4492: 00 00        	<unknown>
    4494: 5c 06        	<unknown>
		...
    449e: 0f 00 00 00  	fence	unknown, unknown
    44a2: 00 00        	<unknown>
    44a4: 5f 06 00 00  	<unknown>
    44a8: 00 00        	<unknown>
    44aa: 00 00        	<unknown>
    44ac: 00 00        	<unknown>
    44ae: 0f 00 00 00  	fence	unknown, unknown
    44b2: 00 00        	<unknown>
    44b4: 62 06        	<unknown>
		...
    44be: 0f 00 00 00  	fence	unknown, unknown
    44c2: 00 00        	<unknown>
    44c4: 2a 06        	<unknown>
		...
    44ce: 0f 00 00 00  	fence	unknown, unknown
    44d2: 00 00        	<unknown>
    44d4: 65 06        	<unknown>
		...
    44de: 0f 00 00 00  	fence	unknown, unknown
    44e2: 00 00        	<unknown>
    44e4: 68 06        	<unknown>
		...
    44ee: 0f 00 00 00  	fence	unknown, unknown
    44f2: 00 00        	<unknown>
    44f4: 6b 06 00 00  	<unknown>
    44f8: 00 00        	<unknown>
    44fa: 00 00        	<unknown>
    44fc: 00 00        	<unknown>
    44fe: 0f 00 00 00  	fence	unknown, unknown
    4502: 00 00        	<unknown>
    4504: 0d 04        	<unknown>
		...
    450e: 0f 00 00 00  	fence	unknown, unknown
    4512: 00 00        	<unknown>
    4514: 77 01 00 00  	<unknown>
    4518: 00 00        	<unknown>
    451a: 00 00        	<unknown>
    451c: 00 00        	<unknown>
    451e: 0f 00 00 00  	fence	unknown, unknown
    4522: 00 00        	<unknown>
    4524: 6f 06 00 00  	jal	a2, 0x4524 <__l1_start+0x4524>
    4528: 00 00        	<unknown>
    452a: 00 00        	<unknown>
    452c: 00 00        	<unknown>
    452e: 0f 00 00 00  	fence	unknown, unknown
    4532: 00 00        	<unknown>
    4534: 24 02        	<unknown>
		...
    453e: 11 00        	<unknown>
    4540: ed 00        	<unknown>
		...
    454a: 00 00        	<unknown>
    454c: 04 00        	<unknown>
    454e: f1 ff        	<unknown>
    4550: 00 00        	<unknown>
    4552: 00 00        	<unknown>
    4554: 5c 14        	<unknown>
    4556: 00 80        	<unknown>
    4558: 00 00        	<unknown>
    455a: 00 00        	<unknown>
    455c: 00 00        	<unknown>
    455e: 03 00 00 00  	lb	zero, 0(zero)
    4562: 00 00        	<unknown>
    4564: 5c 14        	<unknown>
    4566: 00 80        	<unknown>
    4568: 00 00        	<unknown>
    456a: 00 00        	<unknown>
    456c: 00 00        	<unknown>
    456e: 03 00 00 00  	lb	zero, 0(zero)
    4572: 00 00        	<unknown>
    4574: 5c 14        	<unknown>
    4576: 00 80        	<unknown>
    4578: 00 00        	<unknown>
    457a: 00 00        	<unknown>
    457c: 00 00        	<unknown>
    457e: 03 00 00 00  	lb	zero, 0(zero)
    4582: 00 00        	<unknown>
    4584: 5c 14        	<unknown>
    4586: 00 80        	<unknown>
    4588: 00 00        	<unknown>
    458a: 00 00        	<unknown>
    458c: 00 00        	<unknown>
    458e: 03 00 00 00  	lb	zero, 0(zero)
    4592: 00 00        	<unknown>
    4594: 60 14        	<unknown>
    4596: 00 80        	<unknown>
    4598: 00 00        	<unknown>
    459a: 00 00        	<unknown>
    459c: 00 00        	<unknown>
    459e: 03 00 00 00  	lb	zero, 0(zero)
    45a2: 00 00        	<unknown>
    45a4: 60 14        	<unknown>
    45a6: 00 80        	<unknown>
    45a8: 00 00        	<unknown>
    45aa: 00 00        	<unknown>
    45ac: 00 00        	<unknown>
    45ae: 03 00 00 00  	lb	zero, 0(zero)
    45b2: 00 00        	<unknown>
    45b4: 68 14        	<unknown>
    45b6: 00 80        	<unknown>
    45b8: 00 00        	<unknown>
    45ba: 00 00        	<unknown>
    45bc: 00 00        	<unknown>
    45be: 03 00 00 00  	lb	zero, 0(zero)
    45c2: 00 00        	<unknown>
    45c4: 68 14        	<unknown>
    45c6: 00 80        	<unknown>
    45c8: 00 00        	<unknown>
    45ca: 00 00        	<unknown>
    45cc: 00 00        	<unknown>
    45ce: 03 00 00 00  	lb	zero, 0(zero)
    45d2: 00 00        	<unknown>
    45d4: 70 14        	<unknown>
    45d6: 00 80        	<unknown>
    45d8: 00 00        	<unknown>
    45da: 00 00        	<unknown>
    45dc: 00 00        	<unknown>
    45de: 03 00 00 00  	lb	zero, 0(zero)
    45e2: 00 00        	<unknown>
    45e4: 70 14        	<unknown>
    45e6: 00 80        	<unknown>
    45e8: 00 00        	<unknown>
    45ea: 00 00        	<unknown>
    45ec: 00 00        	<unknown>
    45ee: 03 00 00 00  	lb	zero, 0(zero)
    45f2: 00 00        	<unknown>
    45f4: 7c 14        	<unknown>
    45f6: 00 80        	<unknown>
    45f8: 00 00        	<unknown>
    45fa: 00 00        	<unknown>
    45fc: 00 00        	<unknown>
    45fe: 03 00 00 00  	lb	zero, 0(zero)
    4602: 00 00        	<unknown>
    4604: 7c 14        	<unknown>
    4606: 00 80        	<unknown>
    4608: 00 00        	<unknown>
    460a: 00 00        	<unknown>
    460c: 00 00        	<unknown>
    460e: 03 00 00 00  	lb	zero, 0(zero)
    4612: 00 00        	<unknown>
    4614: 80 14        	<unknown>
    4616: 00 80        	<unknown>
    4618: 00 00        	<unknown>
    461a: 00 00        	<unknown>
    461c: 00 00        	<unknown>
    461e: 03 00 00 00  	lb	zero, 0(zero)
    4622: 00 00        	<unknown>
    4624: 80 14        	<unknown>
    4626: 00 80        	<unknown>
    4628: 00 00        	<unknown>
    462a: 00 00        	<unknown>
    462c: 00 00        	<unknown>
    462e: 03 00 00 00  	lb	zero, 0(zero)
    4632: 00 00        	<unknown>
    4634: 94 14        	<unknown>
    4636: 00 80        	<unknown>
    4638: 00 00        	<unknown>
    463a: 00 00        	<unknown>
    463c: 00 00        	<unknown>
    463e: 03 00 00 00  	lb	zero, 0(zero)
    4642: 00 00        	<unknown>
    4644: 98 14        	<unknown>
    4646: 00 80        	<unknown>
    4648: 00 00        	<unknown>
    464a: 00 00        	<unknown>
    464c: 00 00        	<unknown>
    464e: 03 00 00 00  	lb	zero, 0(zero)
    4652: 00 00        	<unknown>
    4654: 9c 14        	<unknown>
    4656: 00 80        	<unknown>
    4658: 00 00        	<unknown>
    465a: 00 00        	<unknown>
    465c: 00 00        	<unknown>
    465e: 03 00 00 00  	lb	zero, 0(zero)
    4662: 00 00        	<unknown>
    4664: a0 14        	<unknown>
    4666: 00 80        	<unknown>
    4668: 00 00        	<unknown>
    466a: 00 00        	<unknown>
    466c: 00 00        	<unknown>
    466e: 03 00 00 00  	lb	zero, 0(zero)
    4672: 00 00        	<unknown>
    4674: a0 14        	<unknown>
    4676: 00 80        	<unknown>
    4678: 00 00        	<unknown>
    467a: 00 00        	<unknown>
    467c: 00 00        	<unknown>
    467e: 03 00 00 00  	lb	zero, 0(zero)
    4682: 00 00        	<unknown>
    4684: ac 14        	<unknown>
    4686: 00 80        	<unknown>
    4688: 00 00        	<unknown>
    468a: 00 00        	<unknown>
    468c: 00 00        	<unknown>
    468e: 03 00 00 00  	lb	zero, 0(zero)
    4692: 00 00        	<unknown>
    4694: ac 14        	<unknown>
    4696: 00 80        	<unknown>
    4698: 00 00        	<unknown>
    469a: 00 00        	<unknown>
    469c: 00 00        	<unknown>
    469e: 03 00 00 00  	lb	zero, 0(zero)
    46a2: 00 00        	<unknown>
    46a4: b0 14        	<unknown>
    46a6: 00 80        	<unknown>
    46a8: 00 00        	<unknown>
    46aa: 00 00        	<unknown>
    46ac: 00 00        	<unknown>
    46ae: 03 00 00 00  	lb	zero, 0(zero)
    46b2: 00 00        	<unknown>
    46b4: b0 14        	<unknown>
    46b6: 00 80        	<unknown>
    46b8: 00 00        	<unknown>
    46ba: 00 00        	<unknown>
    46bc: 00 00        	<unknown>
    46be: 03 00 00 00  	lb	zero, 0(zero)
    46c2: 00 00        	<unknown>
    46c4: b4 14        	<unknown>
    46c6: 00 80        	<unknown>
    46c8: 00 00        	<unknown>
    46ca: 00 00        	<unknown>
    46cc: 00 00        	<unknown>
    46ce: 03 00 00 00  	lb	zero, 0(zero)
    46d2: 00 00        	<unknown>
    46d4: b4 14        	<unknown>
    46d6: 00 80        	<unknown>
    46d8: 00 00        	<unknown>
    46da: 00 00        	<unknown>
    46dc: 00 00        	<unknown>
    46de: 03 00 00 00  	lb	zero, 0(zero)
    46e2: 00 00        	<unknown>
    46e4: b4 14        	<unknown>
    46e6: 00 80        	<unknown>
    46e8: 00 00        	<unknown>
    46ea: 00 00        	<unknown>
    46ec: 00 00        	<unknown>
    46ee: 03 00 00 00  	lb	zero, 0(zero)
    46f2: 00 00        	<unknown>
    46f4: b4 14        	<unknown>
    46f6: 00 80        	<unknown>
    46f8: 00 00        	<unknown>
    46fa: 00 00        	<unknown>
    46fc: 00 00        	<unknown>
    46fe: 03 00 00 00  	lb	zero, 0(zero)
    4702: 00 00        	<unknown>
    4704: b4 14        	<unknown>
    4706: 00 80        	<unknown>
    4708: 00 00        	<unknown>
    470a: 00 00        	<unknown>
    470c: 00 00        	<unknown>
    470e: 03 00 00 00  	lb	zero, 0(zero)
    4712: 00 00        	<unknown>
    4714: b4 14        	<unknown>
    4716: 00 80        	<unknown>
    4718: 00 00        	<unknown>
    471a: 00 00        	<unknown>
    471c: 00 00        	<unknown>
    471e: 03 00 00 00  	lb	zero, 0(zero)
    4722: 00 00        	<unknown>
    4724: b8 14        	<unknown>
    4726: 00 80        	<unknown>
    4728: 00 00        	<unknown>
    472a: 00 00        	<unknown>
    472c: 00 00        	<unknown>
    472e: 03 00 00 00  	lb	zero, 0(zero)
    4732: 00 00        	<unknown>
    4734: c8 14        	<unknown>
    4736: 00 80        	<unknown>
    4738: 00 00        	<unknown>
    473a: 00 00        	<unknown>
    473c: 00 00        	<unknown>
    473e: 03 00 00 00  	lb	zero, 0(zero)
    4742: 00 00        	<unknown>
    4744: cc 14        	<unknown>
    4746: 00 80        	<unknown>
    4748: 00 00        	<unknown>
    474a: 00 00        	<unknown>
    474c: 00 00        	<unknown>
    474e: 03 00 00 00  	lb	zero, 0(zero)
    4752: 00 00        	<unknown>
    4754: d0 14        	<unknown>
    4756: 00 80        	<unknown>
    4758: 00 00        	<unknown>
    475a: 00 00        	<unknown>
    475c: 00 00        	<unknown>
    475e: 03 00 00 00  	lb	zero, 0(zero)
    4762: 00 00        	<unknown>
    4764: d4 14        	<unknown>
    4766: 00 80        	<unknown>
    4768: 00 00        	<unknown>
    476a: 00 00        	<unknown>
    476c: 00 00        	<unknown>
    476e: 03 00 00 00  	lb	zero, 0(zero)
    4772: 00 00        	<unknown>
    4774: d4 14        	<unknown>
    4776: 00 80        	<unknown>
    4778: 00 00        	<unknown>
    477a: 00 00        	<unknown>
    477c: 00 00        	<unknown>
    477e: 03 00 00 00  	lb	zero, 0(zero)
    4782: 00 00        	<unknown>
    4784: e0 14        	<unknown>
    4786: 00 80        	<unknown>
    4788: 00 00        	<unknown>
    478a: 00 00        	<unknown>
    478c: 00 00        	<unknown>
    478e: 03 00 00 00  	lb	zero, 0(zero)
    4792: 00 00        	<unknown>
    4794: e0 14        	<unknown>
    4796: 00 80        	<unknown>
    4798: 00 00        	<unknown>
    479a: 00 00        	<unknown>
    479c: 00 00        	<unknown>
    479e: 03 00 00 00  	lb	zero, 0(zero)
    47a2: 00 00        	<unknown>
    47a4: e4 14        	<unknown>
    47a6: 00 80        	<unknown>
    47a8: 00 00        	<unknown>
    47aa: 00 00        	<unknown>
    47ac: 00 00        	<unknown>
    47ae: 03 00 00 00  	lb	zero, 0(zero)
    47b2: 00 00        	<unknown>
    47b4: e4 14        	<unknown>
    47b6: 00 80        	<unknown>
    47b8: 00 00        	<unknown>
    47ba: 00 00        	<unknown>
    47bc: 00 00        	<unknown>
    47be: 03 00 00 00  	lb	zero, 0(zero)
    47c2: 00 00        	<unknown>
    47c4: e8 14        	<unknown>
    47c6: 00 80        	<unknown>
    47c8: 00 00        	<unknown>
    47ca: 00 00        	<unknown>
    47cc: 00 00        	<unknown>
    47ce: 03 00 00 00  	lb	zero, 0(zero)
    47d2: 00 00        	<unknown>
    47d4: e8 14        	<unknown>
    47d6: 00 80        	<unknown>
    47d8: 00 00        	<unknown>
    47da: 00 00        	<unknown>
    47dc: 00 00        	<unknown>
    47de: 03 00 00 00  	lb	zero, 0(zero)
    47e2: 00 00        	<unknown>
    47e4: bf 0e 00 00  	<unknown>
    47e8: 00 00        	<unknown>
    47ea: 00 00        	<unknown>
    47ec: 00 00        	<unknown>
    47ee: 0b 00 00 00  	p.lb	zero, 0(zero!)
    47f2: 00 00        	<unknown>
    47f4: 00 03        	<unknown>
		...
    47fe: 0e 00        	<unknown>
    4800: 00 00        	<unknown>
    4802: 00 00        	<unknown>
    4804: 88 01        	<unknown>
		...
    480e: 10 00        	<unknown>
		...
    481c: 00 00        	<unknown>
    481e: 0f 00 00 00  	fence	unknown, unknown
    4822: 00 00        	<unknown>
    4824: 74 06        	<unknown>
		...
    482e: 0f 00 00 00  	fence	unknown, unknown
    4832: 00 00        	<unknown>
    4834: 8b 00 00 00  	p.lb	ra, 0(zero!)
    4838: 00 00        	<unknown>
    483a: 00 00        	<unknown>
    483c: 00 00        	<unknown>
    483e: 0f 00 00 00  	fence	unknown, unknown
    4842: 00 00        	<unknown>
    4844: eb 06 00 00  	<unknown>
    4848: 00 00        	<unknown>
    484a: 00 00        	<unknown>
    484c: 00 00        	<unknown>
    484e: 0f 00 00 00  	fence	unknown, unknown
    4852: 00 00        	<unknown>
    4854: fa 00        	<unknown>
		...
    485e: 0f 00 00 00  	fence	unknown, unknown
    4862: 00 00        	<unknown>
    4864: 07 01 00 00  	flb	ft2, 0(zero)
    4868: 00 00        	<unknown>
    486a: 00 00        	<unknown>
    486c: 00 00        	<unknown>
    486e: 0f 00 00 00  	fence	unknown, unknown
    4872: 00 00        	<unknown>
    4874: 09 01        	<unknown>
		...
    487e: 0f 00 00 00  	fence	unknown, unknown
    4882: 00 00        	<unknown>
    4884: e7 06 00 00  	jalr	a3, zero
    4888: 00 00        	<unknown>
    488a: 00 00        	<unknown>
    488c: 00 00        	<unknown>
    488e: 0f 00 00 00  	fence	unknown, unknown
    4892: 00 00        	<unknown>
    4894: 12 01        	<unknown>
		...
    489e: 0f 00 00 00  	fence	unknown, unknown
    48a2: 00 00        	<unknown>
    48a4: f3 06 00 00  	<unknown>
    48a8: 00 00        	<unknown>
    48aa: 00 00        	<unknown>
    48ac: 00 00        	<unknown>
    48ae: 0f 00 00 00  	fence	unknown, unknown
    48b2: 00 00        	<unknown>
    48b4: 03 07 00 00  	lb	a4, 0(zero)
    48b8: 00 00        	<unknown>
    48ba: 00 00        	<unknown>
    48bc: 00 00        	<unknown>
    48be: 0f 00 00 00  	fence	unknown, unknown
    48c2: 00 00        	<unknown>
    48c4: 0f 07 00 00  	<unknown>
    48c8: 00 00        	<unknown>
    48ca: 00 00        	<unknown>
    48cc: 00 00        	<unknown>
    48ce: 0f 00 00 00  	fence	unknown, unknown
    48d2: 00 00        	<unknown>
    48d4: 32 01        	<unknown>
		...
    48de: 0f 00 00 00  	fence	unknown, unknown
    48e2: 00 00        	<unknown>
    48e4: 17 07 00 00  	auipc	a4, 0
    48e8: 00 00        	<unknown>
    48ea: 00 00        	<unknown>
    48ec: 00 00        	<unknown>
    48ee: 0f 00 00 00  	fence	unknown, unknown
    48f2: 00 00        	<unknown>
    48f4: 5c 01        	<unknown>
		...
    48fe: 0f 00 00 00  	fence	unknown, unknown
    4902: 00 00        	<unknown>
    4904: 71 01        	<unknown>
		...
    490e: 0f 00 00 00  	fence	unknown, unknown
    4912: 00 00        	<unknown>
    4914: 47 01 00 00  	fmsub.s	sp, zero, zero, zero, rne
    4918: 00 00        	<unknown>
    491a: 00 00        	<unknown>
    491c: 00 00        	<unknown>
    491e: 0f 00 00 00  	fence	unknown, unknown
    4922: 00 00        	<unknown>
    4924: a8 02        	<unknown>
		...
    492e: 11 00        	<unknown>
    4930: ff 00 00 00  	<unknown>
    4934: b8 13        	<unknown>
    4936: 00 80        	<unknown>
    4938: 20 00        	<unknown>
    493a: 00 00        	<unknown>
    493c: 12 00        	<unknown>
    493e: 03 00 06 01  	lb	zero, 16(a2)
    4942: 00 00        	<unknown>
    4944: 34 12        	<unknown>
    4946: 00 80        	<unknown>
    4948: 0c 00        	<unknown>
    494a: 00 00        	<unknown>
    494c: 12 00        	<unknown>
    494e: 03 00 0f 01  	lb	zero, 16(t5)
    4952: 00 00        	<unknown>
    4954: 10 20        	<unknown>
    4956: 00 80        	<unknown>
    4958: 00 00        	<unknown>
    495a: 00 00        	<unknown>
    495c: 10 00        	<unknown>
    495e: 08 00        	<unknown>
    4960: 1f 01 00 00  	<unknown>
    4964: 00 28        	<unknown>
    4966: 00 80        	<unknown>
    4968: 00 00        	<unknown>
    496a: 00 00        	<unknown>
    496c: 10 00        	<unknown>
    496e: 06 00        	<unknown>
    4970: 31 01        	<unknown>
    4972: 00 00        	<unknown>
    4974: ff ff ff ff  	<unknown>
    4978: 00 00        	<unknown>
    497a: 00 00        	<unknown>
    497c: 10 00        	<unknown>
    497e: f1 ff        	<unknown>
    4980: 3a 01        	<unknown>
    4982: 00 00        	<unknown>
    4984: ff ff ff ff  	<unknown>
    4988: 00 00        	<unknown>
    498a: 00 00        	<unknown>
    498c: 10 00        	<unknown>
    498e: f1 ff        	<unknown>
    4990: 43 01 00 00  	fmadd.s	sp, zero, zero, zero, rne
    4994: e4 04        	<unknown>
    4996: 00 80        	<unknown>
    4998: 90 00        	<unknown>
    499a: 00 00        	<unknown>
    499c: 12 00        	<unknown>
    499e: 03 00 4e 01  	lb	zero, 20(t3)
    49a2: 00 00        	<unknown>
    49a4: 00 00        	<unknown>
    49a6: 00 40        	<unknown>
    49a8: 00 00        	<unknown>
    49aa: 00 00        	<unknown>
    49ac: 10 00        	<unknown>
    49ae: f1 ff        	<unknown>
    49b0: 56 01        	<unknown>
    49b2: 00 00        	<unknown>
    49b4: 74 05        	<unknown>
    49b6: 00 80        	<unknown>
    49b8: 0c 00        	<unknown>
    49ba: 00 00        	<unknown>
    49bc: 12 00        	<unknown>
    49be: 03 00 63 01  	lb	zero, 22(t1)
    49c2: 00 00        	<unknown>
    49c4: 50 00        	<unknown>
    49c6: 00 40        	<unknown>
    49c8: 00 00        	<unknown>
    49ca: 00 00        	<unknown>
    49cc: 10 00        	<unknown>
    49ce: f1 ff        	<unknown>
    49d0: 77 01 00 00  	<unknown>
    49d4: d8 13        	<unknown>
    49d6: 00 80        	<unknown>
    49d8: 84 00        	<unknown>
    49da: 00 00        	<unknown>
    49dc: 12 00        	<unknown>
    49de: 03 00 7c 01  	lb	zero, 23(s8)
    49e2: 00 00        	<unknown>
    49e4: 0c 00        	<unknown>
    49e6: 00 40        	<unknown>
    49e8: 00 00        	<unknown>
    49ea: 00 00        	<unknown>
    49ec: 10 00        	<unknown>
    49ee: f1 ff        	<unknown>
    49f0: 93 01 00 00  	li	gp, 0
    49f4: 38 04        	<unknown>
    49f6: 00 80        	<unknown>
    49f8: ac 00        	<unknown>
    49fa: 00 00        	<unknown>
    49fc: 12 00        	<unknown>
    49fe: 03 00 9f 01  	lb	zero, 25(t5)
    4a02: 00 00        	<unknown>
    4a04: 90 03        	<unknown>
    4a06: 00 80        	<unknown>
    4a08: a8 00        	<unknown>
    4a0a: 00 00        	<unknown>
    4a0c: 12 00        	<unknown>
    4a0e: 03 00 ab 01  	lb	zero, 26(s6)
    4a12: 00 00        	<unknown>
    4a14: 00 15        	<unknown>
    4a16: 00 80        	<unknown>
    4a18: 00 00        	<unknown>
    4a1a: 00 00        	<unknown>
    4a1c: 10 00        	<unknown>
    4a1e: 03 00 b2 01  	lb	zero, 27(tp)
    4a22: 00 00        	<unknown>
    4a24: 18 00        	<unknown>
    4a26: 00 40        	<unknown>
    4a28: 00 00        	<unknown>
    4a2a: 00 00        	<unknown>
    4a2c: 10 00        	<unknown>
    4a2e: f1 ff        	<unknown>
    4a30: c2 01        	<unknown>
    4a32: 00 00        	<unknown>
    4a34: 4c 00        	<unknown>
    4a36: 00 40        	<unknown>
    4a38: 00 00        	<unknown>
    4a3a: 00 00        	<unknown>
    4a3c: 10 00        	<unknown>
    4a3e: f1 ff        	<unknown>
    4a40: d6 01        	<unknown>
    4a42: 00 00        	<unknown>
    4a44: 40 12        	<unknown>
    4a46: 00 80        	<unknown>
    4a48: 60 00        	<unknown>
    4a4a: 00 00        	<unknown>
    4a4c: 12 00        	<unknown>
    4a4e: 03 00 dd 01  	lb	zero, 29(s10)
    4a52: 00 00        	<unknown>
    4a54: 14 00        	<unknown>
    4a56: 00 40        	<unknown>
    4a58: 00 00        	<unknown>
    4a5a: 00 00        	<unknown>
    4a5c: 10 00        	<unknown>
    4a5e: f1 ff        	<unknown>
    4a60: f2 01        	<unknown>
    4a62: 00 00        	<unknown>
    4a64: 5c 0d        	<unknown>
    4a66: 00 80        	<unknown>
    4a68: 58 00        	<unknown>
    4a6a: 00 00        	<unknown>
    4a6c: 12 00        	<unknown>
    4a6e: 03 00 fb 01  	lb	zero, 31(s6)
		...
    4a7a: 00 00        	<unknown>
    4a7c: 10 00        	<unknown>
    4a7e: f1 ff        	<unknown>
    4a80: 07 02 00 00  	flb	ft4, 0(zero)
    4a84: 00 00        	<unknown>
    4a86: 10 00        	<unknown>
    4a88: 00 00        	<unknown>
    4a8a: 00 00        	<unknown>
    4a8c: 10 00        	<unknown>
    4a8e: 01 00        	<unknown>
    4a90: 10 02        	<unknown>
    4a92: 00 00        	<unknown>
    4a94: 04 00        	<unknown>
    4a96: 00 40        	<unknown>
    4a98: 00 00        	<unknown>
    4a9a: 00 00        	<unknown>
    4a9c: 10 00        	<unknown>
    4a9e: f1 ff        	<unknown>
    4aa0: 5a 01        	<unknown>
    4aa2: 00 00        	<unknown>
    4aa4: 00 20        	<unknown>
    4aa6: 00 80        	<unknown>
    4aa8: 04 00        	<unknown>
    4aaa: 00 00        	<unknown>
    4aac: 11 00        	<unknown>
    4aae: 07 00 1c 02  	flb	ft0, 33(s8)
    4ab2: 00 00        	<unknown>
    4ab4: 00 10        	<unknown>
    4ab6: 00 a0        	<unknown>
    4ab8: 00 00        	<unknown>
    4aba: 00 00        	<unknown>
    4abc: 10 00        	<unknown>
    4abe: 01 00        	<unknown>
    4ac0: 26 02        	<unknown>
    4ac2: 00 00        	<unknown>
    4ac4: 54 00        	<unknown>
    4ac6: 00 40        	<unknown>
    4ac8: 00 00        	<unknown>
    4aca: 00 00        	<unknown>
    4acc: 10 00        	<unknown>
    4ace: f1 ff        	<unknown>
    4ad0: 22 04        	<unknown>
    4ad2: 00 00        	<unknown>
    4ad4: 00 28        	<unknown>
    4ad6: 02 00        	<unknown>
    4ad8: 00 01        	<unknown>
    4ada: 00 00        	<unknown>
    4adc: 11 00        	<unknown>
    4ade: 02 00        	<unknown>
    4ae0: 3a 02        	<unknown>
    4ae2: 00 00        	<unknown>
    4ae4: 00 20        	<unknown>
    4ae6: 00 80        	<unknown>
    4ae8: 00 00        	<unknown>
    4aea: 00 00        	<unknown>
    4aec: 10 00        	<unknown>
    4aee: 06 00        	<unknown>
    4af0: 44 02        	<unknown>
    4af2: 00 00        	<unknown>
    4af4: 30 00        	<unknown>
    4af6: 00 40        	<unknown>
    4af8: 00 00        	<unknown>
    4afa: 00 00        	<unknown>
    4afc: 10 00        	<unknown>
    4afe: f1 ff        	<unknown>
    4b00: 55 02        	<unknown>
    4b02: 00 00        	<unknown>
    4b04: 34 00        	<unknown>
    4b06: 00 40        	<unknown>
    4b08: 00 00        	<unknown>
    4b0a: 00 00        	<unknown>
    4b0c: 10 00        	<unknown>
    4b0e: f1 ff        	<unknown>
    4b10: 64 02        	<unknown>
    4b12: 00 00        	<unknown>
    4b14: 18 0e        	<unknown>
    4b16: 00 80        	<unknown>
    4b18: 20 00        	<unknown>
    4b1a: 00 00        	<unknown>
    4b1c: 12 00        	<unknown>
    4b1e: 03 00 16 04  	lb	zero, 65(a2)
    4b22: 00 00        	<unknown>
    4b24: 00 04        	<unknown>
    4b26: 02 00        	<unknown>
    4b28: 04 00        	<unknown>
    4b2a: 00 00        	<unknown>
    4b2c: 11 00        	<unknown>
    4b2e: 02 00        	<unknown>
    4b30: 6f 02 00 00  	jal	tp, 0x4b30 <__l1_start+0x4b30>
    4b34: 5c 14        	<unknown>
    4b36: 00 80        	<unknown>
    4b38: 58 00        	<unknown>
    4b3a: 00 00        	<unknown>
    4b3c: 12 00        	<unknown>
    4b3e: 03 00 84 02  	lb	zero, 40(s0)
		...
    4b4a: 00 00        	<unknown>
    4b4c: 10 00        	<unknown>
    4b4e: 01 00        	<unknown>
    4b50: 8f 02 00 00  	<unknown>
		...
    4b5c: 10 00        	<unknown>
    4b5e: f1 ff        	<unknown>
    4b60: 9d 02        	<unknown>
    4b62: 00 00        	<unknown>
    4b64: 38 0e        	<unknown>
    4b66: 00 80        	<unknown>
    4b68: 5c 00        	<unknown>
    4b6a: 00 00        	<unknown>
    4b6c: 12 00        	<unknown>
    4b6e: 03 00 a7 02  	lb	zero, 42(a4)
    4b72: 00 00        	<unknown>
    4b74: a4 01        	<unknown>
    4b76: 00 80        	<unknown>
    4b78: f0 00        	<unknown>
    4b7a: 00 00        	<unknown>
    4b7c: 12 00        	<unknown>
    4b7e: 03 00 b5 02  	lb	zero, 43(a0)
    4b82: 00 00        	<unknown>
    4b84: 5c 00        	<unknown>
    4b86: 00 40        	<unknown>
    4b88: 00 00        	<unknown>
    4b8a: 00 00        	<unknown>
    4b8c: 10 00        	<unknown>
    4b8e: f1 ff        	<unknown>
    4b90: c9 02        	<unknown>
    4b92: 00 00        	<unknown>
    4b94: 38 00        	<unknown>
    4b96: 00 40        	<unknown>
    4b98: 00 00        	<unknown>
    4b9a: 00 00        	<unknown>
    4b9c: 10 00        	<unknown>
    4b9e: f1 ff        	<unknown>
    4ba0: da 02        	<unknown>
    4ba2: 00 00        	<unknown>
    4ba4: 44 00        	<unknown>
    4ba6: 00 40        	<unknown>
    4ba8: 00 00        	<unknown>
    4baa: 00 00        	<unknown>
    4bac: 10 00        	<unknown>
    4bae: f1 ff        	<unknown>
    4bb0: 88 02        	<unknown>
    4bb2: 00 00        	<unknown>
    4bb4: 00 00        	<unknown>
    4bb6: 00 80        	<unknown>
    4bb8: 00 00        	<unknown>
    4bba: 00 00        	<unknown>
    4bbc: 10 00        	<unknown>
    4bbe: 03 00 ee 02  	lb	zero, 46(t3)
    4bc2: 00 00        	<unknown>
    4bc4: b4 14        	<unknown>
    4bc6: 00 80        	<unknown>
    4bc8: 34 00        	<unknown>
    4bca: 00 00        	<unknown>
    4bcc: 12 00        	<unknown>
    4bce: 03 00 fe 02  	lb	zero, 47(t3)
    4bd2: 00 00        	<unknown>
    4bd4: 00 00        	<unknown>
    4bd6: 00 80        	<unknown>
    4bd8: 00 00        	<unknown>
    4bda: 00 00        	<unknown>
    4bdc: 10 00        	<unknown>
    4bde: 01 00        	<unknown>
    4be0: 09 03        	<unknown>
    4be2: 00 00        	<unknown>
    4be4: 20 00        	<unknown>
    4be6: 00 40        	<unknown>
    4be8: 00 00        	<unknown>
    4bea: 00 00        	<unknown>
    4bec: 10 00        	<unknown>
    4bee: f1 ff        	<unknown>
    4bf0: 1a 03        	<unknown>
    4bf2: 00 00        	<unknown>
    4bf4: 44 13        	<unknown>
    4bf6: 00 80        	<unknown>
    4bf8: 74 00        	<unknown>
    4bfa: 00 00        	<unknown>
    4bfc: 12 00        	<unknown>
    4bfe: 03 00 21 03  	lb	zero, 50(sp)
    4c02: 00 00        	<unknown>
    4c04: 00 29        	<unknown>
    4c06: 02 00        	<unknown>
    4c08: 00 00        	<unknown>
    4c0a: 00 00        	<unknown>
    4c0c: 10 00        	<unknown>
    4c0e: 02 00        	<unknown>
    4c10: 31 03        	<unknown>
    4c12: 00 00        	<unknown>
    4c14: 00 00        	<unknown>
    4c16: 02 00        	<unknown>
    4c18: 00 00        	<unknown>
    4c1a: 00 00        	<unknown>
    4c1c: 10 00        	<unknown>
    4c1e: f1 ff        	<unknown>
    4c20: 3d 03        	<unknown>
    4c22: 00 00        	<unknown>
    4c24: 00 00        	<unknown>
    4c26: 00 c0        	<unknown>
    4c28: 00 00        	<unknown>
    4c2a: 00 00        	<unknown>
    4c2c: 10 00        	<unknown>
    4c2e: f1 ff        	<unknown>
    4c30: 47 03 00 00  	fmsub.s	t1, zero, zero, zero, rne
    4c34: 2c 00        	<unknown>
    4c36: 00 40        	<unknown>
    4c38: 00 00        	<unknown>
    4c3a: 00 00        	<unknown>
    4c3c: 10 00        	<unknown>
    4c3e: f1 ff        	<unknown>
    4c40: 56 03        	<unknown>
    4c42: 00 00        	<unknown>
    4c44: 00 20        	<unknown>
    4c46: 00 80        	<unknown>
    4c48: 00 00        	<unknown>
    4c4a: 00 00        	<unknown>
    4c4c: 10 00        	<unknown>
    4c4e: 06 00        	<unknown>
    4c50: 62 03        	<unknown>
    4c52: 00 00        	<unknown>
    4c54: a0 12        	<unknown>
    4c56: 00 80        	<unknown>
    4c58: 5c 00        	<unknown>
    4c5a: 00 00        	<unknown>
    4c5c: 12 00        	<unknown>
    4c5e: 03 00 7f 00  	lb	zero, 7(t5)
    4c62: 00 00        	<unknown>
    4c64: 08 01        	<unknown>
    4c66: 00 80        	<unknown>
    4c68: 74 00        	<unknown>
    4c6a: 00 00        	<unknown>
    4c6c: 12 00        	<unknown>
    4c6e: 03 00 69 03  	lb	zero, 54(s2)
    4c72: 00 00        	<unknown>
    4c74: e8 00        	<unknown>
    4c76: 00 80        	<unknown>
    4c78: 00 00        	<unknown>
    4c7a: 00 00        	<unknown>
    4c7c: 10 00        	<unknown>
    4c7e: 03 00 6e 03  	lb	zero, 54(t3)
    4c82: 00 00        	<unknown>
    4c84: 00 00        	<unknown>
    4c86: 02 00        	<unknown>
    4c88: 00 00        	<unknown>
    4c8a: 00 00        	<unknown>
    4c8c: 10 00        	<unknown>
    4c8e: f1 ff        	<unknown>
    4c90: 78 03        	<unknown>
    4c92: 00 00        	<unknown>
    4c94: 3c 00        	<unknown>
    4c96: 00 40        	<unknown>
    4c98: 00 00        	<unknown>
    4c9a: 00 00        	<unknown>
    4c9c: 10 00        	<unknown>
    4c9e: f1 ff        	<unknown>
    4ca0: 87 03 00 00  	flb	ft7, 0(zero)
    4ca4: 48 00        	<unknown>
    4ca6: 00 40        	<unknown>
    4ca8: 00 00        	<unknown>
    4caa: 00 00        	<unknown>
    4cac: 10 00        	<unknown>
    4cae: f1 ff        	<unknown>
    4cb0: 9b 03 00 00  	<unknown>
    4cb4: 58 00        	<unknown>
    4cb6: 00 40        	<unknown>
    4cb8: 00 00        	<unknown>
    4cba: 00 00        	<unknown>
    4cbc: 10 00        	<unknown>
    4cbe: f1 ff        	<unknown>
    4cc0: af 03 00 00  	<unknown>
    4cc4: 7c 01        	<unknown>
    4cc6: 00 80        	<unknown>
    4cc8: 28 00        	<unknown>
    4cca: 00 00        	<unknown>
    4ccc: 12 00        	<unknown>
    4cce: 03 00 ba 03  	lb	zero, 59(s4)
    4cd2: 00 00        	<unknown>
    4cd4: 18 13        	<unknown>
    4cd6: 00 80        	<unknown>
    4cd8: 2c 00        	<unknown>
    4cda: 00 00        	<unknown>
    4cdc: 12 00        	<unknown>
    4cde: 03 00 c1 03  	lb	zero, 60(sp)
    4ce2: 00 00        	<unknown>
    4ce4: 00 00        	<unknown>
    4ce6: 10 00        	<unknown>
    4ce8: 00 00        	<unknown>
    4cea: 00 00        	<unknown>
    4cec: 10 00        	<unknown>
    4cee: f1 ff        	<unknown>
    4cf0: cc 03        	<unknown>
    4cf2: 00 00        	<unknown>
    4cf4: 28 00        	<unknown>
    4cf6: 00 40        	<unknown>
    4cf8: 00 00        	<unknown>
    4cfa: 00 00        	<unknown>
    4cfc: 10 00        	<unknown>
    4cfe: f1 ff        	<unknown>
    4d00: dd 03        	<unknown>
    4d02: 00 00        	<unknown>
    4d04: 1c 00        	<unknown>
    4d06: 00 40        	<unknown>
    4d08: 00 00        	<unknown>
    4d0a: 00 00        	<unknown>
    4d0c: 10 00        	<unknown>
    4d0e: f1 ff        	<unknown>
    4d10: ec 03        	<unknown>
    4d12: 00 00        	<unknown>
    4d14: 00 00        	<unknown>
    4d16: 02 00        	<unknown>
    4d18: 00 04        	<unknown>
    4d1a: 00 00        	<unknown>
    4d1c: 11 00        	<unknown>
    4d1e: 02 00        	<unknown>
    4d20: 65 02        	<unknown>
    4d22: 00 00        	<unknown>
    4d24: c4 0d        	<unknown>
    4d26: 00 80        	<unknown>
    4d28: 54 00        	<unknown>
    4d2a: 00 00        	<unknown>
    4d2c: 12 00        	<unknown>
    4d2e: 03 00 f3 03  	lb	zero, 63(t1)
    4d32: 00 00        	<unknown>
    4d34: 08 00        	<unknown>
    4d36: 00 40        	<unknown>
    4d38: 00 00        	<unknown>
    4d3a: 00 00        	<unknown>
    4d3c: 10 00        	<unknown>
    4d3e: f1 ff        	<unknown>
    4d40: 05 04        	<unknown>
    4d42: 00 00        	<unknown>
    4d44: 00 29        	<unknown>
    4d46: 02 00        	<unknown>
    4d48: 00 00        	<unknown>
    4d4a: 00 00        	<unknown>
    4d4c: 10 00        	<unknown>
    4d4e: 02 00        	<unknown>
    4d50: 12 04        	<unknown>
    4d52: 00 00        	<unknown>
    4d54: 00 08        	<unknown>
    4d56: 02 00        	<unknown>
    4d58: 00 10        	<unknown>
    4d5a: 00 00        	<unknown>
    4d5c: 11 00        	<unknown>
    4d5e: 02 00        	<unknown>
    4d60: 1e 04        	<unknown>
    4d62: 00 00        	<unknown>
    4d64: 80 05        	<unknown>
    4d66: 00 80        	<unknown>
    4d68: 14 00        	<unknown>
    4d6a: 00 00        	<unknown>
    4d6c: 12 00        	<unknown>
    4d6e: 03 00 67 02  	lb	zero, 38(a4)
    4d72: 00 00        	<unknown>
    4d74: 94 05        	<unknown>
    4d76: 00 80        	<unknown>
    4d78: 5c 00        	<unknown>
    4d7a: 00 00        	<unknown>
    4d7c: 12 00        	<unknown>
    4d7e: 03 00 2d 04  	lb	zero, 66(s10)
    4d82: 00 00        	<unknown>
    4d84: 00 00        	<unknown>
    4d86: 00 a0        	<unknown>
    4d88: 00 00        	<unknown>
    4d8a: 00 00        	<unknown>
    4d8c: 10 00        	<unknown>
    4d8e: 01 00        	<unknown>
    4d90: 39 04        	<unknown>
    4d92: 00 00        	<unknown>
    4d94: ff ff ff ff  	<unknown>
    4d98: 00 00        	<unknown>
    4d9a: 00 00        	<unknown>
    4d9c: 10 00        	<unknown>
    4d9e: f1 ff        	<unknown>
    4da0: 42 04        	<unknown>
    4da2: 00 00        	<unknown>
    4da4: ff ff ff ff  	<unknown>
    4da8: 00 00        	<unknown>
    4daa: 00 00        	<unknown>
    4dac: 10 00        	<unknown>
    4dae: f1 ff        	<unknown>
    4db0: 4d 04        	<unknown>
    4db2: 00 00        	<unknown>
    4db4: fc 12        	<unknown>
    4db6: 00 80        	<unknown>
    4db8: 1c 00        	<unknown>
    4dba: 00 00        	<unknown>
    4dbc: 12 00        	<unknown>
    4dbe: 03 00 54 04  	lb	zero, 69(s0)
    4dc2: 00 00        	<unknown>
    4dc4: 40 00        	<unknown>
    4dc6: 00 40        	<unknown>
    4dc8: 00 00        	<unknown>
    4dca: 00 00        	<unknown>
    4dcc: 10 00        	<unknown>
    4dce: f1 ff        	<unknown>
    4dd0: 68 04        	<unknown>
    4dd2: 00 00        	<unknown>
    4dd4: 10 00        	<unknown>
    4dd6: 00 40        	<unknown>
    4dd8: 00 00        	<unknown>
    4dda: 00 00        	<unknown>
    4ddc: 10 00        	<unknown>
    4dde: f1 ff        	<unknown>
    4de0: 7d 04        	<unknown>
    4de2: 00 00        	<unknown>
    4de4: 00 00        	<unknown>
    4de6: 40 80        	<unknown>
    4de8: 00 00        	<unknown>
    4dea: 00 00        	<unknown>
    4dec: 10 00        	<unknown>
    4dee: 01 00        	<unknown>
    4df0: 86 04        	<unknown>
    4df2: 00 00        	<unknown>
    4df4: 94 02        	<unknown>
    4df6: 00 80        	<unknown>
    4df8: fc 00        	<unknown>
    4dfa: 00 00        	<unknown>
    4dfc: 12 00        	<unknown>
    4dfe: 03 00 94 04  	lb	zero, 73(s0)
    4e02: 00 00        	<unknown>
    4e04: ff ff ff ff  	<unknown>
    4e08: 00 00        	<unknown>
    4e0a: 00 00        	<unknown>
    4e0c: 10 00        	<unknown>
    4e0e: f1 ff        	<unknown>
    4e10: 9f 04 00 00  	<unknown>
    4e14: 00 18        	<unknown>
    4e16: 02 00        	<unknown>
    4e18: 00 10        	<unknown>
    4e1a: 00 00        	<unknown>
    4e1c: 11 00        	<unknown>
    4e1e: 02 00        	<unknown>
    4e20: af 04 00 00  	<unknown>
    4e24: 24 00        	<unknown>
    4e26: 00 40        	<unknown>
    4e28: 00 00        	<unknown>
    4e2a: 00 00        	<unknown>
    4e2c: 10 00        	<unknown>
    4e2e: f1 ff        	<unknown>
    4e30: be 04        	<unknown>
    4e32: 00 00        	<unknown>
    4e34: 00 20        	<unknown>
    4e36: 00 80        	<unknown>
    4e38: 00 00        	<unknown>
    4e3a: 00 00        	<unknown>
    4e3c: 10 00        	<unknown>
    4e3e: 05 00        	<unknown>

Disassembly of section .strtab:

00000000 <.strtab>:
       0: 00 2f        	<unknown>
       2: 75 73        	<unknown>
       4: 72 2f        	<unknown>
       6: 73 63 72 61  	csrrsi	t1, 1559, 4
       a: 74 63        	<unknown>
       c: 68 32        	<unknown>
       e: 2f 6c 61 72  	<unknown>
      12: 61 69        	<unknown>
      14: 6e 38        	<unknown>
      16: 2f 79 69 63  	<unknown>
      1a: 7a 68        	<unknown>
      1c: 61 6e        	<unknown>
      1e: 67 2f 74 65  	<unknown>
      22: 72 61        	<unknown>
      24: 70 6f        	<unknown>
      26: 6f 6c 5f 64  	jal	s8, 0xf6e6a <__l1_alloc_base+0xd456a>
      2a: 72 61        	<unknown>
      2c: 6d 5f        	<unknown>
      2e: 73 75 62 6d  	csrrci	a0, 1750, 4
      32: 6f 64 75 6c  	jal	s0, 0x56ef8 <__l1_alloc_base+0x345f8>
      36: 65 5f        	<unknown>
      38: 72 65        	<unknown>
      3a: 62 61        	<unknown>
      3c: 73 65 5f 30  	csrrsi	a0, mtvec, 30
      40: 35 30        	<unknown>
      42: 32 5f        	<unknown>
      44: 32 30        	<unknown>
      46: 32 34        	<unknown>
      48: 2f 6d 65 6d  	<unknown>
      4c: 70 6f        	<unknown>
      4e: 6f 6c 2f 73  	jal	s8, 0xf6780 <__l1_alloc_base+0xd3e80>
      52: 6f 66 74 77  	jal	a2, 0x46fc8 <__l1_alloc_base+0x246c8>
      56: 61 72        	<unknown>
      58: 65 2f        	<unknown>
      5a: 72 75        	<unknown>
      5c: 6e 74        	<unknown>
      5e: 69 6d        	<unknown>
      60: 65 2f        	<unknown>
      62: 63 72 74 30  	bgeu	s0, t2, 0x366 <__l1_start+0x366>
      66: 2e 53        	<unknown>
      68: 2e 6f        	<unknown>
      6a: 00 5f        	<unknown>
      6c: 72 65        	<unknown>
      6e: 73 65 74 5f  	csrrsi	a0, 1527, 8
      72: 76 65        	<unknown>
      74: 63 74 6f 72  	bgeu	t5, t1, 0x79c <__l1_start+0x79c>
      78: 00 5f        	<unknown>
      7a: 6a 75        	<unknown>
      7c: 6d 70        	<unknown>
      7e: 5f 6d 61 69  	<unknown>
      82: 6e 00        	<unknown>
      84: 6d 61        	<unknown>
      86: 69 6e        	<unknown>
      88: 2e 63        	<unknown>
      8a: 00 61        	<unknown>
      8c: 6c 6c        	<unknown>
      8e: 6f 63 2e 63  	jal	t1, 0xe66c0 <__l1_alloc_base+0xc3dc0>
      92: 00 70        	<unknown>
      94: 72 69        	<unknown>
      96: 6e 74        	<unknown>
      98: 66 2e        	<unknown>
      9a: 63 00 5f 6f  	beq	t5, s5, 0x77a <__l1_start+0x77a>
      9e: 75 74        	<unknown>
      a0: 5f 63 68 61  	<unknown>
      a4: 72 00        	<unknown>
      a6: 5f 76 73 6e  	<unknown>
      aa: 70 72        	<unknown>
      ac: 69 6e        	<unknown>
      ae: 74 66        	<unknown>
      b0: 00 5f        	<unknown>
      b2: 6f 75 74 5f  	jal	a0, 0x47ea8 <__l1_alloc_base+0x255a8>
      b6: 6e 75        	<unknown>
      b8: 6c 6c        	<unknown>
      ba: 00 5f        	<unknown>
      bc: 6e 74        	<unknown>
      be: 6f 61 5f 6c  	jal	sp, 0xf6f82 <__l1_alloc_base+0xd4682>
      c2: 6f 6e 67 00  	jal	t3, 0x760c8 <__l1_alloc_base+0x537c8>
      c6: 5f 6f 75 74  	<unknown>
      ca: 5f 62 75 66  	<unknown>
      ce: 66 65        	<unknown>
      d0: 72 00        	<unknown>
      d2: 5f 6f 75 74  	<unknown>
      d6: 5f 66 63 74  	<unknown>
      da: 00 73        	<unknown>
      dc: 65 72        	<unknown>
      de: 69 61        	<unknown>
      e0: 6c 2e        	<unknown>
      e2: 63 00 73 74  	beq	t1, t2, 0x822 <__l1_start+0x822>
      e6: 72 69        	<unknown>
      e8: 6e 67        	<unknown>
      ea: 2e 63        	<unknown>
      ec: 00 73        	<unknown>
      ee: 79 6e        	<unknown>
      f0: 63 68 72 6f  	bltu	tp, s7, 0x7e0 <__l1_start+0x7e0>
      f4: 6e 69        	<unknown>
      f6: 7a 61        	<unknown>
      f8: 74 69        	<unknown>
      fa: 6f 6e 2e 63  	jal	t3, 0xe672c <__l1_alloc_base+0xc3e2c>
      fe: 00 73        	<unknown>
     100: 74 72        	<unknown>
     102: 63 70 79 00  	bgeu	s2, t2, 0x102 <__l1_start+0x102>
     106: 5f 70 75 74  	<unknown>
     10a: 63 68 61 72  	bltu	sp, t1, 0x83a <__l1_start+0x83a>
     10e: 00 5f        	<unknown>
     110: 5f 6c 32 5f  	<unknown>
     114: 61 6c        	<unknown>
     116: 6c 6f        	<unknown>
     118: 63 5f 62 61  	bge	tp, s6, 0x736 <__l1_start+0x736>
     11c: 73 65 00 5f  	csrrsi	a0, 1520, 0
     120: 5f 67 6c 6f  	<unknown>
     124: 62 61        	<unknown>
     126: 6c 5f        	<unknown>
     128: 70 6f        	<unknown>
     12a: 69 6e        	<unknown>
     12c: 74 65        	<unknown>
     12e: 72 24        	<unknown>
     130: 00 70        	<unknown>
     132: 75 6c        	<unknown>
     134: 70 5f        	<unknown>
     136: 5f 4c 32 00  	<unknown>
     13a: 70 75        	<unknown>
     13c: 6c 70        	<unknown>
     13e: 5f 5f 50 45  	<unknown>
     142: 00 61        	<unknown>
     144: 6c 6c        	<unknown>
     146: 6f 63 5f 64  	jal	t1, 0xf6f8a <__l1_alloc_base+0xd468a>
     14a: 75 6d        	<unknown>
     14c: 70 00        	<unknown>
     14e: 65 6f        	<unknown>
     150: 63 5f 72 65  	bge	tp, s7, 0x7ae <__l1_start+0x7ae>
     154: 67 00 67 65  	jr	1622(a4)
     158: 74 5f        	<unknown>
     15a: 61 6c        	<unknown>
     15c: 6c 6f        	<unknown>
     15e: 63 5f 6c 31  	bge	s8, s6, 0x47c <__l1_start+0x47c>
     162: 00 77        	<unknown>
     164: 61 6b        	<unknown>
     166: 65 5f        	<unknown>
     168: 75 70        	<unknown>
     16a: 5f 74 69 6c  	<unknown>
     16e: 65 5f        	<unknown>
     170: 67 34 5f 72  	<unknown>
     174: 65 67        	<unknown>
     176: 00 61        	<unknown>
     178: 74 6f        	<unknown>
     17a: 6c 00        	<unknown>
     17c: 74 63        	<unknown>
     17e: 64 6d        	<unknown>
     180: 5f 73 74 61  	<unknown>
     184: 72 74        	<unknown>
     186: 5f 61 64 64  	<unknown>
     18a: 72 65        	<unknown>
     18c: 73 73 5f 72  	csrrci	t1, mhpmevent5h, 30
     190: 65 67        	<unknown>
     192: 00 73        	<unknown>
     194: 69 6d        	<unknown>
     196: 70 6c        	<unknown>
     198: 65 5f        	<unknown>
     19a: 66 72        	<unknown>
     19c: 65 65        	<unknown>
     19e: 00 64        	<unknown>
     1a0: 6f 6d 61 69  	jal	s10, 0x16836 <__l1_start+0x16836>
     1a4: 6e 5f        	<unknown>
     1a6: 66 72        	<unknown>
     1a8: 65 65        	<unknown>
     1aa: 00 5f        	<unknown>
     1ac: 65 74        	<unknown>
     1ae: 65 78        	<unknown>
     1b0: 74 00        	<unknown>
     1b2: 72 6f        	<unknown>
     1b4: 5f 63 61 63  	<unknown>
     1b8: 68 65        	<unknown>
     1ba: 5f 65 6e 61  	<unknown>
     1be: 62 6c        	<unknown>
     1c0: 65 00        	<unknown>
     1c2: 77 61 6b 65  	<unknown>
     1c6: 5f 75 70 5f  	<unknown>
     1ca: 74 69        	<unknown>
     1cc: 6c 65        	<unknown>
     1ce: 5f 67 33 5f  	<unknown>
     1d2: 72 65        	<unknown>
     1d4: 67 00 6d 65  	jr	1622(s10)
     1d8: 6d 63        	<unknown>
     1da: 70 79        	<unknown>
     1dc: 00 6e        	<unknown>
     1de: 72 5f        	<unknown>
     1e0: 63 6f 72 65  	bltu	tp, s7, 0x83e <__l1_start+0x83e>
     1e4: 73 5f 61 64  	csrrwi	t5, 1606, 2
     1e8: 64 72        	<unknown>
     1ea: 65 73        	<unknown>
     1ec: 73 5f 72 65  	csrrwi	t5, 1623, 4
     1f0: 67 00 73 70  	jr	1799(t1)
     1f4: 72 69        	<unknown>
     1f6: 6e 74        	<unknown>
     1f8: 66 5f        	<unknown>
     1fa: 00 5f        	<unknown>
     1fc: 5f 73 65 71  	<unknown>
     200: 5f 73 74 61  	<unknown>
     204: 72 74        	<unknown>
     206: 00 5f        	<unknown>
     208: 5f 6c 31 5f  	<unknown>
     20c: 65 6e        	<unknown>
     20e: 64 00        	<unknown>
     210: 77 61 6b 65  	<unknown>
     214: 5f 75 70 5f  	<unknown>
     218: 72 65        	<unknown>
     21a: 67 00 5f 5f  	jr	1525(t5)
     21e: 72 6f        	<unknown>
     220: 6d 5f        	<unknown>
     222: 65 6e        	<unknown>
     224: 64 00        	<unknown>
     226: 77 61 6b 65  	<unknown>
     22a: 5f 75 70 5f  	<unknown>
     22e: 74 69        	<unknown>
     230: 6c 65        	<unknown>
     232: 5f 67 35 5f  	<unknown>
     236: 72 65        	<unknown>
     238: 67 00 5f 5f  	jr	1525(t5)
     23c: 62 73        	<unknown>
     23e: 73 5f 65 6e  	csrrwi	t5, 1766, 10
     242: 64 00        	<unknown>
     244: 72 6f        	<unknown>
     246: 5f 63 61 63  	<unknown>
     24a: 68 65        	<unknown>
     24c: 5f 73 74 61  	<unknown>
     250: 72 74        	<unknown>
     252: 5f 32 00 72  	<unknown>
     256: 6f 5f 63 61  	jal	t5, 0x3586c <__l1_alloc_base+0x12f6c>
     25a: 63 68 65 5f  	bltu	a0, s6, 0x84a <__l1_start+0x84a>
     25e: 65 6e        	<unknown>
     260: 64 5f        	<unknown>
     262: 32 00        	<unknown>
     264: 76 73        	<unknown>
     266: 6e 70        	<unknown>
     268: 72 69        	<unknown>
     26a: 6e 74        	<unknown>
     26c: 66 5f        	<unknown>
     26e: 00 6d        	<unknown>
     270: 65 6d        	<unknown>
     272: 70 6f        	<unknown>
     274: 6f 6c 5f 62  	jal	s8, 0xf7098 <__l1_alloc_base+0xd4798>
     278: 61 72        	<unknown>
     27a: 72 69        	<unknown>
     27c: 65 72        	<unknown>
     27e: 5f 69 6e 69  	<unknown>
     282: 74 00        	<unknown>
     284: 5f 5f 6c 31  	<unknown>
     288: 5f 73 74 61  	<unknown>
     28c: 72 74        	<unknown>
     28e: 00 5f        	<unknown>
     290: 5f 73 74 61  	<unknown>
     294: 63 6b 5f 73  	bltu	t5, s5, 0x9ca <__l1_start+0x9ca>
     298: 74 61        	<unknown>
     29a: 72 74        	<unknown>
     29c: 00 66        	<unknown>
     29e: 63 74 70 72  	bgeu	zero, t2, 0x9c6 <__l1_start+0x9c6>
     2a2: 69 6e        	<unknown>
     2a4: 74 66        	<unknown>
     2a6: 00 64        	<unknown>
     2a8: 6f 6d 61 69  	jal	s10, 0x1693e <__l1_start+0x1693e>
     2ac: 6e 5f        	<unknown>
     2ae: 6d 61        	<unknown>
     2b0: 6c 6c        	<unknown>
     2b2: 6f 63 00 77  	jal	t1, 0x6a22 <__l1_start+0x6a22>
     2b6: 61 6b        	<unknown>
     2b8: 65 5f        	<unknown>
     2ba: 75 70        	<unknown>
     2bc: 5f 74 69 6c  	<unknown>
     2c0: 65 5f        	<unknown>
     2c2: 67 37 5f 72  	<unknown>
     2c6: 65 67        	<unknown>
     2c8: 00 72        	<unknown>
     2ca: 6f 5f 63 61  	jal	t5, 0x358e0 <__l1_alloc_base+0x12fe0>
     2ce: 63 68 65 5f  	bltu	a0, s6, 0x8be <__l1_start+0x8be>
     2d2: 73 74 61 72  	csrrci	s0, mhpmevent6h, 2
     2d6: 74 5f        	<unknown>
     2d8: 33 00 77 61  	<unknown>
     2dc: 6b 65 5f 75  	<unknown>
     2e0: 70 5f        	<unknown>
     2e2: 74 69        	<unknown>
     2e4: 6c 65        	<unknown>
     2e6: 5f 67 31 5f  	<unknown>
     2ea: 72 65        	<unknown>
     2ec: 67 00 6d 65  	jr	1622(s10)
     2f0: 6d 70        	<unknown>
     2f2: 6f 6f 6c 5f  	jal	t5, 0xc68e8 <__l1_alloc_base+0xa3fe8>
     2f6: 62 61        	<unknown>
     2f8: 72 72        	<unknown>
     2fa: 69 65        	<unknown>
     2fc: 72 00        	<unknown>
     2fe: 5f 5f 6c 32  	<unknown>
     302: 5f 73 74 61  	<unknown>
     306: 72 74        	<unknown>
     308: 00 72        	<unknown>
     30a: 6f 5f 63 61  	jal	t5, 0x35920 <__l1_alloc_base+0x13020>
     30e: 63 68 65 5f  	bltu	a0, s6, 0x8fe <__l1_start+0x8fe>
     312: 73 74 61 72  	csrrci	s0, mhpmevent6h, 2
     316: 74 5f        	<unknown>
     318: 30 00        	<unknown>
     31a: 6d 65        	<unknown>
     31c: 6d 63        	<unknown>
     31e: 6d 70        	<unknown>
     320: 00 5f        	<unknown>
     322: 5f 6c 31 5f  	<unknown>
     326: 61 6c        	<unknown>
     328: 6c 6f        	<unknown>
     32a: 63 5f 62 61  	bge	tp, s6, 0x948 <__l1_start+0x948>
     32e: 73 65 00 5f  	csrrsi	a0, 1520, 0
     332: 5f 73 74 61  	<unknown>
     336: 63 6b 5f 65  	bltu	t5, s5, 0x98c <__l1_start+0x98c>
     33a: 6e 64        	<unknown>
     33c: 00 66        	<unknown>
     33e: 61 6b        	<unknown>
     340: 65 5f        	<unknown>
     342: 75 61        	<unknown>
     344: 72 74        	<unknown>
     346: 00 72        	<unknown>
     348: 6f 5f 63 61  	jal	t5, 0x3595e <__l1_alloc_base+0x1305e>
     34c: 63 68 65 5f  	bltu	a0, s6, 0x93c <__l1_start+0x93c>
     350: 65 6e        	<unknown>
     352: 64 5f        	<unknown>
     354: 31 00        	<unknown>
     356: 5f 5f 62 73  	<unknown>
     35a: 73 5f 73 74  	csrrwi	t5, mseccfg, 6
     35e: 61 72        	<unknown>
     360: 74 00        	<unknown>
     362: 6d 65        	<unknown>
     364: 6d 73        	<unknown>
     366: 65 74        	<unknown>
     368: 00 5f        	<unknown>
     36a: 65 6f        	<unknown>
     36c: 63 00 5f 5f  	beq	t5, s5, 0x94c <__l1_start+0x94c>
     370: 73 65 71 5f  	csrrsi	a0, 1527, 2
     374: 65 6e        	<unknown>
     376: 64 00        	<unknown>
     378: 72 6f        	<unknown>
     37a: 5f 63 61 63  	<unknown>
     37e: 68 65        	<unknown>
     380: 5f 65 6e 64  	<unknown>
     384: 5f 33 00 77  	<unknown>
     388: 61 6b        	<unknown>
     38a: 65 5f        	<unknown>
     38c: 75 70        	<unknown>
     38e: 5f 74 69 6c  	<unknown>
     392: 65 5f        	<unknown>
     394: 67 32 5f 72  	<unknown>
     398: 65 67        	<unknown>
     39a: 00 77        	<unknown>
     39c: 61 6b        	<unknown>
     39e: 65 5f        	<unknown>
     3a0: 75 70        	<unknown>
     3a2: 5f 74 69 6c  	<unknown>
     3a6: 65 5f        	<unknown>
     3a8: 67 36 5f 72  	<unknown>
     3ac: 65 67        	<unknown>
     3ae: 00 61        	<unknown>
     3b0: 6c 6c        	<unknown>
     3b2: 6f 63 5f 69  	jal	t1, 0xf7246 <__l1_alloc_base+0xd4946>
     3b6: 6e 69        	<unknown>
     3b8: 74 00        	<unknown>
     3ba: 73 74 72 63  	csrrci	s0, 1591, 4
     3be: 6d 70        	<unknown>
     3c0: 00 5f        	<unknown>
     3c2: 5f 68 65 61  	<unknown>
     3c6: 70 5f        	<unknown>
     3c8: 65 6e        	<unknown>
     3ca: 64 00        	<unknown>
     3cc: 72 6f        	<unknown>
     3ce: 5f 63 61 63  	<unknown>
     3d2: 68 65        	<unknown>
     3d4: 5f 73 74 61  	<unknown>
     3d8: 72 74        	<unknown>
     3da: 5f 31 00 72  	<unknown>
     3de: 6f 5f 63 61  	jal	t5, 0x359f4 <__l1_alloc_base+0x130f4>
     3e2: 63 68 65 5f  	bltu	a0, s6, 0x9d2 <__l1_start+0x9d2>
     3e6: 66 6c        	<unknown>
     3e8: 75 73        	<unknown>
     3ea: 68 00        	<unknown>
     3ec: 72 65        	<unknown>
     3ee: 73 75 6c 74  	csrrci	a0, 1862, 24
     3f2: 00 77        	<unknown>
     3f4: 61 6b        	<unknown>
     3f6: 65 5f        	<unknown>
     3f8: 75 70        	<unknown>
     3fa: 5f 67 72 6f  	<unknown>
     3fe: 75 70        	<unknown>
     400: 5f 72 65 67  	<unknown>
     404: 00 5f        	<unknown>
     406: 5f 68 65 61  	<unknown>
     40a: 70 5f        	<unknown>
     40c: 73 74 61 72  	csrrci	s0, mhpmevent6h, 2
     410: 74 00        	<unknown>
     412: 6c 6f        	<unknown>
     414: 67 5f 62 61  	<unknown>
     418: 72 72        	<unknown>
     41a: 69 65        	<unknown>
     41c: 72 00        	<unknown>
     41e: 67 65 74 5f  	<unknown>
     422: 61 6c        	<unknown>
     424: 6c 6f        	<unknown>
     426: 63 5f 74 69  	bge	s0, s7, 0xac4 <__l1_start+0xac4>
     42a: 6c 65        	<unknown>
     42c: 00 5f        	<unknown>
     42e: 5f 72 6f 6d  	<unknown>
     432: 5f 73 74 61  	<unknown>
     436: 72 74        	<unknown>
     438: 00 70        	<unknown>
     43a: 75 6c        	<unknown>
     43c: 70 5f        	<unknown>
     43e: 5f 46 43 00  	<unknown>
     442: 70 75        	<unknown>
     444: 6c 70        	<unknown>
     446: 5f 5f 4c 31  	<unknown>
     44a: 43 4c 00 73  	<unknown>
     44e: 74 72        	<unknown>
     450: 6c 65        	<unknown>
     452: 6e 00        	<unknown>
     454: 77 61 6b 65  	<unknown>
     458: 5f 75 70 5f  	<unknown>
     45c: 74 69        	<unknown>
     45e: 6c 65        	<unknown>
     460: 5f 67 30 5f  	<unknown>
     464: 72 65        	<unknown>
     466: 67 00 74 63  	jr	1591(s0)
     46a: 64 6d        	<unknown>
     46c: 5f 65 6e 64  	<unknown>
     470: 5f 61 64 64  	<unknown>
     474: 72 65        	<unknown>
     476: 73 73 5f 72  	csrrci	t1, mhpmevent5h, 30
     47a: 65 67        	<unknown>
     47c: 00 5f        	<unknown>
     47e: 5f 6c 32 5f  	<unknown>
     482: 65 6e        	<unknown>
     484: 64 00        	<unknown>
     486: 73 69 6d 70  	csrrsi	s2, 1798, 26
     48a: 6c 65        	<unknown>
     48c: 5f 6d 61 6c  	<unknown>
     490: 6c 6f        	<unknown>
     492: 63 00 70 75  	beq	zero, s7, 0xbd2 <__l1_start+0xbd2>
     496: 6c 70        	<unknown>
     498: 5f 5f 4c 31  	<unknown>
     49c: 46 43        	<unknown>
     49e: 00 70        	<unknown>
     4a0: 61 72        	<unknown>
     4a2: 74 69        	<unknown>
     4a4: 61 6c        	<unknown>
     4a6: 5f 62 61 72  	<unknown>
     4aa: 72 69        	<unknown>
     4ac: 65 72        	<unknown>
     4ae: 00 72        	<unknown>
     4b0: 6f 5f 63 61  	jal	t5, 0x35ac6 <__l1_alloc_base+0x131c6>
     4b4: 63 68 65 5f  	bltu	a0, s6, 0xaa4 <__l1_start+0xaa4>
     4b8: 65 6e        	<unknown>
     4ba: 64 5f        	<unknown>
     4bc: 30 00        	<unknown>
     4be: 5f 65 72 6f  	<unknown>
     4c2: 64 61        	<unknown>
     4c4: 74 61        	<unknown>
     4c6: 00           	<unknown>

Disassembly of section .shstrtab:

00000000 <.shstrtab>:
       0: 00 2e        	<unknown>
       2: 73 79 6d 74  	csrrci	s2, 1862, 26
       6: 61 62        	<unknown>
       8: 00 2e        	<unknown>
       a: 73 74 72 74  	csrrci	s0, mseccfg, 4
       e: 61 62        	<unknown>
      10: 00 2e        	<unknown>
      12: 73 68 73 74  	csrrsi	a6, mseccfg, 6
      16: 72 74        	<unknown>
      18: 61 62        	<unknown>
      1a: 00 2e        	<unknown>
      1c: 6c 31        	<unknown>
      1e: 5f 73 65 71  	<unknown>
      22: 00 2e        	<unknown>
      24: 6c 31        	<unknown>
      26: 00 2e        	<unknown>
      28: 74 65        	<unknown>
      2a: 78 74        	<unknown>
      2c: 00 2e        	<unknown>
      2e: 72 6f        	<unknown>
      30: 64 61        	<unknown>
      32: 74 61        	<unknown>
      34: 00 2e        	<unknown>
      36: 72 6f        	<unknown>
      38: 64 61        	<unknown>
      3a: 74 61        	<unknown>
      3c: 31 00        	<unknown>
      3e: 2e 64        	<unknown>
      40: 61 74        	<unknown>
      42: 61 00        	<unknown>
      44: 2e 73        	<unknown>
      46: 62 73        	<unknown>
      48: 73 00 2e 6c  	<unknown>
      4c: 32 00        	<unknown>
      4e: 2e 63        	<unknown>
      50: 6f 6d 6d 65  	jal	s10, 0xd66a6 <__l1_alloc_base+0xb3da6>
      54: 6e 74        	<unknown>
      56: 00 2e        	<unknown>
      58: 72 69        	<unknown>
      5a: 73 63 76 2e  	csrrsi	t1, 743, 12
      5e: 61 74        	<unknown>
      60: 74 72        	<unknown>
      62: 69 62        	<unknown>
      64: 75 74        	<unknown>
      66: 65 73        	<unknown>
      68: 00 2e        	<unknown>
      6a: 64 65        	<unknown>
      6c: 62 75        	<unknown>
      6e: 67 5f 6c 6f  	<unknown>
      72: 63 6c 69 73  	bltu	s2, s6, 0x7aa <__l1_start+0x7aa>
      76: 74 73        	<unknown>
      78: 00 2e        	<unknown>
      7a: 64 65        	<unknown>
      7c: 62 75        	<unknown>
      7e: 67 5f 61 62  	<unknown>
      82: 62 72        	<unknown>
      84: 65 76        	<unknown>
      86: 00 2e        	<unknown>
      88: 64 65        	<unknown>
      8a: 62 75        	<unknown>
      8c: 67 5f 69 6e  	<unknown>
      90: 66 6f        	<unknown>
      92: 00 2e        	<unknown>
      94: 64 65        	<unknown>
      96: 62 75        	<unknown>
      98: 67 5f 73 74  	<unknown>
      9c: 72 5f        	<unknown>
      9e: 6f 66 66 73  	jal	a2, 0x667d4 <__l1_alloc_base+0x43ed4>
      a2: 65 74        	<unknown>
      a4: 73 00 2e 64  	<unknown>
      a8: 65 62        	<unknown>
      aa: 75 67        	<unknown>
      ac: 5f 73 74 72  	<unknown>
      b0: 00 2e        	<unknown>
      b2: 64 65        	<unknown>
      b4: 62 75        	<unknown>
      b6: 67 5f 61 64  	<unknown>
      ba: 64 72        	<unknown>
      bc: 00 2e        	<unknown>
      be: 64 65        	<unknown>
      c0: 62 75        	<unknown>
      c2: 67 5f 66 72  	<unknown>
      c6: 61 6d        	<unknown>
      c8: 65 00        	<unknown>
      ca: 2e 64        	<unknown>
      cc: 65 62        	<unknown>
      ce: 75 67        	<unknown>
      d0: 5f 6c 69 6e  	<unknown>
      d4: 65 00        	<unknown>
      d6: 2e 64        	<unknown>
      d8: 65 62        	<unknown>
      da: 75 67        	<unknown>
      dc: 5f 6c 69 6e  	<unknown>
      e0: 65 5f        	<unknown>
      e2: 73 74 72 00  	csrrci	s0, 7, 4
      e6: 2e 64        	<unknown>
      e8: 65 62        	<unknown>
      ea: 75 67        	<unknown>
      ec: 5f 72 6e 67  	<unknown>
      f0: 6c 69        	<unknown>
      f2: 73 74 73 00  	csrrci	s0, 7, 6
      f6: 2e 64        	<unknown>
      f8: 65 62        	<unknown>
      fa: 75 67        	<unknown>
      fc: 5f 61 72 61  	<unknown>
     100: 6e 67        	<unknown>
     102: 65 73        	<unknown>
     104: 00           	<unknown>
